ARM GAS  /tmp/ccwtyKYK.s 			page 1


   1              		.cpu cortex-m7
   2              		.eabi_attribute 27, 1
   3              		.eabi_attribute 28, 1
   4              		.eabi_attribute 20, 1
   5              		.eabi_attribute 21, 1
   6              		.eabi_attribute 23, 3
   7              		.eabi_attribute 24, 1
   8              		.eabi_attribute 25, 1
   9              		.eabi_attribute 26, 1
  10              		.eabi_attribute 30, 1
  11              		.eabi_attribute 34, 1
  12              		.eabi_attribute 18, 4
  13              		.file	"ip4_frag.c"
  14              		.text
  15              	.Ltext0:
  16              		.cfi_sections	.debug_frame
  17              		.section	.text.ip_reass_dequeue_datagram,"ax",%progbits
  18              		.align	1
  19              		.arch armv7e-m
  20              		.syntax unified
  21              		.thumb
  22              		.thumb_func
  23              		.fpu fpv5-sp-d16
  25              	ip_reass_dequeue_datagram:
  26              	.LVL0:
  27              	.LFB164:
  28              		.file 1 "Middlewares/Third_Party/LwIP/src/core/ipv4/ip4_frag.c"
   1:Middlewares/Third_Party/LwIP/src/core/ipv4/ip4_frag.c **** /**
   2:Middlewares/Third_Party/LwIP/src/core/ipv4/ip4_frag.c ****  * @file
   3:Middlewares/Third_Party/LwIP/src/core/ipv4/ip4_frag.c ****  * This is the IPv4 packet segmentation and reassembly implementation.
   4:Middlewares/Third_Party/LwIP/src/core/ipv4/ip4_frag.c ****  *
   5:Middlewares/Third_Party/LwIP/src/core/ipv4/ip4_frag.c ****  */
   6:Middlewares/Third_Party/LwIP/src/core/ipv4/ip4_frag.c **** 
   7:Middlewares/Third_Party/LwIP/src/core/ipv4/ip4_frag.c **** /*
   8:Middlewares/Third_Party/LwIP/src/core/ipv4/ip4_frag.c ****  * Copyright (c) 2001-2004 Swedish Institute of Computer Science.
   9:Middlewares/Third_Party/LwIP/src/core/ipv4/ip4_frag.c ****  * All rights reserved.
  10:Middlewares/Third_Party/LwIP/src/core/ipv4/ip4_frag.c ****  *
  11:Middlewares/Third_Party/LwIP/src/core/ipv4/ip4_frag.c ****  * Redistribution and use in source and binary forms, with or without modification,
  12:Middlewares/Third_Party/LwIP/src/core/ipv4/ip4_frag.c ****  * are permitted provided that the following conditions are met:
  13:Middlewares/Third_Party/LwIP/src/core/ipv4/ip4_frag.c ****  *
  14:Middlewares/Third_Party/LwIP/src/core/ipv4/ip4_frag.c ****  * 1. Redistributions of source code must retain the above copyright notice,
  15:Middlewares/Third_Party/LwIP/src/core/ipv4/ip4_frag.c ****  *    this list of conditions and the following disclaimer.
  16:Middlewares/Third_Party/LwIP/src/core/ipv4/ip4_frag.c ****  * 2. Redistributions in binary form must reproduce the above copyright notice,
  17:Middlewares/Third_Party/LwIP/src/core/ipv4/ip4_frag.c ****  *    this list of conditions and the following disclaimer in the documentation
  18:Middlewares/Third_Party/LwIP/src/core/ipv4/ip4_frag.c ****  *    and/or other materials provided with the distribution.
  19:Middlewares/Third_Party/LwIP/src/core/ipv4/ip4_frag.c ****  * 3. The name of the author may not be used to endorse or promote products
  20:Middlewares/Third_Party/LwIP/src/core/ipv4/ip4_frag.c ****  *    derived from this software without specific prior written permission.
  21:Middlewares/Third_Party/LwIP/src/core/ipv4/ip4_frag.c ****  *
  22:Middlewares/Third_Party/LwIP/src/core/ipv4/ip4_frag.c ****  * THIS SOFTWARE IS PROVIDED BY THE AUTHOR ``AS IS'' AND ANY EXPRESS OR IMPLIED
  23:Middlewares/Third_Party/LwIP/src/core/ipv4/ip4_frag.c ****  * WARRANTIES, INCLUDING, BUT NOT LIMITED TO, THE IMPLIED WARRANTIES OF
  24:Middlewares/Third_Party/LwIP/src/core/ipv4/ip4_frag.c ****  * MERCHANTABILITY AND FITNESS FOR A PARTICULAR PURPOSE ARE DISCLAIMED. IN NO EVENT
  25:Middlewares/Third_Party/LwIP/src/core/ipv4/ip4_frag.c ****  * SHALL THE AUTHOR BE LIABLE FOR ANY DIRECT, INDIRECT, INCIDENTAL, SPECIAL,
  26:Middlewares/Third_Party/LwIP/src/core/ipv4/ip4_frag.c ****  * EXEMPLARY, OR CONSEQUENTIAL DAMAGES (INCLUDING, BUT NOT LIMITED TO, PROCUREMENT
  27:Middlewares/Third_Party/LwIP/src/core/ipv4/ip4_frag.c ****  * OF SUBSTITUTE GOODS OR SERVICES; LOSS OF USE, DATA, OR PROFITS; OR BUSINESS
  28:Middlewares/Third_Party/LwIP/src/core/ipv4/ip4_frag.c ****  * INTERRUPTION) HOWEVER CAUSED AND ON ANY THEORY OF LIABILITY, WHETHER IN
  29:Middlewares/Third_Party/LwIP/src/core/ipv4/ip4_frag.c ****  * CONTRACT, STRICT LIABILITY, OR TORT (INCLUDING NEGLIGENCE OR OTHERWISE) ARISING
  30:Middlewares/Third_Party/LwIP/src/core/ipv4/ip4_frag.c ****  * IN ANY WAY OUT OF THE USE OF THIS SOFTWARE, EVEN IF ADVISED OF THE POSSIBILITY
ARM GAS  /tmp/ccwtyKYK.s 			page 2


  31:Middlewares/Third_Party/LwIP/src/core/ipv4/ip4_frag.c ****  * OF SUCH DAMAGE.
  32:Middlewares/Third_Party/LwIP/src/core/ipv4/ip4_frag.c ****  *
  33:Middlewares/Third_Party/LwIP/src/core/ipv4/ip4_frag.c ****  * This file is part of the lwIP TCP/IP stack.
  34:Middlewares/Third_Party/LwIP/src/core/ipv4/ip4_frag.c ****  *
  35:Middlewares/Third_Party/LwIP/src/core/ipv4/ip4_frag.c ****  * Author: Jani Monoses <jani@iv.ro>
  36:Middlewares/Third_Party/LwIP/src/core/ipv4/ip4_frag.c ****  *         Simon Goldschmidt
  37:Middlewares/Third_Party/LwIP/src/core/ipv4/ip4_frag.c ****  * original reassembly code by Adam Dunkels <adam@sics.se>
  38:Middlewares/Third_Party/LwIP/src/core/ipv4/ip4_frag.c ****  *
  39:Middlewares/Third_Party/LwIP/src/core/ipv4/ip4_frag.c ****  */
  40:Middlewares/Third_Party/LwIP/src/core/ipv4/ip4_frag.c **** 
  41:Middlewares/Third_Party/LwIP/src/core/ipv4/ip4_frag.c **** #include "lwip/opt.h"
  42:Middlewares/Third_Party/LwIP/src/core/ipv4/ip4_frag.c **** 
  43:Middlewares/Third_Party/LwIP/src/core/ipv4/ip4_frag.c **** #if LWIP_IPV4
  44:Middlewares/Third_Party/LwIP/src/core/ipv4/ip4_frag.c **** 
  45:Middlewares/Third_Party/LwIP/src/core/ipv4/ip4_frag.c **** #include "lwip/ip4_frag.h"
  46:Middlewares/Third_Party/LwIP/src/core/ipv4/ip4_frag.c **** #include "lwip/def.h"
  47:Middlewares/Third_Party/LwIP/src/core/ipv4/ip4_frag.c **** #include "lwip/inet_chksum.h"
  48:Middlewares/Third_Party/LwIP/src/core/ipv4/ip4_frag.c **** #include "lwip/netif.h"
  49:Middlewares/Third_Party/LwIP/src/core/ipv4/ip4_frag.c **** #include "lwip/stats.h"
  50:Middlewares/Third_Party/LwIP/src/core/ipv4/ip4_frag.c **** #include "lwip/icmp.h"
  51:Middlewares/Third_Party/LwIP/src/core/ipv4/ip4_frag.c **** 
  52:Middlewares/Third_Party/LwIP/src/core/ipv4/ip4_frag.c **** #include <string.h>
  53:Middlewares/Third_Party/LwIP/src/core/ipv4/ip4_frag.c **** 
  54:Middlewares/Third_Party/LwIP/src/core/ipv4/ip4_frag.c **** #if IP_REASSEMBLY
  55:Middlewares/Third_Party/LwIP/src/core/ipv4/ip4_frag.c **** /**
  56:Middlewares/Third_Party/LwIP/src/core/ipv4/ip4_frag.c ****  * The IP reassembly code currently has the following limitations:
  57:Middlewares/Third_Party/LwIP/src/core/ipv4/ip4_frag.c ****  * - IP header options are not supported
  58:Middlewares/Third_Party/LwIP/src/core/ipv4/ip4_frag.c ****  * - fragments must not overlap (e.g. due to different routes),
  59:Middlewares/Third_Party/LwIP/src/core/ipv4/ip4_frag.c ****  *   currently, overlapping or duplicate fragments are thrown away
  60:Middlewares/Third_Party/LwIP/src/core/ipv4/ip4_frag.c ****  *   if IP_REASS_CHECK_OVERLAP=1 (the default)!
  61:Middlewares/Third_Party/LwIP/src/core/ipv4/ip4_frag.c ****  *
  62:Middlewares/Third_Party/LwIP/src/core/ipv4/ip4_frag.c ****  * @todo: work with IP header options
  63:Middlewares/Third_Party/LwIP/src/core/ipv4/ip4_frag.c ****  */
  64:Middlewares/Third_Party/LwIP/src/core/ipv4/ip4_frag.c **** 
  65:Middlewares/Third_Party/LwIP/src/core/ipv4/ip4_frag.c **** /** Setting this to 0, you can turn off checking the fragments for overlapping
  66:Middlewares/Third_Party/LwIP/src/core/ipv4/ip4_frag.c ****  * regions. The code gets a little smaller. Only use this if you know that
  67:Middlewares/Third_Party/LwIP/src/core/ipv4/ip4_frag.c ****  * overlapping won't occur on your network! */
  68:Middlewares/Third_Party/LwIP/src/core/ipv4/ip4_frag.c **** #ifndef IP_REASS_CHECK_OVERLAP
  69:Middlewares/Third_Party/LwIP/src/core/ipv4/ip4_frag.c **** #define IP_REASS_CHECK_OVERLAP 1
  70:Middlewares/Third_Party/LwIP/src/core/ipv4/ip4_frag.c **** #endif /* IP_REASS_CHECK_OVERLAP */
  71:Middlewares/Third_Party/LwIP/src/core/ipv4/ip4_frag.c **** 
  72:Middlewares/Third_Party/LwIP/src/core/ipv4/ip4_frag.c **** /** Set to 0 to prevent freeing the oldest datagram when the reassembly buffer is
  73:Middlewares/Third_Party/LwIP/src/core/ipv4/ip4_frag.c ****  * full (IP_REASS_MAX_PBUFS pbufs are enqueued). The code gets a little smaller.
  74:Middlewares/Third_Party/LwIP/src/core/ipv4/ip4_frag.c ****  * Datagrams will be freed by timeout only. Especially useful when MEMP_NUM_REASSDATA
  75:Middlewares/Third_Party/LwIP/src/core/ipv4/ip4_frag.c ****  * is set to 1, so one datagram can be reassembled at a time, only. */
  76:Middlewares/Third_Party/LwIP/src/core/ipv4/ip4_frag.c **** #ifndef IP_REASS_FREE_OLDEST
  77:Middlewares/Third_Party/LwIP/src/core/ipv4/ip4_frag.c **** #define IP_REASS_FREE_OLDEST 1
  78:Middlewares/Third_Party/LwIP/src/core/ipv4/ip4_frag.c **** #endif /* IP_REASS_FREE_OLDEST */
  79:Middlewares/Third_Party/LwIP/src/core/ipv4/ip4_frag.c **** 
  80:Middlewares/Third_Party/LwIP/src/core/ipv4/ip4_frag.c **** #define IP_REASS_FLAG_LASTFRAG 0x01
  81:Middlewares/Third_Party/LwIP/src/core/ipv4/ip4_frag.c **** 
  82:Middlewares/Third_Party/LwIP/src/core/ipv4/ip4_frag.c **** #define IP_REASS_VALIDATE_TELEGRAM_FINISHED  1
  83:Middlewares/Third_Party/LwIP/src/core/ipv4/ip4_frag.c **** #define IP_REASS_VALIDATE_PBUF_QUEUED        0
  84:Middlewares/Third_Party/LwIP/src/core/ipv4/ip4_frag.c **** #define IP_REASS_VALIDATE_PBUF_DROPPED       -1
  85:Middlewares/Third_Party/LwIP/src/core/ipv4/ip4_frag.c **** 
  86:Middlewares/Third_Party/LwIP/src/core/ipv4/ip4_frag.c **** /** This is a helper struct which holds the starting
  87:Middlewares/Third_Party/LwIP/src/core/ipv4/ip4_frag.c ****  * offset and the ending offset of this fragment to
ARM GAS  /tmp/ccwtyKYK.s 			page 3


  88:Middlewares/Third_Party/LwIP/src/core/ipv4/ip4_frag.c ****  * easily chain the fragments.
  89:Middlewares/Third_Party/LwIP/src/core/ipv4/ip4_frag.c ****  * It has the same packing requirements as the IP header, since it replaces
  90:Middlewares/Third_Party/LwIP/src/core/ipv4/ip4_frag.c ****  * the IP header in memory in incoming fragments (after copying it) to keep
  91:Middlewares/Third_Party/LwIP/src/core/ipv4/ip4_frag.c ****  * track of the various fragments. (-> If the IP header doesn't need packing,
  92:Middlewares/Third_Party/LwIP/src/core/ipv4/ip4_frag.c ****  * this struct doesn't need packing, too.)
  93:Middlewares/Third_Party/LwIP/src/core/ipv4/ip4_frag.c ****  */
  94:Middlewares/Third_Party/LwIP/src/core/ipv4/ip4_frag.c **** #ifdef PACK_STRUCT_USE_INCLUDES
  95:Middlewares/Third_Party/LwIP/src/core/ipv4/ip4_frag.c **** #  include "arch/bpstruct.h"
  96:Middlewares/Third_Party/LwIP/src/core/ipv4/ip4_frag.c **** #endif
  97:Middlewares/Third_Party/LwIP/src/core/ipv4/ip4_frag.c **** PACK_STRUCT_BEGIN
  98:Middlewares/Third_Party/LwIP/src/core/ipv4/ip4_frag.c **** struct ip_reass_helper {
  99:Middlewares/Third_Party/LwIP/src/core/ipv4/ip4_frag.c ****   PACK_STRUCT_FIELD(struct pbuf *next_pbuf);
 100:Middlewares/Third_Party/LwIP/src/core/ipv4/ip4_frag.c ****   PACK_STRUCT_FIELD(u16_t start);
 101:Middlewares/Third_Party/LwIP/src/core/ipv4/ip4_frag.c ****   PACK_STRUCT_FIELD(u16_t end);
 102:Middlewares/Third_Party/LwIP/src/core/ipv4/ip4_frag.c **** } PACK_STRUCT_STRUCT;
 103:Middlewares/Third_Party/LwIP/src/core/ipv4/ip4_frag.c **** PACK_STRUCT_END
 104:Middlewares/Third_Party/LwIP/src/core/ipv4/ip4_frag.c **** #ifdef PACK_STRUCT_USE_INCLUDES
 105:Middlewares/Third_Party/LwIP/src/core/ipv4/ip4_frag.c **** #  include "arch/epstruct.h"
 106:Middlewares/Third_Party/LwIP/src/core/ipv4/ip4_frag.c **** #endif
 107:Middlewares/Third_Party/LwIP/src/core/ipv4/ip4_frag.c **** 
 108:Middlewares/Third_Party/LwIP/src/core/ipv4/ip4_frag.c **** #define IP_ADDRESSES_AND_ID_MATCH(iphdrA, iphdrB)  \
 109:Middlewares/Third_Party/LwIP/src/core/ipv4/ip4_frag.c ****   (ip4_addr_cmp(&(iphdrA)->src, &(iphdrB)->src) && \
 110:Middlewares/Third_Party/LwIP/src/core/ipv4/ip4_frag.c ****    ip4_addr_cmp(&(iphdrA)->dest, &(iphdrB)->dest) && \
 111:Middlewares/Third_Party/LwIP/src/core/ipv4/ip4_frag.c ****    IPH_ID(iphdrA) == IPH_ID(iphdrB)) ? 1 : 0
 112:Middlewares/Third_Party/LwIP/src/core/ipv4/ip4_frag.c **** 
 113:Middlewares/Third_Party/LwIP/src/core/ipv4/ip4_frag.c **** /* global variables */
 114:Middlewares/Third_Party/LwIP/src/core/ipv4/ip4_frag.c **** static struct ip_reassdata *reassdatagrams;
 115:Middlewares/Third_Party/LwIP/src/core/ipv4/ip4_frag.c **** static u16_t ip_reass_pbufcount;
 116:Middlewares/Third_Party/LwIP/src/core/ipv4/ip4_frag.c **** 
 117:Middlewares/Third_Party/LwIP/src/core/ipv4/ip4_frag.c **** /* function prototypes */
 118:Middlewares/Third_Party/LwIP/src/core/ipv4/ip4_frag.c **** static void ip_reass_dequeue_datagram(struct ip_reassdata *ipr, struct ip_reassdata *prev);
 119:Middlewares/Third_Party/LwIP/src/core/ipv4/ip4_frag.c **** static int ip_reass_free_complete_datagram(struct ip_reassdata *ipr, struct ip_reassdata *prev);
 120:Middlewares/Third_Party/LwIP/src/core/ipv4/ip4_frag.c **** 
 121:Middlewares/Third_Party/LwIP/src/core/ipv4/ip4_frag.c **** /**
 122:Middlewares/Third_Party/LwIP/src/core/ipv4/ip4_frag.c ****  * Reassembly timer base function
 123:Middlewares/Third_Party/LwIP/src/core/ipv4/ip4_frag.c ****  * for both NO_SYS == 0 and 1 (!).
 124:Middlewares/Third_Party/LwIP/src/core/ipv4/ip4_frag.c ****  *
 125:Middlewares/Third_Party/LwIP/src/core/ipv4/ip4_frag.c ****  * Should be called every 1000 msec (defined by IP_TMR_INTERVAL).
 126:Middlewares/Third_Party/LwIP/src/core/ipv4/ip4_frag.c ****  */
 127:Middlewares/Third_Party/LwIP/src/core/ipv4/ip4_frag.c **** void
 128:Middlewares/Third_Party/LwIP/src/core/ipv4/ip4_frag.c **** ip_reass_tmr(void)
 129:Middlewares/Third_Party/LwIP/src/core/ipv4/ip4_frag.c **** {
 130:Middlewares/Third_Party/LwIP/src/core/ipv4/ip4_frag.c ****   struct ip_reassdata *r, *prev = NULL;
 131:Middlewares/Third_Party/LwIP/src/core/ipv4/ip4_frag.c **** 
 132:Middlewares/Third_Party/LwIP/src/core/ipv4/ip4_frag.c ****   r = reassdatagrams;
 133:Middlewares/Third_Party/LwIP/src/core/ipv4/ip4_frag.c ****   while (r != NULL) {
 134:Middlewares/Third_Party/LwIP/src/core/ipv4/ip4_frag.c ****     /* Decrement the timer. Once it reaches 0,
 135:Middlewares/Third_Party/LwIP/src/core/ipv4/ip4_frag.c ****      * clean up the incomplete fragment assembly */
 136:Middlewares/Third_Party/LwIP/src/core/ipv4/ip4_frag.c ****     if (r->timer > 0) {
 137:Middlewares/Third_Party/LwIP/src/core/ipv4/ip4_frag.c ****       r->timer--;
 138:Middlewares/Third_Party/LwIP/src/core/ipv4/ip4_frag.c ****       LWIP_DEBUGF(IP_REASS_DEBUG, ("ip_reass_tmr: timer dec %"U16_F"\n",(u16_t)r->timer));
 139:Middlewares/Third_Party/LwIP/src/core/ipv4/ip4_frag.c ****       prev = r;
 140:Middlewares/Third_Party/LwIP/src/core/ipv4/ip4_frag.c ****       r = r->next;
 141:Middlewares/Third_Party/LwIP/src/core/ipv4/ip4_frag.c ****     } else {
 142:Middlewares/Third_Party/LwIP/src/core/ipv4/ip4_frag.c ****       /* reassembly timed out */
 143:Middlewares/Third_Party/LwIP/src/core/ipv4/ip4_frag.c ****       struct ip_reassdata *tmp;
 144:Middlewares/Third_Party/LwIP/src/core/ipv4/ip4_frag.c ****       LWIP_DEBUGF(IP_REASS_DEBUG, ("ip_reass_tmr: timer timed out\n"));
ARM GAS  /tmp/ccwtyKYK.s 			page 4


 145:Middlewares/Third_Party/LwIP/src/core/ipv4/ip4_frag.c ****       tmp = r;
 146:Middlewares/Third_Party/LwIP/src/core/ipv4/ip4_frag.c ****       /* get the next pointer before freeing */
 147:Middlewares/Third_Party/LwIP/src/core/ipv4/ip4_frag.c ****       r = r->next;
 148:Middlewares/Third_Party/LwIP/src/core/ipv4/ip4_frag.c ****       /* free the helper struct and all enqueued pbufs */
 149:Middlewares/Third_Party/LwIP/src/core/ipv4/ip4_frag.c ****       ip_reass_free_complete_datagram(tmp, prev);
 150:Middlewares/Third_Party/LwIP/src/core/ipv4/ip4_frag.c ****      }
 151:Middlewares/Third_Party/LwIP/src/core/ipv4/ip4_frag.c ****    }
 152:Middlewares/Third_Party/LwIP/src/core/ipv4/ip4_frag.c **** }
 153:Middlewares/Third_Party/LwIP/src/core/ipv4/ip4_frag.c **** 
 154:Middlewares/Third_Party/LwIP/src/core/ipv4/ip4_frag.c **** /**
 155:Middlewares/Third_Party/LwIP/src/core/ipv4/ip4_frag.c ****  * Free a datagram (struct ip_reassdata) and all its pbufs.
 156:Middlewares/Third_Party/LwIP/src/core/ipv4/ip4_frag.c ****  * Updates the total count of enqueued pbufs (ip_reass_pbufcount),
 157:Middlewares/Third_Party/LwIP/src/core/ipv4/ip4_frag.c ****  * SNMP counters and sends an ICMP time exceeded packet.
 158:Middlewares/Third_Party/LwIP/src/core/ipv4/ip4_frag.c ****  *
 159:Middlewares/Third_Party/LwIP/src/core/ipv4/ip4_frag.c ****  * @param ipr datagram to free
 160:Middlewares/Third_Party/LwIP/src/core/ipv4/ip4_frag.c ****  * @param prev the previous datagram in the linked list
 161:Middlewares/Third_Party/LwIP/src/core/ipv4/ip4_frag.c ****  * @return the number of pbufs freed
 162:Middlewares/Third_Party/LwIP/src/core/ipv4/ip4_frag.c ****  */
 163:Middlewares/Third_Party/LwIP/src/core/ipv4/ip4_frag.c **** static int
 164:Middlewares/Third_Party/LwIP/src/core/ipv4/ip4_frag.c **** ip_reass_free_complete_datagram(struct ip_reassdata *ipr, struct ip_reassdata *prev)
 165:Middlewares/Third_Party/LwIP/src/core/ipv4/ip4_frag.c **** {
 166:Middlewares/Third_Party/LwIP/src/core/ipv4/ip4_frag.c ****   u16_t pbufs_freed = 0;
 167:Middlewares/Third_Party/LwIP/src/core/ipv4/ip4_frag.c ****   u16_t clen;
 168:Middlewares/Third_Party/LwIP/src/core/ipv4/ip4_frag.c ****   struct pbuf *p;
 169:Middlewares/Third_Party/LwIP/src/core/ipv4/ip4_frag.c ****   struct ip_reass_helper *iprh;
 170:Middlewares/Third_Party/LwIP/src/core/ipv4/ip4_frag.c **** 
 171:Middlewares/Third_Party/LwIP/src/core/ipv4/ip4_frag.c ****   LWIP_ASSERT("prev != ipr", prev != ipr);
 172:Middlewares/Third_Party/LwIP/src/core/ipv4/ip4_frag.c ****   if (prev != NULL) {
 173:Middlewares/Third_Party/LwIP/src/core/ipv4/ip4_frag.c ****     LWIP_ASSERT("prev->next == ipr", prev->next == ipr);
 174:Middlewares/Third_Party/LwIP/src/core/ipv4/ip4_frag.c ****   }
 175:Middlewares/Third_Party/LwIP/src/core/ipv4/ip4_frag.c **** 
 176:Middlewares/Third_Party/LwIP/src/core/ipv4/ip4_frag.c ****   MIB2_STATS_INC(mib2.ipreasmfails);
 177:Middlewares/Third_Party/LwIP/src/core/ipv4/ip4_frag.c **** #if LWIP_ICMP
 178:Middlewares/Third_Party/LwIP/src/core/ipv4/ip4_frag.c ****   iprh = (struct ip_reass_helper *)ipr->p->payload;
 179:Middlewares/Third_Party/LwIP/src/core/ipv4/ip4_frag.c ****   if (iprh->start == 0) {
 180:Middlewares/Third_Party/LwIP/src/core/ipv4/ip4_frag.c ****     /* The first fragment was received, send ICMP time exceeded. */
 181:Middlewares/Third_Party/LwIP/src/core/ipv4/ip4_frag.c ****     /* First, de-queue the first pbuf from r->p. */
 182:Middlewares/Third_Party/LwIP/src/core/ipv4/ip4_frag.c ****     p = ipr->p;
 183:Middlewares/Third_Party/LwIP/src/core/ipv4/ip4_frag.c ****     ipr->p = iprh->next_pbuf;
 184:Middlewares/Third_Party/LwIP/src/core/ipv4/ip4_frag.c ****     /* Then, copy the original header into it. */
 185:Middlewares/Third_Party/LwIP/src/core/ipv4/ip4_frag.c ****     SMEMCPY(p->payload, &ipr->iphdr, IP_HLEN);
 186:Middlewares/Third_Party/LwIP/src/core/ipv4/ip4_frag.c ****     icmp_time_exceeded(p, ICMP_TE_FRAG);
 187:Middlewares/Third_Party/LwIP/src/core/ipv4/ip4_frag.c ****     clen = pbuf_clen(p);
 188:Middlewares/Third_Party/LwIP/src/core/ipv4/ip4_frag.c ****     LWIP_ASSERT("pbufs_freed + clen <= 0xffff", pbufs_freed + clen <= 0xffff);
 189:Middlewares/Third_Party/LwIP/src/core/ipv4/ip4_frag.c ****     pbufs_freed += clen;
 190:Middlewares/Third_Party/LwIP/src/core/ipv4/ip4_frag.c ****     pbuf_free(p);
 191:Middlewares/Third_Party/LwIP/src/core/ipv4/ip4_frag.c ****   }
 192:Middlewares/Third_Party/LwIP/src/core/ipv4/ip4_frag.c **** #endif /* LWIP_ICMP */
 193:Middlewares/Third_Party/LwIP/src/core/ipv4/ip4_frag.c **** 
 194:Middlewares/Third_Party/LwIP/src/core/ipv4/ip4_frag.c ****   /* First, free all received pbufs.  The individual pbufs need to be released
 195:Middlewares/Third_Party/LwIP/src/core/ipv4/ip4_frag.c ****      separately as they have not yet been chained */
 196:Middlewares/Third_Party/LwIP/src/core/ipv4/ip4_frag.c ****   p = ipr->p;
 197:Middlewares/Third_Party/LwIP/src/core/ipv4/ip4_frag.c ****   while (p != NULL) {
 198:Middlewares/Third_Party/LwIP/src/core/ipv4/ip4_frag.c ****     struct pbuf *pcur;
 199:Middlewares/Third_Party/LwIP/src/core/ipv4/ip4_frag.c ****     iprh = (struct ip_reass_helper *)p->payload;
 200:Middlewares/Third_Party/LwIP/src/core/ipv4/ip4_frag.c ****     pcur = p;
 201:Middlewares/Third_Party/LwIP/src/core/ipv4/ip4_frag.c ****     /* get the next pointer before freeing */
ARM GAS  /tmp/ccwtyKYK.s 			page 5


 202:Middlewares/Third_Party/LwIP/src/core/ipv4/ip4_frag.c ****     p = iprh->next_pbuf;
 203:Middlewares/Third_Party/LwIP/src/core/ipv4/ip4_frag.c ****     clen = pbuf_clen(pcur);
 204:Middlewares/Third_Party/LwIP/src/core/ipv4/ip4_frag.c ****     LWIP_ASSERT("pbufs_freed + clen <= 0xffff", pbufs_freed + clen <= 0xffff);
 205:Middlewares/Third_Party/LwIP/src/core/ipv4/ip4_frag.c ****     pbufs_freed += clen;
 206:Middlewares/Third_Party/LwIP/src/core/ipv4/ip4_frag.c ****     pbuf_free(pcur);
 207:Middlewares/Third_Party/LwIP/src/core/ipv4/ip4_frag.c ****   }
 208:Middlewares/Third_Party/LwIP/src/core/ipv4/ip4_frag.c ****   /* Then, unchain the struct ip_reassdata from the list and free it. */
 209:Middlewares/Third_Party/LwIP/src/core/ipv4/ip4_frag.c ****   ip_reass_dequeue_datagram(ipr, prev);
 210:Middlewares/Third_Party/LwIP/src/core/ipv4/ip4_frag.c ****   LWIP_ASSERT("ip_reass_pbufcount >= clen", ip_reass_pbufcount >= pbufs_freed);
 211:Middlewares/Third_Party/LwIP/src/core/ipv4/ip4_frag.c ****   ip_reass_pbufcount -= pbufs_freed;
 212:Middlewares/Third_Party/LwIP/src/core/ipv4/ip4_frag.c **** 
 213:Middlewares/Third_Party/LwIP/src/core/ipv4/ip4_frag.c ****   return pbufs_freed;
 214:Middlewares/Third_Party/LwIP/src/core/ipv4/ip4_frag.c **** }
 215:Middlewares/Third_Party/LwIP/src/core/ipv4/ip4_frag.c **** 
 216:Middlewares/Third_Party/LwIP/src/core/ipv4/ip4_frag.c **** #if IP_REASS_FREE_OLDEST
 217:Middlewares/Third_Party/LwIP/src/core/ipv4/ip4_frag.c **** /**
 218:Middlewares/Third_Party/LwIP/src/core/ipv4/ip4_frag.c ****  * Free the oldest datagram to make room for enqueueing new fragments.
 219:Middlewares/Third_Party/LwIP/src/core/ipv4/ip4_frag.c ****  * The datagram 'fraghdr' belongs to is not freed!
 220:Middlewares/Third_Party/LwIP/src/core/ipv4/ip4_frag.c ****  *
 221:Middlewares/Third_Party/LwIP/src/core/ipv4/ip4_frag.c ****  * @param fraghdr IP header of the current fragment
 222:Middlewares/Third_Party/LwIP/src/core/ipv4/ip4_frag.c ****  * @param pbufs_needed number of pbufs needed to enqueue
 223:Middlewares/Third_Party/LwIP/src/core/ipv4/ip4_frag.c ****  *        (used for freeing other datagrams if not enough space)
 224:Middlewares/Third_Party/LwIP/src/core/ipv4/ip4_frag.c ****  * @return the number of pbufs freed
 225:Middlewares/Third_Party/LwIP/src/core/ipv4/ip4_frag.c ****  */
 226:Middlewares/Third_Party/LwIP/src/core/ipv4/ip4_frag.c **** static int
 227:Middlewares/Third_Party/LwIP/src/core/ipv4/ip4_frag.c **** ip_reass_remove_oldest_datagram(struct ip_hdr *fraghdr, int pbufs_needed)
 228:Middlewares/Third_Party/LwIP/src/core/ipv4/ip4_frag.c **** {
 229:Middlewares/Third_Party/LwIP/src/core/ipv4/ip4_frag.c ****   /* @todo Can't we simply remove the last datagram in the
 230:Middlewares/Third_Party/LwIP/src/core/ipv4/ip4_frag.c ****    *       linked list behind reassdatagrams?
 231:Middlewares/Third_Party/LwIP/src/core/ipv4/ip4_frag.c ****    */
 232:Middlewares/Third_Party/LwIP/src/core/ipv4/ip4_frag.c ****   struct ip_reassdata *r, *oldest, *prev, *oldest_prev;
 233:Middlewares/Third_Party/LwIP/src/core/ipv4/ip4_frag.c ****   int pbufs_freed = 0, pbufs_freed_current;
 234:Middlewares/Third_Party/LwIP/src/core/ipv4/ip4_frag.c ****   int other_datagrams;
 235:Middlewares/Third_Party/LwIP/src/core/ipv4/ip4_frag.c **** 
 236:Middlewares/Third_Party/LwIP/src/core/ipv4/ip4_frag.c ****   /* Free datagrams until being allowed to enqueue 'pbufs_needed' pbufs,
 237:Middlewares/Third_Party/LwIP/src/core/ipv4/ip4_frag.c ****    * but don't free the datagram that 'fraghdr' belongs to! */
 238:Middlewares/Third_Party/LwIP/src/core/ipv4/ip4_frag.c ****   do {
 239:Middlewares/Third_Party/LwIP/src/core/ipv4/ip4_frag.c ****     oldest = NULL;
 240:Middlewares/Third_Party/LwIP/src/core/ipv4/ip4_frag.c ****     prev = NULL;
 241:Middlewares/Third_Party/LwIP/src/core/ipv4/ip4_frag.c ****     oldest_prev = NULL;
 242:Middlewares/Third_Party/LwIP/src/core/ipv4/ip4_frag.c ****     other_datagrams = 0;
 243:Middlewares/Third_Party/LwIP/src/core/ipv4/ip4_frag.c ****     r = reassdatagrams;
 244:Middlewares/Third_Party/LwIP/src/core/ipv4/ip4_frag.c ****     while (r != NULL) {
 245:Middlewares/Third_Party/LwIP/src/core/ipv4/ip4_frag.c ****       if (!IP_ADDRESSES_AND_ID_MATCH(&r->iphdr, fraghdr)) {
 246:Middlewares/Third_Party/LwIP/src/core/ipv4/ip4_frag.c ****         /* Not the same datagram as fraghdr */
 247:Middlewares/Third_Party/LwIP/src/core/ipv4/ip4_frag.c ****         other_datagrams++;
 248:Middlewares/Third_Party/LwIP/src/core/ipv4/ip4_frag.c ****         if (oldest == NULL) {
 249:Middlewares/Third_Party/LwIP/src/core/ipv4/ip4_frag.c ****           oldest = r;
 250:Middlewares/Third_Party/LwIP/src/core/ipv4/ip4_frag.c ****           oldest_prev = prev;
 251:Middlewares/Third_Party/LwIP/src/core/ipv4/ip4_frag.c ****         } else if (r->timer <= oldest->timer) {
 252:Middlewares/Third_Party/LwIP/src/core/ipv4/ip4_frag.c ****           /* older than the previous oldest */
 253:Middlewares/Third_Party/LwIP/src/core/ipv4/ip4_frag.c ****           oldest = r;
 254:Middlewares/Third_Party/LwIP/src/core/ipv4/ip4_frag.c ****           oldest_prev = prev;
 255:Middlewares/Third_Party/LwIP/src/core/ipv4/ip4_frag.c ****         }
 256:Middlewares/Third_Party/LwIP/src/core/ipv4/ip4_frag.c ****       }
 257:Middlewares/Third_Party/LwIP/src/core/ipv4/ip4_frag.c ****       if (r->next != NULL) {
 258:Middlewares/Third_Party/LwIP/src/core/ipv4/ip4_frag.c ****         prev = r;
ARM GAS  /tmp/ccwtyKYK.s 			page 6


 259:Middlewares/Third_Party/LwIP/src/core/ipv4/ip4_frag.c ****       }
 260:Middlewares/Third_Party/LwIP/src/core/ipv4/ip4_frag.c ****       r = r->next;
 261:Middlewares/Third_Party/LwIP/src/core/ipv4/ip4_frag.c ****     }
 262:Middlewares/Third_Party/LwIP/src/core/ipv4/ip4_frag.c ****     if (oldest != NULL) {
 263:Middlewares/Third_Party/LwIP/src/core/ipv4/ip4_frag.c ****       pbufs_freed_current = ip_reass_free_complete_datagram(oldest, oldest_prev);
 264:Middlewares/Third_Party/LwIP/src/core/ipv4/ip4_frag.c ****       pbufs_freed += pbufs_freed_current;
 265:Middlewares/Third_Party/LwIP/src/core/ipv4/ip4_frag.c ****     }
 266:Middlewares/Third_Party/LwIP/src/core/ipv4/ip4_frag.c ****   } while ((pbufs_freed < pbufs_needed) && (other_datagrams > 1));
 267:Middlewares/Third_Party/LwIP/src/core/ipv4/ip4_frag.c ****   return pbufs_freed;
 268:Middlewares/Third_Party/LwIP/src/core/ipv4/ip4_frag.c **** }
 269:Middlewares/Third_Party/LwIP/src/core/ipv4/ip4_frag.c **** #endif /* IP_REASS_FREE_OLDEST */
 270:Middlewares/Third_Party/LwIP/src/core/ipv4/ip4_frag.c **** 
 271:Middlewares/Third_Party/LwIP/src/core/ipv4/ip4_frag.c **** /**
 272:Middlewares/Third_Party/LwIP/src/core/ipv4/ip4_frag.c ****  * Enqueues a new fragment into the fragment queue
 273:Middlewares/Third_Party/LwIP/src/core/ipv4/ip4_frag.c ****  * @param fraghdr points to the new fragments IP hdr
 274:Middlewares/Third_Party/LwIP/src/core/ipv4/ip4_frag.c ****  * @param clen number of pbufs needed to enqueue (used for freeing other datagrams if not enough sp
 275:Middlewares/Third_Party/LwIP/src/core/ipv4/ip4_frag.c ****  * @return A pointer to the queue location into which the fragment was enqueued
 276:Middlewares/Third_Party/LwIP/src/core/ipv4/ip4_frag.c ****  */
 277:Middlewares/Third_Party/LwIP/src/core/ipv4/ip4_frag.c **** static struct ip_reassdata*
 278:Middlewares/Third_Party/LwIP/src/core/ipv4/ip4_frag.c **** ip_reass_enqueue_new_datagram(struct ip_hdr *fraghdr, int clen)
 279:Middlewares/Third_Party/LwIP/src/core/ipv4/ip4_frag.c **** {
 280:Middlewares/Third_Party/LwIP/src/core/ipv4/ip4_frag.c ****   struct ip_reassdata* ipr;
 281:Middlewares/Third_Party/LwIP/src/core/ipv4/ip4_frag.c **** #if ! IP_REASS_FREE_OLDEST
 282:Middlewares/Third_Party/LwIP/src/core/ipv4/ip4_frag.c ****   LWIP_UNUSED_ARG(clen);
 283:Middlewares/Third_Party/LwIP/src/core/ipv4/ip4_frag.c **** #endif
 284:Middlewares/Third_Party/LwIP/src/core/ipv4/ip4_frag.c **** 
 285:Middlewares/Third_Party/LwIP/src/core/ipv4/ip4_frag.c ****   /* No matching previous fragment found, allocate a new reassdata struct */
 286:Middlewares/Third_Party/LwIP/src/core/ipv4/ip4_frag.c ****   ipr = (struct ip_reassdata *)memp_malloc(MEMP_REASSDATA);
 287:Middlewares/Third_Party/LwIP/src/core/ipv4/ip4_frag.c ****   if (ipr == NULL) {
 288:Middlewares/Third_Party/LwIP/src/core/ipv4/ip4_frag.c **** #if IP_REASS_FREE_OLDEST
 289:Middlewares/Third_Party/LwIP/src/core/ipv4/ip4_frag.c ****     if (ip_reass_remove_oldest_datagram(fraghdr, clen) >= clen) {
 290:Middlewares/Third_Party/LwIP/src/core/ipv4/ip4_frag.c ****       ipr = (struct ip_reassdata *)memp_malloc(MEMP_REASSDATA);
 291:Middlewares/Third_Party/LwIP/src/core/ipv4/ip4_frag.c ****     }
 292:Middlewares/Third_Party/LwIP/src/core/ipv4/ip4_frag.c ****     if (ipr == NULL)
 293:Middlewares/Third_Party/LwIP/src/core/ipv4/ip4_frag.c **** #endif /* IP_REASS_FREE_OLDEST */
 294:Middlewares/Third_Party/LwIP/src/core/ipv4/ip4_frag.c ****     {
 295:Middlewares/Third_Party/LwIP/src/core/ipv4/ip4_frag.c ****       IPFRAG_STATS_INC(ip_frag.memerr);
 296:Middlewares/Third_Party/LwIP/src/core/ipv4/ip4_frag.c ****       LWIP_DEBUGF(IP_REASS_DEBUG,("Failed to alloc reassdata struct\n"));
 297:Middlewares/Third_Party/LwIP/src/core/ipv4/ip4_frag.c ****       return NULL;
 298:Middlewares/Third_Party/LwIP/src/core/ipv4/ip4_frag.c ****     }
 299:Middlewares/Third_Party/LwIP/src/core/ipv4/ip4_frag.c ****   }
 300:Middlewares/Third_Party/LwIP/src/core/ipv4/ip4_frag.c ****   memset(ipr, 0, sizeof(struct ip_reassdata));
 301:Middlewares/Third_Party/LwIP/src/core/ipv4/ip4_frag.c ****   ipr->timer = IP_REASS_MAXAGE;
 302:Middlewares/Third_Party/LwIP/src/core/ipv4/ip4_frag.c **** 
 303:Middlewares/Third_Party/LwIP/src/core/ipv4/ip4_frag.c ****   /* enqueue the new structure to the front of the list */
 304:Middlewares/Third_Party/LwIP/src/core/ipv4/ip4_frag.c ****   ipr->next = reassdatagrams;
 305:Middlewares/Third_Party/LwIP/src/core/ipv4/ip4_frag.c ****   reassdatagrams = ipr;
 306:Middlewares/Third_Party/LwIP/src/core/ipv4/ip4_frag.c ****   /* copy the ip header for later tests and input */
 307:Middlewares/Third_Party/LwIP/src/core/ipv4/ip4_frag.c ****   /* @todo: no ip options supported? */
 308:Middlewares/Third_Party/LwIP/src/core/ipv4/ip4_frag.c ****   SMEMCPY(&(ipr->iphdr), fraghdr, IP_HLEN);
 309:Middlewares/Third_Party/LwIP/src/core/ipv4/ip4_frag.c ****   return ipr;
 310:Middlewares/Third_Party/LwIP/src/core/ipv4/ip4_frag.c **** }
 311:Middlewares/Third_Party/LwIP/src/core/ipv4/ip4_frag.c **** 
 312:Middlewares/Third_Party/LwIP/src/core/ipv4/ip4_frag.c **** /**
 313:Middlewares/Third_Party/LwIP/src/core/ipv4/ip4_frag.c ****  * Dequeues a datagram from the datagram queue. Doesn't deallocate the pbufs.
 314:Middlewares/Third_Party/LwIP/src/core/ipv4/ip4_frag.c ****  * @param ipr points to the queue entry to dequeue
 315:Middlewares/Third_Party/LwIP/src/core/ipv4/ip4_frag.c ****  */
ARM GAS  /tmp/ccwtyKYK.s 			page 7


 316:Middlewares/Third_Party/LwIP/src/core/ipv4/ip4_frag.c **** static void
 317:Middlewares/Third_Party/LwIP/src/core/ipv4/ip4_frag.c **** ip_reass_dequeue_datagram(struct ip_reassdata *ipr, struct ip_reassdata *prev)
 318:Middlewares/Third_Party/LwIP/src/core/ipv4/ip4_frag.c **** {
  29              		.loc 1 318 1 view -0
  30              		.cfi_startproc
  31              		@ args = 0, pretend = 0, frame = 0
  32              		@ frame_needed = 0, uses_anonymous_args = 0
  33              		.loc 1 318 1 is_stmt 0 view .LVU1
  34 0000 38B5     		push	{r3, r4, r5, lr}
  35              	.LCFI0:
  36              		.cfi_def_cfa_offset 16
  37              		.cfi_offset 3, -16
  38              		.cfi_offset 4, -12
  39              		.cfi_offset 5, -8
  40              		.cfi_offset 14, -4
  41 0002 0446     		mov	r4, r0
 319:Middlewares/Third_Party/LwIP/src/core/ipv4/ip4_frag.c ****   /* dequeue the reass struct  */
 320:Middlewares/Third_Party/LwIP/src/core/ipv4/ip4_frag.c ****   if (reassdatagrams == ipr) {
  42              		.loc 1 320 3 is_stmt 1 view .LVU2
  43              		.loc 1 320 22 is_stmt 0 view .LVU3
  44 0004 0C4B     		ldr	r3, .L8
  45 0006 1B68     		ldr	r3, [r3]
  46              		.loc 1 320 6 view .LVU4
  47 0008 8342     		cmp	r3, r0
  48 000a 08D0     		beq	.L6
  49 000c 0D46     		mov	r5, r1
 321:Middlewares/Third_Party/LwIP/src/core/ipv4/ip4_frag.c ****     /* it was the first in the list */
 322:Middlewares/Third_Party/LwIP/src/core/ipv4/ip4_frag.c ****     reassdatagrams = ipr->next;
 323:Middlewares/Third_Party/LwIP/src/core/ipv4/ip4_frag.c ****   } else {
 324:Middlewares/Third_Party/LwIP/src/core/ipv4/ip4_frag.c ****     /* it wasn't the first, so it must have a valid 'prev' */
 325:Middlewares/Third_Party/LwIP/src/core/ipv4/ip4_frag.c ****     LWIP_ASSERT("sanity check linked list", prev != NULL);
  50              		.loc 1 325 5 is_stmt 1 view .LVU5
  51              		.loc 1 325 5 view .LVU6
  52 000e 51B1     		cbz	r1, .L7
  53              	.LVL1:
  54              	.L4:
 326:Middlewares/Third_Party/LwIP/src/core/ipv4/ip4_frag.c ****     prev->next = ipr->next;
  55              		.loc 1 326 5 view .LVU7
  56              		.loc 1 326 21 is_stmt 0 view .LVU8
  57 0010 2368     		ldr	r3, [r4]
  58              		.loc 1 326 16 view .LVU9
  59 0012 2B60     		str	r3, [r5]
  60              	.LVL2:
  61              	.L3:
 327:Middlewares/Third_Party/LwIP/src/core/ipv4/ip4_frag.c ****   }
 328:Middlewares/Third_Party/LwIP/src/core/ipv4/ip4_frag.c **** 
 329:Middlewares/Third_Party/LwIP/src/core/ipv4/ip4_frag.c ****   /* now we can free the ip_reassdata struct */
 330:Middlewares/Third_Party/LwIP/src/core/ipv4/ip4_frag.c ****   memp_free(MEMP_REASSDATA, ipr);
  62              		.loc 1 330 3 is_stmt 1 view .LVU10
  63 0014 2146     		mov	r1, r4
  64 0016 0420     		movs	r0, #4
  65 0018 FFF7FEFF 		bl	memp_free
  66              	.LVL3:
 331:Middlewares/Third_Party/LwIP/src/core/ipv4/ip4_frag.c **** }
  67              		.loc 1 331 1 is_stmt 0 view .LVU11
  68 001c 38BD     		pop	{r3, r4, r5, pc}
  69              	.LVL4:
ARM GAS  /tmp/ccwtyKYK.s 			page 8


  70              	.L6:
 322:Middlewares/Third_Party/LwIP/src/core/ipv4/ip4_frag.c ****   } else {
  71              		.loc 1 322 5 is_stmt 1 view .LVU12
 322:Middlewares/Third_Party/LwIP/src/core/ipv4/ip4_frag.c ****   } else {
  72              		.loc 1 322 25 is_stmt 0 view .LVU13
  73 001e 0268     		ldr	r2, [r0]
 322:Middlewares/Third_Party/LwIP/src/core/ipv4/ip4_frag.c ****   } else {
  74              		.loc 1 322 20 view .LVU14
  75 0020 054B     		ldr	r3, .L8
  76 0022 1A60     		str	r2, [r3]
  77 0024 F6E7     		b	.L3
  78              	.L7:
 325:Middlewares/Third_Party/LwIP/src/core/ipv4/ip4_frag.c ****     prev->next = ipr->next;
  79              		.loc 1 325 5 is_stmt 1 discriminator 1 view .LVU15
 325:Middlewares/Third_Party/LwIP/src/core/ipv4/ip4_frag.c ****     prev->next = ipr->next;
  80              		.loc 1 325 5 discriminator 1 view .LVU16
  81 0026 054B     		ldr	r3, .L8+4
  82 0028 40F24512 		movw	r2, #325
  83 002c 0449     		ldr	r1, .L8+8
  84              	.LVL5:
 325:Middlewares/Third_Party/LwIP/src/core/ipv4/ip4_frag.c ****     prev->next = ipr->next;
  85              		.loc 1 325 5 is_stmt 0 discriminator 1 view .LVU17
  86 002e 0548     		ldr	r0, .L8+12
  87              	.LVL6:
 325:Middlewares/Third_Party/LwIP/src/core/ipv4/ip4_frag.c ****     prev->next = ipr->next;
  88              		.loc 1 325 5 discriminator 1 view .LVU18
  89 0030 FFF7FEFF 		bl	printf
  90              	.LVL7:
  91 0034 ECE7     		b	.L4
  92              	.L9:
  93 0036 00BF     		.align	2
  94              	.L8:
  95 0038 00000000 		.word	.LANCHOR0
  96 003c 00000000 		.word	.LC0
  97 0040 38000000 		.word	.LC1
  98 0044 54000000 		.word	.LC2
  99              		.cfi_endproc
 100              	.LFE164:
 102              		.section	.text.ip_reass_free_complete_datagram,"ax",%progbits
 103              		.align	1
 104              		.syntax unified
 105              		.thumb
 106              		.thumb_func
 107              		.fpu fpv5-sp-d16
 109              	ip_reass_free_complete_datagram:
 110              	.LVL8:
 111              	.LFB161:
 165:Middlewares/Third_Party/LwIP/src/core/ipv4/ip4_frag.c ****   u16_t pbufs_freed = 0;
 112              		.loc 1 165 1 is_stmt 1 view -0
 113              		.cfi_startproc
 114              		@ args = 0, pretend = 0, frame = 0
 115              		@ frame_needed = 0, uses_anonymous_args = 0
 165:Middlewares/Third_Party/LwIP/src/core/ipv4/ip4_frag.c ****   u16_t pbufs_freed = 0;
 116              		.loc 1 165 1 is_stmt 0 view .LVU20
 117 0000 2DE9F843 		push	{r3, r4, r5, r6, r7, r8, r9, lr}
 118              	.LCFI1:
 119              		.cfi_def_cfa_offset 32
ARM GAS  /tmp/ccwtyKYK.s 			page 9


 120              		.cfi_offset 3, -32
 121              		.cfi_offset 4, -28
 122              		.cfi_offset 5, -24
 123              		.cfi_offset 6, -20
 124              		.cfi_offset 7, -16
 125              		.cfi_offset 8, -12
 126              		.cfi_offset 9, -8
 127              		.cfi_offset 14, -4
 128 0004 8046     		mov	r8, r0
 129 0006 8946     		mov	r9, r1
 166:Middlewares/Third_Party/LwIP/src/core/ipv4/ip4_frag.c ****   u16_t clen;
 130              		.loc 1 166 3 is_stmt 1 view .LVU21
 131              	.LVL9:
 167:Middlewares/Third_Party/LwIP/src/core/ipv4/ip4_frag.c ****   struct pbuf *p;
 132              		.loc 1 167 3 view .LVU22
 168:Middlewares/Third_Party/LwIP/src/core/ipv4/ip4_frag.c ****   struct ip_reass_helper *iprh;
 133              		.loc 1 168 3 view .LVU23
 169:Middlewares/Third_Party/LwIP/src/core/ipv4/ip4_frag.c **** 
 134              		.loc 1 169 3 view .LVU24
 171:Middlewares/Third_Party/LwIP/src/core/ipv4/ip4_frag.c ****   if (prev != NULL) {
 135              		.loc 1 171 3 view .LVU25
 171:Middlewares/Third_Party/LwIP/src/core/ipv4/ip4_frag.c ****   if (prev != NULL) {
 136              		.loc 1 171 3 view .LVU26
 137 0008 8142     		cmp	r1, r0
 138 000a 15D0     		beq	.L20
 139              	.LVL10:
 140              	.L11:
 172:Middlewares/Third_Party/LwIP/src/core/ipv4/ip4_frag.c ****     LWIP_ASSERT("prev->next == ipr", prev->next == ipr);
 141              		.loc 1 172 3 view .LVU27
 172:Middlewares/Third_Party/LwIP/src/core/ipv4/ip4_frag.c ****     LWIP_ASSERT("prev->next == ipr", prev->next == ipr);
 142              		.loc 1 172 6 is_stmt 0 view .LVU28
 143 000c B9F1000F 		cmp	r9, #0
 144 0010 09D0     		beq	.L12
 173:Middlewares/Third_Party/LwIP/src/core/ipv4/ip4_frag.c ****   }
 145              		.loc 1 173 5 is_stmt 1 view .LVU29
 173:Middlewares/Third_Party/LwIP/src/core/ipv4/ip4_frag.c ****   }
 146              		.loc 1 173 5 view .LVU30
 147 0012 D9F80030 		ldr	r3, [r9]
 148 0016 4345     		cmp	r3, r8
 149 0018 05D0     		beq	.L12
 173:Middlewares/Third_Party/LwIP/src/core/ipv4/ip4_frag.c ****   }
 150              		.loc 1 173 5 discriminator 1 view .LVU31
 173:Middlewares/Third_Party/LwIP/src/core/ipv4/ip4_frag.c ****   }
 151              		.loc 1 173 5 discriminator 1 view .LVU32
 152 001a 304B     		ldr	r3, .L25
 153 001c AD22     		movs	r2, #173
 154 001e 3049     		ldr	r1, .L25+4
 155 0020 3048     		ldr	r0, .L25+8
 156 0022 FFF7FEFF 		bl	printf
 157              	.LVL11:
 158              	.L12:
 176:Middlewares/Third_Party/LwIP/src/core/ipv4/ip4_frag.c **** #if LWIP_ICMP
 159              		.loc 1 176 36 view .LVU33
 178:Middlewares/Third_Party/LwIP/src/core/ipv4/ip4_frag.c ****   if (iprh->start == 0) {
 160              		.loc 1 178 3 view .LVU34
 178:Middlewares/Third_Party/LwIP/src/core/ipv4/ip4_frag.c ****   if (iprh->start == 0) {
 161              		.loc 1 178 39 is_stmt 0 view .LVU35
ARM GAS  /tmp/ccwtyKYK.s 			page 10


 162 0026 D8F80440 		ldr	r4, [r8, #4]
 178:Middlewares/Third_Party/LwIP/src/core/ipv4/ip4_frag.c ****   if (iprh->start == 0) {
 163              		.loc 1 178 8 view .LVU36
 164 002a 6368     		ldr	r3, [r4, #4]
 165              	.LVL12:
 179:Middlewares/Third_Party/LwIP/src/core/ipv4/ip4_frag.c ****     /* The first fragment was received, send ICMP time exceeded. */
 166              		.loc 1 179 3 is_stmt 1 view .LVU37
 179:Middlewares/Third_Party/LwIP/src/core/ipv4/ip4_frag.c ****     /* The first fragment was received, send ICMP time exceeded. */
 167              		.loc 1 179 11 is_stmt 0 view .LVU38
 168 002c 9A88     		ldrh	r2, [r3, #4]	@ unaligned
 179:Middlewares/Third_Party/LwIP/src/core/ipv4/ip4_frag.c ****     /* The first fragment was received, send ICMP time exceeded. */
 169              		.loc 1 179 6 view .LVU39
 170 002e 52B1     		cbz	r2, .L21
 166:Middlewares/Third_Party/LwIP/src/core/ipv4/ip4_frag.c ****   u16_t clen;
 171              		.loc 1 166 9 view .LVU40
 172 0030 0026     		movs	r6, #0
 173              	.LVL13:
 174              	.L13:
 196:Middlewares/Third_Party/LwIP/src/core/ipv4/ip4_frag.c ****   while (p != NULL) {
 175              		.loc 1 196 3 is_stmt 1 view .LVU41
 196:Middlewares/Third_Party/LwIP/src/core/ipv4/ip4_frag.c ****   while (p != NULL) {
 176              		.loc 1 196 5 is_stmt 0 view .LVU42
 177 0032 D8F80440 		ldr	r4, [r8, #4]
 178              	.LVL14:
 197:Middlewares/Third_Party/LwIP/src/core/ipv4/ip4_frag.c ****     struct pbuf *pcur;
 179              		.loc 1 197 3 is_stmt 1 view .LVU43
 197:Middlewares/Third_Party/LwIP/src/core/ipv4/ip4_frag.c ****     struct pbuf *pcur;
 180              		.loc 1 197 9 is_stmt 0 view .LVU44
 181 0036 2EE0     		b	.L14
 182              	.LVL15:
 183              	.L20:
 171:Middlewares/Third_Party/LwIP/src/core/ipv4/ip4_frag.c ****   if (prev != NULL) {
 184              		.loc 1 171 3 is_stmt 1 discriminator 1 view .LVU45
 171:Middlewares/Third_Party/LwIP/src/core/ipv4/ip4_frag.c ****   if (prev != NULL) {
 185              		.loc 1 171 3 discriminator 1 view .LVU46
 186 0038 284B     		ldr	r3, .L25
 187 003a AB22     		movs	r2, #171
 188 003c 2A49     		ldr	r1, .L25+12
 189              	.LVL16:
 171:Middlewares/Third_Party/LwIP/src/core/ipv4/ip4_frag.c ****   if (prev != NULL) {
 190              		.loc 1 171 3 is_stmt 0 discriminator 1 view .LVU47
 191 003e 2948     		ldr	r0, .L25+8
 192              	.LVL17:
 171:Middlewares/Third_Party/LwIP/src/core/ipv4/ip4_frag.c ****   if (prev != NULL) {
 193              		.loc 1 171 3 discriminator 1 view .LVU48
 194 0040 FFF7FEFF 		bl	printf
 195              	.LVL18:
 196 0044 E2E7     		b	.L11
 197              	.LVL19:
 198              	.L21:
 182:Middlewares/Third_Party/LwIP/src/core/ipv4/ip4_frag.c ****     ipr->p = iprh->next_pbuf;
 199              		.loc 1 182 5 is_stmt 1 view .LVU49
 183:Middlewares/Third_Party/LwIP/src/core/ipv4/ip4_frag.c ****     /* Then, copy the original header into it. */
 200              		.loc 1 183 5 view .LVU50
 183:Middlewares/Third_Party/LwIP/src/core/ipv4/ip4_frag.c ****     /* Then, copy the original header into it. */
 201              		.loc 1 183 18 is_stmt 0 view .LVU51
 202 0046 1B68     		ldr	r3, [r3]	@ unaligned
ARM GAS  /tmp/ccwtyKYK.s 			page 11


 203              	.LVL20:
 183:Middlewares/Third_Party/LwIP/src/core/ipv4/ip4_frag.c ****     /* Then, copy the original header into it. */
 204              		.loc 1 183 12 view .LVU52
 205 0048 C8F80430 		str	r3, [r8, #4]
 206              	.LVL21:
 185:Middlewares/Third_Party/LwIP/src/core/ipv4/ip4_frag.c ****     icmp_time_exceeded(p, ICMP_TE_FRAG);
 207              		.loc 1 185 5 is_stmt 1 view .LVU53
 208 004c 4346     		mov	r3, r8
 209 004e 6268     		ldr	r2, [r4, #4]
 210 0050 53F8081F 		ldr	r1, [r3, #8]!	@ unaligned
 211 0054 5E68     		ldr	r6, [r3, #4]	@ unaligned
 212 0056 9D68     		ldr	r5, [r3, #8]	@ unaligned
 213 0058 D868     		ldr	r0, [r3, #12]	@ unaligned
 214 005a 1160     		str	r1, [r2]	@ unaligned
 215 005c 5660     		str	r6, [r2, #4]	@ unaligned
 216 005e 9560     		str	r5, [r2, #8]	@ unaligned
 217 0060 D060     		str	r0, [r2, #12]	@ unaligned
 218 0062 1969     		ldr	r1, [r3, #16]	@ unaligned
 219 0064 1161     		str	r1, [r2, #16]	@ unaligned
 186:Middlewares/Third_Party/LwIP/src/core/ipv4/ip4_frag.c ****     clen = pbuf_clen(p);
 220              		.loc 1 186 5 view .LVU54
 221 0066 0121     		movs	r1, #1
 222 0068 2046     		mov	r0, r4
 223 006a FFF7FEFF 		bl	icmp_time_exceeded
 224              	.LVL22:
 187:Middlewares/Third_Party/LwIP/src/core/ipv4/ip4_frag.c ****     LWIP_ASSERT("pbufs_freed + clen <= 0xffff", pbufs_freed + clen <= 0xffff);
 225              		.loc 1 187 5 view .LVU55
 187:Middlewares/Third_Party/LwIP/src/core/ipv4/ip4_frag.c ****     LWIP_ASSERT("pbufs_freed + clen <= 0xffff", pbufs_freed + clen <= 0xffff);
 226              		.loc 1 187 12 is_stmt 0 view .LVU56
 227 006e 2046     		mov	r0, r4
 228 0070 FFF7FEFF 		bl	pbuf_clen
 229              	.LVL23:
 230 0074 0646     		mov	r6, r0
 231              	.LVL24:
 188:Middlewares/Third_Party/LwIP/src/core/ipv4/ip4_frag.c ****     pbufs_freed += clen;
 232              		.loc 1 188 5 is_stmt 1 view .LVU57
 188:Middlewares/Third_Party/LwIP/src/core/ipv4/ip4_frag.c ****     pbufs_freed += clen;
 233              		.loc 1 188 5 view .LVU58
 189:Middlewares/Third_Party/LwIP/src/core/ipv4/ip4_frag.c ****     pbuf_free(p);
 234              		.loc 1 189 5 view .LVU59
 190:Middlewares/Third_Party/LwIP/src/core/ipv4/ip4_frag.c ****   }
 235              		.loc 1 190 5 view .LVU60
 236 0076 2046     		mov	r0, r4
 237 0078 FFF7FEFF 		bl	pbuf_free
 238              	.LVL25:
 239 007c D9E7     		b	.L13
 240              	.LVL26:
 241              	.L23:
 242              	.LBB2:
 204:Middlewares/Third_Party/LwIP/src/core/ipv4/ip4_frag.c ****     pbufs_freed += clen;
 243              		.loc 1 204 5 discriminator 1 view .LVU61
 204:Middlewares/Third_Party/LwIP/src/core/ipv4/ip4_frag.c ****     pbufs_freed += clen;
 244              		.loc 1 204 5 discriminator 1 view .LVU62
 245 007e 174B     		ldr	r3, .L25
 246 0080 CC22     		movs	r2, #204
 247 0082 1A49     		ldr	r1, .L25+16
 248 0084 1748     		ldr	r0, .L25+8
ARM GAS  /tmp/ccwtyKYK.s 			page 12


 249              	.LVL27:
 204:Middlewares/Third_Party/LwIP/src/core/ipv4/ip4_frag.c ****     pbufs_freed += clen;
 250              		.loc 1 204 5 is_stmt 0 discriminator 1 view .LVU63
 251 0086 FFF7FEFF 		bl	printf
 252              	.LVL28:
 253              	.L15:
 205:Middlewares/Third_Party/LwIP/src/core/ipv4/ip4_frag.c ****     pbuf_free(pcur);
 254              		.loc 1 205 5 is_stmt 1 view .LVU64
 205:Middlewares/Third_Party/LwIP/src/core/ipv4/ip4_frag.c ****     pbuf_free(pcur);
 255              		.loc 1 205 17 is_stmt 0 view .LVU65
 256 008a 3544     		add	r5, r5, r6
 257 008c AEB2     		uxth	r6, r5
 258              	.LVL29:
 206:Middlewares/Third_Party/LwIP/src/core/ipv4/ip4_frag.c ****   }
 259              		.loc 1 206 5 is_stmt 1 view .LVU66
 260 008e 2046     		mov	r0, r4
 261 0090 FFF7FEFF 		bl	pbuf_free
 262              	.LVL30:
 202:Middlewares/Third_Party/LwIP/src/core/ipv4/ip4_frag.c ****     clen = pbuf_clen(pcur);
 263              		.loc 1 202 7 is_stmt 0 view .LVU67
 264 0094 3C46     		mov	r4, r7
 265              	.LVL31:
 266              	.L14:
 202:Middlewares/Third_Party/LwIP/src/core/ipv4/ip4_frag.c ****     clen = pbuf_clen(pcur);
 267              		.loc 1 202 7 view .LVU68
 268              	.LBE2:
 197:Middlewares/Third_Party/LwIP/src/core/ipv4/ip4_frag.c ****     struct pbuf *pcur;
 269              		.loc 1 197 9 view .LVU69
 270 0096 54B1     		cbz	r4, .L22
 271              	.LBB3:
 198:Middlewares/Third_Party/LwIP/src/core/ipv4/ip4_frag.c ****     iprh = (struct ip_reass_helper *)p->payload;
 272              		.loc 1 198 5 is_stmt 1 view .LVU70
 199:Middlewares/Third_Party/LwIP/src/core/ipv4/ip4_frag.c ****     pcur = p;
 273              		.loc 1 199 5 view .LVU71
 199:Middlewares/Third_Party/LwIP/src/core/ipv4/ip4_frag.c ****     pcur = p;
 274              		.loc 1 199 10 is_stmt 0 view .LVU72
 275 0098 6368     		ldr	r3, [r4, #4]
 276              	.LVL32:
 200:Middlewares/Third_Party/LwIP/src/core/ipv4/ip4_frag.c ****     /* get the next pointer before freeing */
 277              		.loc 1 200 5 is_stmt 1 view .LVU73
 202:Middlewares/Third_Party/LwIP/src/core/ipv4/ip4_frag.c ****     clen = pbuf_clen(pcur);
 278              		.loc 1 202 5 view .LVU74
 202:Middlewares/Third_Party/LwIP/src/core/ipv4/ip4_frag.c ****     clen = pbuf_clen(pcur);
 279              		.loc 1 202 7 is_stmt 0 view .LVU75
 280 009a 1F68     		ldr	r7, [r3]	@ unaligned
 281              	.LVL33:
 203:Middlewares/Third_Party/LwIP/src/core/ipv4/ip4_frag.c ****     LWIP_ASSERT("pbufs_freed + clen <= 0xffff", pbufs_freed + clen <= 0xffff);
 282              		.loc 1 203 5 is_stmt 1 view .LVU76
 203:Middlewares/Third_Party/LwIP/src/core/ipv4/ip4_frag.c ****     LWIP_ASSERT("pbufs_freed + clen <= 0xffff", pbufs_freed + clen <= 0xffff);
 283              		.loc 1 203 12 is_stmt 0 view .LVU77
 284 009c 2046     		mov	r0, r4
 285 009e FFF7FEFF 		bl	pbuf_clen
 286              	.LVL34:
 203:Middlewares/Third_Party/LwIP/src/core/ipv4/ip4_frag.c ****     LWIP_ASSERT("pbufs_freed + clen <= 0xffff", pbufs_freed + clen <= 0xffff);
 287              		.loc 1 203 12 view .LVU78
 288 00a2 0546     		mov	r5, r0
 289              	.LVL35:
ARM GAS  /tmp/ccwtyKYK.s 			page 13


 204:Middlewares/Third_Party/LwIP/src/core/ipv4/ip4_frag.c ****     pbufs_freed += clen;
 290              		.loc 1 204 5 is_stmt 1 view .LVU79
 204:Middlewares/Third_Party/LwIP/src/core/ipv4/ip4_frag.c ****     pbufs_freed += clen;
 291              		.loc 1 204 5 view .LVU80
 292 00a4 3318     		adds	r3, r6, r0
 293 00a6 B3F5803F 		cmp	r3, #65536
 294 00aa EEDB     		blt	.L15
 295 00ac E7E7     		b	.L23
 296              	.LVL36:
 297              	.L22:
 204:Middlewares/Third_Party/LwIP/src/core/ipv4/ip4_frag.c ****     pbufs_freed += clen;
 298              		.loc 1 204 5 is_stmt 0 view .LVU81
 299              	.LBE3:
 209:Middlewares/Third_Party/LwIP/src/core/ipv4/ip4_frag.c ****   LWIP_ASSERT("ip_reass_pbufcount >= clen", ip_reass_pbufcount >= pbufs_freed);
 300              		.loc 1 209 3 is_stmt 1 view .LVU82
 301 00ae 4946     		mov	r1, r9
 302 00b0 4046     		mov	r0, r8
 303 00b2 FFF7FEFF 		bl	ip_reass_dequeue_datagram
 304              	.LVL37:
 210:Middlewares/Third_Party/LwIP/src/core/ipv4/ip4_frag.c ****   ip_reass_pbufcount -= pbufs_freed;
 305              		.loc 1 210 3 view .LVU83
 210:Middlewares/Third_Party/LwIP/src/core/ipv4/ip4_frag.c ****   ip_reass_pbufcount -= pbufs_freed;
 306              		.loc 1 210 3 view .LVU84
 307 00b6 0E4B     		ldr	r3, .L25+20
 308 00b8 1B88     		ldrh	r3, [r3]
 309 00ba B342     		cmp	r3, r6
 310 00bc 06D3     		bcc	.L24
 311              	.L17:
 211:Middlewares/Third_Party/LwIP/src/core/ipv4/ip4_frag.c **** 
 312              		.loc 1 211 3 view .LVU85
 211:Middlewares/Third_Party/LwIP/src/core/ipv4/ip4_frag.c **** 
 313              		.loc 1 211 22 is_stmt 0 view .LVU86
 314 00be 0C4A     		ldr	r2, .L25+20
 315 00c0 1388     		ldrh	r3, [r2]
 316 00c2 9B1B     		subs	r3, r3, r6
 317 00c4 1380     		strh	r3, [r2]	@ movhi
 213:Middlewares/Third_Party/LwIP/src/core/ipv4/ip4_frag.c **** }
 318              		.loc 1 213 3 is_stmt 1 view .LVU87
 214:Middlewares/Third_Party/LwIP/src/core/ipv4/ip4_frag.c **** 
 319              		.loc 1 214 1 is_stmt 0 view .LVU88
 320 00c6 3046     		mov	r0, r6
 321 00c8 BDE8F883 		pop	{r3, r4, r5, r6, r7, r8, r9, pc}
 322              	.LVL38:
 323              	.L24:
 210:Middlewares/Third_Party/LwIP/src/core/ipv4/ip4_frag.c ****   ip_reass_pbufcount -= pbufs_freed;
 324              		.loc 1 210 3 is_stmt 1 discriminator 1 view .LVU89
 210:Middlewares/Third_Party/LwIP/src/core/ipv4/ip4_frag.c ****   ip_reass_pbufcount -= pbufs_freed;
 325              		.loc 1 210 3 discriminator 1 view .LVU90
 326 00cc 034B     		ldr	r3, .L25
 327 00ce D222     		movs	r2, #210
 328 00d0 0849     		ldr	r1, .L25+24
 329 00d2 0448     		ldr	r0, .L25+8
 330 00d4 FFF7FEFF 		bl	printf
 331              	.LVL39:
 332 00d8 F1E7     		b	.L17
 333              	.L26:
 334 00da 00BF     		.align	2
ARM GAS  /tmp/ccwtyKYK.s 			page 14


 335              	.L25:
 336 00dc 00000000 		.word	.LC0
 337 00e0 0C000000 		.word	.LC4
 338 00e4 54000000 		.word	.LC2
 339 00e8 00000000 		.word	.LC3
 340 00ec 20000000 		.word	.LC5
 341 00f0 00000000 		.word	.LANCHOR1
 342 00f4 40000000 		.word	.LC6
 343              		.cfi_endproc
 344              	.LFE161:
 346              		.section	.text.ip_reass_remove_oldest_datagram,"ax",%progbits
 347              		.align	1
 348              		.syntax unified
 349              		.thumb
 350              		.thumb_func
 351              		.fpu fpv5-sp-d16
 353              	ip_reass_remove_oldest_datagram:
 354              	.LVL40:
 355              	.LFB162:
 228:Middlewares/Third_Party/LwIP/src/core/ipv4/ip4_frag.c ****   /* @todo Can't we simply remove the last datagram in the
 356              		.loc 1 228 1 view -0
 357              		.cfi_startproc
 358              		@ args = 0, pretend = 0, frame = 0
 359              		@ frame_needed = 0, uses_anonymous_args = 0
 228:Middlewares/Third_Party/LwIP/src/core/ipv4/ip4_frag.c ****   /* @todo Can't we simply remove the last datagram in the
 360              		.loc 1 228 1 is_stmt 0 view .LVU92
 361 0000 2DE9F041 		push	{r4, r5, r6, r7, r8, lr}
 362              	.LCFI2:
 363              		.cfi_def_cfa_offset 24
 364              		.cfi_offset 4, -24
 365              		.cfi_offset 5, -20
 366              		.cfi_offset 6, -16
 367              		.cfi_offset 7, -12
 368              		.cfi_offset 8, -8
 369              		.cfi_offset 14, -4
 370 0004 0646     		mov	r6, r0
 371 0006 8846     		mov	r8, r1
 232:Middlewares/Third_Party/LwIP/src/core/ipv4/ip4_frag.c ****   int pbufs_freed = 0, pbufs_freed_current;
 372              		.loc 1 232 3 is_stmt 1 view .LVU93
 233:Middlewares/Third_Party/LwIP/src/core/ipv4/ip4_frag.c ****   int other_datagrams;
 373              		.loc 1 233 3 view .LVU94
 374              	.LVL41:
 233:Middlewares/Third_Party/LwIP/src/core/ipv4/ip4_frag.c ****   int other_datagrams;
 375              		.loc 1 233 7 is_stmt 0 view .LVU95
 376 0008 0027     		movs	r7, #0
 377 000a 2FE0     		b	.L34
 378              	.LVL42:
 379              	.L40:
 245:Middlewares/Third_Party/LwIP/src/core/ipv4/ip4_frag.c ****         /* Not the same datagram as fraghdr */
 380              		.loc 1 245 12 discriminator 1 view .LVU96
 381 000c 9A69     		ldr	r2, [r3, #24]
 382 000e D6F810C0 		ldr	ip, [r6, #16]	@ unaligned
 383 0012 6245     		cmp	r2, ip
 384 0014 11D1     		bne	.L29
 245:Middlewares/Third_Party/LwIP/src/core/ipv4/ip4_frag.c ****         /* Not the same datagram as fraghdr */
 385              		.loc 1 245 12 discriminator 2 view .LVU97
 386 0016 B3F80CC0 		ldrh	ip, [r3, #12]
ARM GAS  /tmp/ccwtyKYK.s 			page 15


 387 001a B288     		ldrh	r2, [r6, #4]	@ unaligned
 245:Middlewares/Third_Party/LwIP/src/core/ipv4/ip4_frag.c ****         /* Not the same datagram as fraghdr */
 388              		.loc 1 245 11 discriminator 2 view .LVU98
 389 001c 9445     		cmp	ip, r2
 390 001e 0CD1     		bne	.L29
 391 0020 01E0     		b	.L30
 392              	.L35:
 250:Middlewares/Third_Party/LwIP/src/core/ipv4/ip4_frag.c ****         } else if (r->timer <= oldest->timer) {
 393              		.loc 1 250 23 view .LVU99
 394 0022 2946     		mov	r1, r5
 395              	.LVL43:
 249:Middlewares/Third_Party/LwIP/src/core/ipv4/ip4_frag.c ****           oldest_prev = prev;
 396              		.loc 1 249 18 view .LVU100
 397 0024 1846     		mov	r0, r3
 398              	.LVL44:
 399              	.L30:
 257:Middlewares/Third_Party/LwIP/src/core/ipv4/ip4_frag.c ****         prev = r;
 400              		.loc 1 257 7 is_stmt 1 view .LVU101
 257:Middlewares/Third_Party/LwIP/src/core/ipv4/ip4_frag.c ****         prev = r;
 401              		.loc 1 257 12 is_stmt 0 view .LVU102
 402 0026 1A68     		ldr	r2, [r3]
 257:Middlewares/Third_Party/LwIP/src/core/ipv4/ip4_frag.c ****         prev = r;
 403              		.loc 1 257 10 view .LVU103
 404 0028 92B1     		cbz	r2, .L38
 405              	.LVL45:
 406              	.L31:
 257:Middlewares/Third_Party/LwIP/src/core/ipv4/ip4_frag.c ****         prev = r;
 407              		.loc 1 257 10 view .LVU104
 408 002a 1D46     		mov	r5, r3
 409              	.LVL46:
 257:Middlewares/Third_Party/LwIP/src/core/ipv4/ip4_frag.c ****         prev = r;
 410              		.loc 1 257 10 view .LVU105
 411 002c 1346     		mov	r3, r2
 412              	.LVL47:
 413              	.L28:
 244:Middlewares/Third_Party/LwIP/src/core/ipv4/ip4_frag.c ****       if (!IP_ADDRESSES_AND_ID_MATCH(&r->iphdr, fraghdr)) {
 414              		.loc 1 244 11 view .LVU106
 415 002e 8BB1     		cbz	r3, .L39
 245:Middlewares/Third_Party/LwIP/src/core/ipv4/ip4_frag.c ****         /* Not the same datagram as fraghdr */
 416              		.loc 1 245 7 is_stmt 1 view .LVU107
 245:Middlewares/Third_Party/LwIP/src/core/ipv4/ip4_frag.c ****         /* Not the same datagram as fraghdr */
 417              		.loc 1 245 12 is_stmt 0 view .LVU108
 418 0030 5A69     		ldr	r2, [r3, #20]
 419 0032 D6F80CC0 		ldr	ip, [r6, #12]	@ unaligned
 245:Middlewares/Third_Party/LwIP/src/core/ipv4/ip4_frag.c ****         /* Not the same datagram as fraghdr */
 420              		.loc 1 245 10 view .LVU109
 421 0036 6245     		cmp	r2, ip
 422 0038 E8D0     		beq	.L40
 423              	.L29:
 247:Middlewares/Third_Party/LwIP/src/core/ipv4/ip4_frag.c ****         if (oldest == NULL) {
 424              		.loc 1 247 9 is_stmt 1 view .LVU110
 247:Middlewares/Third_Party/LwIP/src/core/ipv4/ip4_frag.c ****         if (oldest == NULL) {
 425              		.loc 1 247 24 is_stmt 0 view .LVU111
 426 003a 0134     		adds	r4, r4, #1
 427              	.LVL48:
 248:Middlewares/Third_Party/LwIP/src/core/ipv4/ip4_frag.c ****           oldest = r;
 428              		.loc 1 248 9 is_stmt 1 view .LVU112
ARM GAS  /tmp/ccwtyKYK.s 			page 16


 248:Middlewares/Third_Party/LwIP/src/core/ipv4/ip4_frag.c ****           oldest = r;
 429              		.loc 1 248 12 is_stmt 0 view .LVU113
 430 003c 0028     		cmp	r0, #0
 431 003e F0D0     		beq	.L35
 251:Middlewares/Third_Party/LwIP/src/core/ipv4/ip4_frag.c ****           /* older than the previous oldest */
 432              		.loc 1 251 16 is_stmt 1 view .LVU114
 251:Middlewares/Third_Party/LwIP/src/core/ipv4/ip4_frag.c ****           /* older than the previous oldest */
 433              		.loc 1 251 21 is_stmt 0 view .LVU115
 434 0040 93F81FC0 		ldrb	ip, [r3, #31]	@ zero_extendqisi2
 251:Middlewares/Third_Party/LwIP/src/core/ipv4/ip4_frag.c ****           /* older than the previous oldest */
 435              		.loc 1 251 38 view .LVU116
 436 0044 C27F     		ldrb	r2, [r0, #31]	@ zero_extendqisi2
 251:Middlewares/Third_Party/LwIP/src/core/ipv4/ip4_frag.c ****           /* older than the previous oldest */
 437              		.loc 1 251 19 view .LVU117
 438 0046 9445     		cmp	ip, r2
 439 0048 EDD8     		bhi	.L30
 254:Middlewares/Third_Party/LwIP/src/core/ipv4/ip4_frag.c ****         }
 440              		.loc 1 254 23 view .LVU118
 441 004a 2946     		mov	r1, r5
 442              	.LVL49:
 253:Middlewares/Third_Party/LwIP/src/core/ipv4/ip4_frag.c ****           oldest_prev = prev;
 443              		.loc 1 253 18 view .LVU119
 444 004c 1846     		mov	r0, r3
 445              	.LVL50:
 253:Middlewares/Third_Party/LwIP/src/core/ipv4/ip4_frag.c ****           oldest_prev = prev;
 446              		.loc 1 253 18 view .LVU120
 447 004e EAE7     		b	.L30
 448              	.LVL51:
 449              	.L38:
 257:Middlewares/Third_Party/LwIP/src/core/ipv4/ip4_frag.c ****         prev = r;
 450              		.loc 1 257 10 view .LVU121
 451 0050 2B46     		mov	r3, r5
 452              	.LVL52:
 257:Middlewares/Third_Party/LwIP/src/core/ipv4/ip4_frag.c ****         prev = r;
 453              		.loc 1 257 10 view .LVU122
 454 0052 EAE7     		b	.L31
 455              	.LVL53:
 456              	.L39:
 262:Middlewares/Third_Party/LwIP/src/core/ipv4/ip4_frag.c ****       pbufs_freed_current = ip_reass_free_complete_datagram(oldest, oldest_prev);
 457              		.loc 1 262 5 is_stmt 1 view .LVU123
 262:Middlewares/Third_Party/LwIP/src/core/ipv4/ip4_frag.c ****       pbufs_freed_current = ip_reass_free_complete_datagram(oldest, oldest_prev);
 458              		.loc 1 262 8 is_stmt 0 view .LVU124
 459 0054 10B1     		cbz	r0, .L33
 263:Middlewares/Third_Party/LwIP/src/core/ipv4/ip4_frag.c ****       pbufs_freed += pbufs_freed_current;
 460              		.loc 1 263 7 is_stmt 1 view .LVU125
 263:Middlewares/Third_Party/LwIP/src/core/ipv4/ip4_frag.c ****       pbufs_freed += pbufs_freed_current;
 461              		.loc 1 263 29 is_stmt 0 view .LVU126
 462 0056 FFF7FEFF 		bl	ip_reass_free_complete_datagram
 463              	.LVL54:
 264:Middlewares/Third_Party/LwIP/src/core/ipv4/ip4_frag.c ****     }
 464              		.loc 1 264 7 is_stmt 1 view .LVU127
 264:Middlewares/Third_Party/LwIP/src/core/ipv4/ip4_frag.c ****     }
 465              		.loc 1 264 19 is_stmt 0 view .LVU128
 466 005a 0744     		add	r7, r7, r0
 467              	.LVL55:
 468              	.L33:
 266:Middlewares/Third_Party/LwIP/src/core/ipv4/ip4_frag.c ****   return pbufs_freed;
ARM GAS  /tmp/ccwtyKYK.s 			page 17


 469              		.loc 1 266 41 view .LVU129
 470 005c 4745     		cmp	r7, r8
 471 005e ACBF     		ite	ge
 472 0060 0023     		movge	r3, #0
 473 0062 0123     		movlt	r3, #1
 474 0064 012C     		cmp	r4, #1
 475 0066 D8BF     		it	le
 476 0068 0023     		movle	r3, #0
 266:Middlewares/Third_Party/LwIP/src/core/ipv4/ip4_frag.c ****   return pbufs_freed;
 477              		.loc 1 266 3 view .LVU130
 478 006a 33B1     		cbz	r3, .L41
 479              	.LVL56:
 480              	.L34:
 234:Middlewares/Third_Party/LwIP/src/core/ipv4/ip4_frag.c **** 
 481              		.loc 1 234 3 is_stmt 1 view .LVU131
 238:Middlewares/Third_Party/LwIP/src/core/ipv4/ip4_frag.c ****     oldest = NULL;
 482              		.loc 1 238 3 view .LVU132
 239:Middlewares/Third_Party/LwIP/src/core/ipv4/ip4_frag.c ****     prev = NULL;
 483              		.loc 1 239 5 view .LVU133
 240:Middlewares/Third_Party/LwIP/src/core/ipv4/ip4_frag.c ****     oldest_prev = NULL;
 484              		.loc 1 240 5 view .LVU134
 241:Middlewares/Third_Party/LwIP/src/core/ipv4/ip4_frag.c ****     other_datagrams = 0;
 485              		.loc 1 241 5 view .LVU135
 242:Middlewares/Third_Party/LwIP/src/core/ipv4/ip4_frag.c ****     r = reassdatagrams;
 486              		.loc 1 242 5 view .LVU136
 243:Middlewares/Third_Party/LwIP/src/core/ipv4/ip4_frag.c ****     while (r != NULL) {
 487              		.loc 1 243 5 view .LVU137
 243:Middlewares/Third_Party/LwIP/src/core/ipv4/ip4_frag.c ****     while (r != NULL) {
 488              		.loc 1 243 7 is_stmt 0 view .LVU138
 489 006c 044B     		ldr	r3, .L42
 490 006e 1B68     		ldr	r3, [r3]
 491              	.LVL57:
 244:Middlewares/Third_Party/LwIP/src/core/ipv4/ip4_frag.c ****       if (!IP_ADDRESSES_AND_ID_MATCH(&r->iphdr, fraghdr)) {
 492              		.loc 1 244 5 is_stmt 1 view .LVU139
 242:Middlewares/Third_Party/LwIP/src/core/ipv4/ip4_frag.c ****     r = reassdatagrams;
 493              		.loc 1 242 21 is_stmt 0 view .LVU140
 494 0070 0024     		movs	r4, #0
 241:Middlewares/Third_Party/LwIP/src/core/ipv4/ip4_frag.c ****     other_datagrams = 0;
 495              		.loc 1 241 17 view .LVU141
 496 0072 2146     		mov	r1, r4
 240:Middlewares/Third_Party/LwIP/src/core/ipv4/ip4_frag.c ****     oldest_prev = NULL;
 497              		.loc 1 240 10 view .LVU142
 498 0074 2546     		mov	r5, r4
 239:Middlewares/Third_Party/LwIP/src/core/ipv4/ip4_frag.c ****     prev = NULL;
 499              		.loc 1 239 12 view .LVU143
 500 0076 2046     		mov	r0, r4
 244:Middlewares/Third_Party/LwIP/src/core/ipv4/ip4_frag.c ****       if (!IP_ADDRESSES_AND_ID_MATCH(&r->iphdr, fraghdr)) {
 501              		.loc 1 244 11 view .LVU144
 502 0078 D9E7     		b	.L28
 503              	.LVL58:
 504              	.L41:
 267:Middlewares/Third_Party/LwIP/src/core/ipv4/ip4_frag.c **** }
 505              		.loc 1 267 3 is_stmt 1 view .LVU145
 268:Middlewares/Third_Party/LwIP/src/core/ipv4/ip4_frag.c **** #endif /* IP_REASS_FREE_OLDEST */
 506              		.loc 1 268 1 is_stmt 0 view .LVU146
 507 007a 3846     		mov	r0, r7
 508 007c BDE8F081 		pop	{r4, r5, r6, r7, r8, pc}
ARM GAS  /tmp/ccwtyKYK.s 			page 18


 509              	.LVL59:
 510              	.L43:
 268:Middlewares/Third_Party/LwIP/src/core/ipv4/ip4_frag.c **** #endif /* IP_REASS_FREE_OLDEST */
 511              		.loc 1 268 1 view .LVU147
 512              		.align	2
 513              	.L42:
 514 0080 00000000 		.word	.LANCHOR0
 515              		.cfi_endproc
 516              	.LFE162:
 518              		.section	.text.ip_frag_free_pbuf_custom_ref,"ax",%progbits
 519              		.align	1
 520              		.syntax unified
 521              		.thumb
 522              		.thumb_func
 523              		.fpu fpv5-sp-d16
 525              	ip_frag_free_pbuf_custom_ref:
 526              	.LVL60:
 527              	.LFB168:
 332:Middlewares/Third_Party/LwIP/src/core/ipv4/ip4_frag.c **** 
 333:Middlewares/Third_Party/LwIP/src/core/ipv4/ip4_frag.c **** /**
 334:Middlewares/Third_Party/LwIP/src/core/ipv4/ip4_frag.c ****  * Chain a new pbuf into the pbuf list that composes the datagram.  The pbuf list
 335:Middlewares/Third_Party/LwIP/src/core/ipv4/ip4_frag.c ****  * will grow over time as  new pbufs are rx.
 336:Middlewares/Third_Party/LwIP/src/core/ipv4/ip4_frag.c ****  * Also checks that the datagram passes basic continuity checks (if the last
 337:Middlewares/Third_Party/LwIP/src/core/ipv4/ip4_frag.c ****  * fragment was received at least once).
 338:Middlewares/Third_Party/LwIP/src/core/ipv4/ip4_frag.c ****  * @param ipr points to the reassembly state
 339:Middlewares/Third_Party/LwIP/src/core/ipv4/ip4_frag.c ****  * @param new_p points to the pbuf for the current fragment
 340:Middlewares/Third_Party/LwIP/src/core/ipv4/ip4_frag.c ****  * @param is_last is 1 if this pbuf has MF==0 (ipr->flags not updated yet)
 341:Middlewares/Third_Party/LwIP/src/core/ipv4/ip4_frag.c ****  * @return see IP_REASS_VALIDATE_* defines
 342:Middlewares/Third_Party/LwIP/src/core/ipv4/ip4_frag.c ****  */
 343:Middlewares/Third_Party/LwIP/src/core/ipv4/ip4_frag.c **** static int
 344:Middlewares/Third_Party/LwIP/src/core/ipv4/ip4_frag.c **** ip_reass_chain_frag_into_datagram_and_validate(struct ip_reassdata *ipr, struct pbuf *new_p, int is
 345:Middlewares/Third_Party/LwIP/src/core/ipv4/ip4_frag.c **** {
 346:Middlewares/Third_Party/LwIP/src/core/ipv4/ip4_frag.c ****   struct ip_reass_helper *iprh, *iprh_tmp, *iprh_prev=NULL;
 347:Middlewares/Third_Party/LwIP/src/core/ipv4/ip4_frag.c ****   struct pbuf *q;
 348:Middlewares/Third_Party/LwIP/src/core/ipv4/ip4_frag.c ****   u16_t offset, len;
 349:Middlewares/Third_Party/LwIP/src/core/ipv4/ip4_frag.c ****   struct ip_hdr *fraghdr;
 350:Middlewares/Third_Party/LwIP/src/core/ipv4/ip4_frag.c ****   int valid = 1;
 351:Middlewares/Third_Party/LwIP/src/core/ipv4/ip4_frag.c **** 
 352:Middlewares/Third_Party/LwIP/src/core/ipv4/ip4_frag.c ****   /* Extract length and fragment offset from current fragment */
 353:Middlewares/Third_Party/LwIP/src/core/ipv4/ip4_frag.c ****   fraghdr = (struct ip_hdr*)new_p->payload;
 354:Middlewares/Third_Party/LwIP/src/core/ipv4/ip4_frag.c ****   len = lwip_ntohs(IPH_LEN(fraghdr)) - IPH_HL(fraghdr) * 4;
 355:Middlewares/Third_Party/LwIP/src/core/ipv4/ip4_frag.c ****   offset = (lwip_ntohs(IPH_OFFSET(fraghdr)) & IP_OFFMASK) * 8;
 356:Middlewares/Third_Party/LwIP/src/core/ipv4/ip4_frag.c **** 
 357:Middlewares/Third_Party/LwIP/src/core/ipv4/ip4_frag.c ****   /* overwrite the fragment's ip header from the pbuf with our helper struct,
 358:Middlewares/Third_Party/LwIP/src/core/ipv4/ip4_frag.c ****    * and setup the embedded helper structure. */
 359:Middlewares/Third_Party/LwIP/src/core/ipv4/ip4_frag.c ****   /* make sure the struct ip_reass_helper fits into the IP header */
 360:Middlewares/Third_Party/LwIP/src/core/ipv4/ip4_frag.c ****   LWIP_ASSERT("sizeof(struct ip_reass_helper) <= IP_HLEN",
 361:Middlewares/Third_Party/LwIP/src/core/ipv4/ip4_frag.c ****               sizeof(struct ip_reass_helper) <= IP_HLEN);
 362:Middlewares/Third_Party/LwIP/src/core/ipv4/ip4_frag.c ****   iprh = (struct ip_reass_helper*)new_p->payload;
 363:Middlewares/Third_Party/LwIP/src/core/ipv4/ip4_frag.c ****   iprh->next_pbuf = NULL;
 364:Middlewares/Third_Party/LwIP/src/core/ipv4/ip4_frag.c ****   iprh->start = offset;
 365:Middlewares/Third_Party/LwIP/src/core/ipv4/ip4_frag.c ****   iprh->end = offset + len;
 366:Middlewares/Third_Party/LwIP/src/core/ipv4/ip4_frag.c **** 
 367:Middlewares/Third_Party/LwIP/src/core/ipv4/ip4_frag.c ****   /* Iterate through until we either get to the end of the list (append),
 368:Middlewares/Third_Party/LwIP/src/core/ipv4/ip4_frag.c ****    * or we find one with a larger offset (insert). */
 369:Middlewares/Third_Party/LwIP/src/core/ipv4/ip4_frag.c ****   for (q = ipr->p; q != NULL;) {
 370:Middlewares/Third_Party/LwIP/src/core/ipv4/ip4_frag.c ****     iprh_tmp = (struct ip_reass_helper*)q->payload;
ARM GAS  /tmp/ccwtyKYK.s 			page 19


 371:Middlewares/Third_Party/LwIP/src/core/ipv4/ip4_frag.c ****     if (iprh->start < iprh_tmp->start) {
 372:Middlewares/Third_Party/LwIP/src/core/ipv4/ip4_frag.c ****       /* the new pbuf should be inserted before this */
 373:Middlewares/Third_Party/LwIP/src/core/ipv4/ip4_frag.c ****       iprh->next_pbuf = q;
 374:Middlewares/Third_Party/LwIP/src/core/ipv4/ip4_frag.c ****       if (iprh_prev != NULL) {
 375:Middlewares/Third_Party/LwIP/src/core/ipv4/ip4_frag.c ****         /* not the fragment with the lowest offset */
 376:Middlewares/Third_Party/LwIP/src/core/ipv4/ip4_frag.c **** #if IP_REASS_CHECK_OVERLAP
 377:Middlewares/Third_Party/LwIP/src/core/ipv4/ip4_frag.c ****         if ((iprh->start < iprh_prev->end) || (iprh->end > iprh_tmp->start)) {
 378:Middlewares/Third_Party/LwIP/src/core/ipv4/ip4_frag.c ****           /* fragment overlaps with previous or following, throw away */
 379:Middlewares/Third_Party/LwIP/src/core/ipv4/ip4_frag.c ****           goto freepbuf;
 380:Middlewares/Third_Party/LwIP/src/core/ipv4/ip4_frag.c ****         }
 381:Middlewares/Third_Party/LwIP/src/core/ipv4/ip4_frag.c **** #endif /* IP_REASS_CHECK_OVERLAP */
 382:Middlewares/Third_Party/LwIP/src/core/ipv4/ip4_frag.c ****         iprh_prev->next_pbuf = new_p;
 383:Middlewares/Third_Party/LwIP/src/core/ipv4/ip4_frag.c ****         if (iprh_prev->end != iprh->start) {
 384:Middlewares/Third_Party/LwIP/src/core/ipv4/ip4_frag.c ****           /* There is a fragment missing between the current
 385:Middlewares/Third_Party/LwIP/src/core/ipv4/ip4_frag.c ****            * and the previous fragment */
 386:Middlewares/Third_Party/LwIP/src/core/ipv4/ip4_frag.c ****           valid = 0;
 387:Middlewares/Third_Party/LwIP/src/core/ipv4/ip4_frag.c ****         }
 388:Middlewares/Third_Party/LwIP/src/core/ipv4/ip4_frag.c ****       } else {
 389:Middlewares/Third_Party/LwIP/src/core/ipv4/ip4_frag.c **** #if IP_REASS_CHECK_OVERLAP
 390:Middlewares/Third_Party/LwIP/src/core/ipv4/ip4_frag.c ****         if (iprh->end > iprh_tmp->start) {
 391:Middlewares/Third_Party/LwIP/src/core/ipv4/ip4_frag.c ****           /* fragment overlaps with following, throw away */
 392:Middlewares/Third_Party/LwIP/src/core/ipv4/ip4_frag.c ****           goto freepbuf;
 393:Middlewares/Third_Party/LwIP/src/core/ipv4/ip4_frag.c ****         }
 394:Middlewares/Third_Party/LwIP/src/core/ipv4/ip4_frag.c **** #endif /* IP_REASS_CHECK_OVERLAP */
 395:Middlewares/Third_Party/LwIP/src/core/ipv4/ip4_frag.c ****         /* fragment with the lowest offset */
 396:Middlewares/Third_Party/LwIP/src/core/ipv4/ip4_frag.c ****         ipr->p = new_p;
 397:Middlewares/Third_Party/LwIP/src/core/ipv4/ip4_frag.c ****       }
 398:Middlewares/Third_Party/LwIP/src/core/ipv4/ip4_frag.c ****       break;
 399:Middlewares/Third_Party/LwIP/src/core/ipv4/ip4_frag.c ****     } else if (iprh->start == iprh_tmp->start) {
 400:Middlewares/Third_Party/LwIP/src/core/ipv4/ip4_frag.c ****       /* received the same datagram twice: no need to keep the datagram */
 401:Middlewares/Third_Party/LwIP/src/core/ipv4/ip4_frag.c ****       goto freepbuf;
 402:Middlewares/Third_Party/LwIP/src/core/ipv4/ip4_frag.c **** #if IP_REASS_CHECK_OVERLAP
 403:Middlewares/Third_Party/LwIP/src/core/ipv4/ip4_frag.c ****     } else if (iprh->start < iprh_tmp->end) {
 404:Middlewares/Third_Party/LwIP/src/core/ipv4/ip4_frag.c ****       /* overlap: no need to keep the new datagram */
 405:Middlewares/Third_Party/LwIP/src/core/ipv4/ip4_frag.c ****       goto freepbuf;
 406:Middlewares/Third_Party/LwIP/src/core/ipv4/ip4_frag.c **** #endif /* IP_REASS_CHECK_OVERLAP */
 407:Middlewares/Third_Party/LwIP/src/core/ipv4/ip4_frag.c ****     } else {
 408:Middlewares/Third_Party/LwIP/src/core/ipv4/ip4_frag.c ****       /* Check if the fragments received so far have no holes. */
 409:Middlewares/Third_Party/LwIP/src/core/ipv4/ip4_frag.c ****       if (iprh_prev != NULL) {
 410:Middlewares/Third_Party/LwIP/src/core/ipv4/ip4_frag.c ****         if (iprh_prev->end != iprh_tmp->start) {
 411:Middlewares/Third_Party/LwIP/src/core/ipv4/ip4_frag.c ****           /* There is a fragment missing between the current
 412:Middlewares/Third_Party/LwIP/src/core/ipv4/ip4_frag.c ****            * and the previous fragment */
 413:Middlewares/Third_Party/LwIP/src/core/ipv4/ip4_frag.c ****           valid = 0;
 414:Middlewares/Third_Party/LwIP/src/core/ipv4/ip4_frag.c ****         }
 415:Middlewares/Third_Party/LwIP/src/core/ipv4/ip4_frag.c ****       }
 416:Middlewares/Third_Party/LwIP/src/core/ipv4/ip4_frag.c ****     }
 417:Middlewares/Third_Party/LwIP/src/core/ipv4/ip4_frag.c ****     q = iprh_tmp->next_pbuf;
 418:Middlewares/Third_Party/LwIP/src/core/ipv4/ip4_frag.c ****     iprh_prev = iprh_tmp;
 419:Middlewares/Third_Party/LwIP/src/core/ipv4/ip4_frag.c ****   }
 420:Middlewares/Third_Party/LwIP/src/core/ipv4/ip4_frag.c **** 
 421:Middlewares/Third_Party/LwIP/src/core/ipv4/ip4_frag.c ****   /* If q is NULL, then we made it to the end of the list. Determine what to do now */
 422:Middlewares/Third_Party/LwIP/src/core/ipv4/ip4_frag.c ****   if (q == NULL) {
 423:Middlewares/Third_Party/LwIP/src/core/ipv4/ip4_frag.c ****     if (iprh_prev != NULL) {
 424:Middlewares/Third_Party/LwIP/src/core/ipv4/ip4_frag.c ****       /* this is (for now), the fragment with the highest offset:
 425:Middlewares/Third_Party/LwIP/src/core/ipv4/ip4_frag.c ****        * chain it to the last fragment */
 426:Middlewares/Third_Party/LwIP/src/core/ipv4/ip4_frag.c **** #if IP_REASS_CHECK_OVERLAP
 427:Middlewares/Third_Party/LwIP/src/core/ipv4/ip4_frag.c ****       LWIP_ASSERT("check fragments don't overlap", iprh_prev->end <= iprh->start);
ARM GAS  /tmp/ccwtyKYK.s 			page 20


 428:Middlewares/Third_Party/LwIP/src/core/ipv4/ip4_frag.c **** #endif /* IP_REASS_CHECK_OVERLAP */
 429:Middlewares/Third_Party/LwIP/src/core/ipv4/ip4_frag.c ****       iprh_prev->next_pbuf = new_p;
 430:Middlewares/Third_Party/LwIP/src/core/ipv4/ip4_frag.c ****       if (iprh_prev->end != iprh->start) {
 431:Middlewares/Third_Party/LwIP/src/core/ipv4/ip4_frag.c ****         valid = 0;
 432:Middlewares/Third_Party/LwIP/src/core/ipv4/ip4_frag.c ****       }
 433:Middlewares/Third_Party/LwIP/src/core/ipv4/ip4_frag.c ****     } else {
 434:Middlewares/Third_Party/LwIP/src/core/ipv4/ip4_frag.c **** #if IP_REASS_CHECK_OVERLAP
 435:Middlewares/Third_Party/LwIP/src/core/ipv4/ip4_frag.c ****       LWIP_ASSERT("no previous fragment, this must be the first fragment!",
 436:Middlewares/Third_Party/LwIP/src/core/ipv4/ip4_frag.c ****         ipr->p == NULL);
 437:Middlewares/Third_Party/LwIP/src/core/ipv4/ip4_frag.c **** #endif /* IP_REASS_CHECK_OVERLAP */
 438:Middlewares/Third_Party/LwIP/src/core/ipv4/ip4_frag.c ****       /* this is the first fragment we ever received for this ip datagram */
 439:Middlewares/Third_Party/LwIP/src/core/ipv4/ip4_frag.c ****       ipr->p = new_p;
 440:Middlewares/Third_Party/LwIP/src/core/ipv4/ip4_frag.c ****     }
 441:Middlewares/Third_Party/LwIP/src/core/ipv4/ip4_frag.c ****   }
 442:Middlewares/Third_Party/LwIP/src/core/ipv4/ip4_frag.c **** 
 443:Middlewares/Third_Party/LwIP/src/core/ipv4/ip4_frag.c ****   /* At this point, the validation part begins: */
 444:Middlewares/Third_Party/LwIP/src/core/ipv4/ip4_frag.c ****   /* If we already received the last fragment */
 445:Middlewares/Third_Party/LwIP/src/core/ipv4/ip4_frag.c ****   if (is_last || ((ipr->flags & IP_REASS_FLAG_LASTFRAG) != 0)) {
 446:Middlewares/Third_Party/LwIP/src/core/ipv4/ip4_frag.c ****     /* and had no holes so far */
 447:Middlewares/Third_Party/LwIP/src/core/ipv4/ip4_frag.c ****     if (valid) {
 448:Middlewares/Third_Party/LwIP/src/core/ipv4/ip4_frag.c ****       /* then check if the rest of the fragments is here */
 449:Middlewares/Third_Party/LwIP/src/core/ipv4/ip4_frag.c ****       /* Check if the queue starts with the first datagram */
 450:Middlewares/Third_Party/LwIP/src/core/ipv4/ip4_frag.c ****       if ((ipr->p == NULL) || (((struct ip_reass_helper*)ipr->p->payload)->start != 0)) {
 451:Middlewares/Third_Party/LwIP/src/core/ipv4/ip4_frag.c ****         valid = 0;
 452:Middlewares/Third_Party/LwIP/src/core/ipv4/ip4_frag.c ****       } else {
 453:Middlewares/Third_Party/LwIP/src/core/ipv4/ip4_frag.c ****         /* and check that there are no holes after this datagram */
 454:Middlewares/Third_Party/LwIP/src/core/ipv4/ip4_frag.c ****         iprh_prev = iprh;
 455:Middlewares/Third_Party/LwIP/src/core/ipv4/ip4_frag.c ****         q = iprh->next_pbuf;
 456:Middlewares/Third_Party/LwIP/src/core/ipv4/ip4_frag.c ****         while (q != NULL) {
 457:Middlewares/Third_Party/LwIP/src/core/ipv4/ip4_frag.c ****           iprh = (struct ip_reass_helper*)q->payload;
 458:Middlewares/Third_Party/LwIP/src/core/ipv4/ip4_frag.c ****           if (iprh_prev->end != iprh->start) {
 459:Middlewares/Third_Party/LwIP/src/core/ipv4/ip4_frag.c ****             valid = 0;
 460:Middlewares/Third_Party/LwIP/src/core/ipv4/ip4_frag.c ****             break;
 461:Middlewares/Third_Party/LwIP/src/core/ipv4/ip4_frag.c ****           }
 462:Middlewares/Third_Party/LwIP/src/core/ipv4/ip4_frag.c ****           iprh_prev = iprh;
 463:Middlewares/Third_Party/LwIP/src/core/ipv4/ip4_frag.c ****           q = iprh->next_pbuf;
 464:Middlewares/Third_Party/LwIP/src/core/ipv4/ip4_frag.c ****         }
 465:Middlewares/Third_Party/LwIP/src/core/ipv4/ip4_frag.c ****         /* if still valid, all fragments are received
 466:Middlewares/Third_Party/LwIP/src/core/ipv4/ip4_frag.c ****          * (because to the MF==0 already arrived */
 467:Middlewares/Third_Party/LwIP/src/core/ipv4/ip4_frag.c ****         if (valid) {
 468:Middlewares/Third_Party/LwIP/src/core/ipv4/ip4_frag.c ****           LWIP_ASSERT("sanity check", ipr->p != NULL);
 469:Middlewares/Third_Party/LwIP/src/core/ipv4/ip4_frag.c ****           LWIP_ASSERT("sanity check",
 470:Middlewares/Third_Party/LwIP/src/core/ipv4/ip4_frag.c ****             ((struct ip_reass_helper*)ipr->p->payload) != iprh);
 471:Middlewares/Third_Party/LwIP/src/core/ipv4/ip4_frag.c ****           LWIP_ASSERT("validate_datagram:next_pbuf!=NULL",
 472:Middlewares/Third_Party/LwIP/src/core/ipv4/ip4_frag.c ****             iprh->next_pbuf == NULL);
 473:Middlewares/Third_Party/LwIP/src/core/ipv4/ip4_frag.c ****         }
 474:Middlewares/Third_Party/LwIP/src/core/ipv4/ip4_frag.c ****       }
 475:Middlewares/Third_Party/LwIP/src/core/ipv4/ip4_frag.c ****     }
 476:Middlewares/Third_Party/LwIP/src/core/ipv4/ip4_frag.c ****     /* If valid is 0 here, there are some fragments missing in the middle
 477:Middlewares/Third_Party/LwIP/src/core/ipv4/ip4_frag.c ****      * (since MF == 0 has already arrived). Such datagrams simply time out if
 478:Middlewares/Third_Party/LwIP/src/core/ipv4/ip4_frag.c ****      * no more fragments are received... */
 479:Middlewares/Third_Party/LwIP/src/core/ipv4/ip4_frag.c ****     return valid ? IP_REASS_VALIDATE_TELEGRAM_FINISHED : IP_REASS_VALIDATE_PBUF_QUEUED;
 480:Middlewares/Third_Party/LwIP/src/core/ipv4/ip4_frag.c ****   }
 481:Middlewares/Third_Party/LwIP/src/core/ipv4/ip4_frag.c ****   /* If we come here, not all fragments were received, yet! */
 482:Middlewares/Third_Party/LwIP/src/core/ipv4/ip4_frag.c ****   return IP_REASS_VALIDATE_PBUF_QUEUED; /* not yet valid! */
 483:Middlewares/Third_Party/LwIP/src/core/ipv4/ip4_frag.c **** #if IP_REASS_CHECK_OVERLAP
 484:Middlewares/Third_Party/LwIP/src/core/ipv4/ip4_frag.c **** freepbuf:
ARM GAS  /tmp/ccwtyKYK.s 			page 21


 485:Middlewares/Third_Party/LwIP/src/core/ipv4/ip4_frag.c ****   ip_reass_pbufcount -= pbuf_clen(new_p);
 486:Middlewares/Third_Party/LwIP/src/core/ipv4/ip4_frag.c ****   pbuf_free(new_p);
 487:Middlewares/Third_Party/LwIP/src/core/ipv4/ip4_frag.c ****   return IP_REASS_VALIDATE_PBUF_DROPPED;
 488:Middlewares/Third_Party/LwIP/src/core/ipv4/ip4_frag.c **** #endif /* IP_REASS_CHECK_OVERLAP */
 489:Middlewares/Third_Party/LwIP/src/core/ipv4/ip4_frag.c **** }
 490:Middlewares/Third_Party/LwIP/src/core/ipv4/ip4_frag.c **** 
 491:Middlewares/Third_Party/LwIP/src/core/ipv4/ip4_frag.c **** /**
 492:Middlewares/Third_Party/LwIP/src/core/ipv4/ip4_frag.c ****  * Reassembles incoming IP fragments into an IP datagram.
 493:Middlewares/Third_Party/LwIP/src/core/ipv4/ip4_frag.c ****  *
 494:Middlewares/Third_Party/LwIP/src/core/ipv4/ip4_frag.c ****  * @param p points to a pbuf chain of the fragment
 495:Middlewares/Third_Party/LwIP/src/core/ipv4/ip4_frag.c ****  * @return NULL if reassembly is incomplete, ? otherwise
 496:Middlewares/Third_Party/LwIP/src/core/ipv4/ip4_frag.c ****  */
 497:Middlewares/Third_Party/LwIP/src/core/ipv4/ip4_frag.c **** struct pbuf *
 498:Middlewares/Third_Party/LwIP/src/core/ipv4/ip4_frag.c **** ip4_reass(struct pbuf *p)
 499:Middlewares/Third_Party/LwIP/src/core/ipv4/ip4_frag.c **** {
 500:Middlewares/Third_Party/LwIP/src/core/ipv4/ip4_frag.c ****   struct pbuf *r;
 501:Middlewares/Third_Party/LwIP/src/core/ipv4/ip4_frag.c ****   struct ip_hdr *fraghdr;
 502:Middlewares/Third_Party/LwIP/src/core/ipv4/ip4_frag.c ****   struct ip_reassdata *ipr;
 503:Middlewares/Third_Party/LwIP/src/core/ipv4/ip4_frag.c ****   struct ip_reass_helper *iprh;
 504:Middlewares/Third_Party/LwIP/src/core/ipv4/ip4_frag.c ****   u16_t offset, len, clen;
 505:Middlewares/Third_Party/LwIP/src/core/ipv4/ip4_frag.c ****   int valid;
 506:Middlewares/Third_Party/LwIP/src/core/ipv4/ip4_frag.c ****   int is_last;
 507:Middlewares/Third_Party/LwIP/src/core/ipv4/ip4_frag.c **** 
 508:Middlewares/Third_Party/LwIP/src/core/ipv4/ip4_frag.c ****   IPFRAG_STATS_INC(ip_frag.recv);
 509:Middlewares/Third_Party/LwIP/src/core/ipv4/ip4_frag.c ****   MIB2_STATS_INC(mib2.ipreasmreqds);
 510:Middlewares/Third_Party/LwIP/src/core/ipv4/ip4_frag.c **** 
 511:Middlewares/Third_Party/LwIP/src/core/ipv4/ip4_frag.c ****   fraghdr = (struct ip_hdr*)p->payload;
 512:Middlewares/Third_Party/LwIP/src/core/ipv4/ip4_frag.c **** 
 513:Middlewares/Third_Party/LwIP/src/core/ipv4/ip4_frag.c ****   if ((IPH_HL(fraghdr) * 4) != IP_HLEN) {
 514:Middlewares/Third_Party/LwIP/src/core/ipv4/ip4_frag.c ****     LWIP_DEBUGF(IP_REASS_DEBUG,("ip4_reass: IP options currently not supported!\n"));
 515:Middlewares/Third_Party/LwIP/src/core/ipv4/ip4_frag.c ****     IPFRAG_STATS_INC(ip_frag.err);
 516:Middlewares/Third_Party/LwIP/src/core/ipv4/ip4_frag.c ****     goto nullreturn;
 517:Middlewares/Third_Party/LwIP/src/core/ipv4/ip4_frag.c ****   }
 518:Middlewares/Third_Party/LwIP/src/core/ipv4/ip4_frag.c **** 
 519:Middlewares/Third_Party/LwIP/src/core/ipv4/ip4_frag.c ****   offset = (lwip_ntohs(IPH_OFFSET(fraghdr)) & IP_OFFMASK) * 8;
 520:Middlewares/Third_Party/LwIP/src/core/ipv4/ip4_frag.c ****   len = lwip_ntohs(IPH_LEN(fraghdr)) - IPH_HL(fraghdr) * 4;
 521:Middlewares/Third_Party/LwIP/src/core/ipv4/ip4_frag.c **** 
 522:Middlewares/Third_Party/LwIP/src/core/ipv4/ip4_frag.c ****   /* Check if we are allowed to enqueue more datagrams. */
 523:Middlewares/Third_Party/LwIP/src/core/ipv4/ip4_frag.c ****   clen = pbuf_clen(p);
 524:Middlewares/Third_Party/LwIP/src/core/ipv4/ip4_frag.c ****   if ((ip_reass_pbufcount + clen) > IP_REASS_MAX_PBUFS) {
 525:Middlewares/Third_Party/LwIP/src/core/ipv4/ip4_frag.c **** #if IP_REASS_FREE_OLDEST
 526:Middlewares/Third_Party/LwIP/src/core/ipv4/ip4_frag.c ****     if (!ip_reass_remove_oldest_datagram(fraghdr, clen) ||
 527:Middlewares/Third_Party/LwIP/src/core/ipv4/ip4_frag.c ****         ((ip_reass_pbufcount + clen) > IP_REASS_MAX_PBUFS))
 528:Middlewares/Third_Party/LwIP/src/core/ipv4/ip4_frag.c **** #endif /* IP_REASS_FREE_OLDEST */
 529:Middlewares/Third_Party/LwIP/src/core/ipv4/ip4_frag.c ****     {
 530:Middlewares/Third_Party/LwIP/src/core/ipv4/ip4_frag.c ****       /* No datagram could be freed and still too many pbufs enqueued */
 531:Middlewares/Third_Party/LwIP/src/core/ipv4/ip4_frag.c ****       LWIP_DEBUGF(IP_REASS_DEBUG,("ip4_reass: Overflow condition: pbufct=%d, clen=%d, MAX=%d\n",
 532:Middlewares/Third_Party/LwIP/src/core/ipv4/ip4_frag.c ****         ip_reass_pbufcount, clen, IP_REASS_MAX_PBUFS));
 533:Middlewares/Third_Party/LwIP/src/core/ipv4/ip4_frag.c ****       IPFRAG_STATS_INC(ip_frag.memerr);
 534:Middlewares/Third_Party/LwIP/src/core/ipv4/ip4_frag.c ****       /* @todo: send ICMP time exceeded here? */
 535:Middlewares/Third_Party/LwIP/src/core/ipv4/ip4_frag.c ****       /* drop this pbuf */
 536:Middlewares/Third_Party/LwIP/src/core/ipv4/ip4_frag.c ****       goto nullreturn;
 537:Middlewares/Third_Party/LwIP/src/core/ipv4/ip4_frag.c ****     }
 538:Middlewares/Third_Party/LwIP/src/core/ipv4/ip4_frag.c ****   }
 539:Middlewares/Third_Party/LwIP/src/core/ipv4/ip4_frag.c **** 
 540:Middlewares/Third_Party/LwIP/src/core/ipv4/ip4_frag.c ****   /* Look for the datagram the fragment belongs to in the current datagram queue,
 541:Middlewares/Third_Party/LwIP/src/core/ipv4/ip4_frag.c ****    * remembering the previous in the queue for later dequeueing. */
ARM GAS  /tmp/ccwtyKYK.s 			page 22


 542:Middlewares/Third_Party/LwIP/src/core/ipv4/ip4_frag.c ****   for (ipr = reassdatagrams; ipr != NULL; ipr = ipr->next) {
 543:Middlewares/Third_Party/LwIP/src/core/ipv4/ip4_frag.c ****     /* Check if the incoming fragment matches the one currently present
 544:Middlewares/Third_Party/LwIP/src/core/ipv4/ip4_frag.c ****        in the reassembly buffer. If so, we proceed with copying the
 545:Middlewares/Third_Party/LwIP/src/core/ipv4/ip4_frag.c ****        fragment into the buffer. */
 546:Middlewares/Third_Party/LwIP/src/core/ipv4/ip4_frag.c ****     if (IP_ADDRESSES_AND_ID_MATCH(&ipr->iphdr, fraghdr)) {
 547:Middlewares/Third_Party/LwIP/src/core/ipv4/ip4_frag.c ****       LWIP_DEBUGF(IP_REASS_DEBUG, ("ip4_reass: matching previous fragment ID=%"X16_F"\n",
 548:Middlewares/Third_Party/LwIP/src/core/ipv4/ip4_frag.c ****         lwip_ntohs(IPH_ID(fraghdr))));
 549:Middlewares/Third_Party/LwIP/src/core/ipv4/ip4_frag.c ****       IPFRAG_STATS_INC(ip_frag.cachehit);
 550:Middlewares/Third_Party/LwIP/src/core/ipv4/ip4_frag.c ****       break;
 551:Middlewares/Third_Party/LwIP/src/core/ipv4/ip4_frag.c ****     }
 552:Middlewares/Third_Party/LwIP/src/core/ipv4/ip4_frag.c ****   }
 553:Middlewares/Third_Party/LwIP/src/core/ipv4/ip4_frag.c **** 
 554:Middlewares/Third_Party/LwIP/src/core/ipv4/ip4_frag.c ****   if (ipr == NULL) {
 555:Middlewares/Third_Party/LwIP/src/core/ipv4/ip4_frag.c ****   /* Enqueue a new datagram into the datagram queue */
 556:Middlewares/Third_Party/LwIP/src/core/ipv4/ip4_frag.c ****     ipr = ip_reass_enqueue_new_datagram(fraghdr, clen);
 557:Middlewares/Third_Party/LwIP/src/core/ipv4/ip4_frag.c ****     /* Bail if unable to enqueue */
 558:Middlewares/Third_Party/LwIP/src/core/ipv4/ip4_frag.c ****     if (ipr == NULL) {
 559:Middlewares/Third_Party/LwIP/src/core/ipv4/ip4_frag.c ****       goto nullreturn;
 560:Middlewares/Third_Party/LwIP/src/core/ipv4/ip4_frag.c ****     }
 561:Middlewares/Third_Party/LwIP/src/core/ipv4/ip4_frag.c ****   } else {
 562:Middlewares/Third_Party/LwIP/src/core/ipv4/ip4_frag.c ****     if (((lwip_ntohs(IPH_OFFSET(fraghdr)) & IP_OFFMASK) == 0) &&
 563:Middlewares/Third_Party/LwIP/src/core/ipv4/ip4_frag.c ****       ((lwip_ntohs(IPH_OFFSET(&ipr->iphdr)) & IP_OFFMASK) != 0)) {
 564:Middlewares/Third_Party/LwIP/src/core/ipv4/ip4_frag.c ****       /* ipr->iphdr is not the header from the first fragment, but fraghdr is
 565:Middlewares/Third_Party/LwIP/src/core/ipv4/ip4_frag.c ****        * -> copy fraghdr into ipr->iphdr since we want to have the header
 566:Middlewares/Third_Party/LwIP/src/core/ipv4/ip4_frag.c ****        * of the first fragment (for ICMP time exceeded and later, for copying
 567:Middlewares/Third_Party/LwIP/src/core/ipv4/ip4_frag.c ****        * all options, if supported)*/
 568:Middlewares/Third_Party/LwIP/src/core/ipv4/ip4_frag.c ****       SMEMCPY(&ipr->iphdr, fraghdr, IP_HLEN);
 569:Middlewares/Third_Party/LwIP/src/core/ipv4/ip4_frag.c ****     }
 570:Middlewares/Third_Party/LwIP/src/core/ipv4/ip4_frag.c ****   }
 571:Middlewares/Third_Party/LwIP/src/core/ipv4/ip4_frag.c **** 
 572:Middlewares/Third_Party/LwIP/src/core/ipv4/ip4_frag.c ****   /* At this point, we have either created a new entry or pointing
 573:Middlewares/Third_Party/LwIP/src/core/ipv4/ip4_frag.c ****    * to an existing one */
 574:Middlewares/Third_Party/LwIP/src/core/ipv4/ip4_frag.c **** 
 575:Middlewares/Third_Party/LwIP/src/core/ipv4/ip4_frag.c ****   /* check for 'no more fragments', and update queue entry*/
 576:Middlewares/Third_Party/LwIP/src/core/ipv4/ip4_frag.c ****   is_last = (IPH_OFFSET(fraghdr) & PP_NTOHS(IP_MF)) == 0;
 577:Middlewares/Third_Party/LwIP/src/core/ipv4/ip4_frag.c ****   if (is_last) {
 578:Middlewares/Third_Party/LwIP/src/core/ipv4/ip4_frag.c ****     u16_t datagram_len = (u16_t)(offset + len);
 579:Middlewares/Third_Party/LwIP/src/core/ipv4/ip4_frag.c ****     if ((datagram_len < offset) || (datagram_len > (0xFFFF - IP_HLEN))) {
 580:Middlewares/Third_Party/LwIP/src/core/ipv4/ip4_frag.c ****       /* u16_t overflow, cannot handle this */
 581:Middlewares/Third_Party/LwIP/src/core/ipv4/ip4_frag.c ****       goto nullreturn;
 582:Middlewares/Third_Party/LwIP/src/core/ipv4/ip4_frag.c ****     }
 583:Middlewares/Third_Party/LwIP/src/core/ipv4/ip4_frag.c ****   }
 584:Middlewares/Third_Party/LwIP/src/core/ipv4/ip4_frag.c ****   /* find the right place to insert this pbuf */
 585:Middlewares/Third_Party/LwIP/src/core/ipv4/ip4_frag.c ****   /* @todo: trim pbufs if fragments are overlapping */
 586:Middlewares/Third_Party/LwIP/src/core/ipv4/ip4_frag.c ****   valid = ip_reass_chain_frag_into_datagram_and_validate(ipr, p, is_last);
 587:Middlewares/Third_Party/LwIP/src/core/ipv4/ip4_frag.c ****   if (valid == IP_REASS_VALIDATE_PBUF_DROPPED) {
 588:Middlewares/Third_Party/LwIP/src/core/ipv4/ip4_frag.c ****     goto nullreturn;
 589:Middlewares/Third_Party/LwIP/src/core/ipv4/ip4_frag.c ****   }
 590:Middlewares/Third_Party/LwIP/src/core/ipv4/ip4_frag.c ****   /* if we come here, the pbuf has been enqueued */
 591:Middlewares/Third_Party/LwIP/src/core/ipv4/ip4_frag.c **** 
 592:Middlewares/Third_Party/LwIP/src/core/ipv4/ip4_frag.c ****   /* Track the current number of pbufs current 'in-flight', in order to limit
 593:Middlewares/Third_Party/LwIP/src/core/ipv4/ip4_frag.c ****      the number of fragments that may be enqueued at any one time
 594:Middlewares/Third_Party/LwIP/src/core/ipv4/ip4_frag.c ****      (overflow checked by testing against IP_REASS_MAX_PBUFS) */
 595:Middlewares/Third_Party/LwIP/src/core/ipv4/ip4_frag.c ****   ip_reass_pbufcount = (u16_t)(ip_reass_pbufcount + clen);
 596:Middlewares/Third_Party/LwIP/src/core/ipv4/ip4_frag.c ****   if (is_last) {
 597:Middlewares/Third_Party/LwIP/src/core/ipv4/ip4_frag.c ****     u16_t datagram_len = (u16_t)(offset + len);
 598:Middlewares/Third_Party/LwIP/src/core/ipv4/ip4_frag.c ****     ipr->datagram_len = datagram_len;
ARM GAS  /tmp/ccwtyKYK.s 			page 23


 599:Middlewares/Third_Party/LwIP/src/core/ipv4/ip4_frag.c ****     ipr->flags |= IP_REASS_FLAG_LASTFRAG;
 600:Middlewares/Third_Party/LwIP/src/core/ipv4/ip4_frag.c ****     LWIP_DEBUGF(IP_REASS_DEBUG,
 601:Middlewares/Third_Party/LwIP/src/core/ipv4/ip4_frag.c ****      ("ip4_reass: last fragment seen, total len %"S16_F"\n",
 602:Middlewares/Third_Party/LwIP/src/core/ipv4/ip4_frag.c ****       ipr->datagram_len));
 603:Middlewares/Third_Party/LwIP/src/core/ipv4/ip4_frag.c ****   }
 604:Middlewares/Third_Party/LwIP/src/core/ipv4/ip4_frag.c **** 
 605:Middlewares/Third_Party/LwIP/src/core/ipv4/ip4_frag.c ****   if (valid == IP_REASS_VALIDATE_TELEGRAM_FINISHED) {
 606:Middlewares/Third_Party/LwIP/src/core/ipv4/ip4_frag.c ****     struct ip_reassdata *ipr_prev;
 607:Middlewares/Third_Party/LwIP/src/core/ipv4/ip4_frag.c ****     /* the totally last fragment (flag more fragments = 0) was received at least
 608:Middlewares/Third_Party/LwIP/src/core/ipv4/ip4_frag.c ****      * once AND all fragments are received */
 609:Middlewares/Third_Party/LwIP/src/core/ipv4/ip4_frag.c ****     ipr->datagram_len += IP_HLEN;
 610:Middlewares/Third_Party/LwIP/src/core/ipv4/ip4_frag.c **** 
 611:Middlewares/Third_Party/LwIP/src/core/ipv4/ip4_frag.c ****     /* save the second pbuf before copying the header over the pointer */
 612:Middlewares/Third_Party/LwIP/src/core/ipv4/ip4_frag.c ****     r = ((struct ip_reass_helper*)ipr->p->payload)->next_pbuf;
 613:Middlewares/Third_Party/LwIP/src/core/ipv4/ip4_frag.c **** 
 614:Middlewares/Third_Party/LwIP/src/core/ipv4/ip4_frag.c ****     /* copy the original ip header back to the first pbuf */
 615:Middlewares/Third_Party/LwIP/src/core/ipv4/ip4_frag.c ****     fraghdr = (struct ip_hdr*)(ipr->p->payload);
 616:Middlewares/Third_Party/LwIP/src/core/ipv4/ip4_frag.c ****     SMEMCPY(fraghdr, &ipr->iphdr, IP_HLEN);
 617:Middlewares/Third_Party/LwIP/src/core/ipv4/ip4_frag.c ****     IPH_LEN_SET(fraghdr, lwip_htons(ipr->datagram_len));
 618:Middlewares/Third_Party/LwIP/src/core/ipv4/ip4_frag.c ****     IPH_OFFSET_SET(fraghdr, 0);
 619:Middlewares/Third_Party/LwIP/src/core/ipv4/ip4_frag.c ****     IPH_CHKSUM_SET(fraghdr, 0);
 620:Middlewares/Third_Party/LwIP/src/core/ipv4/ip4_frag.c ****     /* @todo: do we need to set/calculate the correct checksum? */
 621:Middlewares/Third_Party/LwIP/src/core/ipv4/ip4_frag.c **** #if CHECKSUM_GEN_IP
 622:Middlewares/Third_Party/LwIP/src/core/ipv4/ip4_frag.c ****     IF__NETIF_CHECKSUM_ENABLED(ip_current_input_netif(), NETIF_CHECKSUM_GEN_IP) {
 623:Middlewares/Third_Party/LwIP/src/core/ipv4/ip4_frag.c ****       IPH_CHKSUM_SET(fraghdr, inet_chksum(fraghdr, IP_HLEN));
 624:Middlewares/Third_Party/LwIP/src/core/ipv4/ip4_frag.c ****     }
 625:Middlewares/Third_Party/LwIP/src/core/ipv4/ip4_frag.c **** #endif /* CHECKSUM_GEN_IP */
 626:Middlewares/Third_Party/LwIP/src/core/ipv4/ip4_frag.c **** 
 627:Middlewares/Third_Party/LwIP/src/core/ipv4/ip4_frag.c ****     p = ipr->p;
 628:Middlewares/Third_Party/LwIP/src/core/ipv4/ip4_frag.c **** 
 629:Middlewares/Third_Party/LwIP/src/core/ipv4/ip4_frag.c ****     /* chain together the pbufs contained within the reass_data list. */
 630:Middlewares/Third_Party/LwIP/src/core/ipv4/ip4_frag.c ****     while (r != NULL) {
 631:Middlewares/Third_Party/LwIP/src/core/ipv4/ip4_frag.c ****       iprh = (struct ip_reass_helper*)r->payload;
 632:Middlewares/Third_Party/LwIP/src/core/ipv4/ip4_frag.c **** 
 633:Middlewares/Third_Party/LwIP/src/core/ipv4/ip4_frag.c ****       /* hide the ip header for every succeeding fragment */
 634:Middlewares/Third_Party/LwIP/src/core/ipv4/ip4_frag.c ****       pbuf_header(r, -IP_HLEN);
 635:Middlewares/Third_Party/LwIP/src/core/ipv4/ip4_frag.c ****       pbuf_cat(p, r);
 636:Middlewares/Third_Party/LwIP/src/core/ipv4/ip4_frag.c ****       r = iprh->next_pbuf;
 637:Middlewares/Third_Party/LwIP/src/core/ipv4/ip4_frag.c ****     }
 638:Middlewares/Third_Party/LwIP/src/core/ipv4/ip4_frag.c **** 
 639:Middlewares/Third_Party/LwIP/src/core/ipv4/ip4_frag.c ****     /* find the previous entry in the linked list */
 640:Middlewares/Third_Party/LwIP/src/core/ipv4/ip4_frag.c ****     if (ipr == reassdatagrams) {
 641:Middlewares/Third_Party/LwIP/src/core/ipv4/ip4_frag.c ****       ipr_prev = NULL;
 642:Middlewares/Third_Party/LwIP/src/core/ipv4/ip4_frag.c ****     } else {
 643:Middlewares/Third_Party/LwIP/src/core/ipv4/ip4_frag.c ****       for (ipr_prev = reassdatagrams; ipr_prev != NULL; ipr_prev = ipr_prev->next) {
 644:Middlewares/Third_Party/LwIP/src/core/ipv4/ip4_frag.c ****         if (ipr_prev->next == ipr) {
 645:Middlewares/Third_Party/LwIP/src/core/ipv4/ip4_frag.c ****           break;
 646:Middlewares/Third_Party/LwIP/src/core/ipv4/ip4_frag.c ****         }
 647:Middlewares/Third_Party/LwIP/src/core/ipv4/ip4_frag.c ****       }
 648:Middlewares/Third_Party/LwIP/src/core/ipv4/ip4_frag.c ****     }
 649:Middlewares/Third_Party/LwIP/src/core/ipv4/ip4_frag.c **** 
 650:Middlewares/Third_Party/LwIP/src/core/ipv4/ip4_frag.c ****     /* release the sources allocate for the fragment queue entry */
 651:Middlewares/Third_Party/LwIP/src/core/ipv4/ip4_frag.c ****     ip_reass_dequeue_datagram(ipr, ipr_prev);
 652:Middlewares/Third_Party/LwIP/src/core/ipv4/ip4_frag.c **** 
 653:Middlewares/Third_Party/LwIP/src/core/ipv4/ip4_frag.c ****     /* and adjust the number of pbufs currently queued for reassembly. */
 654:Middlewares/Third_Party/LwIP/src/core/ipv4/ip4_frag.c ****     ip_reass_pbufcount -= pbuf_clen(p);
 655:Middlewares/Third_Party/LwIP/src/core/ipv4/ip4_frag.c **** 
ARM GAS  /tmp/ccwtyKYK.s 			page 24


 656:Middlewares/Third_Party/LwIP/src/core/ipv4/ip4_frag.c ****     MIB2_STATS_INC(mib2.ipreasmoks);
 657:Middlewares/Third_Party/LwIP/src/core/ipv4/ip4_frag.c **** 
 658:Middlewares/Third_Party/LwIP/src/core/ipv4/ip4_frag.c ****     /* Return the pbuf chain */
 659:Middlewares/Third_Party/LwIP/src/core/ipv4/ip4_frag.c ****     return p;
 660:Middlewares/Third_Party/LwIP/src/core/ipv4/ip4_frag.c ****   }
 661:Middlewares/Third_Party/LwIP/src/core/ipv4/ip4_frag.c ****   /* the datagram is not (yet?) reassembled completely */
 662:Middlewares/Third_Party/LwIP/src/core/ipv4/ip4_frag.c ****   LWIP_DEBUGF(IP_REASS_DEBUG,("ip_reass_pbufcount: %d out\n", ip_reass_pbufcount));
 663:Middlewares/Third_Party/LwIP/src/core/ipv4/ip4_frag.c ****   return NULL;
 664:Middlewares/Third_Party/LwIP/src/core/ipv4/ip4_frag.c **** 
 665:Middlewares/Third_Party/LwIP/src/core/ipv4/ip4_frag.c **** nullreturn:
 666:Middlewares/Third_Party/LwIP/src/core/ipv4/ip4_frag.c ****   LWIP_DEBUGF(IP_REASS_DEBUG,("ip4_reass: nullreturn\n"));
 667:Middlewares/Third_Party/LwIP/src/core/ipv4/ip4_frag.c ****   IPFRAG_STATS_INC(ip_frag.drop);
 668:Middlewares/Third_Party/LwIP/src/core/ipv4/ip4_frag.c ****   pbuf_free(p);
 669:Middlewares/Third_Party/LwIP/src/core/ipv4/ip4_frag.c ****   return NULL;
 670:Middlewares/Third_Party/LwIP/src/core/ipv4/ip4_frag.c **** }
 671:Middlewares/Third_Party/LwIP/src/core/ipv4/ip4_frag.c **** #endif /* IP_REASSEMBLY */
 672:Middlewares/Third_Party/LwIP/src/core/ipv4/ip4_frag.c **** 
 673:Middlewares/Third_Party/LwIP/src/core/ipv4/ip4_frag.c **** #if IP_FRAG
 674:Middlewares/Third_Party/LwIP/src/core/ipv4/ip4_frag.c **** #if !LWIP_NETIF_TX_SINGLE_PBUF
 675:Middlewares/Third_Party/LwIP/src/core/ipv4/ip4_frag.c **** /** Allocate a new struct pbuf_custom_ref */
 676:Middlewares/Third_Party/LwIP/src/core/ipv4/ip4_frag.c **** static struct pbuf_custom_ref*
 677:Middlewares/Third_Party/LwIP/src/core/ipv4/ip4_frag.c **** ip_frag_alloc_pbuf_custom_ref(void)
 678:Middlewares/Third_Party/LwIP/src/core/ipv4/ip4_frag.c **** {
 679:Middlewares/Third_Party/LwIP/src/core/ipv4/ip4_frag.c ****   return (struct pbuf_custom_ref*)memp_malloc(MEMP_FRAG_PBUF);
 680:Middlewares/Third_Party/LwIP/src/core/ipv4/ip4_frag.c **** }
 681:Middlewares/Third_Party/LwIP/src/core/ipv4/ip4_frag.c **** 
 682:Middlewares/Third_Party/LwIP/src/core/ipv4/ip4_frag.c **** /** Free a struct pbuf_custom_ref */
 683:Middlewares/Third_Party/LwIP/src/core/ipv4/ip4_frag.c **** static void
 684:Middlewares/Third_Party/LwIP/src/core/ipv4/ip4_frag.c **** ip_frag_free_pbuf_custom_ref(struct pbuf_custom_ref* p)
 685:Middlewares/Third_Party/LwIP/src/core/ipv4/ip4_frag.c **** {
 528              		.loc 1 685 1 is_stmt 1 view -0
 529              		.cfi_startproc
 530              		@ args = 0, pretend = 0, frame = 0
 531              		@ frame_needed = 0, uses_anonymous_args = 0
 532              		.loc 1 685 1 is_stmt 0 view .LVU149
 533 0000 10B5     		push	{r4, lr}
 534              	.LCFI3:
 535              		.cfi_def_cfa_offset 8
 536              		.cfi_offset 4, -8
 537              		.cfi_offset 14, -4
 686:Middlewares/Third_Party/LwIP/src/core/ipv4/ip4_frag.c ****   LWIP_ASSERT("p != NULL", p != NULL);
 538              		.loc 1 686 3 is_stmt 1 view .LVU150
 539              		.loc 1 686 3 view .LVU151
 540 0002 0446     		mov	r4, r0
 541 0004 20B1     		cbz	r0, .L47
 542              	.LVL61:
 543              	.L45:
 687:Middlewares/Third_Party/LwIP/src/core/ipv4/ip4_frag.c ****   memp_free(MEMP_FRAG_PBUF, p);
 544              		.loc 1 687 3 view .LVU152
 545 0006 2146     		mov	r1, r4
 546 0008 0520     		movs	r0, #5
 547 000a FFF7FEFF 		bl	memp_free
 548              	.LVL62:
 688:Middlewares/Third_Party/LwIP/src/core/ipv4/ip4_frag.c **** }
 549              		.loc 1 688 1 is_stmt 0 view .LVU153
 550 000e 10BD     		pop	{r4, pc}
 551              	.LVL63:
ARM GAS  /tmp/ccwtyKYK.s 			page 25


 552              	.L47:
 686:Middlewares/Third_Party/LwIP/src/core/ipv4/ip4_frag.c ****   LWIP_ASSERT("p != NULL", p != NULL);
 553              		.loc 1 686 3 is_stmt 1 discriminator 1 view .LVU154
 686:Middlewares/Third_Party/LwIP/src/core/ipv4/ip4_frag.c ****   LWIP_ASSERT("p != NULL", p != NULL);
 554              		.loc 1 686 3 discriminator 1 view .LVU155
 555 0010 034B     		ldr	r3, .L48
 556 0012 40F2AE22 		movw	r2, #686
 557 0016 0349     		ldr	r1, .L48+4
 558 0018 0348     		ldr	r0, .L48+8
 559              	.LVL64:
 686:Middlewares/Third_Party/LwIP/src/core/ipv4/ip4_frag.c ****   LWIP_ASSERT("p != NULL", p != NULL);
 560              		.loc 1 686 3 is_stmt 0 discriminator 1 view .LVU156
 561 001a FFF7FEFF 		bl	printf
 562              	.LVL65:
 563 001e F2E7     		b	.L45
 564              	.L49:
 565              		.align	2
 566              	.L48:
 567 0020 00000000 		.word	.LC0
 568 0024 00000000 		.word	.LC7
 569 0028 54000000 		.word	.LC2
 570              		.cfi_endproc
 571              	.LFE168:
 573              		.section	.text.ipfrag_free_pbuf_custom,"ax",%progbits
 574              		.align	1
 575              		.syntax unified
 576              		.thumb
 577              		.thumb_func
 578              		.fpu fpv5-sp-d16
 580              	ipfrag_free_pbuf_custom:
 581              	.LVL66:
 582              	.LFB169:
 689:Middlewares/Third_Party/LwIP/src/core/ipv4/ip4_frag.c **** 
 690:Middlewares/Third_Party/LwIP/src/core/ipv4/ip4_frag.c **** /** Free-callback function to free a 'struct pbuf_custom_ref', called by
 691:Middlewares/Third_Party/LwIP/src/core/ipv4/ip4_frag.c ****  * pbuf_free. */
 692:Middlewares/Third_Party/LwIP/src/core/ipv4/ip4_frag.c **** static void
 693:Middlewares/Third_Party/LwIP/src/core/ipv4/ip4_frag.c **** ipfrag_free_pbuf_custom(struct pbuf *p)
 694:Middlewares/Third_Party/LwIP/src/core/ipv4/ip4_frag.c **** {
 583              		.loc 1 694 1 is_stmt 1 view -0
 584              		.cfi_startproc
 585              		@ args = 0, pretend = 0, frame = 0
 586              		@ frame_needed = 0, uses_anonymous_args = 0
 587              		.loc 1 694 1 is_stmt 0 view .LVU158
 588 0000 10B5     		push	{r4, lr}
 589              	.LCFI4:
 590              		.cfi_def_cfa_offset 8
 591              		.cfi_offset 4, -8
 592              		.cfi_offset 14, -4
 695:Middlewares/Third_Party/LwIP/src/core/ipv4/ip4_frag.c ****   struct pbuf_custom_ref *pcr = (struct pbuf_custom_ref*)p;
 593              		.loc 1 695 3 is_stmt 1 view .LVU159
 594              	.LVL67:
 696:Middlewares/Third_Party/LwIP/src/core/ipv4/ip4_frag.c ****   LWIP_ASSERT("pcr != NULL", pcr != NULL);
 595              		.loc 1 696 3 view .LVU160
 596              		.loc 1 696 3 view .LVU161
 597 0002 0446     		mov	r4, r0
 598 0004 38B1     		cbz	r0, .L54
 599              	.LVL68:
ARM GAS  /tmp/ccwtyKYK.s 			page 26


 600              	.L51:
 697:Middlewares/Third_Party/LwIP/src/core/ipv4/ip4_frag.c ****   LWIP_ASSERT("pcr == p", (void*)pcr == (void*)p);
 601              		.loc 1 697 3 view .LVU162
 602              		.loc 1 697 3 view .LVU163
 698:Middlewares/Third_Party/LwIP/src/core/ipv4/ip4_frag.c ****   if (pcr->original != NULL) {
 603              		.loc 1 698 3 view .LVU164
 604              		.loc 1 698 10 is_stmt 0 view .LVU165
 605 0006 6069     		ldr	r0, [r4, #20]
 606              		.loc 1 698 6 view .LVU166
 607 0008 08B1     		cbz	r0, .L52
 699:Middlewares/Third_Party/LwIP/src/core/ipv4/ip4_frag.c ****     pbuf_free(pcr->original);
 608              		.loc 1 699 5 is_stmt 1 view .LVU167
 609 000a FFF7FEFF 		bl	pbuf_free
 610              	.LVL69:
 611              	.L52:
 700:Middlewares/Third_Party/LwIP/src/core/ipv4/ip4_frag.c ****   }
 701:Middlewares/Third_Party/LwIP/src/core/ipv4/ip4_frag.c ****   ip_frag_free_pbuf_custom_ref(pcr);
 612              		.loc 1 701 3 view .LVU168
 613 000e 2046     		mov	r0, r4
 614 0010 FFF7FEFF 		bl	ip_frag_free_pbuf_custom_ref
 615              	.LVL70:
 702:Middlewares/Third_Party/LwIP/src/core/ipv4/ip4_frag.c **** }
 616              		.loc 1 702 1 is_stmt 0 view .LVU169
 617 0014 10BD     		pop	{r4, pc}
 618              	.LVL71:
 619              	.L54:
 696:Middlewares/Third_Party/LwIP/src/core/ipv4/ip4_frag.c ****   LWIP_ASSERT("pcr == p", (void*)pcr == (void*)p);
 620              		.loc 1 696 3 is_stmt 1 discriminator 1 view .LVU170
 696:Middlewares/Third_Party/LwIP/src/core/ipv4/ip4_frag.c ****   LWIP_ASSERT("pcr == p", (void*)pcr == (void*)p);
 621              		.loc 1 696 3 discriminator 1 view .LVU171
 622 0016 044B     		ldr	r3, .L55
 623 0018 4FF42E72 		mov	r2, #696
 624 001c 0349     		ldr	r1, .L55+4
 625 001e 0448     		ldr	r0, .L55+8
 626              	.LVL72:
 696:Middlewares/Third_Party/LwIP/src/core/ipv4/ip4_frag.c ****   LWIP_ASSERT("pcr == p", (void*)pcr == (void*)p);
 627              		.loc 1 696 3 is_stmt 0 discriminator 1 view .LVU172
 628 0020 FFF7FEFF 		bl	printf
 629              	.LVL73:
 630 0024 EFE7     		b	.L51
 631              	.L56:
 632 0026 00BF     		.align	2
 633              	.L55:
 634 0028 00000000 		.word	.LC0
 635 002c 00000000 		.word	.LC8
 636 0030 54000000 		.word	.LC2
 637              		.cfi_endproc
 638              	.LFE169:
 640              		.section	.text.ip_reass_chain_frag_into_datagram_and_validate,"ax",%progbits
 641              		.align	1
 642              		.syntax unified
 643              		.thumb
 644              		.thumb_func
 645              		.fpu fpv5-sp-d16
 647              	ip_reass_chain_frag_into_datagram_and_validate:
 648              	.LVL74:
 649              	.LFB165:
ARM GAS  /tmp/ccwtyKYK.s 			page 27


 345:Middlewares/Third_Party/LwIP/src/core/ipv4/ip4_frag.c ****   struct ip_reass_helper *iprh, *iprh_tmp, *iprh_prev=NULL;
 650              		.loc 1 345 1 is_stmt 1 view -0
 651              		.cfi_startproc
 652              		@ args = 0, pretend = 0, frame = 0
 653              		@ frame_needed = 0, uses_anonymous_args = 0
 345:Middlewares/Third_Party/LwIP/src/core/ipv4/ip4_frag.c ****   struct ip_reass_helper *iprh, *iprh_tmp, *iprh_prev=NULL;
 654              		.loc 1 345 1 is_stmt 0 view .LVU174
 655 0000 2DE9F843 		push	{r3, r4, r5, r6, r7, r8, r9, lr}
 656              	.LCFI5:
 657              		.cfi_def_cfa_offset 32
 658              		.cfi_offset 3, -32
 659              		.cfi_offset 4, -28
 660              		.cfi_offset 5, -24
 661              		.cfi_offset 6, -20
 662              		.cfi_offset 7, -16
 663              		.cfi_offset 8, -12
 664              		.cfi_offset 9, -8
 665              		.cfi_offset 14, -4
 666 0004 8046     		mov	r8, r0
 667 0006 0F46     		mov	r7, r1
 668 0008 9146     		mov	r9, r2
 346:Middlewares/Third_Party/LwIP/src/core/ipv4/ip4_frag.c ****   struct pbuf *q;
 669              		.loc 1 346 3 is_stmt 1 view .LVU175
 670              	.LVL75:
 347:Middlewares/Third_Party/LwIP/src/core/ipv4/ip4_frag.c ****   u16_t offset, len;
 671              		.loc 1 347 3 view .LVU176
 348:Middlewares/Third_Party/LwIP/src/core/ipv4/ip4_frag.c ****   struct ip_hdr *fraghdr;
 672              		.loc 1 348 3 view .LVU177
 349:Middlewares/Third_Party/LwIP/src/core/ipv4/ip4_frag.c ****   int valid = 1;
 673              		.loc 1 349 3 view .LVU178
 350:Middlewares/Third_Party/LwIP/src/core/ipv4/ip4_frag.c **** 
 674              		.loc 1 350 3 view .LVU179
 353:Middlewares/Third_Party/LwIP/src/core/ipv4/ip4_frag.c ****   len = lwip_ntohs(IPH_LEN(fraghdr)) - IPH_HL(fraghdr) * 4;
 675              		.loc 1 353 3 view .LVU180
 353:Middlewares/Third_Party/LwIP/src/core/ipv4/ip4_frag.c ****   len = lwip_ntohs(IPH_LEN(fraghdr)) - IPH_HL(fraghdr) * 4;
 676              		.loc 1 353 11 is_stmt 0 view .LVU181
 677 000a 4C68     		ldr	r4, [r1, #4]
 678              	.LVL76:
 354:Middlewares/Third_Party/LwIP/src/core/ipv4/ip4_frag.c ****   offset = (lwip_ntohs(IPH_OFFSET(fraghdr)) & IP_OFFMASK) * 8;
 679              		.loc 1 354 3 is_stmt 1 view .LVU182
 354:Middlewares/Third_Party/LwIP/src/core/ipv4/ip4_frag.c ****   offset = (lwip_ntohs(IPH_OFFSET(fraghdr)) & IP_OFFMASK) * 8;
 680              		.loc 1 354 9 is_stmt 0 view .LVU183
 681 000c 6088     		ldrh	r0, [r4, #2]	@ unaligned
 682              	.LVL77:
 354:Middlewares/Third_Party/LwIP/src/core/ipv4/ip4_frag.c ****   offset = (lwip_ntohs(IPH_OFFSET(fraghdr)) & IP_OFFMASK) * 8;
 683              		.loc 1 354 9 view .LVU184
 684 000e FFF7FEFF 		bl	lwip_htons
 685              	.LVL78:
 354:Middlewares/Third_Party/LwIP/src/core/ipv4/ip4_frag.c ****   offset = (lwip_ntohs(IPH_OFFSET(fraghdr)) & IP_OFFMASK) * 8;
 686              		.loc 1 354 40 view .LVU185
 687 0012 2678     		ldrb	r6, [r4]	@ zero_extendqisi2
 354:Middlewares/Third_Party/LwIP/src/core/ipv4/ip4_frag.c ****   offset = (lwip_ntohs(IPH_OFFSET(fraghdr)) & IP_OFFMASK) * 8;
 688              		.loc 1 354 38 view .LVU186
 689 0014 06F00F06 		and	r6, r6, #15
 354:Middlewares/Third_Party/LwIP/src/core/ipv4/ip4_frag.c ****   offset = (lwip_ntohs(IPH_OFFSET(fraghdr)) & IP_OFFMASK) * 8;
 690              		.loc 1 354 7 view .LVU187
 691 0018 A0EB8606 		sub	r6, r0, r6, lsl #2
ARM GAS  /tmp/ccwtyKYK.s 			page 28


 692 001c B6B2     		uxth	r6, r6
 693              	.LVL79:
 355:Middlewares/Third_Party/LwIP/src/core/ipv4/ip4_frag.c **** 
 694              		.loc 1 355 3 is_stmt 1 view .LVU188
 355:Middlewares/Third_Party/LwIP/src/core/ipv4/ip4_frag.c **** 
 695              		.loc 1 355 13 is_stmt 0 view .LVU189
 696 001e E088     		ldrh	r0, [r4, #6]	@ unaligned
 697 0020 FFF7FEFF 		bl	lwip_htons
 698              	.LVL80:
 355:Middlewares/Third_Party/LwIP/src/core/ipv4/ip4_frag.c **** 
 699              		.loc 1 355 10 view .LVU190
 700 0024 C0F30C00 		ubfx	r0, r0, #0, #13
 701 0028 C000     		lsls	r0, r0, #3
 702              	.LVL81:
 360:Middlewares/Third_Party/LwIP/src/core/ipv4/ip4_frag.c ****               sizeof(struct ip_reass_helper) <= IP_HLEN);
 703              		.loc 1 360 3 is_stmt 1 view .LVU191
 360:Middlewares/Third_Party/LwIP/src/core/ipv4/ip4_frag.c ****               sizeof(struct ip_reass_helper) <= IP_HLEN);
 704              		.loc 1 360 3 view .LVU192
 362:Middlewares/Third_Party/LwIP/src/core/ipv4/ip4_frag.c ****   iprh->next_pbuf = NULL;
 705              		.loc 1 362 3 view .LVU193
 362:Middlewares/Third_Party/LwIP/src/core/ipv4/ip4_frag.c ****   iprh->next_pbuf = NULL;
 706              		.loc 1 362 8 is_stmt 0 view .LVU194
 707 002a 7D68     		ldr	r5, [r7, #4]
 708              	.LVL82:
 363:Middlewares/Third_Party/LwIP/src/core/ipv4/ip4_frag.c ****   iprh->start = offset;
 709              		.loc 1 363 3 is_stmt 1 view .LVU195
 363:Middlewares/Third_Party/LwIP/src/core/ipv4/ip4_frag.c ****   iprh->start = offset;
 710              		.loc 1 363 19 is_stmt 0 view .LVU196
 711 002c 0024     		movs	r4, #0
 712              	.LVL83:
 363:Middlewares/Third_Party/LwIP/src/core/ipv4/ip4_frag.c ****   iprh->start = offset;
 713              		.loc 1 363 19 view .LVU197
 714 002e 2C70     		strb	r4, [r5]
 715 0030 6C70     		strb	r4, [r5, #1]
 716 0032 AC70     		strb	r4, [r5, #2]
 717 0034 EC70     		strb	r4, [r5, #3]
 364:Middlewares/Third_Party/LwIP/src/core/ipv4/ip4_frag.c ****   iprh->end = offset + len;
 718              		.loc 1 364 3 is_stmt 1 view .LVU198
 364:Middlewares/Third_Party/LwIP/src/core/ipv4/ip4_frag.c ****   iprh->end = offset + len;
 719              		.loc 1 364 15 is_stmt 0 view .LVU199
 720 0036 A880     		strh	r0, [r5, #4]	@ unaligned
 365:Middlewares/Third_Party/LwIP/src/core/ipv4/ip4_frag.c **** 
 721              		.loc 1 365 3 is_stmt 1 view .LVU200
 365:Middlewares/Third_Party/LwIP/src/core/ipv4/ip4_frag.c **** 
 722              		.loc 1 365 22 is_stmt 0 view .LVU201
 723 0038 06EB000C 		add	ip, r6, r0
 724 003c 1FFA8CFC 		uxth	ip, ip
 365:Middlewares/Third_Party/LwIP/src/core/ipv4/ip4_frag.c **** 
 725              		.loc 1 365 13 view .LVU202
 726 0040 A5F806C0 		strh	ip, [r5, #6]	@ unaligned
 369:Middlewares/Third_Party/LwIP/src/core/ipv4/ip4_frag.c ****     iprh_tmp = (struct ip_reass_helper*)q->payload;
 727              		.loc 1 369 3 is_stmt 1 view .LVU203
 369:Middlewares/Third_Party/LwIP/src/core/ipv4/ip4_frag.c ****     iprh_tmp = (struct ip_reass_helper*)q->payload;
 728              		.loc 1 369 10 is_stmt 0 view .LVU204
 729 0044 D8F80410 		ldr	r1, [r8, #4]
 730              	.LVL84:
 350:Middlewares/Third_Party/LwIP/src/core/ipv4/ip4_frag.c **** 
ARM GAS  /tmp/ccwtyKYK.s 			page 29


 731              		.loc 1 350 7 view .LVU205
 732 0048 0126     		movs	r6, #1
 733              	.LVL85:
 369:Middlewares/Third_Party/LwIP/src/core/ipv4/ip4_frag.c ****     iprh_tmp = (struct ip_reass_helper*)q->payload;
 734              		.loc 1 369 3 view .LVU206
 735 004a 1FE0     		b	.L58
 736              	.LVL86:
 737              	.L85:
 373:Middlewares/Third_Party/LwIP/src/core/ipv4/ip4_frag.c ****       if (iprh_prev != NULL) {
 738              		.loc 1 373 7 is_stmt 1 view .LVU207
 373:Middlewares/Third_Party/LwIP/src/core/ipv4/ip4_frag.c ****       if (iprh_prev != NULL) {
 739              		.loc 1 373 23 is_stmt 0 view .LVU208
 740 004c 2960     		str	r1, [r5]	@ unaligned
 374:Middlewares/Third_Party/LwIP/src/core/ipv4/ip4_frag.c ****         /* not the fragment with the lowest offset */
 741              		.loc 1 374 7 is_stmt 1 view .LVU209
 374:Middlewares/Third_Party/LwIP/src/core/ipv4/ip4_frag.c ****         /* not the fragment with the lowest offset */
 742              		.loc 1 374 10 is_stmt 0 view .LVU210
 743 004e ACB1     		cbz	r4, .L60
 377:Middlewares/Third_Party/LwIP/src/core/ipv4/ip4_frag.c ****           /* fragment overlaps with previous or following, throw away */
 744              		.loc 1 377 9 is_stmt 1 view .LVU211
 377:Middlewares/Third_Party/LwIP/src/core/ipv4/ip4_frag.c ****           /* fragment overlaps with previous or following, throw away */
 745              		.loc 1 377 37 is_stmt 0 view .LVU212
 746 0050 E288     		ldrh	r2, [r4, #6]	@ unaligned
 377:Middlewares/Third_Party/LwIP/src/core/ipv4/ip4_frag.c ****           /* fragment overlaps with previous or following, throw away */
 747              		.loc 1 377 12 view .LVU213
 748 0052 8242     		cmp	r2, r0
 749 0054 7AD8     		bhi	.L61
 377:Middlewares/Third_Party/LwIP/src/core/ipv4/ip4_frag.c ****           /* fragment overlaps with previous or following, throw away */
 750              		.loc 1 377 68 discriminator 1 view .LVU214
 751 0056 9B88     		ldrh	r3, [r3, #4]	@ unaligned
 752              	.LVL87:
 377:Middlewares/Third_Party/LwIP/src/core/ipv4/ip4_frag.c ****           /* fragment overlaps with previous or following, throw away */
 753              		.loc 1 377 44 discriminator 1 view .LVU215
 754 0058 9C45     		cmp	ip, r3
 755 005a 77D8     		bhi	.L61
 382:Middlewares/Third_Party/LwIP/src/core/ipv4/ip4_frag.c ****         if (iprh_prev->end != iprh->start) {
 756              		.loc 1 382 9 is_stmt 1 view .LVU216
 382:Middlewares/Third_Party/LwIP/src/core/ipv4/ip4_frag.c ****         if (iprh_prev->end != iprh->start) {
 757              		.loc 1 382 30 is_stmt 0 view .LVU217
 758 005c 2760     		str	r7, [r4]	@ unaligned
 383:Middlewares/Third_Party/LwIP/src/core/ipv4/ip4_frag.c ****           /* There is a fragment missing between the current
 759              		.loc 1 383 9 is_stmt 1 view .LVU218
 383:Middlewares/Third_Party/LwIP/src/core/ipv4/ip4_frag.c ****           /* There is a fragment missing between the current
 760              		.loc 1 383 35 is_stmt 0 view .LVU219
 761 005e AB88     		ldrh	r3, [r5, #4]	@ unaligned
 383:Middlewares/Third_Party/LwIP/src/core/ipv4/ip4_frag.c ****           /* There is a fragment missing between the current
 762              		.loc 1 383 12 view .LVU220
 763 0060 9A42     		cmp	r2, r3
 764 0062 00D0     		beq	.L62
 386:Middlewares/Third_Party/LwIP/src/core/ipv4/ip4_frag.c ****         }
 765              		.loc 1 386 17 view .LVU221
 766 0064 0026     		movs	r6, #0
 767              	.LVL88:
 768              	.L62:
 422:Middlewares/Third_Party/LwIP/src/core/ipv4/ip4_frag.c ****     if (iprh_prev != NULL) {
 769              		.loc 1 422 3 is_stmt 1 view .LVU222
 422:Middlewares/Third_Party/LwIP/src/core/ipv4/ip4_frag.c ****     if (iprh_prev != NULL) {
ARM GAS  /tmp/ccwtyKYK.s 			page 30


 770              		.loc 1 422 6 is_stmt 0 view .LVU223
 771 0066 19B3     		cbz	r1, .L84
 772              	.LVL89:
 773              	.L65:
 445:Middlewares/Third_Party/LwIP/src/core/ipv4/ip4_frag.c ****     /* and had no holes so far */
 774              		.loc 1 445 3 is_stmt 1 view .LVU224
 445:Middlewares/Third_Party/LwIP/src/core/ipv4/ip4_frag.c ****     /* and had no holes so far */
 775              		.loc 1 445 6 is_stmt 0 view .LVU225
 776 0068 B9F1000F 		cmp	r9, #0
 777 006c 41D1     		bne	.L69
 445:Middlewares/Third_Party/LwIP/src/core/ipv4/ip4_frag.c ****     /* and had no holes so far */
 778              		.loc 1 445 23 discriminator 1 view .LVU226
 779 006e 98F81E30 		ldrb	r3, [r8, #30]	@ zero_extendqisi2
 445:Middlewares/Third_Party/LwIP/src/core/ipv4/ip4_frag.c ****     /* and had no holes so far */
 780              		.loc 1 445 15 discriminator 1 view .LVU227
 781 0072 13F0010F 		tst	r3, #1
 782 0076 3CD1     		bne	.L69
 482:Middlewares/Third_Party/LwIP/src/core/ipv4/ip4_frag.c **** #if IP_REASS_CHECK_OVERLAP
 783              		.loc 1 482 10 view .LVU228
 784 0078 4846     		mov	r0, r9
 785 007a 73E0     		b	.L57
 786              	.LVL90:
 787              	.L60:
 390:Middlewares/Third_Party/LwIP/src/core/ipv4/ip4_frag.c ****           /* fragment overlaps with following, throw away */
 788              		.loc 1 390 9 is_stmt 1 view .LVU229
 390:Middlewares/Third_Party/LwIP/src/core/ipv4/ip4_frag.c ****           /* fragment overlaps with following, throw away */
 789              		.loc 1 390 33 is_stmt 0 view .LVU230
 790 007c 9B88     		ldrh	r3, [r3, #4]	@ unaligned
 791              	.LVL91:
 390:Middlewares/Third_Party/LwIP/src/core/ipv4/ip4_frag.c ****           /* fragment overlaps with following, throw away */
 792              		.loc 1 390 12 view .LVU231
 793 007e 9C45     		cmp	ip, r3
 794 0080 64D8     		bhi	.L61
 396:Middlewares/Third_Party/LwIP/src/core/ipv4/ip4_frag.c ****       }
 795              		.loc 1 396 9 is_stmt 1 view .LVU232
 396:Middlewares/Third_Party/LwIP/src/core/ipv4/ip4_frag.c ****       }
 796              		.loc 1 396 16 is_stmt 0 view .LVU233
 797 0082 C8F80470 		str	r7, [r8, #4]
 798 0086 EEE7     		b	.L62
 799              	.LVL92:
 800              	.L63:
 417:Middlewares/Third_Party/LwIP/src/core/ipv4/ip4_frag.c ****     iprh_prev = iprh_tmp;
 801              		.loc 1 417 5 is_stmt 1 view .LVU234
 417:Middlewares/Third_Party/LwIP/src/core/ipv4/ip4_frag.c ****     iprh_prev = iprh_tmp;
 802              		.loc 1 417 7 is_stmt 0 view .LVU235
 803 0088 1968     		ldr	r1, [r3]	@ unaligned
 804              	.LVL93:
 418:Middlewares/Third_Party/LwIP/src/core/ipv4/ip4_frag.c ****   }
 805              		.loc 1 418 5 is_stmt 1 view .LVU236
 418:Middlewares/Third_Party/LwIP/src/core/ipv4/ip4_frag.c ****   }
 806              		.loc 1 418 15 is_stmt 0 view .LVU237
 807 008a 1C46     		mov	r4, r3
 808              	.LVL94:
 809              	.L58:
 369:Middlewares/Third_Party/LwIP/src/core/ipv4/ip4_frag.c ****     iprh_tmp = (struct ip_reass_helper*)q->payload;
 810              		.loc 1 369 3 discriminator 1 view .LVU238
 811 008c 0029     		cmp	r1, #0
ARM GAS  /tmp/ccwtyKYK.s 			page 31


 812 008e EAD0     		beq	.L62
 370:Middlewares/Third_Party/LwIP/src/core/ipv4/ip4_frag.c ****     if (iprh->start < iprh_tmp->start) {
 813              		.loc 1 370 5 is_stmt 1 view .LVU239
 370:Middlewares/Third_Party/LwIP/src/core/ipv4/ip4_frag.c ****     if (iprh->start < iprh_tmp->start) {
 814              		.loc 1 370 14 is_stmt 0 view .LVU240
 815 0090 4B68     		ldr	r3, [r1, #4]
 816              	.LVL95:
 371:Middlewares/Third_Party/LwIP/src/core/ipv4/ip4_frag.c ****       /* the new pbuf should be inserted before this */
 817              		.loc 1 371 5 is_stmt 1 view .LVU241
 371:Middlewares/Third_Party/LwIP/src/core/ipv4/ip4_frag.c ****       /* the new pbuf should be inserted before this */
 818              		.loc 1 371 31 is_stmt 0 view .LVU242
 819 0092 9A88     		ldrh	r2, [r3, #4]	@ unaligned
 371:Middlewares/Third_Party/LwIP/src/core/ipv4/ip4_frag.c ****       /* the new pbuf should be inserted before this */
 820              		.loc 1 371 8 view .LVU243
 821 0094 8242     		cmp	r2, r0
 822 0096 D9D8     		bhi	.L85
 399:Middlewares/Third_Party/LwIP/src/core/ipv4/ip4_frag.c ****       /* received the same datagram twice: no need to keep the datagram */
 823              		.loc 1 399 12 is_stmt 1 view .LVU244
 399:Middlewares/Third_Party/LwIP/src/core/ipv4/ip4_frag.c ****       /* received the same datagram twice: no need to keep the datagram */
 824              		.loc 1 399 15 is_stmt 0 view .LVU245
 825 0098 8242     		cmp	r2, r0
 826 009a 57D0     		beq	.L61
 403:Middlewares/Third_Party/LwIP/src/core/ipv4/ip4_frag.c ****       /* overlap: no need to keep the new datagram */
 827              		.loc 1 403 12 is_stmt 1 view .LVU246
 403:Middlewares/Third_Party/LwIP/src/core/ipv4/ip4_frag.c ****       /* overlap: no need to keep the new datagram */
 828              		.loc 1 403 38 is_stmt 0 view .LVU247
 829 009c D988     		ldrh	r1, [r3, #6]	@ unaligned
 830              	.LVL96:
 403:Middlewares/Third_Party/LwIP/src/core/ipv4/ip4_frag.c ****       /* overlap: no need to keep the new datagram */
 831              		.loc 1 403 15 view .LVU248
 832 009e 8142     		cmp	r1, r0
 833 00a0 54D8     		bhi	.L61
 409:Middlewares/Third_Party/LwIP/src/core/ipv4/ip4_frag.c ****         if (iprh_prev->end != iprh_tmp->start) {
 834              		.loc 1 409 7 is_stmt 1 view .LVU249
 409:Middlewares/Third_Party/LwIP/src/core/ipv4/ip4_frag.c ****         if (iprh_prev->end != iprh_tmp->start) {
 835              		.loc 1 409 10 is_stmt 0 view .LVU250
 836 00a2 002C     		cmp	r4, #0
 837 00a4 F0D0     		beq	.L63
 410:Middlewares/Third_Party/LwIP/src/core/ipv4/ip4_frag.c ****           /* There is a fragment missing between the current
 838              		.loc 1 410 9 is_stmt 1 view .LVU251
 410:Middlewares/Third_Party/LwIP/src/core/ipv4/ip4_frag.c ****           /* There is a fragment missing between the current
 839              		.loc 1 410 22 is_stmt 0 view .LVU252
 840 00a6 E188     		ldrh	r1, [r4, #6]	@ unaligned
 410:Middlewares/Third_Party/LwIP/src/core/ipv4/ip4_frag.c ****           /* There is a fragment missing between the current
 841              		.loc 1 410 12 view .LVU253
 842 00a8 8A42     		cmp	r2, r1
 843 00aa EDD0     		beq	.L63
 413:Middlewares/Third_Party/LwIP/src/core/ipv4/ip4_frag.c ****         }
 844              		.loc 1 413 17 view .LVU254
 845 00ac 0026     		movs	r6, #0
 846              	.LVL97:
 413:Middlewares/Third_Party/LwIP/src/core/ipv4/ip4_frag.c ****         }
 847              		.loc 1 413 17 view .LVU255
 848 00ae EBE7     		b	.L63
 849              	.LVL98:
 850              	.L84:
 423:Middlewares/Third_Party/LwIP/src/core/ipv4/ip4_frag.c ****       /* this is (for now), the fragment with the highest offset:
ARM GAS  /tmp/ccwtyKYK.s 			page 32


 851              		.loc 1 423 5 is_stmt 1 view .LVU256
 423:Middlewares/Third_Party/LwIP/src/core/ipv4/ip4_frag.c ****       /* this is (for now), the fragment with the highest offset:
 852              		.loc 1 423 8 is_stmt 0 view .LVU257
 853 00b0 94B1     		cbz	r4, .L66
 427:Middlewares/Third_Party/LwIP/src/core/ipv4/ip4_frag.c **** #endif /* IP_REASS_CHECK_OVERLAP */
 854              		.loc 1 427 7 is_stmt 1 view .LVU258
 427:Middlewares/Third_Party/LwIP/src/core/ipv4/ip4_frag.c **** #endif /* IP_REASS_CHECK_OVERLAP */
 855              		.loc 1 427 7 view .LVU259
 856 00b2 E288     		ldrh	r2, [r4, #6]	@ unaligned
 857 00b4 AB88     		ldrh	r3, [r5, #4]	@ unaligned
 858 00b6 9A42     		cmp	r2, r3
 859 00b8 06D8     		bhi	.L86
 860              	.LVL99:
 861              	.L67:
 429:Middlewares/Third_Party/LwIP/src/core/ipv4/ip4_frag.c ****       if (iprh_prev->end != iprh->start) {
 862              		.loc 1 429 7 view .LVU260
 429:Middlewares/Third_Party/LwIP/src/core/ipv4/ip4_frag.c ****       if (iprh_prev->end != iprh->start) {
 863              		.loc 1 429 28 is_stmt 0 view .LVU261
 864 00ba 2760     		str	r7, [r4]	@ unaligned
 430:Middlewares/Third_Party/LwIP/src/core/ipv4/ip4_frag.c ****         valid = 0;
 865              		.loc 1 430 7 is_stmt 1 view .LVU262
 430:Middlewares/Third_Party/LwIP/src/core/ipv4/ip4_frag.c ****         valid = 0;
 866              		.loc 1 430 20 is_stmt 0 view .LVU263
 867 00bc E288     		ldrh	r2, [r4, #6]	@ unaligned
 430:Middlewares/Third_Party/LwIP/src/core/ipv4/ip4_frag.c ****         valid = 0;
 868              		.loc 1 430 33 view .LVU264
 869 00be AB88     		ldrh	r3, [r5, #4]	@ unaligned
 430:Middlewares/Third_Party/LwIP/src/core/ipv4/ip4_frag.c ****         valid = 0;
 870              		.loc 1 430 10 view .LVU265
 871 00c0 9A42     		cmp	r2, r3
 872 00c2 D1D0     		beq	.L65
 431:Middlewares/Third_Party/LwIP/src/core/ipv4/ip4_frag.c ****       }
 873              		.loc 1 431 15 view .LVU266
 874 00c4 0026     		movs	r6, #0
 875              	.LVL100:
 431:Middlewares/Third_Party/LwIP/src/core/ipv4/ip4_frag.c ****       }
 876              		.loc 1 431 15 view .LVU267
 877 00c6 CFE7     		b	.L65
 878              	.LVL101:
 879              	.L86:
 427:Middlewares/Third_Party/LwIP/src/core/ipv4/ip4_frag.c **** #endif /* IP_REASS_CHECK_OVERLAP */
 880              		.loc 1 427 7 is_stmt 1 discriminator 1 view .LVU268
 427:Middlewares/Third_Party/LwIP/src/core/ipv4/ip4_frag.c **** #endif /* IP_REASS_CHECK_OVERLAP */
 881              		.loc 1 427 7 discriminator 1 view .LVU269
 882 00c8 274B     		ldr	r3, .L88
 883 00ca 40F2AB12 		movw	r2, #427
 884 00ce 2749     		ldr	r1, .L88+4
 885              	.LVL102:
 427:Middlewares/Third_Party/LwIP/src/core/ipv4/ip4_frag.c **** #endif /* IP_REASS_CHECK_OVERLAP */
 886              		.loc 1 427 7 is_stmt 0 discriminator 1 view .LVU270
 887 00d0 2748     		ldr	r0, .L88+8
 888              	.LVL103:
 427:Middlewares/Third_Party/LwIP/src/core/ipv4/ip4_frag.c **** #endif /* IP_REASS_CHECK_OVERLAP */
 889              		.loc 1 427 7 discriminator 1 view .LVU271
 890 00d2 FFF7FEFF 		bl	printf
 891              	.LVL104:
 892 00d6 F0E7     		b	.L67
ARM GAS  /tmp/ccwtyKYK.s 			page 33


 893              	.LVL105:
 894              	.L66:
 435:Middlewares/Third_Party/LwIP/src/core/ipv4/ip4_frag.c ****         ipr->p == NULL);
 895              		.loc 1 435 7 is_stmt 1 view .LVU272
 435:Middlewares/Third_Party/LwIP/src/core/ipv4/ip4_frag.c ****         ipr->p == NULL);
 896              		.loc 1 435 7 view .LVU273
 897 00d8 D8F80430 		ldr	r3, [r8, #4]
 898 00dc 33B1     		cbz	r3, .L68
 435:Middlewares/Third_Party/LwIP/src/core/ipv4/ip4_frag.c ****         ipr->p == NULL);
 899              		.loc 1 435 7 discriminator 1 view .LVU274
 435:Middlewares/Third_Party/LwIP/src/core/ipv4/ip4_frag.c ****         ipr->p == NULL);
 900              		.loc 1 435 7 discriminator 1 view .LVU275
 901 00de 224B     		ldr	r3, .L88
 902 00e0 4FF4DA72 		mov	r2, #436
 903 00e4 2349     		ldr	r1, .L88+12
 904              	.LVL106:
 435:Middlewares/Third_Party/LwIP/src/core/ipv4/ip4_frag.c ****         ipr->p == NULL);
 905              		.loc 1 435 7 is_stmt 0 discriminator 1 view .LVU276
 906 00e6 2248     		ldr	r0, .L88+8
 907              	.LVL107:
 435:Middlewares/Third_Party/LwIP/src/core/ipv4/ip4_frag.c ****         ipr->p == NULL);
 908              		.loc 1 435 7 discriminator 1 view .LVU277
 909 00e8 FFF7FEFF 		bl	printf
 910              	.LVL108:
 911              	.L68:
 439:Middlewares/Third_Party/LwIP/src/core/ipv4/ip4_frag.c ****     }
 912              		.loc 1 439 7 is_stmt 1 view .LVU278
 439:Middlewares/Third_Party/LwIP/src/core/ipv4/ip4_frag.c ****     }
 913              		.loc 1 439 14 is_stmt 0 view .LVU279
 914 00ec C8F80470 		str	r7, [r8, #4]
 915 00f0 BAE7     		b	.L65
 916              	.L69:
 447:Middlewares/Third_Party/LwIP/src/core/ipv4/ip4_frag.c ****       /* then check if the rest of the fragments is here */
 917              		.loc 1 447 5 is_stmt 1 view .LVU280
 447:Middlewares/Third_Party/LwIP/src/core/ipv4/ip4_frag.c ****       /* then check if the rest of the fragments is here */
 918              		.loc 1 447 8 is_stmt 0 view .LVU281
 919 00f2 4EB3     		cbz	r6, .L71
 450:Middlewares/Third_Party/LwIP/src/core/ipv4/ip4_frag.c ****         valid = 0;
 920              		.loc 1 450 7 is_stmt 1 view .LVU282
 450:Middlewares/Third_Party/LwIP/src/core/ipv4/ip4_frag.c ****         valid = 0;
 921              		.loc 1 450 15 is_stmt 0 view .LVU283
 922 00f4 D8F80430 		ldr	r3, [r8, #4]
 450:Middlewares/Third_Party/LwIP/src/core/ipv4/ip4_frag.c ****         valid = 0;
 923              		.loc 1 450 10 view .LVU284
 924 00f8 1BB3     		cbz	r3, .L80
 450:Middlewares/Third_Party/LwIP/src/core/ipv4/ip4_frag.c ****         valid = 0;
 925              		.loc 1 450 64 discriminator 1 view .LVU285
 926 00fa 5868     		ldr	r0, [r3, #4]
 450:Middlewares/Third_Party/LwIP/src/core/ipv4/ip4_frag.c ****         valid = 0;
 927              		.loc 1 450 74 discriminator 1 view .LVU286
 928 00fc 8388     		ldrh	r3, [r0, #4]	@ unaligned
 450:Middlewares/Third_Party/LwIP/src/core/ipv4/ip4_frag.c ****         valid = 0;
 929              		.loc 1 450 28 discriminator 1 view .LVU287
 930 00fe 13BB     		cbnz	r3, .L81
 454:Middlewares/Third_Party/LwIP/src/core/ipv4/ip4_frag.c ****         q = iprh->next_pbuf;
 931              		.loc 1 454 9 is_stmt 1 view .LVU288
 932              	.LVL109:
ARM GAS  /tmp/ccwtyKYK.s 			page 34


 455:Middlewares/Third_Party/LwIP/src/core/ipv4/ip4_frag.c ****         while (q != NULL) {
 933              		.loc 1 455 9 view .LVU289
 455:Middlewares/Third_Party/LwIP/src/core/ipv4/ip4_frag.c ****         while (q != NULL) {
 934              		.loc 1 455 11 is_stmt 0 view .LVU290
 935 0100 2A68     		ldr	r2, [r5]	@ unaligned
 936              	.LVL110:
 456:Middlewares/Third_Party/LwIP/src/core/ipv4/ip4_frag.c ****           iprh = (struct ip_reass_helper*)q->payload;
 937              		.loc 1 456 9 is_stmt 1 view .LVU291
 938              	.L72:
 456:Middlewares/Third_Party/LwIP/src/core/ipv4/ip4_frag.c ****           iprh = (struct ip_reass_helper*)q->payload;
 939              		.loc 1 456 15 is_stmt 0 view .LVU292
 940 0102 4AB1     		cbz	r2, .L73
 457:Middlewares/Third_Party/LwIP/src/core/ipv4/ip4_frag.c ****           if (iprh_prev->end != iprh->start) {
 941              		.loc 1 457 11 is_stmt 1 view .LVU293
 457:Middlewares/Third_Party/LwIP/src/core/ipv4/ip4_frag.c ****           if (iprh_prev->end != iprh->start) {
 942              		.loc 1 457 16 is_stmt 0 view .LVU294
 943 0104 5368     		ldr	r3, [r2, #4]
 944              	.LVL111:
 458:Middlewares/Third_Party/LwIP/src/core/ipv4/ip4_frag.c ****             valid = 0;
 945              		.loc 1 458 11 is_stmt 1 view .LVU295
 458:Middlewares/Third_Party/LwIP/src/core/ipv4/ip4_frag.c ****             valid = 0;
 946              		.loc 1 458 24 is_stmt 0 view .LVU296
 947 0106 E988     		ldrh	r1, [r5, #6]	@ unaligned
 458:Middlewares/Third_Party/LwIP/src/core/ipv4/ip4_frag.c ****             valid = 0;
 948              		.loc 1 458 37 view .LVU297
 949 0108 9A88     		ldrh	r2, [r3, #4]	@ unaligned
 950              	.LVL112:
 458:Middlewares/Third_Party/LwIP/src/core/ipv4/ip4_frag.c ****             valid = 0;
 951              		.loc 1 458 14 view .LVU298
 952 010a 9142     		cmp	r1, r2
 953 010c 02D1     		bne	.L82
 462:Middlewares/Third_Party/LwIP/src/core/ipv4/ip4_frag.c ****           q = iprh->next_pbuf;
 954              		.loc 1 462 11 is_stmt 1 view .LVU299
 955              	.LVL113:
 463:Middlewares/Third_Party/LwIP/src/core/ipv4/ip4_frag.c ****         }
 956              		.loc 1 463 11 view .LVU300
 463:Middlewares/Third_Party/LwIP/src/core/ipv4/ip4_frag.c ****         }
 957              		.loc 1 463 13 is_stmt 0 view .LVU301
 958 010e 1A68     		ldr	r2, [r3]	@ unaligned
 959              	.LVL114:
 457:Middlewares/Third_Party/LwIP/src/core/ipv4/ip4_frag.c ****           if (iprh_prev->end != iprh->start) {
 960              		.loc 1 457 16 view .LVU302
 961 0110 1D46     		mov	r5, r3
 962 0112 F6E7     		b	.L72
 963              	.LVL115:
 964              	.L82:
 457:Middlewares/Third_Party/LwIP/src/core/ipv4/ip4_frag.c ****           if (iprh_prev->end != iprh->start) {
 965              		.loc 1 457 16 view .LVU303
 966 0114 1D46     		mov	r5, r3
 967              	.LVL116:
 459:Middlewares/Third_Party/LwIP/src/core/ipv4/ip4_frag.c ****             break;
 968              		.loc 1 459 19 view .LVU304
 969 0116 0026     		movs	r6, #0
 970              	.LVL117:
 971              	.L73:
 467:Middlewares/Third_Party/LwIP/src/core/ipv4/ip4_frag.c ****           LWIP_ASSERT("sanity check", ipr->p != NULL);
 972              		.loc 1 467 9 is_stmt 1 view .LVU305
ARM GAS  /tmp/ccwtyKYK.s 			page 35


 467:Middlewares/Third_Party/LwIP/src/core/ipv4/ip4_frag.c ****           LWIP_ASSERT("sanity check", ipr->p != NULL);
 973              		.loc 1 467 12 is_stmt 0 view .LVU306
 974 0118 B6B1     		cbz	r6, .L71
 468:Middlewares/Third_Party/LwIP/src/core/ipv4/ip4_frag.c ****           LWIP_ASSERT("sanity check",
 975              		.loc 1 468 11 is_stmt 1 view .LVU307
 468:Middlewares/Third_Party/LwIP/src/core/ipv4/ip4_frag.c ****           LWIP_ASSERT("sanity check",
 976              		.loc 1 468 11 view .LVU308
 469:Middlewares/Third_Party/LwIP/src/core/ipv4/ip4_frag.c ****             ((struct ip_reass_helper*)ipr->p->payload) != iprh);
 977              		.loc 1 469 11 view .LVU309
 469:Middlewares/Third_Party/LwIP/src/core/ipv4/ip4_frag.c ****             ((struct ip_reass_helper*)ipr->p->payload) != iprh);
 978              		.loc 1 469 11 view .LVU310
 979 011a A842     		cmp	r0, r5
 980 011c 09D0     		beq	.L87
 981              	.L75:
 471:Middlewares/Third_Party/LwIP/src/core/ipv4/ip4_frag.c ****             iprh->next_pbuf == NULL);
 982              		.loc 1 471 11 view .LVU311
 471:Middlewares/Third_Party/LwIP/src/core/ipv4/ip4_frag.c ****             iprh->next_pbuf == NULL);
 983              		.loc 1 471 11 view .LVU312
 984 011e 2B68     		ldr	r3, [r5]	@ unaligned
 985 0120 93B1     		cbz	r3, .L71
 471:Middlewares/Third_Party/LwIP/src/core/ipv4/ip4_frag.c ****             iprh->next_pbuf == NULL);
 986              		.loc 1 471 11 discriminator 1 view .LVU313
 471:Middlewares/Third_Party/LwIP/src/core/ipv4/ip4_frag.c ****             iprh->next_pbuf == NULL);
 987              		.loc 1 471 11 discriminator 1 view .LVU314
 988 0122 114B     		ldr	r3, .L88
 989 0124 4FF4EC72 		mov	r2, #472
 990 0128 1349     		ldr	r1, .L88+16
 991 012a 1148     		ldr	r0, .L88+8
 992 012c FFF7FEFF 		bl	printf
 993              	.LVL118:
 994 0130 0AE0     		b	.L71
 995              	.L87:
 469:Middlewares/Third_Party/LwIP/src/core/ipv4/ip4_frag.c ****             ((struct ip_reass_helper*)ipr->p->payload) != iprh);
 996              		.loc 1 469 11 discriminator 1 view .LVU315
 469:Middlewares/Third_Party/LwIP/src/core/ipv4/ip4_frag.c ****             ((struct ip_reass_helper*)ipr->p->payload) != iprh);
 997              		.loc 1 469 11 discriminator 1 view .LVU316
 998 0132 0D4B     		ldr	r3, .L88
 999 0134 4FF4EB72 		mov	r2, #470
 1000 0138 1049     		ldr	r1, .L88+20
 1001 013a 0D48     		ldr	r0, .L88+8
 1002 013c FFF7FEFF 		bl	printf
 1003              	.LVL119:
 1004 0140 EDE7     		b	.L75
 1005              	.LVL120:
 1006              	.L80:
 451:Middlewares/Third_Party/LwIP/src/core/ipv4/ip4_frag.c ****       } else {
 1007              		.loc 1 451 15 is_stmt 0 view .LVU317
 1008 0142 0026     		movs	r6, #0
 1009              	.LVL121:
 451:Middlewares/Third_Party/LwIP/src/core/ipv4/ip4_frag.c ****       } else {
 1010              		.loc 1 451 15 view .LVU318
 1011 0144 00E0     		b	.L71
 1012              	.LVL122:
 1013              	.L81:
 451:Middlewares/Third_Party/LwIP/src/core/ipv4/ip4_frag.c ****       } else {
 1014              		.loc 1 451 15 view .LVU319
 1015 0146 0026     		movs	r6, #0
ARM GAS  /tmp/ccwtyKYK.s 			page 36


 1016              	.LVL123:
 1017              	.L71:
 479:Middlewares/Third_Party/LwIP/src/core/ipv4/ip4_frag.c ****   }
 1018              		.loc 1 479 5 is_stmt 1 view .LVU320
 479:Middlewares/Third_Party/LwIP/src/core/ipv4/ip4_frag.c ****   }
 1019              		.loc 1 479 56 is_stmt 0 view .LVU321
 1020 0148 3046     		mov	r0, r6
 1021 014a 0BE0     		b	.L57
 1022              	.LVL124:
 1023              	.L61:
 485:Middlewares/Third_Party/LwIP/src/core/ipv4/ip4_frag.c ****   pbuf_free(new_p);
 1024              		.loc 1 485 3 is_stmt 1 view .LVU322
 485:Middlewares/Third_Party/LwIP/src/core/ipv4/ip4_frag.c ****   pbuf_free(new_p);
 1025              		.loc 1 485 25 is_stmt 0 view .LVU323
 1026 014c 3846     		mov	r0, r7
 1027              	.LVL125:
 485:Middlewares/Third_Party/LwIP/src/core/ipv4/ip4_frag.c ****   pbuf_free(new_p);
 1028              		.loc 1 485 25 view .LVU324
 1029 014e FFF7FEFF 		bl	pbuf_clen
 1030              	.LVL126:
 485:Middlewares/Third_Party/LwIP/src/core/ipv4/ip4_frag.c ****   pbuf_free(new_p);
 1031              		.loc 1 485 22 view .LVU325
 1032 0152 0B4A     		ldr	r2, .L88+24
 1033 0154 1388     		ldrh	r3, [r2]
 1034 0156 181A     		subs	r0, r3, r0
 1035 0158 1080     		strh	r0, [r2]	@ movhi
 486:Middlewares/Third_Party/LwIP/src/core/ipv4/ip4_frag.c ****   return IP_REASS_VALIDATE_PBUF_DROPPED;
 1036              		.loc 1 486 3 is_stmt 1 view .LVU326
 1037 015a 3846     		mov	r0, r7
 1038 015c FFF7FEFF 		bl	pbuf_free
 1039              	.LVL127:
 487:Middlewares/Third_Party/LwIP/src/core/ipv4/ip4_frag.c **** #endif /* IP_REASS_CHECK_OVERLAP */
 1040              		.loc 1 487 3 view .LVU327
 487:Middlewares/Third_Party/LwIP/src/core/ipv4/ip4_frag.c **** #endif /* IP_REASS_CHECK_OVERLAP */
 1041              		.loc 1 487 10 is_stmt 0 view .LVU328
 1042 0160 4FF0FF30 		mov	r0, #-1
 1043              	.LVL128:
 1044              	.L57:
 489:Middlewares/Third_Party/LwIP/src/core/ipv4/ip4_frag.c **** 
 1045              		.loc 1 489 1 view .LVU329
 1046 0164 BDE8F883 		pop	{r3, r4, r5, r6, r7, r8, r9, pc}
 1047              	.LVL129:
 1048              	.L89:
 489:Middlewares/Third_Party/LwIP/src/core/ipv4/ip4_frag.c **** 
 1049              		.loc 1 489 1 view .LVU330
 1050              		.align	2
 1051              	.L88:
 1052 0168 00000000 		.word	.LC0
 1053 016c 00000000 		.word	.LC9
 1054 0170 54000000 		.word	.LC2
 1055 0174 20000000 		.word	.LC10
 1056 0178 68000000 		.word	.LC12
 1057 017c 58000000 		.word	.LC11
 1058 0180 00000000 		.word	.LANCHOR1
 1059              		.cfi_endproc
 1060              	.LFE165:
 1062              		.section	.text.ip_frag_alloc_pbuf_custom_ref,"ax",%progbits
ARM GAS  /tmp/ccwtyKYK.s 			page 37


 1063              		.align	1
 1064              		.syntax unified
 1065              		.thumb
 1066              		.thumb_func
 1067              		.fpu fpv5-sp-d16
 1069              	ip_frag_alloc_pbuf_custom_ref:
 1070              	.LFB167:
 678:Middlewares/Third_Party/LwIP/src/core/ipv4/ip4_frag.c ****   return (struct pbuf_custom_ref*)memp_malloc(MEMP_FRAG_PBUF);
 1071              		.loc 1 678 1 is_stmt 1 view -0
 1072              		.cfi_startproc
 1073              		@ args = 0, pretend = 0, frame = 0
 1074              		@ frame_needed = 0, uses_anonymous_args = 0
 1075 0000 08B5     		push	{r3, lr}
 1076              	.LCFI6:
 1077              		.cfi_def_cfa_offset 8
 1078              		.cfi_offset 3, -8
 1079              		.cfi_offset 14, -4
 679:Middlewares/Third_Party/LwIP/src/core/ipv4/ip4_frag.c **** }
 1080              		.loc 1 679 3 view .LVU332
 679:Middlewares/Third_Party/LwIP/src/core/ipv4/ip4_frag.c **** }
 1081              		.loc 1 679 35 is_stmt 0 view .LVU333
 1082 0002 0520     		movs	r0, #5
 1083 0004 FFF7FEFF 		bl	memp_malloc
 1084              	.LVL130:
 680:Middlewares/Third_Party/LwIP/src/core/ipv4/ip4_frag.c **** 
 1085              		.loc 1 680 1 view .LVU334
 1086 0008 08BD     		pop	{r3, pc}
 1087              		.cfi_endproc
 1088              	.LFE167:
 1090              		.section	.text.ip_reass_enqueue_new_datagram,"ax",%progbits
 1091              		.align	1
 1092              		.syntax unified
 1093              		.thumb
 1094              		.thumb_func
 1095              		.fpu fpv5-sp-d16
 1097              	ip_reass_enqueue_new_datagram:
 1098              	.LVL131:
 1099              	.LFB163:
 279:Middlewares/Third_Party/LwIP/src/core/ipv4/ip4_frag.c ****   struct ip_reassdata* ipr;
 1100              		.loc 1 279 1 is_stmt 1 view -0
 1101              		.cfi_startproc
 1102              		@ args = 0, pretend = 0, frame = 0
 1103              		@ frame_needed = 0, uses_anonymous_args = 0
 279:Middlewares/Third_Party/LwIP/src/core/ipv4/ip4_frag.c ****   struct ip_reassdata* ipr;
 1104              		.loc 1 279 1 is_stmt 0 view .LVU336
 1105 0000 70B5     		push	{r4, r5, r6, lr}
 1106              	.LCFI7:
 1107              		.cfi_def_cfa_offset 16
 1108              		.cfi_offset 4, -16
 1109              		.cfi_offset 5, -12
 1110              		.cfi_offset 6, -8
 1111              		.cfi_offset 14, -4
 1112 0002 0546     		mov	r5, r0
 1113 0004 0E46     		mov	r6, r1
 280:Middlewares/Third_Party/LwIP/src/core/ipv4/ip4_frag.c **** #if ! IP_REASS_FREE_OLDEST
 1114              		.loc 1 280 3 is_stmt 1 view .LVU337
 286:Middlewares/Third_Party/LwIP/src/core/ipv4/ip4_frag.c ****   if (ipr == NULL) {
ARM GAS  /tmp/ccwtyKYK.s 			page 38


 1115              		.loc 1 286 3 view .LVU338
 286:Middlewares/Third_Party/LwIP/src/core/ipv4/ip4_frag.c ****   if (ipr == NULL) {
 1116              		.loc 1 286 32 is_stmt 0 view .LVU339
 1117 0006 0420     		movs	r0, #4
 1118              	.LVL132:
 286:Middlewares/Third_Party/LwIP/src/core/ipv4/ip4_frag.c ****   if (ipr == NULL) {
 1119              		.loc 1 286 32 view .LVU340
 1120 0008 FFF7FEFF 		bl	memp_malloc
 1121              	.LVL133:
 287:Middlewares/Third_Party/LwIP/src/core/ipv4/ip4_frag.c **** #if IP_REASS_FREE_OLDEST
 1122              		.loc 1 287 3 is_stmt 1 view .LVU341
 287:Middlewares/Third_Party/LwIP/src/core/ipv4/ip4_frag.c **** #if IP_REASS_FREE_OLDEST
 1123              		.loc 1 287 6 is_stmt 0 view .LVU342
 1124 000c 0446     		mov	r4, r0
 1125 000e C8B1     		cbz	r0, .L97
 1126              	.LVL134:
 1127              	.L93:
 300:Middlewares/Third_Party/LwIP/src/core/ipv4/ip4_frag.c ****   ipr->timer = IP_REASS_MAXAGE;
 1128              		.loc 1 300 3 is_stmt 1 view .LVU343
 1129 0010 0022     		movs	r2, #0
 1130 0012 6260     		str	r2, [r4, #4]	@ unaligned
 1131 0014 A260     		str	r2, [r4, #8]	@ unaligned
 1132 0016 E260     		str	r2, [r4, #12]	@ unaligned
 1133 0018 2261     		str	r2, [r4, #16]	@ unaligned
 1134 001a 6261     		str	r2, [r4, #20]	@ unaligned
 1135 001c A261     		str	r2, [r4, #24]	@ unaligned
 1136 001e E261     		str	r2, [r4, #28]	@ unaligned
 301:Middlewares/Third_Party/LwIP/src/core/ipv4/ip4_frag.c **** 
 1137              		.loc 1 301 3 view .LVU344
 301:Middlewares/Third_Party/LwIP/src/core/ipv4/ip4_frag.c **** 
 1138              		.loc 1 301 14 is_stmt 0 view .LVU345
 1139 0020 0323     		movs	r3, #3
 1140 0022 E377     		strb	r3, [r4, #31]
 304:Middlewares/Third_Party/LwIP/src/core/ipv4/ip4_frag.c ****   reassdatagrams = ipr;
 1141              		.loc 1 304 3 is_stmt 1 view .LVU346
 304:Middlewares/Third_Party/LwIP/src/core/ipv4/ip4_frag.c ****   reassdatagrams = ipr;
 1142              		.loc 1 304 13 is_stmt 0 view .LVU347
 1143 0024 0E4B     		ldr	r3, .L99
 1144 0026 1A68     		ldr	r2, [r3]
 1145 0028 2260     		str	r2, [r4]
 305:Middlewares/Third_Party/LwIP/src/core/ipv4/ip4_frag.c ****   /* copy the ip header for later tests and input */
 1146              		.loc 1 305 3 is_stmt 1 view .LVU348
 305:Middlewares/Third_Party/LwIP/src/core/ipv4/ip4_frag.c ****   /* copy the ip header for later tests and input */
 1147              		.loc 1 305 18 is_stmt 0 view .LVU349
 1148 002a 1C60     		str	r4, [r3]
 308:Middlewares/Third_Party/LwIP/src/core/ipv4/ip4_frag.c ****   return ipr;
 1149              		.loc 1 308 3 is_stmt 1 view .LVU350
 1150 002c 2A68     		ldr	r2, [r5]	@ unaligned
 1151 002e 6E68     		ldr	r6, [r5, #4]	@ unaligned
 1152              	.LVL135:
 308:Middlewares/Third_Party/LwIP/src/core/ipv4/ip4_frag.c ****   return ipr;
 1153              		.loc 1 308 3 is_stmt 0 view .LVU351
 1154 0030 A868     		ldr	r0, [r5, #8]	@ unaligned
 1155 0032 E968     		ldr	r1, [r5, #12]	@ unaligned
 1156 0034 A260     		str	r2, [r4, #8]	@ unaligned
 1157 0036 E660     		str	r6, [r4, #12]	@ unaligned
 1158 0038 2061     		str	r0, [r4, #16]	@ unaligned
ARM GAS  /tmp/ccwtyKYK.s 			page 39


 1159 003a 6161     		str	r1, [r4, #20]	@ unaligned
 1160 003c 2A69     		ldr	r2, [r5, #16]	@ unaligned
 1161 003e A261     		str	r2, [r4, #24]	@ unaligned
 309:Middlewares/Third_Party/LwIP/src/core/ipv4/ip4_frag.c **** }
 1162              		.loc 1 309 3 is_stmt 1 view .LVU352
 1163              	.L92:
 310:Middlewares/Third_Party/LwIP/src/core/ipv4/ip4_frag.c **** 
 1164              		.loc 1 310 1 is_stmt 0 view .LVU353
 1165 0040 2046     		mov	r0, r4
 1166 0042 70BD     		pop	{r4, r5, r6, pc}
 1167              	.LVL136:
 1168              	.L97:
 289:Middlewares/Third_Party/LwIP/src/core/ipv4/ip4_frag.c ****       ipr = (struct ip_reassdata *)memp_malloc(MEMP_REASSDATA);
 1169              		.loc 1 289 5 is_stmt 1 view .LVU354
 289:Middlewares/Third_Party/LwIP/src/core/ipv4/ip4_frag.c ****       ipr = (struct ip_reassdata *)memp_malloc(MEMP_REASSDATA);
 1170              		.loc 1 289 9 is_stmt 0 view .LVU355
 1171 0044 3146     		mov	r1, r6
 1172 0046 2846     		mov	r0, r5
 1173              	.LVL137:
 289:Middlewares/Third_Party/LwIP/src/core/ipv4/ip4_frag.c ****       ipr = (struct ip_reassdata *)memp_malloc(MEMP_REASSDATA);
 1174              		.loc 1 289 9 view .LVU356
 1175 0048 FFF7FEFF 		bl	ip_reass_remove_oldest_datagram
 1176              	.LVL138:
 289:Middlewares/Third_Party/LwIP/src/core/ipv4/ip4_frag.c ****       ipr = (struct ip_reassdata *)memp_malloc(MEMP_REASSDATA);
 1177              		.loc 1 289 8 view .LVU357
 1178 004c B042     		cmp	r0, r6
 1179 004e 02DA     		bge	.L98
 1180              	.L94:
 292:Middlewares/Third_Party/LwIP/src/core/ipv4/ip4_frag.c **** #endif /* IP_REASS_FREE_OLDEST */
 1181              		.loc 1 292 5 is_stmt 1 view .LVU358
 292:Middlewares/Third_Party/LwIP/src/core/ipv4/ip4_frag.c **** #endif /* IP_REASS_FREE_OLDEST */
 1182              		.loc 1 292 8 is_stmt 0 view .LVU359
 1183 0050 002C     		cmp	r4, #0
 1184 0052 DDD1     		bne	.L93
 292:Middlewares/Third_Party/LwIP/src/core/ipv4/ip4_frag.c **** #endif /* IP_REASS_FREE_OLDEST */
 1185              		.loc 1 292 8 view .LVU360
 1186 0054 F4E7     		b	.L92
 1187              	.L98:
 290:Middlewares/Third_Party/LwIP/src/core/ipv4/ip4_frag.c ****     }
 1188              		.loc 1 290 7 is_stmt 1 view .LVU361
 290:Middlewares/Third_Party/LwIP/src/core/ipv4/ip4_frag.c ****     }
 1189              		.loc 1 290 36 is_stmt 0 view .LVU362
 1190 0056 0420     		movs	r0, #4
 1191 0058 FFF7FEFF 		bl	memp_malloc
 1192              	.LVL139:
 1193 005c 0446     		mov	r4, r0
 1194              	.LVL140:
 290:Middlewares/Third_Party/LwIP/src/core/ipv4/ip4_frag.c ****     }
 1195              		.loc 1 290 36 view .LVU363
 1196 005e F7E7     		b	.L94
 1197              	.L100:
 1198              		.align	2
 1199              	.L99:
 1200 0060 00000000 		.word	.LANCHOR0
 1201              		.cfi_endproc
 1202              	.LFE163:
 1204              		.section	.text.ip_reass_tmr,"ax",%progbits
ARM GAS  /tmp/ccwtyKYK.s 			page 40


 1205              		.align	1
 1206              		.global	ip_reass_tmr
 1207              		.syntax unified
 1208              		.thumb
 1209              		.thumb_func
 1210              		.fpu fpv5-sp-d16
 1212              	ip_reass_tmr:
 1213              	.LFB160:
 129:Middlewares/Third_Party/LwIP/src/core/ipv4/ip4_frag.c ****   struct ip_reassdata *r, *prev = NULL;
 1214              		.loc 1 129 1 is_stmt 1 view -0
 1215              		.cfi_startproc
 1216              		@ args = 0, pretend = 0, frame = 0
 1217              		@ frame_needed = 0, uses_anonymous_args = 0
 1218 0000 38B5     		push	{r3, r4, r5, lr}
 1219              	.LCFI8:
 1220              		.cfi_def_cfa_offset 16
 1221              		.cfi_offset 3, -16
 1222              		.cfi_offset 4, -12
 1223              		.cfi_offset 5, -8
 1224              		.cfi_offset 14, -4
 130:Middlewares/Third_Party/LwIP/src/core/ipv4/ip4_frag.c **** 
 1225              		.loc 1 130 3 view .LVU365
 1226              	.LVL141:
 132:Middlewares/Third_Party/LwIP/src/core/ipv4/ip4_frag.c ****   while (r != NULL) {
 1227              		.loc 1 132 3 view .LVU366
 132:Middlewares/Third_Party/LwIP/src/core/ipv4/ip4_frag.c ****   while (r != NULL) {
 1228              		.loc 1 132 5 is_stmt 0 view .LVU367
 1229 0002 094B     		ldr	r3, .L108
 1230 0004 1868     		ldr	r0, [r3]
 1231              	.LVL142:
 133:Middlewares/Third_Party/LwIP/src/core/ipv4/ip4_frag.c ****     /* Decrement the timer. Once it reaches 0,
 1232              		.loc 1 133 3 is_stmt 1 view .LVU368
 130:Middlewares/Third_Party/LwIP/src/core/ipv4/ip4_frag.c **** 
 1233              		.loc 1 130 28 is_stmt 0 view .LVU369
 1234 0006 0024     		movs	r4, #0
 133:Middlewares/Third_Party/LwIP/src/core/ipv4/ip4_frag.c ****     /* Decrement the timer. Once it reaches 0,
 1235              		.loc 1 133 9 view .LVU370
 1236 0008 04E0     		b	.L102
 1237              	.LVL143:
 1238              	.L103:
 1239              	.LBB4:
 143:Middlewares/Third_Party/LwIP/src/core/ipv4/ip4_frag.c ****       LWIP_DEBUGF(IP_REASS_DEBUG, ("ip_reass_tmr: timer timed out\n"));
 1240              		.loc 1 143 7 is_stmt 1 view .LVU371
 144:Middlewares/Third_Party/LwIP/src/core/ipv4/ip4_frag.c ****       tmp = r;
 1241              		.loc 1 144 71 view .LVU372
 145:Middlewares/Third_Party/LwIP/src/core/ipv4/ip4_frag.c ****       /* get the next pointer before freeing */
 1242              		.loc 1 145 7 view .LVU373
 147:Middlewares/Third_Party/LwIP/src/core/ipv4/ip4_frag.c ****       /* free the helper struct and all enqueued pbufs */
 1243              		.loc 1 147 7 view .LVU374
 147:Middlewares/Third_Party/LwIP/src/core/ipv4/ip4_frag.c ****       /* free the helper struct and all enqueued pbufs */
 1244              		.loc 1 147 9 is_stmt 0 view .LVU375
 1245 000a 0568     		ldr	r5, [r0]
 1246              	.LVL144:
 149:Middlewares/Third_Party/LwIP/src/core/ipv4/ip4_frag.c ****      }
 1247              		.loc 1 149 7 is_stmt 1 view .LVU376
 1248 000c 2146     		mov	r1, r4
 1249 000e FFF7FEFF 		bl	ip_reass_free_complete_datagram
ARM GAS  /tmp/ccwtyKYK.s 			page 41


 1250              	.LVL145:
 147:Middlewares/Third_Party/LwIP/src/core/ipv4/ip4_frag.c ****       /* free the helper struct and all enqueued pbufs */
 1251              		.loc 1 147 9 is_stmt 0 view .LVU377
 1252 0012 2846     		mov	r0, r5
 1253              	.LVL146:
 1254              	.L102:
 147:Middlewares/Third_Party/LwIP/src/core/ipv4/ip4_frag.c ****       /* free the helper struct and all enqueued pbufs */
 1255              		.loc 1 147 9 view .LVU378
 1256              	.LBE4:
 133:Middlewares/Third_Party/LwIP/src/core/ipv4/ip4_frag.c ****     /* Decrement the timer. Once it reaches 0,
 1257              		.loc 1 133 9 view .LVU379
 1258 0014 38B1     		cbz	r0, .L107
 136:Middlewares/Third_Party/LwIP/src/core/ipv4/ip4_frag.c ****       r->timer--;
 1259              		.loc 1 136 5 is_stmt 1 view .LVU380
 136:Middlewares/Third_Party/LwIP/src/core/ipv4/ip4_frag.c ****       r->timer--;
 1260              		.loc 1 136 10 is_stmt 0 view .LVU381
 1261 0016 C37F     		ldrb	r3, [r0, #31]	@ zero_extendqisi2
 136:Middlewares/Third_Party/LwIP/src/core/ipv4/ip4_frag.c ****       r->timer--;
 1262              		.loc 1 136 8 view .LVU382
 1263 0018 002B     		cmp	r3, #0
 1264 001a F6D0     		beq	.L103
 137:Middlewares/Third_Party/LwIP/src/core/ipv4/ip4_frag.c ****       LWIP_DEBUGF(IP_REASS_DEBUG, ("ip_reass_tmr: timer dec %"U16_F"\n",(u16_t)r->timer));
 1265              		.loc 1 137 7 is_stmt 1 view .LVU383
 137:Middlewares/Third_Party/LwIP/src/core/ipv4/ip4_frag.c ****       LWIP_DEBUGF(IP_REASS_DEBUG, ("ip_reass_tmr: timer dec %"U16_F"\n",(u16_t)r->timer));
 1266              		.loc 1 137 15 is_stmt 0 view .LVU384
 1267 001c 013B     		subs	r3, r3, #1
 1268 001e C377     		strb	r3, [r0, #31]
 138:Middlewares/Third_Party/LwIP/src/core/ipv4/ip4_frag.c ****       prev = r;
 1269              		.loc 1 138 90 is_stmt 1 view .LVU385
 139:Middlewares/Third_Party/LwIP/src/core/ipv4/ip4_frag.c ****       r = r->next;
 1270              		.loc 1 139 7 view .LVU386
 1271              	.LVL147:
 140:Middlewares/Third_Party/LwIP/src/core/ipv4/ip4_frag.c ****     } else {
 1272              		.loc 1 140 7 view .LVU387
 139:Middlewares/Third_Party/LwIP/src/core/ipv4/ip4_frag.c ****       r = r->next;
 1273              		.loc 1 139 12 is_stmt 0 view .LVU388
 1274 0020 0446     		mov	r4, r0
 140:Middlewares/Third_Party/LwIP/src/core/ipv4/ip4_frag.c ****     } else {
 1275              		.loc 1 140 9 view .LVU389
 1276 0022 0068     		ldr	r0, [r0]
 1277              	.LVL148:
 140:Middlewares/Third_Party/LwIP/src/core/ipv4/ip4_frag.c ****     } else {
 1278              		.loc 1 140 9 view .LVU390
 1279 0024 F6E7     		b	.L102
 1280              	.L107:
 152:Middlewares/Third_Party/LwIP/src/core/ipv4/ip4_frag.c **** 
 1281              		.loc 1 152 1 view .LVU391
 1282 0026 38BD     		pop	{r3, r4, r5, pc}
 1283              	.LVL149:
 1284              	.L109:
 152:Middlewares/Third_Party/LwIP/src/core/ipv4/ip4_frag.c **** 
 1285              		.loc 1 152 1 view .LVU392
 1286              		.align	2
 1287              	.L108:
 1288 0028 00000000 		.word	.LANCHOR0
 1289              		.cfi_endproc
 1290              	.LFE160:
ARM GAS  /tmp/ccwtyKYK.s 			page 42


 1292              		.section	.text.ip4_reass,"ax",%progbits
 1293              		.align	1
 1294              		.global	ip4_reass
 1295              		.syntax unified
 1296              		.thumb
 1297              		.thumb_func
 1298              		.fpu fpv5-sp-d16
 1300              	ip4_reass:
 1301              	.LVL150:
 1302              	.LFB166:
 499:Middlewares/Third_Party/LwIP/src/core/ipv4/ip4_frag.c ****   struct pbuf *r;
 1303              		.loc 1 499 1 is_stmt 1 view -0
 1304              		.cfi_startproc
 1305              		@ args = 0, pretend = 0, frame = 0
 1306              		@ frame_needed = 0, uses_anonymous_args = 0
 499:Middlewares/Third_Party/LwIP/src/core/ipv4/ip4_frag.c ****   struct pbuf *r;
 1307              		.loc 1 499 1 is_stmt 0 view .LVU394
 1308 0000 2DE9F843 		push	{r3, r4, r5, r6, r7, r8, r9, lr}
 1309              	.LCFI9:
 1310              		.cfi_def_cfa_offset 32
 1311              		.cfi_offset 3, -32
 1312              		.cfi_offset 4, -28
 1313              		.cfi_offset 5, -24
 1314              		.cfi_offset 6, -20
 1315              		.cfi_offset 7, -16
 1316              		.cfi_offset 8, -12
 1317              		.cfi_offset 9, -8
 1318              		.cfi_offset 14, -4
 1319 0004 0746     		mov	r7, r0
 500:Middlewares/Third_Party/LwIP/src/core/ipv4/ip4_frag.c ****   struct ip_hdr *fraghdr;
 1320              		.loc 1 500 3 is_stmt 1 view .LVU395
 501:Middlewares/Third_Party/LwIP/src/core/ipv4/ip4_frag.c ****   struct ip_reassdata *ipr;
 1321              		.loc 1 501 3 view .LVU396
 502:Middlewares/Third_Party/LwIP/src/core/ipv4/ip4_frag.c ****   struct ip_reass_helper *iprh;
 1322              		.loc 1 502 3 view .LVU397
 503:Middlewares/Third_Party/LwIP/src/core/ipv4/ip4_frag.c ****   u16_t offset, len, clen;
 1323              		.loc 1 503 3 view .LVU398
 504:Middlewares/Third_Party/LwIP/src/core/ipv4/ip4_frag.c ****   int valid;
 1324              		.loc 1 504 3 view .LVU399
 505:Middlewares/Third_Party/LwIP/src/core/ipv4/ip4_frag.c ****   int is_last;
 1325              		.loc 1 505 3 view .LVU400
 506:Middlewares/Third_Party/LwIP/src/core/ipv4/ip4_frag.c **** 
 1326              		.loc 1 506 3 view .LVU401
 508:Middlewares/Third_Party/LwIP/src/core/ipv4/ip4_frag.c ****   MIB2_STATS_INC(mib2.ipreasmreqds);
 1327              		.loc 1 508 33 view .LVU402
 509:Middlewares/Third_Party/LwIP/src/core/ipv4/ip4_frag.c **** 
 1328              		.loc 1 509 36 view .LVU403
 511:Middlewares/Third_Party/LwIP/src/core/ipv4/ip4_frag.c **** 
 1329              		.loc 1 511 3 view .LVU404
 511:Middlewares/Third_Party/LwIP/src/core/ipv4/ip4_frag.c **** 
 1330              		.loc 1 511 11 is_stmt 0 view .LVU405
 1331 0006 4568     		ldr	r5, [r0, #4]
 1332              	.LVL151:
 513:Middlewares/Third_Party/LwIP/src/core/ipv4/ip4_frag.c ****     LWIP_DEBUGF(IP_REASS_DEBUG,("ip4_reass: IP options currently not supported!\n"));
 1333              		.loc 1 513 3 is_stmt 1 view .LVU406
 513:Middlewares/Third_Party/LwIP/src/core/ipv4/ip4_frag.c ****     LWIP_DEBUGF(IP_REASS_DEBUG,("ip4_reass: IP options currently not supported!\n"));
 1334              		.loc 1 513 8 is_stmt 0 view .LVU407
ARM GAS  /tmp/ccwtyKYK.s 			page 43


 1335 0008 2B78     		ldrb	r3, [r5]	@ zero_extendqisi2
 1336 000a 03F00F03 		and	r3, r3, #15
 513:Middlewares/Third_Party/LwIP/src/core/ipv4/ip4_frag.c ****     LWIP_DEBUGF(IP_REASS_DEBUG,("ip4_reass: IP options currently not supported!\n"));
 1337              		.loc 1 513 6 view .LVU408
 1338 000e 052B     		cmp	r3, #5
 1339 0010 25D1     		bne	.L111
 519:Middlewares/Third_Party/LwIP/src/core/ipv4/ip4_frag.c ****   len = lwip_ntohs(IPH_LEN(fraghdr)) - IPH_HL(fraghdr) * 4;
 1340              		.loc 1 519 3 is_stmt 1 view .LVU409
 519:Middlewares/Third_Party/LwIP/src/core/ipv4/ip4_frag.c ****   len = lwip_ntohs(IPH_LEN(fraghdr)) - IPH_HL(fraghdr) * 4;
 1341              		.loc 1 519 13 is_stmt 0 view .LVU410
 1342 0012 E888     		ldrh	r0, [r5, #6]	@ unaligned
 1343              	.LVL152:
 519:Middlewares/Third_Party/LwIP/src/core/ipv4/ip4_frag.c ****   len = lwip_ntohs(IPH_LEN(fraghdr)) - IPH_HL(fraghdr) * 4;
 1344              		.loc 1 519 13 view .LVU411
 1345 0014 FFF7FEFF 		bl	lwip_htons
 1346              	.LVL153:
 519:Middlewares/Third_Party/LwIP/src/core/ipv4/ip4_frag.c ****   len = lwip_ntohs(IPH_LEN(fraghdr)) - IPH_HL(fraghdr) * 4;
 1347              		.loc 1 519 10 view .LVU412
 1348 0018 C0F30C00 		ubfx	r0, r0, #0, #13
 1349 001c 4FEAC008 		lsl	r8, r0, #3
 1350              	.LVL154:
 520:Middlewares/Third_Party/LwIP/src/core/ipv4/ip4_frag.c **** 
 1351              		.loc 1 520 3 is_stmt 1 view .LVU413
 520:Middlewares/Third_Party/LwIP/src/core/ipv4/ip4_frag.c **** 
 1352              		.loc 1 520 9 is_stmt 0 view .LVU414
 1353 0020 6888     		ldrh	r0, [r5, #2]	@ unaligned
 1354 0022 FFF7FEFF 		bl	lwip_htons
 1355              	.LVL155:
 520:Middlewares/Third_Party/LwIP/src/core/ipv4/ip4_frag.c **** 
 1356              		.loc 1 520 40 view .LVU415
 1357 0026 2E78     		ldrb	r6, [r5]	@ zero_extendqisi2
 520:Middlewares/Third_Party/LwIP/src/core/ipv4/ip4_frag.c **** 
 1358              		.loc 1 520 38 view .LVU416
 1359 0028 06F00F06 		and	r6, r6, #15
 520:Middlewares/Third_Party/LwIP/src/core/ipv4/ip4_frag.c **** 
 1360              		.loc 1 520 7 view .LVU417
 1361 002c A0EB8606 		sub	r6, r0, r6, lsl #2
 1362 0030 B6B2     		uxth	r6, r6
 1363              	.LVL156:
 523:Middlewares/Third_Party/LwIP/src/core/ipv4/ip4_frag.c ****   if ((ip_reass_pbufcount + clen) > IP_REASS_MAX_PBUFS) {
 1364              		.loc 1 523 3 is_stmt 1 view .LVU418
 523:Middlewares/Third_Party/LwIP/src/core/ipv4/ip4_frag.c ****   if ((ip_reass_pbufcount + clen) > IP_REASS_MAX_PBUFS) {
 1365              		.loc 1 523 10 is_stmt 0 view .LVU419
 1366 0032 3846     		mov	r0, r7
 1367 0034 FFF7FEFF 		bl	pbuf_clen
 1368              	.LVL157:
 1369 0038 8146     		mov	r9, r0
 1370              	.LVL158:
 524:Middlewares/Third_Party/LwIP/src/core/ipv4/ip4_frag.c **** #if IP_REASS_FREE_OLDEST
 1371              		.loc 1 524 3 is_stmt 1 view .LVU420
 524:Middlewares/Third_Party/LwIP/src/core/ipv4/ip4_frag.c **** #if IP_REASS_FREE_OLDEST
 1372              		.loc 1 524 27 is_stmt 0 view .LVU421
 1373 003a 594B     		ldr	r3, .L135
 1374 003c 1B88     		ldrh	r3, [r3]
 1375 003e 0344     		add	r3, r3, r0
 524:Middlewares/Third_Party/LwIP/src/core/ipv4/ip4_frag.c **** #if IP_REASS_FREE_OLDEST
 1376              		.loc 1 524 6 view .LVU422
ARM GAS  /tmp/ccwtyKYK.s 			page 44


 1377 0040 0A2B     		cmp	r3, #10
 1378 0042 02DC     		bgt	.L130
 1379              	.LVL159:
 1380              	.L112:
 542:Middlewares/Third_Party/LwIP/src/core/ipv4/ip4_frag.c ****     /* Check if the incoming fragment matches the one currently present
 1381              		.loc 1 542 3 is_stmt 1 view .LVU423
 542:Middlewares/Third_Party/LwIP/src/core/ipv4/ip4_frag.c ****     /* Check if the incoming fragment matches the one currently present
 1382              		.loc 1 542 12 is_stmt 0 view .LVU424
 1383 0044 574B     		ldr	r3, .L135+4
 1384 0046 1C68     		ldr	r4, [r3]
 1385              	.LVL160:
 542:Middlewares/Third_Party/LwIP/src/core/ipv4/ip4_frag.c ****     /* Check if the incoming fragment matches the one currently present
 1386              		.loc 1 542 3 view .LVU425
 1387 0048 11E0     		b	.L113
 1388              	.LVL161:
 1389              	.L130:
 526:Middlewares/Third_Party/LwIP/src/core/ipv4/ip4_frag.c ****         ((ip_reass_pbufcount + clen) > IP_REASS_MAX_PBUFS))
 1390              		.loc 1 526 5 is_stmt 1 view .LVU426
 526:Middlewares/Third_Party/LwIP/src/core/ipv4/ip4_frag.c ****         ((ip_reass_pbufcount + clen) > IP_REASS_MAX_PBUFS))
 1391              		.loc 1 526 10 is_stmt 0 view .LVU427
 1392 004a 0146     		mov	r1, r0
 1393 004c 2846     		mov	r0, r5
 1394              	.LVL162:
 526:Middlewares/Third_Party/LwIP/src/core/ipv4/ip4_frag.c ****         ((ip_reass_pbufcount + clen) > IP_REASS_MAX_PBUFS))
 1395              		.loc 1 526 10 view .LVU428
 1396 004e FFF7FEFF 		bl	ip_reass_remove_oldest_datagram
 1397              	.LVL163:
 526:Middlewares/Third_Party/LwIP/src/core/ipv4/ip4_frag.c ****         ((ip_reass_pbufcount + clen) > IP_REASS_MAX_PBUFS))
 1398              		.loc 1 526 8 view .LVU429
 1399 0052 20B1     		cbz	r0, .L111
 527:Middlewares/Third_Party/LwIP/src/core/ipv4/ip4_frag.c **** #endif /* IP_REASS_FREE_OLDEST */
 1400              		.loc 1 527 30 discriminator 1 view .LVU430
 1401 0054 524B     		ldr	r3, .L135
 1402 0056 1B88     		ldrh	r3, [r3]
 1403 0058 4B44     		add	r3, r3, r9
 526:Middlewares/Third_Party/LwIP/src/core/ipv4/ip4_frag.c ****         ((ip_reass_pbufcount + clen) > IP_REASS_MAX_PBUFS))
 1404              		.loc 1 526 57 discriminator 1 view .LVU431
 1405 005a 0A2B     		cmp	r3, #10
 1406 005c F2DD     		ble	.L112
 1407              	.LVL164:
 1408              	.L111:
 666:Middlewares/Third_Party/LwIP/src/core/ipv4/ip4_frag.c ****   IPFRAG_STATS_INC(ip_frag.drop);
 1409              		.loc 1 666 58 is_stmt 1 view .LVU432
 667:Middlewares/Third_Party/LwIP/src/core/ipv4/ip4_frag.c ****   pbuf_free(p);
 1410              		.loc 1 667 33 view .LVU433
 668:Middlewares/Third_Party/LwIP/src/core/ipv4/ip4_frag.c ****   return NULL;
 1411              		.loc 1 668 3 view .LVU434
 1412 005e 3846     		mov	r0, r7
 1413 0060 FFF7FEFF 		bl	pbuf_free
 1414              	.LVL165:
 669:Middlewares/Third_Party/LwIP/src/core/ipv4/ip4_frag.c **** }
 1415              		.loc 1 669 3 view .LVU435
 669:Middlewares/Third_Party/LwIP/src/core/ipv4/ip4_frag.c **** }
 1416              		.loc 1 669 10 is_stmt 0 view .LVU436
 1417 0064 0026     		movs	r6, #0
 1418              	.LVL166:
 1419              	.L110:
ARM GAS  /tmp/ccwtyKYK.s 			page 45


 670:Middlewares/Third_Party/LwIP/src/core/ipv4/ip4_frag.c **** #endif /* IP_REASSEMBLY */
 1420              		.loc 1 670 1 view .LVU437
 1421 0066 3046     		mov	r0, r6
 1422 0068 BDE8F883 		pop	{r3, r4, r5, r6, r7, r8, r9, pc}
 1423              	.LVL167:
 1424              	.L114:
 542:Middlewares/Third_Party/LwIP/src/core/ipv4/ip4_frag.c ****     /* Check if the incoming fragment matches the one currently present
 1425              		.loc 1 542 47 discriminator 2 view .LVU438
 1426 006c 2468     		ldr	r4, [r4]
 1427              	.LVL168:
 1428              	.L113:
 542:Middlewares/Third_Party/LwIP/src/core/ipv4/ip4_frag.c ****     /* Check if the incoming fragment matches the one currently present
 1429              		.loc 1 542 3 discriminator 1 view .LVU439
 1430 006e 5CB1     		cbz	r4, .L115
 546:Middlewares/Third_Party/LwIP/src/core/ipv4/ip4_frag.c ****       LWIP_DEBUGF(IP_REASS_DEBUG, ("ip4_reass: matching previous fragment ID=%"X16_F"\n",
 1431              		.loc 1 546 5 is_stmt 1 view .LVU440
 546:Middlewares/Third_Party/LwIP/src/core/ipv4/ip4_frag.c ****       LWIP_DEBUGF(IP_REASS_DEBUG, ("ip4_reass: matching previous fragment ID=%"X16_F"\n",
 1432              		.loc 1 546 9 is_stmt 0 view .LVU441
 1433 0070 6269     		ldr	r2, [r4, #20]
 1434 0072 EB68     		ldr	r3, [r5, #12]	@ unaligned
 546:Middlewares/Third_Party/LwIP/src/core/ipv4/ip4_frag.c ****       LWIP_DEBUGF(IP_REASS_DEBUG, ("ip4_reass: matching previous fragment ID=%"X16_F"\n",
 1435              		.loc 1 546 8 view .LVU442
 1436 0074 9A42     		cmp	r2, r3
 1437 0076 F9D1     		bne	.L114
 546:Middlewares/Third_Party/LwIP/src/core/ipv4/ip4_frag.c ****       LWIP_DEBUGF(IP_REASS_DEBUG, ("ip4_reass: matching previous fragment ID=%"X16_F"\n",
 1438              		.loc 1 546 9 discriminator 1 view .LVU443
 1439 0078 A269     		ldr	r2, [r4, #24]
 1440 007a 2B69     		ldr	r3, [r5, #16]	@ unaligned
 1441 007c 9A42     		cmp	r2, r3
 1442 007e F5D1     		bne	.L114
 546:Middlewares/Third_Party/LwIP/src/core/ipv4/ip4_frag.c ****       LWIP_DEBUGF(IP_REASS_DEBUG, ("ip4_reass: matching previous fragment ID=%"X16_F"\n",
 1443              		.loc 1 546 9 discriminator 2 view .LVU444
 1444 0080 A289     		ldrh	r2, [r4, #12]
 1445 0082 AB88     		ldrh	r3, [r5, #4]	@ unaligned
 1446 0084 9A42     		cmp	r2, r3
 1447 0086 F1D1     		bne	.L114
 1448              	.L115:
 554:Middlewares/Third_Party/LwIP/src/core/ipv4/ip4_frag.c ****   /* Enqueue a new datagram into the datagram queue */
 1449              		.loc 1 554 3 is_stmt 1 view .LVU445
 554:Middlewares/Third_Party/LwIP/src/core/ipv4/ip4_frag.c ****   /* Enqueue a new datagram into the datagram queue */
 1450              		.loc 1 554 6 is_stmt 0 view .LVU446
 1451 0088 6CB3     		cbz	r4, .L131
 562:Middlewares/Third_Party/LwIP/src/core/ipv4/ip4_frag.c ****       ((lwip_ntohs(IPH_OFFSET(&ipr->iphdr)) & IP_OFFMASK) != 0)) {
 1452              		.loc 1 562 5 is_stmt 1 view .LVU447
 562:Middlewares/Third_Party/LwIP/src/core/ipv4/ip4_frag.c ****       ((lwip_ntohs(IPH_OFFSET(&ipr->iphdr)) & IP_OFFMASK) != 0)) {
 1453              		.loc 1 562 11 is_stmt 0 view .LVU448
 1454 008a E888     		ldrh	r0, [r5, #6]	@ unaligned
 1455 008c FFF7FEFF 		bl	lwip_htons
 1456              	.LVL169:
 562:Middlewares/Third_Party/LwIP/src/core/ipv4/ip4_frag.c ****       ((lwip_ntohs(IPH_OFFSET(&ipr->iphdr)) & IP_OFFMASK) != 0)) {
 1457              		.loc 1 562 8 view .LVU449
 1458 0090 C0F30C00 		ubfx	r0, r0, #0, #13
 1459 0094 78B3     		cbz	r0, .L132
 1460              	.L118:
 576:Middlewares/Third_Party/LwIP/src/core/ipv4/ip4_frag.c ****   if (is_last) {
 1461              		.loc 1 576 3 is_stmt 1 view .LVU450
 576:Middlewares/Third_Party/LwIP/src/core/ipv4/ip4_frag.c ****   if (is_last) {
ARM GAS  /tmp/ccwtyKYK.s 			page 46


 1462              		.loc 1 576 14 is_stmt 0 view .LVU451
 1463 0096 ED88     		ldrh	r5, [r5, #6]	@ unaligned
 1464              	.LVL170:
 576:Middlewares/Third_Party/LwIP/src/core/ipv4/ip4_frag.c ****   if (is_last) {
 1465              		.loc 1 576 14 view .LVU452
 1466 0098 05F02005 		and	r5, r5, #32
 576:Middlewares/Third_Party/LwIP/src/core/ipv4/ip4_frag.c ****   if (is_last) {
 1467              		.loc 1 576 53 view .LVU453
 1468 009c 002D     		cmp	r5, #0
 1469 009e 0CBF     		ite	eq
 1470 00a0 0122     		moveq	r2, #1
 1471 00a2 0022     		movne	r2, #0
 1472              	.LVL171:
 577:Middlewares/Third_Party/LwIP/src/core/ipv4/ip4_frag.c ****     u16_t datagram_len = (u16_t)(offset + len);
 1473              		.loc 1 577 3 is_stmt 1 view .LVU454
 577:Middlewares/Third_Party/LwIP/src/core/ipv4/ip4_frag.c ****     u16_t datagram_len = (u16_t)(offset + len);
 1474              		.loc 1 577 6 is_stmt 0 view .LVU455
 1475 00a4 08D1     		bne	.L119
 1476              	.LBB5:
 578:Middlewares/Third_Party/LwIP/src/core/ipv4/ip4_frag.c ****     if ((datagram_len < offset) || (datagram_len > (0xFFFF - IP_HLEN))) {
 1477              		.loc 1 578 5 is_stmt 1 view .LVU456
 578:Middlewares/Third_Party/LwIP/src/core/ipv4/ip4_frag.c ****     if ((datagram_len < offset) || (datagram_len > (0xFFFF - IP_HLEN))) {
 1478              		.loc 1 578 11 is_stmt 0 view .LVU457
 1479 00a6 08EB0603 		add	r3, r8, r6
 1480 00aa 9BB2     		uxth	r3, r3
 1481              	.LVL172:
 579:Middlewares/Third_Party/LwIP/src/core/ipv4/ip4_frag.c ****       /* u16_t overflow, cannot handle this */
 1482              		.loc 1 579 5 is_stmt 1 view .LVU458
 579:Middlewares/Third_Party/LwIP/src/core/ipv4/ip4_frag.c ****       /* u16_t overflow, cannot handle this */
 1483              		.loc 1 579 8 is_stmt 0 view .LVU459
 1484 00ac 4FF6EB71 		movw	r1, #65515
 1485 00b0 8B42     		cmp	r3, r1
 1486 00b2 98BF     		it	ls
 1487 00b4 9845     		cmpls	r8, r3
 1488 00b6 D2D8     		bhi	.L111
 1489              	.LVL173:
 1490              	.L119:
 579:Middlewares/Third_Party/LwIP/src/core/ipv4/ip4_frag.c ****       /* u16_t overflow, cannot handle this */
 1491              		.loc 1 579 8 view .LVU460
 1492              	.LBE5:
 586:Middlewares/Third_Party/LwIP/src/core/ipv4/ip4_frag.c ****   if (valid == IP_REASS_VALIDATE_PBUF_DROPPED) {
 1493              		.loc 1 586 3 is_stmt 1 view .LVU461
 586:Middlewares/Third_Party/LwIP/src/core/ipv4/ip4_frag.c ****   if (valid == IP_REASS_VALIDATE_PBUF_DROPPED) {
 1494              		.loc 1 586 11 is_stmt 0 view .LVU462
 1495 00b8 3946     		mov	r1, r7
 1496 00ba 2046     		mov	r0, r4
 1497 00bc FFF7FEFF 		bl	ip_reass_chain_frag_into_datagram_and_validate
 1498              	.LVL174:
 587:Middlewares/Third_Party/LwIP/src/core/ipv4/ip4_frag.c ****     goto nullreturn;
 1499              		.loc 1 587 3 is_stmt 1 view .LVU463
 587:Middlewares/Third_Party/LwIP/src/core/ipv4/ip4_frag.c ****     goto nullreturn;
 1500              		.loc 1 587 6 is_stmt 0 view .LVU464
 1501 00c0 B0F1FF3F 		cmp	r0, #-1
 1502 00c4 CBD0     		beq	.L111
 595:Middlewares/Third_Party/LwIP/src/core/ipv4/ip4_frag.c ****   if (is_last) {
 1503              		.loc 1 595 3 is_stmt 1 view .LVU465
 595:Middlewares/Third_Party/LwIP/src/core/ipv4/ip4_frag.c ****   if (is_last) {
ARM GAS  /tmp/ccwtyKYK.s 			page 47


 1504              		.loc 1 595 24 is_stmt 0 view .LVU466
 1505 00c6 364B     		ldr	r3, .L135
 1506 00c8 1A88     		ldrh	r2, [r3]
 1507 00ca 9144     		add	r9, r9, r2
 595:Middlewares/Third_Party/LwIP/src/core/ipv4/ip4_frag.c ****   if (is_last) {
 1508              		.loc 1 595 22 view .LVU467
 1509 00cc A3F80090 		strh	r9, [r3]	@ movhi
 596:Middlewares/Third_Party/LwIP/src/core/ipv4/ip4_frag.c ****     u16_t datagram_len = (u16_t)(offset + len);
 1510              		.loc 1 596 3 is_stmt 1 view .LVU468
 596:Middlewares/Third_Party/LwIP/src/core/ipv4/ip4_frag.c ****     u16_t datagram_len = (u16_t)(offset + len);
 1511              		.loc 1 596 6 is_stmt 0 view .LVU469
 1512 00d0 2DB9     		cbnz	r5, .L120
 1513              	.LBB6:
 597:Middlewares/Third_Party/LwIP/src/core/ipv4/ip4_frag.c ****     ipr->datagram_len = datagram_len;
 1514              		.loc 1 597 5 is_stmt 1 view .LVU470
 597:Middlewares/Third_Party/LwIP/src/core/ipv4/ip4_frag.c ****     ipr->datagram_len = datagram_len;
 1515              		.loc 1 597 11 is_stmt 0 view .LVU471
 1516 00d2 4644     		add	r6, r6, r8
 1517              	.LVL175:
 598:Middlewares/Third_Party/LwIP/src/core/ipv4/ip4_frag.c ****     ipr->flags |= IP_REASS_FLAG_LASTFRAG;
 1518              		.loc 1 598 5 is_stmt 1 view .LVU472
 598:Middlewares/Third_Party/LwIP/src/core/ipv4/ip4_frag.c ****     ipr->flags |= IP_REASS_FLAG_LASTFRAG;
 1519              		.loc 1 598 23 is_stmt 0 view .LVU473
 1520 00d4 A683     		strh	r6, [r4, #28]	@ movhi
 599:Middlewares/Third_Party/LwIP/src/core/ipv4/ip4_frag.c ****     LWIP_DEBUGF(IP_REASS_DEBUG,
 1521              		.loc 1 599 5 is_stmt 1 view .LVU474
 599:Middlewares/Third_Party/LwIP/src/core/ipv4/ip4_frag.c ****     LWIP_DEBUGF(IP_REASS_DEBUG,
 1522              		.loc 1 599 16 is_stmt 0 view .LVU475
 1523 00d6 A37F     		ldrb	r3, [r4, #30]	@ zero_extendqisi2
 1524 00d8 43F00103 		orr	r3, r3, #1
 1525 00dc A377     		strb	r3, [r4, #30]
 1526              	.LVL176:
 1527              	.L120:
 602:Middlewares/Third_Party/LwIP/src/core/ipv4/ip4_frag.c ****   }
 1528              		.loc 1 602 26 is_stmt 1 view .LVU476
 1529              	.LBE6:
 605:Middlewares/Third_Party/LwIP/src/core/ipv4/ip4_frag.c ****     struct ip_reassdata *ipr_prev;
 1530              		.loc 1 605 3 view .LVU477
 605:Middlewares/Third_Party/LwIP/src/core/ipv4/ip4_frag.c ****     struct ip_reassdata *ipr_prev;
 1531              		.loc 1 605 6 is_stmt 0 view .LVU478
 1532 00de 0128     		cmp	r0, #1
 1533 00e0 1DD0     		beq	.L133
 663:Middlewares/Third_Party/LwIP/src/core/ipv4/ip4_frag.c **** 
 1534              		.loc 1 663 10 view .LVU479
 1535 00e2 0026     		movs	r6, #0
 1536 00e4 BFE7     		b	.L110
 1537              	.LVL177:
 1538              	.L131:
 556:Middlewares/Third_Party/LwIP/src/core/ipv4/ip4_frag.c ****     /* Bail if unable to enqueue */
 1539              		.loc 1 556 5 is_stmt 1 view .LVU480
 556:Middlewares/Third_Party/LwIP/src/core/ipv4/ip4_frag.c ****     /* Bail if unable to enqueue */
 1540              		.loc 1 556 11 is_stmt 0 view .LVU481
 1541 00e6 4946     		mov	r1, r9
 1542 00e8 2846     		mov	r0, r5
 1543 00ea FFF7FEFF 		bl	ip_reass_enqueue_new_datagram
 1544              	.LVL178:
 558:Middlewares/Third_Party/LwIP/src/core/ipv4/ip4_frag.c ****       goto nullreturn;
ARM GAS  /tmp/ccwtyKYK.s 			page 48


 1545              		.loc 1 558 5 is_stmt 1 view .LVU482
 558:Middlewares/Third_Party/LwIP/src/core/ipv4/ip4_frag.c ****       goto nullreturn;
 1546              		.loc 1 558 8 is_stmt 0 view .LVU483
 1547 00ee 0446     		mov	r4, r0
 1548 00f0 0028     		cmp	r0, #0
 1549 00f2 D0D1     		bne	.L118
 1550 00f4 B3E7     		b	.L111
 1551              	.LVL179:
 1552              	.L132:
 563:Middlewares/Third_Party/LwIP/src/core/ipv4/ip4_frag.c ****       /* ipr->iphdr is not the header from the first fragment, but fraghdr is
 1553              		.loc 1 563 9 discriminator 1 view .LVU484
 1554 00f6 E089     		ldrh	r0, [r4, #14]
 1555 00f8 FFF7FEFF 		bl	lwip_htons
 1556              	.LVL180:
 562:Middlewares/Third_Party/LwIP/src/core/ipv4/ip4_frag.c ****       ((lwip_ntohs(IPH_OFFSET(&ipr->iphdr)) & IP_OFFMASK) != 0)) {
 1557              		.loc 1 562 63 discriminator 1 view .LVU485
 1558 00fc C0F30C00 		ubfx	r0, r0, #0, #13
 1559 0100 0028     		cmp	r0, #0
 1560 0102 C8D0     		beq	.L118
 568:Middlewares/Third_Party/LwIP/src/core/ipv4/ip4_frag.c ****     }
 1561              		.loc 1 568 7 is_stmt 1 view .LVU486
 1562 0104 2A68     		ldr	r2, [r5]	@ unaligned
 1563 0106 D5F804C0 		ldr	ip, [r5, #4]	@ unaligned
 1564 010a A868     		ldr	r0, [r5, #8]	@ unaligned
 1565 010c E968     		ldr	r1, [r5, #12]	@ unaligned
 1566 010e A260     		str	r2, [r4, #8]	@ unaligned
 1567 0110 C4F80CC0 		str	ip, [r4, #12]	@ unaligned
 1568 0114 2061     		str	r0, [r4, #16]	@ unaligned
 1569 0116 6161     		str	r1, [r4, #20]	@ unaligned
 1570 0118 2A69     		ldr	r2, [r5, #16]	@ unaligned
 1571 011a A261     		str	r2, [r4, #24]	@ unaligned
 1572 011c BBE7     		b	.L118
 1573              	.LVL181:
 1574              	.L133:
 1575              	.LBB7:
 606:Middlewares/Third_Party/LwIP/src/core/ipv4/ip4_frag.c ****     /* the totally last fragment (flag more fragments = 0) was received at least
 1576              		.loc 1 606 5 view .LVU487
 609:Middlewares/Third_Party/LwIP/src/core/ipv4/ip4_frag.c **** 
 1577              		.loc 1 609 5 view .LVU488
 609:Middlewares/Third_Party/LwIP/src/core/ipv4/ip4_frag.c **** 
 1578              		.loc 1 609 23 is_stmt 0 view .LVU489
 1579 011e A38B     		ldrh	r3, [r4, #28]
 1580 0120 1433     		adds	r3, r3, #20
 1581 0122 A383     		strh	r3, [r4, #28]	@ movhi
 612:Middlewares/Third_Party/LwIP/src/core/ipv4/ip4_frag.c **** 
 1582              		.loc 1 612 5 is_stmt 1 view .LVU490
 612:Middlewares/Third_Party/LwIP/src/core/ipv4/ip4_frag.c **** 
 1583              		.loc 1 612 38 is_stmt 0 view .LVU491
 1584 0124 6368     		ldr	r3, [r4, #4]
 612:Middlewares/Third_Party/LwIP/src/core/ipv4/ip4_frag.c **** 
 1585              		.loc 1 612 41 view .LVU492
 1586 0126 5E68     		ldr	r6, [r3, #4]
 612:Middlewares/Third_Party/LwIP/src/core/ipv4/ip4_frag.c **** 
 1587              		.loc 1 612 7 view .LVU493
 1588 0128 3568     		ldr	r5, [r6]	@ unaligned
 1589              	.LVL182:
 615:Middlewares/Third_Party/LwIP/src/core/ipv4/ip4_frag.c ****     SMEMCPY(fraghdr, &ipr->iphdr, IP_HLEN);
ARM GAS  /tmp/ccwtyKYK.s 			page 49


 1590              		.loc 1 615 5 is_stmt 1 view .LVU494
 616:Middlewares/Third_Party/LwIP/src/core/ipv4/ip4_frag.c ****     IPH_LEN_SET(fraghdr, lwip_htons(ipr->datagram_len));
 1591              		.loc 1 616 5 view .LVU495
 1592 012a 2346     		mov	r3, r4
 1593 012c 53F8082F 		ldr	r2, [r3, #8]!	@ unaligned
 1594 0130 5F68     		ldr	r7, [r3, #4]	@ unaligned
 1595              	.LVL183:
 616:Middlewares/Third_Party/LwIP/src/core/ipv4/ip4_frag.c ****     IPH_LEN_SET(fraghdr, lwip_htons(ipr->datagram_len));
 1596              		.loc 1 616 5 is_stmt 0 view .LVU496
 1597 0132 9868     		ldr	r0, [r3, #8]	@ unaligned
 1598              	.LVL184:
 616:Middlewares/Third_Party/LwIP/src/core/ipv4/ip4_frag.c ****     IPH_LEN_SET(fraghdr, lwip_htons(ipr->datagram_len));
 1599              		.loc 1 616 5 view .LVU497
 1600 0134 D968     		ldr	r1, [r3, #12]	@ unaligned
 1601 0136 3260     		str	r2, [r6]	@ unaligned
 1602 0138 7760     		str	r7, [r6, #4]	@ unaligned
 1603 013a B060     		str	r0, [r6, #8]	@ unaligned
 1604 013c F160     		str	r1, [r6, #12]	@ unaligned
 1605 013e 1A69     		ldr	r2, [r3, #16]	@ unaligned
 1606 0140 3261     		str	r2, [r6, #16]	@ unaligned
 617:Middlewares/Third_Party/LwIP/src/core/ipv4/ip4_frag.c ****     IPH_OFFSET_SET(fraghdr, 0);
 1607              		.loc 1 617 5 is_stmt 1 view .LVU498
 1608 0142 A08B     		ldrh	r0, [r4, #28]
 1609 0144 FFF7FEFF 		bl	lwip_htons
 1610              	.LVL185:
 1611 0148 7080     		strh	r0, [r6, #2]	@ unaligned
 618:Middlewares/Third_Party/LwIP/src/core/ipv4/ip4_frag.c ****     IPH_CHKSUM_SET(fraghdr, 0);
 1612              		.loc 1 618 5 view .LVU499
 1613 014a 0023     		movs	r3, #0
 1614 014c B371     		strb	r3, [r6, #6]
 1615 014e F371     		strb	r3, [r6, #7]
 619:Middlewares/Third_Party/LwIP/src/core/ipv4/ip4_frag.c ****     /* @todo: do we need to set/calculate the correct checksum? */
 1616              		.loc 1 619 5 view .LVU500
 1617 0150 B372     		strb	r3, [r6, #10]
 1618 0152 F372     		strb	r3, [r6, #11]
 627:Middlewares/Third_Party/LwIP/src/core/ipv4/ip4_frag.c **** 
 1619              		.loc 1 627 5 view .LVU501
 627:Middlewares/Third_Party/LwIP/src/core/ipv4/ip4_frag.c **** 
 1620              		.loc 1 627 7 is_stmt 0 view .LVU502
 1621 0154 6668     		ldr	r6, [r4, #4]
 1622              	.LVL186:
 630:Middlewares/Third_Party/LwIP/src/core/ipv4/ip4_frag.c ****       iprh = (struct ip_reass_helper*)r->payload;
 1623              		.loc 1 630 5 is_stmt 1 view .LVU503
 630:Middlewares/Third_Party/LwIP/src/core/ipv4/ip4_frag.c ****       iprh = (struct ip_reass_helper*)r->payload;
 1624              		.loc 1 630 11 is_stmt 0 view .LVU504
 1625 0156 0AE0     		b	.L122
 1626              	.L123:
 631:Middlewares/Third_Party/LwIP/src/core/ipv4/ip4_frag.c **** 
 1627              		.loc 1 631 7 is_stmt 1 view .LVU505
 631:Middlewares/Third_Party/LwIP/src/core/ipv4/ip4_frag.c **** 
 1628              		.loc 1 631 12 is_stmt 0 view .LVU506
 1629 0158 6F68     		ldr	r7, [r5, #4]
 1630              	.LVL187:
 634:Middlewares/Third_Party/LwIP/src/core/ipv4/ip4_frag.c ****       pbuf_cat(p, r);
 1631              		.loc 1 634 7 is_stmt 1 view .LVU507
 1632 015a 6FF01301 		mvn	r1, #19
 1633 015e 2846     		mov	r0, r5
ARM GAS  /tmp/ccwtyKYK.s 			page 50


 1634 0160 FFF7FEFF 		bl	pbuf_header
 1635              	.LVL188:
 635:Middlewares/Third_Party/LwIP/src/core/ipv4/ip4_frag.c ****       r = iprh->next_pbuf;
 1636              		.loc 1 635 7 view .LVU508
 1637 0164 2946     		mov	r1, r5
 1638 0166 3046     		mov	r0, r6
 1639 0168 FFF7FEFF 		bl	pbuf_cat
 1640              	.LVL189:
 636:Middlewares/Third_Party/LwIP/src/core/ipv4/ip4_frag.c ****     }
 1641              		.loc 1 636 7 view .LVU509
 636:Middlewares/Third_Party/LwIP/src/core/ipv4/ip4_frag.c ****     }
 1642              		.loc 1 636 9 is_stmt 0 view .LVU510
 1643 016c 3D68     		ldr	r5, [r7]	@ unaligned
 1644              	.LVL190:
 1645              	.L122:
 630:Middlewares/Third_Party/LwIP/src/core/ipv4/ip4_frag.c ****       iprh = (struct ip_reass_helper*)r->payload;
 1646              		.loc 1 630 11 view .LVU511
 1647 016e 002D     		cmp	r5, #0
 1648 0170 F2D1     		bne	.L123
 640:Middlewares/Third_Party/LwIP/src/core/ipv4/ip4_frag.c ****       ipr_prev = NULL;
 1649              		.loc 1 640 5 is_stmt 1 view .LVU512
 640:Middlewares/Third_Party/LwIP/src/core/ipv4/ip4_frag.c ****       ipr_prev = NULL;
 1650              		.loc 1 640 13 is_stmt 0 view .LVU513
 1651 0172 0C4B     		ldr	r3, .L135+4
 1652 0174 1968     		ldr	r1, [r3]
 640:Middlewares/Third_Party/LwIP/src/core/ipv4/ip4_frag.c ****       ipr_prev = NULL;
 1653              		.loc 1 640 8 view .LVU514
 1654 0176 A142     		cmp	r1, r4
 1655 0178 05D0     		beq	.L134
 1656              	.L125:
 1657              	.LVL191:
 643:Middlewares/Third_Party/LwIP/src/core/ipv4/ip4_frag.c ****         if (ipr_prev->next == ipr) {
 1658              		.loc 1 643 7 discriminator 1 view .LVU515
 1659 017a 29B1     		cbz	r1, .L124
 644:Middlewares/Third_Party/LwIP/src/core/ipv4/ip4_frag.c ****           break;
 1660              		.loc 1 644 9 is_stmt 1 view .LVU516
 644:Middlewares/Third_Party/LwIP/src/core/ipv4/ip4_frag.c ****           break;
 1661              		.loc 1 644 21 is_stmt 0 view .LVU517
 1662 017c 0B68     		ldr	r3, [r1]
 644:Middlewares/Third_Party/LwIP/src/core/ipv4/ip4_frag.c ****           break;
 1663              		.loc 1 644 12 view .LVU518
 1664 017e A342     		cmp	r3, r4
 1665 0180 02D0     		beq	.L124
 643:Middlewares/Third_Party/LwIP/src/core/ipv4/ip4_frag.c ****         if (ipr_prev->next == ipr) {
 1666              		.loc 1 643 66 view .LVU519
 1667 0182 1946     		mov	r1, r3
 1668              	.LVL192:
 643:Middlewares/Third_Party/LwIP/src/core/ipv4/ip4_frag.c ****         if (ipr_prev->next == ipr) {
 1669              		.loc 1 643 66 view .LVU520
 1670 0184 F9E7     		b	.L125
 1671              	.L134:
 641:Middlewares/Third_Party/LwIP/src/core/ipv4/ip4_frag.c ****     } else {
 1672              		.loc 1 641 16 view .LVU521
 1673 0186 2946     		mov	r1, r5
 1674              	.L124:
 1675              	.LVL193:
 651:Middlewares/Third_Party/LwIP/src/core/ipv4/ip4_frag.c **** 
ARM GAS  /tmp/ccwtyKYK.s 			page 51


 1676              		.loc 1 651 5 is_stmt 1 view .LVU522
 1677 0188 2046     		mov	r0, r4
 1678 018a FFF7FEFF 		bl	ip_reass_dequeue_datagram
 1679              	.LVL194:
 654:Middlewares/Third_Party/LwIP/src/core/ipv4/ip4_frag.c **** 
 1680              		.loc 1 654 5 view .LVU523
 654:Middlewares/Third_Party/LwIP/src/core/ipv4/ip4_frag.c **** 
 1681              		.loc 1 654 27 is_stmt 0 view .LVU524
 1682 018e 3046     		mov	r0, r6
 1683 0190 FFF7FEFF 		bl	pbuf_clen
 1684              	.LVL195:
 654:Middlewares/Third_Party/LwIP/src/core/ipv4/ip4_frag.c **** 
 1685              		.loc 1 654 24 view .LVU525
 1686 0194 024A     		ldr	r2, .L135
 1687 0196 1388     		ldrh	r3, [r2]
 1688 0198 1B1A     		subs	r3, r3, r0
 1689 019a 1380     		strh	r3, [r2]	@ movhi
 656:Middlewares/Third_Party/LwIP/src/core/ipv4/ip4_frag.c **** 
 1690              		.loc 1 656 36 is_stmt 1 view .LVU526
 659:Middlewares/Third_Party/LwIP/src/core/ipv4/ip4_frag.c ****   }
 1691              		.loc 1 659 5 view .LVU527
 659:Middlewares/Third_Party/LwIP/src/core/ipv4/ip4_frag.c ****   }
 1692              		.loc 1 659 12 is_stmt 0 view .LVU528
 1693 019c 63E7     		b	.L110
 1694              	.L136:
 1695 019e 00BF     		.align	2
 1696              	.L135:
 1697 01a0 00000000 		.word	.LANCHOR1
 1698 01a4 00000000 		.word	.LANCHOR0
 1699              	.LBE7:
 1700              		.cfi_endproc
 1701              	.LFE166:
 1703              		.section	.text.ip4_frag,"ax",%progbits
 1704              		.align	1
 1705              		.global	ip4_frag
 1706              		.syntax unified
 1707              		.thumb
 1708              		.thumb_func
 1709              		.fpu fpv5-sp-d16
 1711              	ip4_frag:
 1712              	.LVL196:
 1713              	.LFB170:
 703:Middlewares/Third_Party/LwIP/src/core/ipv4/ip4_frag.c **** #endif /* !LWIP_NETIF_TX_SINGLE_PBUF */
 704:Middlewares/Third_Party/LwIP/src/core/ipv4/ip4_frag.c **** 
 705:Middlewares/Third_Party/LwIP/src/core/ipv4/ip4_frag.c **** /**
 706:Middlewares/Third_Party/LwIP/src/core/ipv4/ip4_frag.c ****  * Fragment an IP datagram if too large for the netif.
 707:Middlewares/Third_Party/LwIP/src/core/ipv4/ip4_frag.c ****  *
 708:Middlewares/Third_Party/LwIP/src/core/ipv4/ip4_frag.c ****  * Chop the datagram in MTU sized chunks and send them in order
 709:Middlewares/Third_Party/LwIP/src/core/ipv4/ip4_frag.c ****  * by pointing PBUF_REFs into p.
 710:Middlewares/Third_Party/LwIP/src/core/ipv4/ip4_frag.c ****  *
 711:Middlewares/Third_Party/LwIP/src/core/ipv4/ip4_frag.c ****  * @param p ip packet to send
 712:Middlewares/Third_Party/LwIP/src/core/ipv4/ip4_frag.c ****  * @param netif the netif on which to send
 713:Middlewares/Third_Party/LwIP/src/core/ipv4/ip4_frag.c ****  * @param dest destination ip address to which to send
 714:Middlewares/Third_Party/LwIP/src/core/ipv4/ip4_frag.c ****  *
 715:Middlewares/Third_Party/LwIP/src/core/ipv4/ip4_frag.c ****  * @return ERR_OK if sent successfully, err_t otherwise
 716:Middlewares/Third_Party/LwIP/src/core/ipv4/ip4_frag.c ****  */
 717:Middlewares/Third_Party/LwIP/src/core/ipv4/ip4_frag.c **** err_t
ARM GAS  /tmp/ccwtyKYK.s 			page 52


 718:Middlewares/Third_Party/LwIP/src/core/ipv4/ip4_frag.c **** ip4_frag(struct pbuf *p, struct netif *netif, const ip4_addr_t *dest)
 719:Middlewares/Third_Party/LwIP/src/core/ipv4/ip4_frag.c **** {
 1714              		.loc 1 719 1 is_stmt 1 view -0
 1715              		.cfi_startproc
 1716              		@ args = 0, pretend = 0, frame = 40
 1717              		@ frame_needed = 0, uses_anonymous_args = 0
 1718              		.loc 1 719 1 is_stmt 0 view .LVU530
 1719 0000 2DE9F04F 		push	{r4, r5, r6, r7, r8, r9, r10, fp, lr}
 1720              	.LCFI10:
 1721              		.cfi_def_cfa_offset 36
 1722              		.cfi_offset 4, -36
 1723              		.cfi_offset 5, -32
 1724              		.cfi_offset 6, -28
 1725              		.cfi_offset 7, -24
 1726              		.cfi_offset 8, -20
 1727              		.cfi_offset 9, -16
 1728              		.cfi_offset 10, -12
 1729              		.cfi_offset 11, -8
 1730              		.cfi_offset 14, -4
 1731 0004 8DB0     		sub	sp, sp, #52
 1732              	.LCFI11:
 1733              		.cfi_def_cfa_offset 88
 1734 0006 0646     		mov	r6, r0
 1735 0008 0891     		str	r1, [sp, #32]
 1736 000a 0B92     		str	r2, [sp, #44]
 720:Middlewares/Third_Party/LwIP/src/core/ipv4/ip4_frag.c ****   struct pbuf *rambuf;
 1737              		.loc 1 720 3 is_stmt 1 view .LVU531
 721:Middlewares/Third_Party/LwIP/src/core/ipv4/ip4_frag.c **** #if !LWIP_NETIF_TX_SINGLE_PBUF
 722:Middlewares/Third_Party/LwIP/src/core/ipv4/ip4_frag.c ****   struct pbuf *newpbuf;
 1738              		.loc 1 722 3 view .LVU532
 723:Middlewares/Third_Party/LwIP/src/core/ipv4/ip4_frag.c ****   u16_t newpbuflen = 0;
 1739              		.loc 1 723 3 view .LVU533
 1740              	.LVL197:
 724:Middlewares/Third_Party/LwIP/src/core/ipv4/ip4_frag.c ****   u16_t left_to_copy;
 1741              		.loc 1 724 3 view .LVU534
 725:Middlewares/Third_Party/LwIP/src/core/ipv4/ip4_frag.c **** #endif
 726:Middlewares/Third_Party/LwIP/src/core/ipv4/ip4_frag.c ****   struct ip_hdr *original_iphdr;
 1742              		.loc 1 726 3 view .LVU535
 727:Middlewares/Third_Party/LwIP/src/core/ipv4/ip4_frag.c ****   struct ip_hdr *iphdr;
 1743              		.loc 1 727 3 view .LVU536
 728:Middlewares/Third_Party/LwIP/src/core/ipv4/ip4_frag.c ****   const u16_t nfb = (netif->mtu - IP_HLEN) / 8;
 1744              		.loc 1 728 3 view .LVU537
 1745              		.loc 1 728 27 is_stmt 0 view .LVU538
 1746 000c CB8C     		ldrh	r3, [r1, #38]
 1747              		.loc 1 728 44 view .LVU539
 1748 000e 143B     		subs	r3, r3, #20
 1749 0010 4FD4     		bmi	.L154
 1750              	.L138:
 1751 0012 DB10     		asrs	r3, r3, #3
 1752 0014 0793     		str	r3, [sp, #28]
 1753              		.loc 1 728 15 view .LVU540
 1754 0016 9BB2     		uxth	r3, r3
 1755 0018 0A93     		str	r3, [sp, #40]
 1756              	.LVL198:
 729:Middlewares/Third_Party/LwIP/src/core/ipv4/ip4_frag.c ****   u16_t left, fragsize;
 1757              		.loc 1 729 3 is_stmt 1 view .LVU541
 730:Middlewares/Third_Party/LwIP/src/core/ipv4/ip4_frag.c ****   u16_t ofo;
ARM GAS  /tmp/ccwtyKYK.s 			page 53


 1758              		.loc 1 730 3 view .LVU542
 731:Middlewares/Third_Party/LwIP/src/core/ipv4/ip4_frag.c ****   int last;
 1759              		.loc 1 731 3 view .LVU543
 732:Middlewares/Third_Party/LwIP/src/core/ipv4/ip4_frag.c ****   u16_t poff = IP_HLEN;
 1760              		.loc 1 732 3 view .LVU544
 733:Middlewares/Third_Party/LwIP/src/core/ipv4/ip4_frag.c ****   u16_t tmp;
 1761              		.loc 1 733 3 view .LVU545
 734:Middlewares/Third_Party/LwIP/src/core/ipv4/ip4_frag.c **** 
 735:Middlewares/Third_Party/LwIP/src/core/ipv4/ip4_frag.c ****   original_iphdr = (struct ip_hdr *)p->payload;
 1762              		.loc 1 735 3 view .LVU546
 1763              		.loc 1 735 18 is_stmt 0 view .LVU547
 1764 001a D6F804B0 		ldr	fp, [r6, #4]
 1765              	.LVL199:
 736:Middlewares/Third_Party/LwIP/src/core/ipv4/ip4_frag.c ****   iphdr = original_iphdr;
 1766              		.loc 1 736 3 is_stmt 1 view .LVU548
 737:Middlewares/Third_Party/LwIP/src/core/ipv4/ip4_frag.c ****   LWIP_ERROR("ip4_frag() does not support IP options", IPH_HL(iphdr) * 4 == IP_HLEN, return ERR_VAL
 1767              		.loc 1 737 3 view .LVU549
 1768              		.loc 1 737 3 view .LVU550
 1769 001e 9BF80030 		ldrb	r3, [fp]	@ zero_extendqisi2
 1770 0022 03F00F03 		and	r3, r3, #15
 1771 0026 052B     		cmp	r3, #5
 1772 0028 45D1     		bne	.L155
 738:Middlewares/Third_Party/LwIP/src/core/ipv4/ip4_frag.c **** 
 739:Middlewares/Third_Party/LwIP/src/core/ipv4/ip4_frag.c ****   /* Save original offset */
 740:Middlewares/Third_Party/LwIP/src/core/ipv4/ip4_frag.c ****   tmp = lwip_ntohs(IPH_OFFSET(iphdr));
 1773              		.loc 1 740 3 view .LVU551
 1774              		.loc 1 740 9 is_stmt 0 view .LVU552
 1775 002a BBF80600 		ldrh	r0, [fp, #6]	@ unaligned
 1776              	.LVL200:
 1777              		.loc 1 740 9 view .LVU553
 1778 002e FFF7FEFF 		bl	lwip_htons
 1779              	.LVL201:
 741:Middlewares/Third_Party/LwIP/src/core/ipv4/ip4_frag.c ****   ofo = tmp & IP_OFFMASK;
 1780              		.loc 1 741 3 is_stmt 1 view .LVU554
 1781              		.loc 1 741 7 is_stmt 0 view .LVU555
 1782 0032 C0F30C03 		ubfx	r3, r0, #0, #13
 1783 0036 0693     		str	r3, [sp, #24]
 1784              	.LVL202:
 742:Middlewares/Third_Party/LwIP/src/core/ipv4/ip4_frag.c ****   LWIP_ERROR("ip_frag(): MF already set", (tmp & IP_MF) == 0, return ERR_VAL);
 1785              		.loc 1 742 3 is_stmt 1 view .LVU556
 1786              		.loc 1 742 3 view .LVU557
 1787 0038 10F40053 		ands	r3, r0, #8192
 1788 003c 0493     		str	r3, [sp, #16]
 1789 003e 44D1     		bne	.L156
 743:Middlewares/Third_Party/LwIP/src/core/ipv4/ip4_frag.c **** 
 744:Middlewares/Third_Party/LwIP/src/core/ipv4/ip4_frag.c ****   left = p->tot_len - IP_HLEN;
 1790              		.loc 1 744 3 view .LVU558
 1791              		.loc 1 744 11 is_stmt 0 view .LVU559
 1792 0040 B6F80890 		ldrh	r9, [r6, #8]
 1793              		.loc 1 744 8 view .LVU560
 1794 0044 A9F11409 		sub	r9, r9, #20
 1795 0048 1FFA89FA 		uxth	r10, r9
 1796              	.LVL203:
 745:Middlewares/Third_Party/LwIP/src/core/ipv4/ip4_frag.c **** 
 746:Middlewares/Third_Party/LwIP/src/core/ipv4/ip4_frag.c ****   while (left) {
 1797              		.loc 1 746 3 is_stmt 1 view .LVU561
 723:Middlewares/Third_Party/LwIP/src/core/ipv4/ip4_frag.c ****   u16_t left_to_copy;
ARM GAS  /tmp/ccwtyKYK.s 			page 54


 1798              		.loc 1 723 9 is_stmt 0 view .LVU562
 1799 004c 049C     		ldr	r4, [sp, #16]
 732:Middlewares/Third_Party/LwIP/src/core/ipv4/ip4_frag.c ****   u16_t tmp;
 1800              		.loc 1 732 9 view .LVU563
 1801 004e 4FF01408 		mov	r8, #20
 1802 0052 D146     		mov	r9, r10
 1803              	.LVL204:
 1804              	.L142:
 1805              		.loc 1 746 9 view .LVU564
 1806 0054 B9F1000F 		cmp	r9, #0
 1807 0058 00F0B980 		beq	.L157
 747:Middlewares/Third_Party/LwIP/src/core/ipv4/ip4_frag.c ****     /* Fill this fragment */
 748:Middlewares/Third_Party/LwIP/src/core/ipv4/ip4_frag.c ****     fragsize = LWIP_MIN(left, nfb * 8);
 1808              		.loc 1 748 5 is_stmt 1 view .LVU565
 1809              		.loc 1 748 16 is_stmt 0 view .LVU566
 1810 005c BDF81C30 		ldrh	r3, [sp, #28]
 1811 0060 DB00     		lsls	r3, r3, #3
 1812 0062 CDF82490 		str	r9, [sp, #36]
 1813 0066 4B45     		cmp	r3, r9
 1814 0068 A8BF     		it	ge
 1815 006a 4B46     		movge	r3, r9
 1816              		.loc 1 748 14 view .LVU567
 1817 006c 9BB2     		uxth	r3, r3
 1818 006e 0593     		str	r3, [sp, #20]
 1819              	.LVL205:
 749:Middlewares/Third_Party/LwIP/src/core/ipv4/ip4_frag.c **** 
 750:Middlewares/Third_Party/LwIP/src/core/ipv4/ip4_frag.c **** #if LWIP_NETIF_TX_SINGLE_PBUF
 751:Middlewares/Third_Party/LwIP/src/core/ipv4/ip4_frag.c ****     rambuf = pbuf_alloc(PBUF_IP, fragsize, PBUF_RAM);
 752:Middlewares/Third_Party/LwIP/src/core/ipv4/ip4_frag.c ****     if (rambuf == NULL) {
 753:Middlewares/Third_Party/LwIP/src/core/ipv4/ip4_frag.c ****       goto memerr;
 754:Middlewares/Third_Party/LwIP/src/core/ipv4/ip4_frag.c ****     }
 755:Middlewares/Third_Party/LwIP/src/core/ipv4/ip4_frag.c ****     LWIP_ASSERT("this needs a pbuf in one piece!",
 756:Middlewares/Third_Party/LwIP/src/core/ipv4/ip4_frag.c ****       (rambuf->len == rambuf->tot_len) && (rambuf->next == NULL));
 757:Middlewares/Third_Party/LwIP/src/core/ipv4/ip4_frag.c ****     poff += pbuf_copy_partial(p, rambuf->payload, fragsize, poff);
 758:Middlewares/Third_Party/LwIP/src/core/ipv4/ip4_frag.c ****     /* make room for the IP header */
 759:Middlewares/Third_Party/LwIP/src/core/ipv4/ip4_frag.c ****     if (pbuf_header(rambuf, IP_HLEN)) {
 760:Middlewares/Third_Party/LwIP/src/core/ipv4/ip4_frag.c ****       pbuf_free(rambuf);
 761:Middlewares/Third_Party/LwIP/src/core/ipv4/ip4_frag.c ****       goto memerr;
 762:Middlewares/Third_Party/LwIP/src/core/ipv4/ip4_frag.c ****     }
 763:Middlewares/Third_Party/LwIP/src/core/ipv4/ip4_frag.c ****     /* fill in the IP header */
 764:Middlewares/Third_Party/LwIP/src/core/ipv4/ip4_frag.c ****     SMEMCPY(rambuf->payload, original_iphdr, IP_HLEN);
 765:Middlewares/Third_Party/LwIP/src/core/ipv4/ip4_frag.c ****     iphdr = (struct ip_hdr*)rambuf->payload;
 766:Middlewares/Third_Party/LwIP/src/core/ipv4/ip4_frag.c **** #else /* LWIP_NETIF_TX_SINGLE_PBUF */
 767:Middlewares/Third_Party/LwIP/src/core/ipv4/ip4_frag.c ****     /* When not using a static buffer, create a chain of pbufs.
 768:Middlewares/Third_Party/LwIP/src/core/ipv4/ip4_frag.c ****      * The first will be a PBUF_RAM holding the link and IP header.
 769:Middlewares/Third_Party/LwIP/src/core/ipv4/ip4_frag.c ****      * The rest will be PBUF_REFs mirroring the pbuf chain to be fragged,
 770:Middlewares/Third_Party/LwIP/src/core/ipv4/ip4_frag.c ****      * but limited to the size of an mtu.
 771:Middlewares/Third_Party/LwIP/src/core/ipv4/ip4_frag.c ****      */
 772:Middlewares/Third_Party/LwIP/src/core/ipv4/ip4_frag.c ****     rambuf = pbuf_alloc(PBUF_LINK, IP_HLEN, PBUF_RAM);
 1820              		.loc 1 772 5 is_stmt 1 view .LVU568
 1821              		.loc 1 772 14 is_stmt 0 view .LVU569
 1822 0070 0022     		movs	r2, #0
 1823 0072 1421     		movs	r1, #20
 1824 0074 0220     		movs	r0, #2
 1825 0076 FFF7FEFF 		bl	pbuf_alloc
 1826              	.LVL206:
 773:Middlewares/Third_Party/LwIP/src/core/ipv4/ip4_frag.c ****     if (rambuf == NULL) {
ARM GAS  /tmp/ccwtyKYK.s 			page 55


 1827              		.loc 1 773 5 is_stmt 1 view .LVU570
 1828              		.loc 1 773 8 is_stmt 0 view .LVU571
 1829 007a 0390     		str	r0, [sp, #12]
 1830 007c 0028     		cmp	r0, #0
 1831 007e 00F0A880 		beq	.L152
 774:Middlewares/Third_Party/LwIP/src/core/ipv4/ip4_frag.c ****       goto memerr;
 775:Middlewares/Third_Party/LwIP/src/core/ipv4/ip4_frag.c ****     }
 776:Middlewares/Third_Party/LwIP/src/core/ipv4/ip4_frag.c ****     LWIP_ASSERT("this needs a pbuf in one piece!",
 1832              		.loc 1 776 5 is_stmt 1 view .LVU572
 1833              		.loc 1 776 5 view .LVU573
 1834 0082 7389     		ldrh	r3, [r6, #10]
 1835 0084 132B     		cmp	r3, #19
 1836 0086 2AD9     		bls	.L158
 1837              	.LVL207:
 1838              	.L143:
 777:Middlewares/Third_Party/LwIP/src/core/ipv4/ip4_frag.c ****                 (p->len >= (IP_HLEN)));
 778:Middlewares/Third_Party/LwIP/src/core/ipv4/ip4_frag.c ****     SMEMCPY(rambuf->payload, original_iphdr, IP_HLEN);
 1839              		.loc 1 778 5 view .LVU574
 1840 0088 039F     		ldr	r7, [sp, #12]
 1841 008a 7B68     		ldr	r3, [r7, #4]
 1842 008c DBF80020 		ldr	r2, [fp]	@ unaligned
 1843 0090 DBF80450 		ldr	r5, [fp, #4]	@ unaligned
 1844 0094 DBF80800 		ldr	r0, [fp, #8]	@ unaligned
 1845 0098 DBF80C10 		ldr	r1, [fp, #12]	@ unaligned
 1846 009c 1A60     		str	r2, [r3]	@ unaligned
 1847 009e 5D60     		str	r5, [r3, #4]	@ unaligned
 1848 00a0 9860     		str	r0, [r3, #8]	@ unaligned
 1849 00a2 D960     		str	r1, [r3, #12]	@ unaligned
 1850 00a4 DBF81020 		ldr	r2, [fp, #16]	@ unaligned
 1851 00a8 1A61     		str	r2, [r3, #16]	@ unaligned
 779:Middlewares/Third_Party/LwIP/src/core/ipv4/ip4_frag.c ****     iphdr = (struct ip_hdr *)rambuf->payload;
 1852              		.loc 1 779 5 view .LVU575
 1853              		.loc 1 779 11 is_stmt 0 view .LVU576
 1854 00aa D7F804A0 		ldr	r10, [r7, #4]
 1855              	.LVL208:
 780:Middlewares/Third_Party/LwIP/src/core/ipv4/ip4_frag.c **** 
 781:Middlewares/Third_Party/LwIP/src/core/ipv4/ip4_frag.c ****     left_to_copy = fragsize;
 1856              		.loc 1 781 5 is_stmt 1 view .LVU577
 782:Middlewares/Third_Party/LwIP/src/core/ipv4/ip4_frag.c ****     while (left_to_copy) {
 1857              		.loc 1 782 5 view .LVU578
 781:Middlewares/Third_Party/LwIP/src/core/ipv4/ip4_frag.c ****     while (left_to_copy) {
 1858              		.loc 1 781 18 is_stmt 0 view .LVU579
 1859 00ae 059D     		ldr	r5, [sp, #20]
 1860              		.loc 1 782 11 view .LVU580
 1861 00b0 3DE0     		b	.L144
 1862              	.LVL209:
 1863              	.L154:
 728:Middlewares/Third_Party/LwIP/src/core/ipv4/ip4_frag.c ****   u16_t left, fragsize;
 1864              		.loc 1 728 44 view .LVU581
 1865 00b2 0733     		adds	r3, r3, #7
 1866 00b4 ADE7     		b	.L138
 1867              	.LVL210:
 1868              	.L155:
 737:Middlewares/Third_Party/LwIP/src/core/ipv4/ip4_frag.c **** 
 1869              		.loc 1 737 3 is_stmt 1 discriminator 1 view .LVU582
 737:Middlewares/Third_Party/LwIP/src/core/ipv4/ip4_frag.c **** 
 1870              		.loc 1 737 3 discriminator 1 view .LVU583
ARM GAS  /tmp/ccwtyKYK.s 			page 56


 1871 00b6 484B     		ldr	r3, .L162
 1872 00b8 40F2E122 		movw	r2, #737
 1873              	.LVL211:
 737:Middlewares/Third_Party/LwIP/src/core/ipv4/ip4_frag.c **** 
 1874              		.loc 1 737 3 is_stmt 0 discriminator 1 view .LVU584
 1875 00bc 4749     		ldr	r1, .L162+4
 1876              	.LVL212:
 737:Middlewares/Third_Party/LwIP/src/core/ipv4/ip4_frag.c **** 
 1877              		.loc 1 737 3 discriminator 1 view .LVU585
 1878 00be 4848     		ldr	r0, .L162+8
 1879              	.LVL213:
 737:Middlewares/Third_Party/LwIP/src/core/ipv4/ip4_frag.c **** 
 1880              		.loc 1 737 3 discriminator 1 view .LVU586
 1881 00c0 FFF7FEFF 		bl	printf
 1882              	.LVL214:
 737:Middlewares/Third_Party/LwIP/src/core/ipv4/ip4_frag.c **** 
 1883              		.loc 1 737 3 is_stmt 1 discriminator 1 view .LVU587
 1884 00c4 6FF00500 		mvn	r0, #5
 1885 00c8 43E0     		b	.L140
 1886              	.LVL215:
 1887              	.L156:
 742:Middlewares/Third_Party/LwIP/src/core/ipv4/ip4_frag.c **** 
 1888              		.loc 1 742 3 discriminator 1 view .LVU588
 742:Middlewares/Third_Party/LwIP/src/core/ipv4/ip4_frag.c **** 
 1889              		.loc 1 742 3 discriminator 1 view .LVU589
 1890 00ca 434B     		ldr	r3, .L162
 1891 00cc 40F2E622 		movw	r2, #742
 1892 00d0 4449     		ldr	r1, .L162+12
 1893 00d2 4348     		ldr	r0, .L162+8
 1894              	.LVL216:
 742:Middlewares/Third_Party/LwIP/src/core/ipv4/ip4_frag.c **** 
 1895              		.loc 1 742 3 is_stmt 0 discriminator 1 view .LVU590
 1896 00d4 FFF7FEFF 		bl	printf
 1897              	.LVL217:
 742:Middlewares/Third_Party/LwIP/src/core/ipv4/ip4_frag.c **** 
 1898              		.loc 1 742 3 is_stmt 1 discriminator 1 view .LVU591
 1899 00d8 6FF00500 		mvn	r0, #5
 1900 00dc 39E0     		b	.L140
 1901              	.LVL218:
 1902              	.L158:
 776:Middlewares/Third_Party/LwIP/src/core/ipv4/ip4_frag.c ****                 (p->len >= (IP_HLEN)));
 1903              		.loc 1 776 5 discriminator 1 view .LVU592
 776:Middlewares/Third_Party/LwIP/src/core/ipv4/ip4_frag.c ****                 (p->len >= (IP_HLEN)));
 1904              		.loc 1 776 5 discriminator 1 view .LVU593
 1905 00de 3E4B     		ldr	r3, .L162
 1906 00e0 40F20932 		movw	r2, #777
 1907 00e4 4049     		ldr	r1, .L162+16
 1908 00e6 3E48     		ldr	r0, .L162+8
 1909              	.LVL219:
 776:Middlewares/Third_Party/LwIP/src/core/ipv4/ip4_frag.c ****                 (p->len >= (IP_HLEN)));
 1910              		.loc 1 776 5 is_stmt 0 discriminator 1 view .LVU594
 1911 00e8 FFF7FEFF 		bl	printf
 1912              	.LVL220:
 1913 00ec CCE7     		b	.L143
 1914              	.LVL221:
 1915              	.L145:
 1916              	.LBB8:
ARM GAS  /tmp/ccwtyKYK.s 			page 57


 783:Middlewares/Third_Party/LwIP/src/core/ipv4/ip4_frag.c ****       struct pbuf_custom_ref *pcr;
 784:Middlewares/Third_Party/LwIP/src/core/ipv4/ip4_frag.c ****       u16_t plen = p->len - poff;
 785:Middlewares/Third_Party/LwIP/src/core/ipv4/ip4_frag.c ****       newpbuflen = LWIP_MIN(left_to_copy, plen);
 786:Middlewares/Third_Party/LwIP/src/core/ipv4/ip4_frag.c ****       /* Is this pbuf already empty? */
 787:Middlewares/Third_Party/LwIP/src/core/ipv4/ip4_frag.c ****       if (!newpbuflen) {
 788:Middlewares/Third_Party/LwIP/src/core/ipv4/ip4_frag.c ****         poff = 0;
 789:Middlewares/Third_Party/LwIP/src/core/ipv4/ip4_frag.c ****         p = p->next;
 790:Middlewares/Third_Party/LwIP/src/core/ipv4/ip4_frag.c ****         continue;
 791:Middlewares/Third_Party/LwIP/src/core/ipv4/ip4_frag.c ****       }
 792:Middlewares/Third_Party/LwIP/src/core/ipv4/ip4_frag.c ****       pcr = ip_frag_alloc_pbuf_custom_ref();
 1917              		.loc 1 792 7 is_stmt 1 view .LVU595
 1918              		.loc 1 792 13 is_stmt 0 view .LVU596
 1919 00ee FFF7FEFF 		bl	ip_frag_alloc_pbuf_custom_ref
 1920              	.LVL222:
 793:Middlewares/Third_Party/LwIP/src/core/ipv4/ip4_frag.c ****       if (pcr == NULL) {
 1921              		.loc 1 793 7 is_stmt 1 view .LVU597
 1922              		.loc 1 793 10 is_stmt 0 view .LVU598
 1923 00f2 0746     		mov	r7, r0
 1924 00f4 40B3     		cbz	r0, .L159
 794:Middlewares/Third_Party/LwIP/src/core/ipv4/ip4_frag.c ****         pbuf_free(rambuf);
 795:Middlewares/Third_Party/LwIP/src/core/ipv4/ip4_frag.c ****         goto memerr;
 796:Middlewares/Third_Party/LwIP/src/core/ipv4/ip4_frag.c ****       }
 797:Middlewares/Third_Party/LwIP/src/core/ipv4/ip4_frag.c ****       /* Mirror this pbuf, although we might not need all of it. */
 798:Middlewares/Third_Party/LwIP/src/core/ipv4/ip4_frag.c ****       newpbuf = pbuf_alloced_custom(PBUF_RAW, newpbuflen, PBUF_REF, &pcr->pc,
 1925              		.loc 1 798 7 is_stmt 1 view .LVU599
 799:Middlewares/Third_Party/LwIP/src/core/ipv4/ip4_frag.c ****         (u8_t*)p->payload + poff, newpbuflen);
 1926              		.loc 1 799 17 is_stmt 0 view .LVU600
 1927 00f6 7368     		ldr	r3, [r6, #4]
 798:Middlewares/Third_Party/LwIP/src/core/ipv4/ip4_frag.c ****         (u8_t*)p->payload + poff, newpbuflen);
 1928              		.loc 1 798 17 view .LVU601
 1929 00f8 0194     		str	r4, [sp, #4]
 1930 00fa 4344     		add	r3, r3, r8
 1931 00fc 0093     		str	r3, [sp]
 1932 00fe 0346     		mov	r3, r0
 1933 0100 0222     		movs	r2, #2
 1934 0102 2146     		mov	r1, r4
 1935 0104 0420     		movs	r0, #4
 1936              	.LVL223:
 798:Middlewares/Third_Party/LwIP/src/core/ipv4/ip4_frag.c ****         (u8_t*)p->payload + poff, newpbuflen);
 1937              		.loc 1 798 17 view .LVU602
 1938 0106 FFF7FEFF 		bl	pbuf_alloced_custom
 1939              	.LVL224:
 800:Middlewares/Third_Party/LwIP/src/core/ipv4/ip4_frag.c ****       if (newpbuf == NULL) {
 1940              		.loc 1 800 7 is_stmt 1 view .LVU603
 1941              		.loc 1 800 10 is_stmt 0 view .LVU604
 1942 010a 0290     		str	r0, [sp, #8]
 1943 010c 20B3     		cbz	r0, .L160
 801:Middlewares/Third_Party/LwIP/src/core/ipv4/ip4_frag.c ****         ip_frag_free_pbuf_custom_ref(pcr);
 802:Middlewares/Third_Party/LwIP/src/core/ipv4/ip4_frag.c ****         pbuf_free(rambuf);
 803:Middlewares/Third_Party/LwIP/src/core/ipv4/ip4_frag.c ****         goto memerr;
 804:Middlewares/Third_Party/LwIP/src/core/ipv4/ip4_frag.c ****       }
 805:Middlewares/Third_Party/LwIP/src/core/ipv4/ip4_frag.c ****       pbuf_ref(p);
 1944              		.loc 1 805 7 is_stmt 1 view .LVU605
 1945 010e 3046     		mov	r0, r6
 1946              	.LVL225:
 1947              		.loc 1 805 7 is_stmt 0 view .LVU606
 1948 0110 FFF7FEFF 		bl	pbuf_ref
ARM GAS  /tmp/ccwtyKYK.s 			page 58


 1949              	.LVL226:
 806:Middlewares/Third_Party/LwIP/src/core/ipv4/ip4_frag.c ****       pcr->original = p;
 1950              		.loc 1 806 7 is_stmt 1 view .LVU607
 1951              		.loc 1 806 21 is_stmt 0 view .LVU608
 1952 0114 7E61     		str	r6, [r7, #20]
 807:Middlewares/Third_Party/LwIP/src/core/ipv4/ip4_frag.c ****       pcr->pc.custom_free_function = ipfrag_free_pbuf_custom;
 1953              		.loc 1 807 7 is_stmt 1 view .LVU609
 1954              		.loc 1 807 36 is_stmt 0 view .LVU610
 1955 0116 354B     		ldr	r3, .L162+20
 1956 0118 3B61     		str	r3, [r7, #16]
 808:Middlewares/Third_Party/LwIP/src/core/ipv4/ip4_frag.c **** 
 809:Middlewares/Third_Party/LwIP/src/core/ipv4/ip4_frag.c ****       /* Add it to end of rambuf's chain, but using pbuf_cat, not pbuf_chain
 810:Middlewares/Third_Party/LwIP/src/core/ipv4/ip4_frag.c ****        * so that it is removed when pbuf_dechain is later called on rambuf.
 811:Middlewares/Third_Party/LwIP/src/core/ipv4/ip4_frag.c ****        */
 812:Middlewares/Third_Party/LwIP/src/core/ipv4/ip4_frag.c ****       pbuf_cat(rambuf, newpbuf);
 1957              		.loc 1 812 7 is_stmt 1 view .LVU611
 1958 011a 0299     		ldr	r1, [sp, #8]
 1959 011c 0398     		ldr	r0, [sp, #12]
 1960 011e FFF7FEFF 		bl	pbuf_cat
 1961              	.LVL227:
 813:Middlewares/Third_Party/LwIP/src/core/ipv4/ip4_frag.c ****       left_to_copy -= newpbuflen;
 1962              		.loc 1 813 7 view .LVU612
 1963              		.loc 1 813 20 is_stmt 0 view .LVU613
 1964 0122 2D1B     		subs	r5, r5, r4
 1965              	.LVL228:
 1966              		.loc 1 813 20 view .LVU614
 1967 0124 ADB2     		uxth	r5, r5
 1968              	.LVL229:
 814:Middlewares/Third_Party/LwIP/src/core/ipv4/ip4_frag.c ****       if (left_to_copy) {
 1969              		.loc 1 814 7 is_stmt 1 view .LVU615
 1970              		.loc 1 814 10 is_stmt 0 view .LVU616
 1971 0126 15B1     		cbz	r5, .L144
 815:Middlewares/Third_Party/LwIP/src/core/ipv4/ip4_frag.c ****         poff = 0;
 1972              		.loc 1 815 9 is_stmt 1 view .LVU617
 1973              	.LVL230:
 816:Middlewares/Third_Party/LwIP/src/core/ipv4/ip4_frag.c ****         p = p->next;
 1974              		.loc 1 816 9 view .LVU618
 1975              		.loc 1 816 11 is_stmt 0 view .LVU619
 1976 0128 3668     		ldr	r6, [r6]
 1977              	.LVL231:
 815:Middlewares/Third_Party/LwIP/src/core/ipv4/ip4_frag.c ****         poff = 0;
 1978              		.loc 1 815 14 view .LVU620
 1979 012a DDF81080 		ldr	r8, [sp, #16]
 1980              	.LVL232:
 1981              	.L144:
 815:Middlewares/Third_Party/LwIP/src/core/ipv4/ip4_frag.c ****         poff = 0;
 1982              		.loc 1 815 14 view .LVU621
 1983              	.LBE8:
 782:Middlewares/Third_Party/LwIP/src/core/ipv4/ip4_frag.c ****       struct pbuf_custom_ref *pcr;
 1984              		.loc 1 782 11 view .LVU622
 1985 012e E5B1     		cbz	r5, .L161
 1986              	.LBB9:
 783:Middlewares/Third_Party/LwIP/src/core/ipv4/ip4_frag.c ****       u16_t plen = p->len - poff;
 1987              		.loc 1 783 7 is_stmt 1 view .LVU623
 784:Middlewares/Third_Party/LwIP/src/core/ipv4/ip4_frag.c ****       newpbuflen = LWIP_MIN(left_to_copy, plen);
 1988              		.loc 1 784 7 view .LVU624
 784:Middlewares/Third_Party/LwIP/src/core/ipv4/ip4_frag.c ****       newpbuflen = LWIP_MIN(left_to_copy, plen);
ARM GAS  /tmp/ccwtyKYK.s 			page 59


 1989              		.loc 1 784 21 is_stmt 0 view .LVU625
 1990 0130 7489     		ldrh	r4, [r6, #10]
 1991              	.LVL233:
 784:Middlewares/Third_Party/LwIP/src/core/ipv4/ip4_frag.c ****       newpbuflen = LWIP_MIN(left_to_copy, plen);
 1992              		.loc 1 784 13 view .LVU626
 1993 0132 A4EB0804 		sub	r4, r4, r8
 1994 0136 A4B2     		uxth	r4, r4
 1995              	.LVL234:
 785:Middlewares/Third_Party/LwIP/src/core/ipv4/ip4_frag.c ****       /* Is this pbuf already empty? */
 1996              		.loc 1 785 7 is_stmt 1 view .LVU627
 785:Middlewares/Third_Party/LwIP/src/core/ipv4/ip4_frag.c ****       /* Is this pbuf already empty? */
 1997              		.loc 1 785 18 is_stmt 0 view .LVU628
 1998 0138 AC42     		cmp	r4, r5
 1999 013a 28BF     		it	cs
 2000 013c 2C46     		movcs	r4, r5
 2001              	.LVL235:
 787:Middlewares/Third_Party/LwIP/src/core/ipv4/ip4_frag.c ****         poff = 0;
 2002              		.loc 1 787 7 is_stmt 1 view .LVU629
 787:Middlewares/Third_Party/LwIP/src/core/ipv4/ip4_frag.c ****         poff = 0;
 2003              		.loc 1 787 10 is_stmt 0 view .LVU630
 2004 013e 002C     		cmp	r4, #0
 2005 0140 D5D1     		bne	.L145
 788:Middlewares/Third_Party/LwIP/src/core/ipv4/ip4_frag.c ****         p = p->next;
 2006              		.loc 1 788 9 is_stmt 1 view .LVU631
 2007              	.LVL236:
 789:Middlewares/Third_Party/LwIP/src/core/ipv4/ip4_frag.c ****         continue;
 2008              		.loc 1 789 9 view .LVU632
 789:Middlewares/Third_Party/LwIP/src/core/ipv4/ip4_frag.c ****         continue;
 2009              		.loc 1 789 11 is_stmt 0 view .LVU633
 2010 0142 3668     		ldr	r6, [r6]
 2011              	.LVL237:
 790:Middlewares/Third_Party/LwIP/src/core/ipv4/ip4_frag.c ****       }
 2012              		.loc 1 790 9 is_stmt 1 view .LVU634
 788:Middlewares/Third_Party/LwIP/src/core/ipv4/ip4_frag.c ****         p = p->next;
 2013              		.loc 1 788 14 is_stmt 0 view .LVU635
 2014 0144 A046     		mov	r8, r4
 790:Middlewares/Third_Party/LwIP/src/core/ipv4/ip4_frag.c ****       }
 2015              		.loc 1 790 9 view .LVU636
 2016 0146 F2E7     		b	.L144
 2017              	.LVL238:
 2018              	.L159:
 794:Middlewares/Third_Party/LwIP/src/core/ipv4/ip4_frag.c ****         goto memerr;
 2019              		.loc 1 794 9 is_stmt 1 view .LVU637
 2020 0148 0398     		ldr	r0, [sp, #12]
 2021              	.LVL239:
 794:Middlewares/Third_Party/LwIP/src/core/ipv4/ip4_frag.c ****         goto memerr;
 2022              		.loc 1 794 9 is_stmt 0 view .LVU638
 2023 014a FFF7FEFF 		bl	pbuf_free
 2024              	.LVL240:
 795:Middlewares/Third_Party/LwIP/src/core/ipv4/ip4_frag.c ****       }
 2025              		.loc 1 795 9 is_stmt 1 view .LVU639
 2026              	.LBE9:
 817:Middlewares/Third_Party/LwIP/src/core/ipv4/ip4_frag.c ****       }
 818:Middlewares/Third_Party/LwIP/src/core/ipv4/ip4_frag.c ****     }
 819:Middlewares/Third_Party/LwIP/src/core/ipv4/ip4_frag.c ****     poff += newpbuflen;
 820:Middlewares/Third_Party/LwIP/src/core/ipv4/ip4_frag.c **** #endif /* LWIP_NETIF_TX_SINGLE_PBUF */
 821:Middlewares/Third_Party/LwIP/src/core/ipv4/ip4_frag.c **** 
ARM GAS  /tmp/ccwtyKYK.s 			page 60


 822:Middlewares/Third_Party/LwIP/src/core/ipv4/ip4_frag.c ****     /* Correct header */
 823:Middlewares/Third_Party/LwIP/src/core/ipv4/ip4_frag.c ****     last = (left <= netif->mtu - IP_HLEN);
 824:Middlewares/Third_Party/LwIP/src/core/ipv4/ip4_frag.c **** 
 825:Middlewares/Third_Party/LwIP/src/core/ipv4/ip4_frag.c ****     /* Set new offset and MF flag */
 826:Middlewares/Third_Party/LwIP/src/core/ipv4/ip4_frag.c ****     tmp = (IP_OFFMASK & (ofo));
 827:Middlewares/Third_Party/LwIP/src/core/ipv4/ip4_frag.c ****     if (!last) {
 828:Middlewares/Third_Party/LwIP/src/core/ipv4/ip4_frag.c ****       tmp = tmp | IP_MF;
 829:Middlewares/Third_Party/LwIP/src/core/ipv4/ip4_frag.c ****     }
 830:Middlewares/Third_Party/LwIP/src/core/ipv4/ip4_frag.c ****     IPH_OFFSET_SET(iphdr, lwip_htons(tmp));
 831:Middlewares/Third_Party/LwIP/src/core/ipv4/ip4_frag.c ****     IPH_LEN_SET(iphdr, lwip_htons(fragsize + IP_HLEN));
 832:Middlewares/Third_Party/LwIP/src/core/ipv4/ip4_frag.c ****     IPH_CHKSUM_SET(iphdr, 0);
 833:Middlewares/Third_Party/LwIP/src/core/ipv4/ip4_frag.c **** #if CHECKSUM_GEN_IP
 834:Middlewares/Third_Party/LwIP/src/core/ipv4/ip4_frag.c ****     IF__NETIF_CHECKSUM_ENABLED(netif, NETIF_CHECKSUM_GEN_IP) {
 835:Middlewares/Third_Party/LwIP/src/core/ipv4/ip4_frag.c ****       IPH_CHKSUM_SET(iphdr, inet_chksum(iphdr, IP_HLEN));
 836:Middlewares/Third_Party/LwIP/src/core/ipv4/ip4_frag.c ****     }
 837:Middlewares/Third_Party/LwIP/src/core/ipv4/ip4_frag.c **** #endif /* CHECKSUM_GEN_IP */
 838:Middlewares/Third_Party/LwIP/src/core/ipv4/ip4_frag.c **** 
 839:Middlewares/Third_Party/LwIP/src/core/ipv4/ip4_frag.c ****     /* No need for separate header pbuf - we allowed room for it in rambuf
 840:Middlewares/Third_Party/LwIP/src/core/ipv4/ip4_frag.c ****      * when allocated.
 841:Middlewares/Third_Party/LwIP/src/core/ipv4/ip4_frag.c ****      */
 842:Middlewares/Third_Party/LwIP/src/core/ipv4/ip4_frag.c ****     netif->output(netif, rambuf, dest);
 843:Middlewares/Third_Party/LwIP/src/core/ipv4/ip4_frag.c ****     IPFRAG_STATS_INC(ip_frag.xmit);
 844:Middlewares/Third_Party/LwIP/src/core/ipv4/ip4_frag.c **** 
 845:Middlewares/Third_Party/LwIP/src/core/ipv4/ip4_frag.c ****     /* Unfortunately we can't reuse rambuf - the hardware may still be
 846:Middlewares/Third_Party/LwIP/src/core/ipv4/ip4_frag.c ****      * using the buffer. Instead we free it (and the ensuing chain) and
 847:Middlewares/Third_Party/LwIP/src/core/ipv4/ip4_frag.c ****      * recreate it next time round the loop. If we're lucky the hardware
 848:Middlewares/Third_Party/LwIP/src/core/ipv4/ip4_frag.c ****      * will have already sent the packet, the free will really free, and
 849:Middlewares/Third_Party/LwIP/src/core/ipv4/ip4_frag.c ****      * there will be zero memory penalty.
 850:Middlewares/Third_Party/LwIP/src/core/ipv4/ip4_frag.c ****      */
 851:Middlewares/Third_Party/LwIP/src/core/ipv4/ip4_frag.c **** 
 852:Middlewares/Third_Party/LwIP/src/core/ipv4/ip4_frag.c ****     pbuf_free(rambuf);
 853:Middlewares/Third_Party/LwIP/src/core/ipv4/ip4_frag.c ****     left -= fragsize;
 854:Middlewares/Third_Party/LwIP/src/core/ipv4/ip4_frag.c ****     ofo += nfb;
 855:Middlewares/Third_Party/LwIP/src/core/ipv4/ip4_frag.c ****   }
 856:Middlewares/Third_Party/LwIP/src/core/ipv4/ip4_frag.c ****   MIB2_STATS_INC(mib2.ipfragoks);
 857:Middlewares/Third_Party/LwIP/src/core/ipv4/ip4_frag.c ****   return ERR_OK;
 858:Middlewares/Third_Party/LwIP/src/core/ipv4/ip4_frag.c **** memerr:
 859:Middlewares/Third_Party/LwIP/src/core/ipv4/ip4_frag.c ****   MIB2_STATS_INC(mib2.ipfragfails);
 860:Middlewares/Third_Party/LwIP/src/core/ipv4/ip4_frag.c ****   return ERR_MEM;
 2027              		.loc 1 860 10 is_stmt 0 view .LVU640
 2028 014e 4FF0FF30 		mov	r0, #-1
 2029              	.LVL241:
 2030              	.L140:
 861:Middlewares/Third_Party/LwIP/src/core/ipv4/ip4_frag.c **** }
 2031              		.loc 1 861 1 view .LVU641
 2032 0152 0DB0     		add	sp, sp, #52
 2033              	.LCFI12:
 2034              		.cfi_remember_state
 2035              		.cfi_def_cfa_offset 36
 2036              		@ sp needed
 2037 0154 BDE8F08F 		pop	{r4, r5, r6, r7, r8, r9, r10, fp, pc}
 2038              	.LVL242:
 2039              	.L160:
 2040              	.LCFI13:
 2041              		.cfi_restore_state
 2042              	.LBB10:
 801:Middlewares/Third_Party/LwIP/src/core/ipv4/ip4_frag.c ****         pbuf_free(rambuf);
ARM GAS  /tmp/ccwtyKYK.s 			page 61


 2043              		.loc 1 801 9 is_stmt 1 view .LVU642
 2044 0158 3846     		mov	r0, r7
 2045              	.LVL243:
 801:Middlewares/Third_Party/LwIP/src/core/ipv4/ip4_frag.c ****         pbuf_free(rambuf);
 2046              		.loc 1 801 9 is_stmt 0 view .LVU643
 2047 015a FFF7FEFF 		bl	ip_frag_free_pbuf_custom_ref
 2048              	.LVL244:
 802:Middlewares/Third_Party/LwIP/src/core/ipv4/ip4_frag.c ****         goto memerr;
 2049              		.loc 1 802 9 is_stmt 1 view .LVU644
 2050 015e 0398     		ldr	r0, [sp, #12]
 2051 0160 FFF7FEFF 		bl	pbuf_free
 2052              	.LVL245:
 803:Middlewares/Third_Party/LwIP/src/core/ipv4/ip4_frag.c ****       }
 2053              		.loc 1 803 9 view .LVU645
 2054              	.LBE10:
 860:Middlewares/Third_Party/LwIP/src/core/ipv4/ip4_frag.c **** }
 2055              		.loc 1 860 10 is_stmt 0 view .LVU646
 2056 0164 4FF0FF30 		mov	r0, #-1
 2057              	.LBB11:
 803:Middlewares/Third_Party/LwIP/src/core/ipv4/ip4_frag.c ****       }
 2058              		.loc 1 803 9 view .LVU647
 2059 0168 F3E7     		b	.L140
 2060              	.LVL246:
 2061              	.L161:
 803:Middlewares/Third_Party/LwIP/src/core/ipv4/ip4_frag.c ****       }
 2062              		.loc 1 803 9 view .LVU648
 2063              	.LBE11:
 819:Middlewares/Third_Party/LwIP/src/core/ipv4/ip4_frag.c **** #endif /* LWIP_NETIF_TX_SINGLE_PBUF */
 2064              		.loc 1 819 5 is_stmt 1 view .LVU649
 819:Middlewares/Third_Party/LwIP/src/core/ipv4/ip4_frag.c **** #endif /* LWIP_NETIF_TX_SINGLE_PBUF */
 2065              		.loc 1 819 10 is_stmt 0 view .LVU650
 2066 016a A044     		add	r8, r8, r4
 2067              	.LVL247:
 819:Middlewares/Third_Party/LwIP/src/core/ipv4/ip4_frag.c **** #endif /* LWIP_NETIF_TX_SINGLE_PBUF */
 2068              		.loc 1 819 10 view .LVU651
 2069 016c 1FFA88F8 		uxth	r8, r8
 2070              	.LVL248:
 823:Middlewares/Third_Party/LwIP/src/core/ipv4/ip4_frag.c **** 
 2071              		.loc 1 823 5 is_stmt 1 view .LVU652
 823:Middlewares/Third_Party/LwIP/src/core/ipv4/ip4_frag.c **** 
 2072              		.loc 1 823 26 is_stmt 0 view .LVU653
 2073 0170 089B     		ldr	r3, [sp, #32]
 2074 0172 DB8C     		ldrh	r3, [r3, #38]
 823:Middlewares/Third_Party/LwIP/src/core/ipv4/ip4_frag.c **** 
 2075              		.loc 1 823 18 view .LVU654
 2076 0174 133B     		subs	r3, r3, #19
 2077              	.LVL249:
 826:Middlewares/Third_Party/LwIP/src/core/ipv4/ip4_frag.c ****     if (!last) {
 2078              		.loc 1 826 5 is_stmt 1 view .LVU655
 826:Middlewares/Third_Party/LwIP/src/core/ipv4/ip4_frag.c ****     if (!last) {
 2079              		.loc 1 826 9 is_stmt 0 view .LVU656
 2080 0176 069A     		ldr	r2, [sp, #24]
 2081 0178 C2F30C00 		ubfx	r0, r2, #0, #13
 2082              	.LVL250:
 827:Middlewares/Third_Party/LwIP/src/core/ipv4/ip4_frag.c ****       tmp = tmp | IP_MF;
 2083              		.loc 1 827 5 is_stmt 1 view .LVU657
 827:Middlewares/Third_Party/LwIP/src/core/ipv4/ip4_frag.c ****       tmp = tmp | IP_MF;
ARM GAS  /tmp/ccwtyKYK.s 			page 62


 2084              		.loc 1 827 8 is_stmt 0 view .LVU658
 2085 017c 099A     		ldr	r2, [sp, #36]
 2086 017e 9A42     		cmp	r2, r3
 2087 0180 01DB     		blt	.L150
 828:Middlewares/Third_Party/LwIP/src/core/ipv4/ip4_frag.c ****     }
 2088              		.loc 1 828 7 is_stmt 1 view .LVU659
 828:Middlewares/Third_Party/LwIP/src/core/ipv4/ip4_frag.c ****     }
 2089              		.loc 1 828 11 is_stmt 0 view .LVU660
 2090 0182 40F40050 		orr	r0, r0, #8192
 2091              	.LVL251:
 2092              	.L150:
 830:Middlewares/Third_Party/LwIP/src/core/ipv4/ip4_frag.c ****     IPH_LEN_SET(iphdr, lwip_htons(fragsize + IP_HLEN));
 2093              		.loc 1 830 5 is_stmt 1 view .LVU661
 2094 0186 FFF7FEFF 		bl	lwip_htons
 2095              	.LVL252:
 830:Middlewares/Third_Party/LwIP/src/core/ipv4/ip4_frag.c ****     IPH_LEN_SET(iphdr, lwip_htons(fragsize + IP_HLEN));
 2096              		.loc 1 830 5 is_stmt 0 view .LVU662
 2097 018a AAF80600 		strh	r0, [r10, #6]	@ unaligned
 831:Middlewares/Third_Party/LwIP/src/core/ipv4/ip4_frag.c ****     IPH_CHKSUM_SET(iphdr, 0);
 2098              		.loc 1 831 5 is_stmt 1 view .LVU663
 2099 018e 059D     		ldr	r5, [sp, #20]
 2100              	.LVL253:
 831:Middlewares/Third_Party/LwIP/src/core/ipv4/ip4_frag.c ****     IPH_CHKSUM_SET(iphdr, 0);
 2101              		.loc 1 831 5 is_stmt 0 view .LVU664
 2102 0190 05F11400 		add	r0, r5, #20
 2103 0194 80B2     		uxth	r0, r0
 2104 0196 FFF7FEFF 		bl	lwip_htons
 2105              	.LVL254:
 2106 019a AAF80200 		strh	r0, [r10, #2]	@ unaligned
 832:Middlewares/Third_Party/LwIP/src/core/ipv4/ip4_frag.c **** #if CHECKSUM_GEN_IP
 2107              		.loc 1 832 5 is_stmt 1 view .LVU665
 2108 019e 0023     		movs	r3, #0
 2109 01a0 8AF80A30 		strb	r3, [r10, #10]
 2110 01a4 8AF80B30 		strb	r3, [r10, #11]
 842:Middlewares/Third_Party/LwIP/src/core/ipv4/ip4_frag.c ****     IPFRAG_STATS_INC(ip_frag.xmit);
 2111              		.loc 1 842 5 view .LVU666
 842:Middlewares/Third_Party/LwIP/src/core/ipv4/ip4_frag.c ****     IPFRAG_STATS_INC(ip_frag.xmit);
 2112              		.loc 1 842 10 is_stmt 0 view .LVU667
 2113 01a8 0898     		ldr	r0, [sp, #32]
 2114 01aa 4369     		ldr	r3, [r0, #20]
 842:Middlewares/Third_Party/LwIP/src/core/ipv4/ip4_frag.c ****     IPFRAG_STATS_INC(ip_frag.xmit);
 2115              		.loc 1 842 5 view .LVU668
 2116 01ac 0B9A     		ldr	r2, [sp, #44]
 2117 01ae 039F     		ldr	r7, [sp, #12]
 2118 01b0 3946     		mov	r1, r7
 2119 01b2 9847     		blx	r3
 2120              	.LVL255:
 843:Middlewares/Third_Party/LwIP/src/core/ipv4/ip4_frag.c **** 
 2121              		.loc 1 843 35 is_stmt 1 view .LVU669
 852:Middlewares/Third_Party/LwIP/src/core/ipv4/ip4_frag.c ****     left -= fragsize;
 2122              		.loc 1 852 5 view .LVU670
 2123 01b4 3846     		mov	r0, r7
 2124 01b6 FFF7FEFF 		bl	pbuf_free
 2125              	.LVL256:
 853:Middlewares/Third_Party/LwIP/src/core/ipv4/ip4_frag.c ****     ofo += nfb;
 2126              		.loc 1 853 5 view .LVU671
 853:Middlewares/Third_Party/LwIP/src/core/ipv4/ip4_frag.c ****     ofo += nfb;
ARM GAS  /tmp/ccwtyKYK.s 			page 63


 2127              		.loc 1 853 10 is_stmt 0 view .LVU672
 2128 01ba A9EB0503 		sub	r3, r9, r5
 2129 01be 1FFA83F9 		uxth	r9, r3
 2130              	.LVL257:
 854:Middlewares/Third_Party/LwIP/src/core/ipv4/ip4_frag.c ****   }
 2131              		.loc 1 854 5 is_stmt 1 view .LVU673
 854:Middlewares/Third_Party/LwIP/src/core/ipv4/ip4_frag.c ****   }
 2132              		.loc 1 854 9 is_stmt 0 view .LVU674
 2133 01c2 069B     		ldr	r3, [sp, #24]
 2134 01c4 0A9A     		ldr	r2, [sp, #40]
 2135 01c6 1344     		add	r3, r3, r2
 2136 01c8 9BB2     		uxth	r3, r3
 2137 01ca 0693     		str	r3, [sp, #24]
 2138              	.LVL258:
 854:Middlewares/Third_Party/LwIP/src/core/ipv4/ip4_frag.c ****   }
 2139              		.loc 1 854 9 view .LVU675
 2140 01cc 42E7     		b	.L142
 2141              	.LVL259:
 2142              	.L157:
 857:Middlewares/Third_Party/LwIP/src/core/ipv4/ip4_frag.c **** memerr:
 2143              		.loc 1 857 10 view .LVU676
 2144 01ce 0020     		movs	r0, #0
 2145 01d0 BFE7     		b	.L140
 2146              	.LVL260:
 2147              	.L152:
 860:Middlewares/Third_Party/LwIP/src/core/ipv4/ip4_frag.c **** }
 2148              		.loc 1 860 10 view .LVU677
 2149 01d2 4FF0FF30 		mov	r0, #-1
 2150              	.LVL261:
 860:Middlewares/Third_Party/LwIP/src/core/ipv4/ip4_frag.c **** }
 2151              		.loc 1 860 10 view .LVU678
 2152 01d6 BCE7     		b	.L140
 2153              	.L163:
 2154              		.align	2
 2155              	.L162:
 2156 01d8 00000000 		.word	.LC0
 2157 01dc 00000000 		.word	.LC13
 2158 01e0 54000000 		.word	.LC2
 2159 01e4 28000000 		.word	.LC14
 2160 01e8 44000000 		.word	.LC15
 2161 01ec 00000000 		.word	ipfrag_free_pbuf_custom
 2162              		.cfi_endproc
 2163              	.LFE170:
 2165              		.section	.bss.ip_reass_pbufcount,"aw",%nobits
 2166              		.align	1
 2167              		.set	.LANCHOR1,. + 0
 2170              	ip_reass_pbufcount:
 2171 0000 0000     		.space	2
 2172              		.section	.bss.reassdatagrams,"aw",%nobits
 2173              		.align	2
 2174              		.set	.LANCHOR0,. + 0
 2177              	reassdatagrams:
 2178 0000 00000000 		.space	4
 2179              		.section	.rodata.ip4_frag.str1.4,"aMS",%progbits,1
 2180              		.align	2
 2181              	.LC13:
 2182 0000 6970345F 		.ascii	"ip4_frag() does not support IP options\000"
ARM GAS  /tmp/ccwtyKYK.s 			page 64


 2182      66726167 
 2182      28292064 
 2182      6F657320 
 2182      6E6F7420 
 2183 0027 00       		.space	1
 2184              	.LC14:
 2185 0028 69705F66 		.ascii	"ip_frag(): MF already set\000"
 2185      72616728 
 2185      293A204D 
 2185      4620616C 
 2185      72656164 
 2186 0042 0000     		.space	2
 2187              	.LC15:
 2188 0044 74686973 		.ascii	"this needs a pbuf in one piece!\000"
 2188      206E6565 
 2188      64732061 
 2188      20706275 
 2188      6620696E 
 2189              		.section	.rodata.ip_frag_free_pbuf_custom_ref.str1.4,"aMS",%progbits,1
 2190              		.align	2
 2191              	.LC7:
 2192 0000 7020213D 		.ascii	"p != NULL\000"
 2192      204E554C 
 2192      4C00
 2193              		.section	.rodata.ip_reass_chain_frag_into_datagram_and_validate.str1.4,"aMS",%progbits,1
 2194              		.align	2
 2195              	.LC9:
 2196 0000 63686563 		.ascii	"check fragments don't overlap\000"
 2196      6B206672 
 2196      61676D65 
 2196      6E747320 
 2196      646F6E27 
 2197 001e 0000     		.space	2
 2198              	.LC10:
 2199 0020 6E6F2070 		.ascii	"no previous fragment, this must be the first fragme"
 2199      72657669 
 2199      6F757320 
 2199      66726167 
 2199      6D656E74 
 2200 0053 6E742100 		.ascii	"nt!\000"
 2201 0057 00       		.space	1
 2202              	.LC11:
 2203 0058 73616E69 		.ascii	"sanity check\000"
 2203      74792063 
 2203      6865636B 
 2203      00
 2204 0065 000000   		.space	3
 2205              	.LC12:
 2206 0068 76616C69 		.ascii	"validate_datagram:next_pbuf!=NULL\000"
 2206      64617465 
 2206      5F646174 
 2206      61677261 
 2206      6D3A6E65 
 2207              		.section	.rodata.ip_reass_dequeue_datagram.str1.4,"aMS",%progbits,1
 2208              		.align	2
 2209              	.LC0:
 2210 0000 4D696464 		.ascii	"Middlewares/Third_Party/LwIP/src/core/ipv4/ip4_frag"
ARM GAS  /tmp/ccwtyKYK.s 			page 65


 2210      6C657761 
 2210      7265732F 
 2210      54686972 
 2210      645F5061 
 2211 0033 2E6300   		.ascii	".c\000"
 2212 0036 0000     		.space	2
 2213              	.LC1:
 2214 0038 73616E69 		.ascii	"sanity check linked list\000"
 2214      74792063 
 2214      6865636B 
 2214      206C696E 
 2214      6B656420 
 2215 0051 000000   		.space	3
 2216              	.LC2:
 2217 0054 41737365 		.ascii	"Assertion \"%s\" failed at line %d in %s\012\000"
 2217      7274696F 
 2217      6E202225 
 2217      73222066 
 2217      61696C65 
 2218              		.section	.rodata.ip_reass_free_complete_datagram.str1.4,"aMS",%progbits,1
 2219              		.align	2
 2220              	.LC3:
 2221 0000 70726576 		.ascii	"prev != ipr\000"
 2221      20213D20 
 2221      69707200 
 2222              	.LC4:
 2223 000c 70726576 		.ascii	"prev->next == ipr\000"
 2223      2D3E6E65 
 2223      7874203D 
 2223      3D206970 
 2223      7200
 2224 001e 0000     		.space	2
 2225              	.LC5:
 2226 0020 70627566 		.ascii	"pbufs_freed + clen <= 0xffff\000"
 2226      735F6672 
 2226      65656420 
 2226      2B20636C 
 2226      656E203C 
 2227 003d 000000   		.space	3
 2228              	.LC6:
 2229 0040 69705F72 		.ascii	"ip_reass_pbufcount >= clen\000"
 2229      65617373 
 2229      5F706275 
 2229      66636F75 
 2229      6E74203E 
 2230              		.section	.rodata.ipfrag_free_pbuf_custom.str1.4,"aMS",%progbits,1
 2231              		.align	2
 2232              	.LC8:
 2233 0000 70637220 		.ascii	"pcr != NULL\000"
 2233      213D204E 
 2233      554C4C00 
 2234              		.text
 2235              	.Letext0:
 2236              		.file 2 "/usr/arm-none-eabi/include/machine/_default_types.h"
 2237              		.file 3 "/usr/arm-none-eabi/include/sys/_stdint.h"
 2238              		.file 4 "Drivers/CMSIS/Include/core_cm7.h"
 2239              		.file 5 "Drivers/CMSIS/Device/ST/STM32F7xx/Include/system_stm32f7xx.h"
ARM GAS  /tmp/ccwtyKYK.s 			page 66


 2240              		.file 6 "/usr/arm-none-eabi/include/sys/lock.h"
 2241              		.file 7 "/usr/arm-none-eabi/include/sys/_types.h"
 2242              		.file 8 "/usr/lib/gcc/arm-none-eabi/8.3.0/include/stddef.h"
 2243              		.file 9 "/usr/arm-none-eabi/include/sys/reent.h"
 2244              		.file 10 "/usr/arm-none-eabi/include/stdlib.h"
 2245              		.file 11 "/usr/arm-none-eabi/include/time.h"
 2246              		.file 12 "Middlewares/Third_Party/LwIP/src/include/lwip/arch.h"
 2247              		.file 13 "Middlewares/Third_Party/LwIP/src/include/lwip/err.h"
 2248              		.file 14 "Middlewares/Third_Party/LwIP/src/include/lwip/pbuf.h"
 2249              		.file 15 "Middlewares/Third_Party/LwIP/src/include/lwip/ip4_addr.h"
 2250              		.file 16 "Middlewares/Third_Party/LwIP/src/include/lwip/ip_addr.h"
 2251              		.file 17 "Middlewares/Third_Party/LwIP/src/include/lwip/memp.h"
 2252              		.file 18 "Middlewares/Third_Party/LwIP/src/include/lwip/priv/memp_priv.h"
 2253              		.file 19 "Middlewares/Third_Party/LwIP/src/include/lwip/netif.h"
 2254              		.file 20 "Middlewares/Third_Party/LwIP/src/include/lwip/prot/ip4.h"
 2255              		.file 21 "Middlewares/Third_Party/LwIP/src/include/lwip/ip.h"
 2256              		.file 22 "Middlewares/Third_Party/LwIP/src/include/lwip/ip4_frag.h"
 2257              		.file 23 "Middlewares/Third_Party/LwIP/src/include/lwip/icmp.h"
 2258              		.file 24 "Middlewares/Third_Party/LwIP/src/include/lwip/def.h"
 2259              		.file 25 "/usr/arm-none-eabi/include/stdio.h"
ARM GAS  /tmp/ccwtyKYK.s 			page 67


DEFINED SYMBOLS
                            *ABS*:0000000000000000 ip4_frag.c
     /tmp/ccwtyKYK.s:18     .text.ip_reass_dequeue_datagram:0000000000000000 $t
     /tmp/ccwtyKYK.s:25     .text.ip_reass_dequeue_datagram:0000000000000000 ip_reass_dequeue_datagram
     /tmp/ccwtyKYK.s:95     .text.ip_reass_dequeue_datagram:0000000000000038 $d
     /tmp/ccwtyKYK.s:103    .text.ip_reass_free_complete_datagram:0000000000000000 $t
     /tmp/ccwtyKYK.s:109    .text.ip_reass_free_complete_datagram:0000000000000000 ip_reass_free_complete_datagram
     /tmp/ccwtyKYK.s:336    .text.ip_reass_free_complete_datagram:00000000000000dc $d
     /tmp/ccwtyKYK.s:347    .text.ip_reass_remove_oldest_datagram:0000000000000000 $t
     /tmp/ccwtyKYK.s:353    .text.ip_reass_remove_oldest_datagram:0000000000000000 ip_reass_remove_oldest_datagram
     /tmp/ccwtyKYK.s:514    .text.ip_reass_remove_oldest_datagram:0000000000000080 $d
     /tmp/ccwtyKYK.s:519    .text.ip_frag_free_pbuf_custom_ref:0000000000000000 $t
     /tmp/ccwtyKYK.s:525    .text.ip_frag_free_pbuf_custom_ref:0000000000000000 ip_frag_free_pbuf_custom_ref
     /tmp/ccwtyKYK.s:567    .text.ip_frag_free_pbuf_custom_ref:0000000000000020 $d
     /tmp/ccwtyKYK.s:574    .text.ipfrag_free_pbuf_custom:0000000000000000 $t
     /tmp/ccwtyKYK.s:580    .text.ipfrag_free_pbuf_custom:0000000000000000 ipfrag_free_pbuf_custom
     /tmp/ccwtyKYK.s:634    .text.ipfrag_free_pbuf_custom:0000000000000028 $d
     /tmp/ccwtyKYK.s:641    .text.ip_reass_chain_frag_into_datagram_and_validate:0000000000000000 $t
     /tmp/ccwtyKYK.s:647    .text.ip_reass_chain_frag_into_datagram_and_validate:0000000000000000 ip_reass_chain_frag_into_datagram_and_validate
     /tmp/ccwtyKYK.s:1052   .text.ip_reass_chain_frag_into_datagram_and_validate:0000000000000168 $d
     /tmp/ccwtyKYK.s:1063   .text.ip_frag_alloc_pbuf_custom_ref:0000000000000000 $t
     /tmp/ccwtyKYK.s:1069   .text.ip_frag_alloc_pbuf_custom_ref:0000000000000000 ip_frag_alloc_pbuf_custom_ref
     /tmp/ccwtyKYK.s:1091   .text.ip_reass_enqueue_new_datagram:0000000000000000 $t
     /tmp/ccwtyKYK.s:1097   .text.ip_reass_enqueue_new_datagram:0000000000000000 ip_reass_enqueue_new_datagram
     /tmp/ccwtyKYK.s:1200   .text.ip_reass_enqueue_new_datagram:0000000000000060 $d
     /tmp/ccwtyKYK.s:1205   .text.ip_reass_tmr:0000000000000000 $t
     /tmp/ccwtyKYK.s:1212   .text.ip_reass_tmr:0000000000000000 ip_reass_tmr
     /tmp/ccwtyKYK.s:1288   .text.ip_reass_tmr:0000000000000028 $d
     /tmp/ccwtyKYK.s:1293   .text.ip4_reass:0000000000000000 $t
     /tmp/ccwtyKYK.s:1300   .text.ip4_reass:0000000000000000 ip4_reass
     /tmp/ccwtyKYK.s:1697   .text.ip4_reass:00000000000001a0 $d
     /tmp/ccwtyKYK.s:1704   .text.ip4_frag:0000000000000000 $t
     /tmp/ccwtyKYK.s:1711   .text.ip4_frag:0000000000000000 ip4_frag
     /tmp/ccwtyKYK.s:2156   .text.ip4_frag:00000000000001d8 $d
     /tmp/ccwtyKYK.s:2166   .bss.ip_reass_pbufcount:0000000000000000 $d
     /tmp/ccwtyKYK.s:2170   .bss.ip_reass_pbufcount:0000000000000000 ip_reass_pbufcount
     /tmp/ccwtyKYK.s:2173   .bss.reassdatagrams:0000000000000000 $d
     /tmp/ccwtyKYK.s:2177   .bss.reassdatagrams:0000000000000000 reassdatagrams
     /tmp/ccwtyKYK.s:2180   .rodata.ip4_frag.str1.4:0000000000000000 $d
     /tmp/ccwtyKYK.s:2190   .rodata.ip_frag_free_pbuf_custom_ref.str1.4:0000000000000000 $d
     /tmp/ccwtyKYK.s:2194   .rodata.ip_reass_chain_frag_into_datagram_and_validate.str1.4:0000000000000000 $d
     /tmp/ccwtyKYK.s:2208   .rodata.ip_reass_dequeue_datagram.str1.4:0000000000000000 $d
     /tmp/ccwtyKYK.s:2219   .rodata.ip_reass_free_complete_datagram.str1.4:0000000000000000 $d
     /tmp/ccwtyKYK.s:2231   .rodata.ipfrag_free_pbuf_custom.str1.4:0000000000000000 $d

UNDEFINED SYMBOLS
memp_free
printf
icmp_time_exceeded
pbuf_clen
pbuf_free
lwip_htons
memp_malloc
pbuf_header
pbuf_cat
pbuf_alloc
pbuf_alloced_custom
ARM GAS  /tmp/ccwtyKYK.s 			page 68


pbuf_ref
