ARM GAS  /tmp/ccvTpBVd.s 			page 1


   1              		.cpu cortex-m7
   2              		.eabi_attribute 27, 1
   3              		.eabi_attribute 28, 1
   4              		.eabi_attribute 20, 1
   5              		.eabi_attribute 21, 1
   6              		.eabi_attribute 23, 3
   7              		.eabi_attribute 24, 1
   8              		.eabi_attribute 25, 1
   9              		.eabi_attribute 26, 1
  10              		.eabi_attribute 30, 1
  11              		.eabi_attribute 34, 1
  12              		.eabi_attribute 18, 4
  13              		.file	"pbuf.c"
  14              		.text
  15              	.Ltext0:
  16              		.cfi_sections	.debug_frame
  17              		.section	.text.pbuf_pool_is_empty,"ax",%progbits
  18              		.align	1
  19              		.arch armv7e-m
  20              		.syntax unified
  21              		.thumb
  22              		.thumb_func
  23              		.fpu fpv5-sp-d16
  25              	pbuf_pool_is_empty:
  26              	.LFB161:
  27              		.file 1 "Middlewares/Third_Party/LwIP/src/core/pbuf.c"
   1:Middlewares/Third_Party/LwIP/src/core/pbuf.c **** /**
   2:Middlewares/Third_Party/LwIP/src/core/pbuf.c ****  * @file
   3:Middlewares/Third_Party/LwIP/src/core/pbuf.c ****  * Packet buffer management
   4:Middlewares/Third_Party/LwIP/src/core/pbuf.c ****  */
   5:Middlewares/Third_Party/LwIP/src/core/pbuf.c **** 
   6:Middlewares/Third_Party/LwIP/src/core/pbuf.c **** /**
   7:Middlewares/Third_Party/LwIP/src/core/pbuf.c ****  * @defgroup pbuf Packet buffers (PBUF)
   8:Middlewares/Third_Party/LwIP/src/core/pbuf.c ****  * @ingroup infrastructure
   9:Middlewares/Third_Party/LwIP/src/core/pbuf.c ****  *
  10:Middlewares/Third_Party/LwIP/src/core/pbuf.c ****  * Packets are built from the pbuf data structure. It supports dynamic
  11:Middlewares/Third_Party/LwIP/src/core/pbuf.c ****  * memory allocation for packet contents or can reference externally
  12:Middlewares/Third_Party/LwIP/src/core/pbuf.c ****  * managed packet contents both in RAM and ROM. Quick allocation for
  13:Middlewares/Third_Party/LwIP/src/core/pbuf.c ****  * incoming packets is provided through pools with fixed sized pbufs.
  14:Middlewares/Third_Party/LwIP/src/core/pbuf.c ****  *
  15:Middlewares/Third_Party/LwIP/src/core/pbuf.c ****  * A packet may span over multiple pbufs, chained as a singly linked
  16:Middlewares/Third_Party/LwIP/src/core/pbuf.c ****  * list. This is called a "pbuf chain".
  17:Middlewares/Third_Party/LwIP/src/core/pbuf.c ****  *
  18:Middlewares/Third_Party/LwIP/src/core/pbuf.c ****  * Multiple packets may be queued, also using this singly linked list.
  19:Middlewares/Third_Party/LwIP/src/core/pbuf.c ****  * This is called a "packet queue".
  20:Middlewares/Third_Party/LwIP/src/core/pbuf.c ****  *
  21:Middlewares/Third_Party/LwIP/src/core/pbuf.c ****  * So, a packet queue consists of one or more pbuf chains, each of
  22:Middlewares/Third_Party/LwIP/src/core/pbuf.c ****  * which consist of one or more pbufs. CURRENTLY, PACKET QUEUES ARE
  23:Middlewares/Third_Party/LwIP/src/core/pbuf.c ****  * NOT SUPPORTED!!! Use helper structs to queue multiple packets.
  24:Middlewares/Third_Party/LwIP/src/core/pbuf.c ****  *
  25:Middlewares/Third_Party/LwIP/src/core/pbuf.c ****  * The differences between a pbuf chain and a packet queue are very
  26:Middlewares/Third_Party/LwIP/src/core/pbuf.c ****  * precise but subtle.
  27:Middlewares/Third_Party/LwIP/src/core/pbuf.c ****  *
  28:Middlewares/Third_Party/LwIP/src/core/pbuf.c ****  * The last pbuf of a packet has a ->tot_len field that equals the
  29:Middlewares/Third_Party/LwIP/src/core/pbuf.c ****  * ->len field. It can be found by traversing the list. If the last
  30:Middlewares/Third_Party/LwIP/src/core/pbuf.c ****  * pbuf of a packet has a ->next field other than NULL, more packets
  31:Middlewares/Third_Party/LwIP/src/core/pbuf.c ****  * are on the queue.
ARM GAS  /tmp/ccvTpBVd.s 			page 2


  32:Middlewares/Third_Party/LwIP/src/core/pbuf.c ****  *
  33:Middlewares/Third_Party/LwIP/src/core/pbuf.c ****  * Therefore, looping through a pbuf of a single packet, has an
  34:Middlewares/Third_Party/LwIP/src/core/pbuf.c ****  * loop end condition (tot_len == p->len), NOT (next == NULL).
  35:Middlewares/Third_Party/LwIP/src/core/pbuf.c ****  *
  36:Middlewares/Third_Party/LwIP/src/core/pbuf.c ****  * Example of custom pbuf usage for zero-copy RX:
  37:Middlewares/Third_Party/LwIP/src/core/pbuf.c ****   @code{.c}
  38:Middlewares/Third_Party/LwIP/src/core/pbuf.c **** typedef struct my_custom_pbuf
  39:Middlewares/Third_Party/LwIP/src/core/pbuf.c **** {
  40:Middlewares/Third_Party/LwIP/src/core/pbuf.c ****    struct pbuf_custom p;
  41:Middlewares/Third_Party/LwIP/src/core/pbuf.c ****    void* dma_descriptor;
  42:Middlewares/Third_Party/LwIP/src/core/pbuf.c **** } my_custom_pbuf_t;
  43:Middlewares/Third_Party/LwIP/src/core/pbuf.c **** 
  44:Middlewares/Third_Party/LwIP/src/core/pbuf.c **** LWIP_MEMPOOL_DECLARE(RX_POOL, 10, sizeof(my_custom_pbuf_t), "Zero-copy RX PBUF pool");
  45:Middlewares/Third_Party/LwIP/src/core/pbuf.c **** 
  46:Middlewares/Third_Party/LwIP/src/core/pbuf.c **** void my_pbuf_free_custom(void* p)
  47:Middlewares/Third_Party/LwIP/src/core/pbuf.c **** {
  48:Middlewares/Third_Party/LwIP/src/core/pbuf.c ****   my_custom_pbuf_t* my_puf = (my_custom_pbuf_t*)p;
  49:Middlewares/Third_Party/LwIP/src/core/pbuf.c **** 
  50:Middlewares/Third_Party/LwIP/src/core/pbuf.c ****   LOCK_INTERRUPTS();
  51:Middlewares/Third_Party/LwIP/src/core/pbuf.c ****   free_rx_dma_descriptor(my_pbuf->dma_descriptor);
  52:Middlewares/Third_Party/LwIP/src/core/pbuf.c ****   LWIP_MEMPOOL_FREE(RX_POOL, my_pbuf);
  53:Middlewares/Third_Party/LwIP/src/core/pbuf.c ****   UNLOCK_INTERRUPTS();
  54:Middlewares/Third_Party/LwIP/src/core/pbuf.c **** }
  55:Middlewares/Third_Party/LwIP/src/core/pbuf.c **** 
  56:Middlewares/Third_Party/LwIP/src/core/pbuf.c **** void eth_rx_irq()
  57:Middlewares/Third_Party/LwIP/src/core/pbuf.c **** {
  58:Middlewares/Third_Party/LwIP/src/core/pbuf.c ****   dma_descriptor*   dma_desc = get_RX_DMA_descriptor_from_ethernet();
  59:Middlewares/Third_Party/LwIP/src/core/pbuf.c ****   my_custom_pbuf_t* my_pbuf  = (my_custom_pbuf_t*)LWIP_MEMPOOL_ALLOC(RX_POOL);
  60:Middlewares/Third_Party/LwIP/src/core/pbuf.c **** 
  61:Middlewares/Third_Party/LwIP/src/core/pbuf.c ****   my_pbuf->p.custom_free_function = my_pbuf_free_custom;
  62:Middlewares/Third_Party/LwIP/src/core/pbuf.c ****   my_pbuf->dma_descriptor         = dma_desc;
  63:Middlewares/Third_Party/LwIP/src/core/pbuf.c **** 
  64:Middlewares/Third_Party/LwIP/src/core/pbuf.c ****   invalidate_cpu_cache(dma_desc->rx_data, dma_desc->rx_length);
  65:Middlewares/Third_Party/LwIP/src/core/pbuf.c ****   
  66:Middlewares/Third_Party/LwIP/src/core/pbuf.c ****   struct pbuf* p = pbuf_alloced_custom(PBUF_RAW,
  67:Middlewares/Third_Party/LwIP/src/core/pbuf.c ****      dma_desc->rx_length,
  68:Middlewares/Third_Party/LwIP/src/core/pbuf.c ****      PBUF_REF,
  69:Middlewares/Third_Party/LwIP/src/core/pbuf.c ****      &my_pbuf->p,
  70:Middlewares/Third_Party/LwIP/src/core/pbuf.c ****      dma_desc->rx_data,
  71:Middlewares/Third_Party/LwIP/src/core/pbuf.c ****      dma_desc->max_buffer_size);
  72:Middlewares/Third_Party/LwIP/src/core/pbuf.c **** 
  73:Middlewares/Third_Party/LwIP/src/core/pbuf.c ****   if(netif->input(p, netif) != ERR_OK) {
  74:Middlewares/Third_Party/LwIP/src/core/pbuf.c ****     pbuf_free(p);
  75:Middlewares/Third_Party/LwIP/src/core/pbuf.c ****   }
  76:Middlewares/Third_Party/LwIP/src/core/pbuf.c **** }
  77:Middlewares/Third_Party/LwIP/src/core/pbuf.c ****   @endcode
  78:Middlewares/Third_Party/LwIP/src/core/pbuf.c ****  */
  79:Middlewares/Third_Party/LwIP/src/core/pbuf.c **** 
  80:Middlewares/Third_Party/LwIP/src/core/pbuf.c **** /*
  81:Middlewares/Third_Party/LwIP/src/core/pbuf.c ****  * Copyright (c) 2001-2004 Swedish Institute of Computer Science.
  82:Middlewares/Third_Party/LwIP/src/core/pbuf.c ****  * All rights reserved.
  83:Middlewares/Third_Party/LwIP/src/core/pbuf.c ****  *
  84:Middlewares/Third_Party/LwIP/src/core/pbuf.c ****  * Redistribution and use in source and binary forms, with or without modification,
  85:Middlewares/Third_Party/LwIP/src/core/pbuf.c ****  * are permitted provided that the following conditions are met:
  86:Middlewares/Third_Party/LwIP/src/core/pbuf.c ****  *
  87:Middlewares/Third_Party/LwIP/src/core/pbuf.c ****  * 1. Redistributions of source code must retain the above copyright notice,
  88:Middlewares/Third_Party/LwIP/src/core/pbuf.c ****  *    this list of conditions and the following disclaimer.
ARM GAS  /tmp/ccvTpBVd.s 			page 3


  89:Middlewares/Third_Party/LwIP/src/core/pbuf.c ****  * 2. Redistributions in binary form must reproduce the above copyright notice,
  90:Middlewares/Third_Party/LwIP/src/core/pbuf.c ****  *    this list of conditions and the following disclaimer in the documentation
  91:Middlewares/Third_Party/LwIP/src/core/pbuf.c ****  *    and/or other materials provided with the distribution.
  92:Middlewares/Third_Party/LwIP/src/core/pbuf.c ****  * 3. The name of the author may not be used to endorse or promote products
  93:Middlewares/Third_Party/LwIP/src/core/pbuf.c ****  *    derived from this software without specific prior written permission.
  94:Middlewares/Third_Party/LwIP/src/core/pbuf.c ****  *
  95:Middlewares/Third_Party/LwIP/src/core/pbuf.c ****  * THIS SOFTWARE IS PROVIDED BY THE AUTHOR ``AS IS'' AND ANY EXPRESS OR IMPLIED
  96:Middlewares/Third_Party/LwIP/src/core/pbuf.c ****  * WARRANTIES, INCLUDING, BUT NOT LIMITED TO, THE IMPLIED WARRANTIES OF
  97:Middlewares/Third_Party/LwIP/src/core/pbuf.c ****  * MERCHANTABILITY AND FITNESS FOR A PARTICULAR PURPOSE ARE DISCLAIMED. IN NO EVENT
  98:Middlewares/Third_Party/LwIP/src/core/pbuf.c ****  * SHALL THE AUTHOR BE LIABLE FOR ANY DIRECT, INDIRECT, INCIDENTAL, SPECIAL,
  99:Middlewares/Third_Party/LwIP/src/core/pbuf.c ****  * EXEMPLARY, OR CONSEQUENTIAL DAMAGES (INCLUDING, BUT NOT LIMITED TO, PROCUREMENT
 100:Middlewares/Third_Party/LwIP/src/core/pbuf.c ****  * OF SUBSTITUTE GOODS OR SERVICES; LOSS OF USE, DATA, OR PROFITS; OR BUSINESS
 101:Middlewares/Third_Party/LwIP/src/core/pbuf.c ****  * INTERRUPTION) HOWEVER CAUSED AND ON ANY THEORY OF LIABILITY, WHETHER IN
 102:Middlewares/Third_Party/LwIP/src/core/pbuf.c ****  * CONTRACT, STRICT LIABILITY, OR TORT (INCLUDING NEGLIGENCE OR OTHERWISE) ARISING
 103:Middlewares/Third_Party/LwIP/src/core/pbuf.c ****  * IN ANY WAY OUT OF THE USE OF THIS SOFTWARE, EVEN IF ADVISED OF THE POSSIBILITY
 104:Middlewares/Third_Party/LwIP/src/core/pbuf.c ****  * OF SUCH DAMAGE.
 105:Middlewares/Third_Party/LwIP/src/core/pbuf.c ****  *
 106:Middlewares/Third_Party/LwIP/src/core/pbuf.c ****  * This file is part of the lwIP TCP/IP stack.
 107:Middlewares/Third_Party/LwIP/src/core/pbuf.c ****  *
 108:Middlewares/Third_Party/LwIP/src/core/pbuf.c ****  * Author: Adam Dunkels <adam@sics.se>
 109:Middlewares/Third_Party/LwIP/src/core/pbuf.c ****  *
 110:Middlewares/Third_Party/LwIP/src/core/pbuf.c ****  */
 111:Middlewares/Third_Party/LwIP/src/core/pbuf.c **** 
 112:Middlewares/Third_Party/LwIP/src/core/pbuf.c **** #include "lwip/opt.h"
 113:Middlewares/Third_Party/LwIP/src/core/pbuf.c **** 
 114:Middlewares/Third_Party/LwIP/src/core/pbuf.c **** #include "lwip/stats.h"
 115:Middlewares/Third_Party/LwIP/src/core/pbuf.c **** #include "lwip/def.h"
 116:Middlewares/Third_Party/LwIP/src/core/pbuf.c **** #include "lwip/mem.h"
 117:Middlewares/Third_Party/LwIP/src/core/pbuf.c **** #include "lwip/memp.h"
 118:Middlewares/Third_Party/LwIP/src/core/pbuf.c **** #include "lwip/pbuf.h"
 119:Middlewares/Third_Party/LwIP/src/core/pbuf.c **** #include "lwip/sys.h"
 120:Middlewares/Third_Party/LwIP/src/core/pbuf.c **** #if LWIP_TCP && TCP_QUEUE_OOSEQ
 121:Middlewares/Third_Party/LwIP/src/core/pbuf.c **** #include "lwip/priv/tcp_priv.h"
 122:Middlewares/Third_Party/LwIP/src/core/pbuf.c **** #endif
 123:Middlewares/Third_Party/LwIP/src/core/pbuf.c **** #if LWIP_CHECKSUM_ON_COPY
 124:Middlewares/Third_Party/LwIP/src/core/pbuf.c **** #include "lwip/inet_chksum.h"
 125:Middlewares/Third_Party/LwIP/src/core/pbuf.c **** #endif
 126:Middlewares/Third_Party/LwIP/src/core/pbuf.c **** 
 127:Middlewares/Third_Party/LwIP/src/core/pbuf.c **** #include <string.h>
 128:Middlewares/Third_Party/LwIP/src/core/pbuf.c **** 
 129:Middlewares/Third_Party/LwIP/src/core/pbuf.c **** #define SIZEOF_STRUCT_PBUF        LWIP_MEM_ALIGN_SIZE(sizeof(struct pbuf))
 130:Middlewares/Third_Party/LwIP/src/core/pbuf.c **** /* Since the pool is created in memp, PBUF_POOL_BUFSIZE will be automatically
 131:Middlewares/Third_Party/LwIP/src/core/pbuf.c ****    aligned there. Therefore, PBUF_POOL_BUFSIZE_ALIGNED can be used here. */
 132:Middlewares/Third_Party/LwIP/src/core/pbuf.c **** #define PBUF_POOL_BUFSIZE_ALIGNED LWIP_MEM_ALIGN_SIZE(PBUF_POOL_BUFSIZE)
 133:Middlewares/Third_Party/LwIP/src/core/pbuf.c **** 
 134:Middlewares/Third_Party/LwIP/src/core/pbuf.c **** #if !LWIP_TCP || !TCP_QUEUE_OOSEQ || !PBUF_POOL_FREE_OOSEQ
 135:Middlewares/Third_Party/LwIP/src/core/pbuf.c **** #define PBUF_POOL_IS_EMPTY()
 136:Middlewares/Third_Party/LwIP/src/core/pbuf.c **** #else /* !LWIP_TCP || !TCP_QUEUE_OOSEQ || !PBUF_POOL_FREE_OOSEQ */
 137:Middlewares/Third_Party/LwIP/src/core/pbuf.c **** 
 138:Middlewares/Third_Party/LwIP/src/core/pbuf.c **** #if !NO_SYS
 139:Middlewares/Third_Party/LwIP/src/core/pbuf.c **** #ifndef PBUF_POOL_FREE_OOSEQ_QUEUE_CALL
 140:Middlewares/Third_Party/LwIP/src/core/pbuf.c **** #include "lwip/tcpip.h"
 141:Middlewares/Third_Party/LwIP/src/core/pbuf.c **** #define PBUF_POOL_FREE_OOSEQ_QUEUE_CALL()  do { \
 142:Middlewares/Third_Party/LwIP/src/core/pbuf.c ****   if (tcpip_callback_with_block(pbuf_free_ooseq_callback, NULL, 0) != ERR_OK) { \
 143:Middlewares/Third_Party/LwIP/src/core/pbuf.c ****       SYS_ARCH_PROTECT(old_level); \
 144:Middlewares/Third_Party/LwIP/src/core/pbuf.c ****       pbuf_free_ooseq_pending = 0; \
 145:Middlewares/Third_Party/LwIP/src/core/pbuf.c ****       SYS_ARCH_UNPROTECT(old_level); \
ARM GAS  /tmp/ccvTpBVd.s 			page 4


 146:Middlewares/Third_Party/LwIP/src/core/pbuf.c ****   } } while(0)
 147:Middlewares/Third_Party/LwIP/src/core/pbuf.c **** #endif /* PBUF_POOL_FREE_OOSEQ_QUEUE_CALL */
 148:Middlewares/Third_Party/LwIP/src/core/pbuf.c **** #endif /* !NO_SYS */
 149:Middlewares/Third_Party/LwIP/src/core/pbuf.c **** 
 150:Middlewares/Third_Party/LwIP/src/core/pbuf.c **** volatile u8_t pbuf_free_ooseq_pending;
 151:Middlewares/Third_Party/LwIP/src/core/pbuf.c **** #define PBUF_POOL_IS_EMPTY() pbuf_pool_is_empty()
 152:Middlewares/Third_Party/LwIP/src/core/pbuf.c **** 
 153:Middlewares/Third_Party/LwIP/src/core/pbuf.c **** /**
 154:Middlewares/Third_Party/LwIP/src/core/pbuf.c ****  * Attempt to reclaim some memory from queued out-of-sequence TCP segments
 155:Middlewares/Third_Party/LwIP/src/core/pbuf.c ****  * if we run out of pool pbufs. It's better to give priority to new packets
 156:Middlewares/Third_Party/LwIP/src/core/pbuf.c ****  * if we're running out.
 157:Middlewares/Third_Party/LwIP/src/core/pbuf.c ****  *
 158:Middlewares/Third_Party/LwIP/src/core/pbuf.c ****  * This must be done in the correct thread context therefore this function
 159:Middlewares/Third_Party/LwIP/src/core/pbuf.c ****  * can only be used with NO_SYS=0 and through tcpip_callback.
 160:Middlewares/Third_Party/LwIP/src/core/pbuf.c ****  */
 161:Middlewares/Third_Party/LwIP/src/core/pbuf.c **** #if !NO_SYS
 162:Middlewares/Third_Party/LwIP/src/core/pbuf.c **** static
 163:Middlewares/Third_Party/LwIP/src/core/pbuf.c **** #endif /* !NO_SYS */
 164:Middlewares/Third_Party/LwIP/src/core/pbuf.c **** void
 165:Middlewares/Third_Party/LwIP/src/core/pbuf.c **** pbuf_free_ooseq(void)
 166:Middlewares/Third_Party/LwIP/src/core/pbuf.c **** {
 167:Middlewares/Third_Party/LwIP/src/core/pbuf.c ****   struct tcp_pcb* pcb;
 168:Middlewares/Third_Party/LwIP/src/core/pbuf.c ****   SYS_ARCH_SET(pbuf_free_ooseq_pending, 0);
 169:Middlewares/Third_Party/LwIP/src/core/pbuf.c **** 
 170:Middlewares/Third_Party/LwIP/src/core/pbuf.c ****   for (pcb = tcp_active_pcbs; NULL != pcb; pcb = pcb->next) {
 171:Middlewares/Third_Party/LwIP/src/core/pbuf.c ****     if (NULL != pcb->ooseq) {
 172:Middlewares/Third_Party/LwIP/src/core/pbuf.c ****       /** Free the ooseq pbufs of one PCB only */
 173:Middlewares/Third_Party/LwIP/src/core/pbuf.c ****       LWIP_DEBUGF(PBUF_DEBUG | LWIP_DBG_TRACE, ("pbuf_free_ooseq: freeing out-of-sequence pbufs\n")
 174:Middlewares/Third_Party/LwIP/src/core/pbuf.c ****       tcp_segs_free(pcb->ooseq);
 175:Middlewares/Third_Party/LwIP/src/core/pbuf.c ****       pcb->ooseq = NULL;
 176:Middlewares/Third_Party/LwIP/src/core/pbuf.c ****       return;
 177:Middlewares/Third_Party/LwIP/src/core/pbuf.c ****     }
 178:Middlewares/Third_Party/LwIP/src/core/pbuf.c ****   }
 179:Middlewares/Third_Party/LwIP/src/core/pbuf.c **** }
 180:Middlewares/Third_Party/LwIP/src/core/pbuf.c **** 
 181:Middlewares/Third_Party/LwIP/src/core/pbuf.c **** #if !NO_SYS
 182:Middlewares/Third_Party/LwIP/src/core/pbuf.c **** /**
 183:Middlewares/Third_Party/LwIP/src/core/pbuf.c ****  * Just a callback function for tcpip_callback() that calls pbuf_free_ooseq().
 184:Middlewares/Third_Party/LwIP/src/core/pbuf.c ****  */
 185:Middlewares/Third_Party/LwIP/src/core/pbuf.c **** static void
 186:Middlewares/Third_Party/LwIP/src/core/pbuf.c **** pbuf_free_ooseq_callback(void *arg)
 187:Middlewares/Third_Party/LwIP/src/core/pbuf.c **** {
 188:Middlewares/Third_Party/LwIP/src/core/pbuf.c ****   LWIP_UNUSED_ARG(arg);
 189:Middlewares/Third_Party/LwIP/src/core/pbuf.c ****   pbuf_free_ooseq();
 190:Middlewares/Third_Party/LwIP/src/core/pbuf.c **** }
 191:Middlewares/Third_Party/LwIP/src/core/pbuf.c **** #endif /* !NO_SYS */
 192:Middlewares/Third_Party/LwIP/src/core/pbuf.c **** 
 193:Middlewares/Third_Party/LwIP/src/core/pbuf.c **** /** Queue a call to pbuf_free_ooseq if not already queued. */
 194:Middlewares/Third_Party/LwIP/src/core/pbuf.c **** static void
 195:Middlewares/Third_Party/LwIP/src/core/pbuf.c **** pbuf_pool_is_empty(void)
 196:Middlewares/Third_Party/LwIP/src/core/pbuf.c **** {
  28              		.loc 1 196 1 view -0
  29              		.cfi_startproc
  30              		@ args = 0, pretend = 0, frame = 0
  31              		@ frame_needed = 0, uses_anonymous_args = 0
  32              		@ link register save eliminated.
 197:Middlewares/Third_Party/LwIP/src/core/pbuf.c **** #ifndef PBUF_POOL_FREE_OOSEQ_QUEUE_CALL
ARM GAS  /tmp/ccvTpBVd.s 			page 5


 198:Middlewares/Third_Party/LwIP/src/core/pbuf.c ****   SYS_ARCH_SET(pbuf_free_ooseq_pending, 1);
  33              		.loc 1 198 3 view .LVU1
  34              		.loc 1 198 3 view .LVU2
  35              		.loc 1 198 3 view .LVU3
  36              		.loc 1 198 3 view .LVU4
  37 0000 014B     		ldr	r3, .L2
  38 0002 0122     		movs	r2, #1
  39 0004 1A70     		strb	r2, [r3]
  40              		.loc 1 198 3 view .LVU5
 199:Middlewares/Third_Party/LwIP/src/core/pbuf.c **** #else /* PBUF_POOL_FREE_OOSEQ_QUEUE_CALL */
 200:Middlewares/Third_Party/LwIP/src/core/pbuf.c ****   u8_t queued;
 201:Middlewares/Third_Party/LwIP/src/core/pbuf.c ****   SYS_ARCH_DECL_PROTECT(old_level);
 202:Middlewares/Third_Party/LwIP/src/core/pbuf.c ****   SYS_ARCH_PROTECT(old_level);
 203:Middlewares/Third_Party/LwIP/src/core/pbuf.c ****   queued = pbuf_free_ooseq_pending;
 204:Middlewares/Third_Party/LwIP/src/core/pbuf.c ****   pbuf_free_ooseq_pending = 1;
 205:Middlewares/Third_Party/LwIP/src/core/pbuf.c ****   SYS_ARCH_UNPROTECT(old_level);
 206:Middlewares/Third_Party/LwIP/src/core/pbuf.c **** 
 207:Middlewares/Third_Party/LwIP/src/core/pbuf.c ****   if (!queued) {
 208:Middlewares/Third_Party/LwIP/src/core/pbuf.c ****     /* queue a call to pbuf_free_ooseq if not already queued */
 209:Middlewares/Third_Party/LwIP/src/core/pbuf.c ****     PBUF_POOL_FREE_OOSEQ_QUEUE_CALL();
 210:Middlewares/Third_Party/LwIP/src/core/pbuf.c ****   }
 211:Middlewares/Third_Party/LwIP/src/core/pbuf.c **** #endif /* PBUF_POOL_FREE_OOSEQ_QUEUE_CALL */
 212:Middlewares/Third_Party/LwIP/src/core/pbuf.c **** }
  41              		.loc 1 212 1 is_stmt 0 view .LVU6
  42 0006 7047     		bx	lr
  43              	.L3:
  44              		.align	2
  45              	.L2:
  46 0008 00000000 		.word	pbuf_free_ooseq_pending
  47              		.cfi_endproc
  48              	.LFE161:
  50              		.section	.text.pbuf_skip_const,"ax",%progbits
  51              		.align	1
  52              		.syntax unified
  53              		.thumb
  54              		.thumb_func
  55              		.fpu fpv5-sp-d16
  57              	pbuf_skip_const:
  58              	.LVL0:
  59              	.LFB176:
 213:Middlewares/Third_Party/LwIP/src/core/pbuf.c **** #endif /* !LWIP_TCP || !TCP_QUEUE_OOSEQ || !PBUF_POOL_FREE_OOSEQ */
 214:Middlewares/Third_Party/LwIP/src/core/pbuf.c **** 
 215:Middlewares/Third_Party/LwIP/src/core/pbuf.c **** /**
 216:Middlewares/Third_Party/LwIP/src/core/pbuf.c ****  * @ingroup pbuf
 217:Middlewares/Third_Party/LwIP/src/core/pbuf.c ****  * Allocates a pbuf of the given type (possibly a chain for PBUF_POOL type).
 218:Middlewares/Third_Party/LwIP/src/core/pbuf.c ****  *
 219:Middlewares/Third_Party/LwIP/src/core/pbuf.c ****  * The actual memory allocated for the pbuf is determined by the
 220:Middlewares/Third_Party/LwIP/src/core/pbuf.c ****  * layer at which the pbuf is allocated and the requested size
 221:Middlewares/Third_Party/LwIP/src/core/pbuf.c ****  * (from the size parameter).
 222:Middlewares/Third_Party/LwIP/src/core/pbuf.c ****  *
 223:Middlewares/Third_Party/LwIP/src/core/pbuf.c ****  * @param layer flag to define header size
 224:Middlewares/Third_Party/LwIP/src/core/pbuf.c ****  * @param length size of the pbuf's payload
 225:Middlewares/Third_Party/LwIP/src/core/pbuf.c ****  * @param type this parameter decides how and where the pbuf
 226:Middlewares/Third_Party/LwIP/src/core/pbuf.c ****  * should be allocated as follows:
 227:Middlewares/Third_Party/LwIP/src/core/pbuf.c ****  *
 228:Middlewares/Third_Party/LwIP/src/core/pbuf.c ****  * - PBUF_RAM: buffer memory for pbuf is allocated as one large
 229:Middlewares/Third_Party/LwIP/src/core/pbuf.c ****  *             chunk. This includes protocol headers as well.
ARM GAS  /tmp/ccvTpBVd.s 			page 6


 230:Middlewares/Third_Party/LwIP/src/core/pbuf.c ****  * - PBUF_ROM: no buffer memory is allocated for the pbuf, even for
 231:Middlewares/Third_Party/LwIP/src/core/pbuf.c ****  *             protocol headers. Additional headers must be prepended
 232:Middlewares/Third_Party/LwIP/src/core/pbuf.c ****  *             by allocating another pbuf and chain in to the front of
 233:Middlewares/Third_Party/LwIP/src/core/pbuf.c ****  *             the ROM pbuf. It is assumed that the memory used is really
 234:Middlewares/Third_Party/LwIP/src/core/pbuf.c ****  *             similar to ROM in that it is immutable and will not be
 235:Middlewares/Third_Party/LwIP/src/core/pbuf.c ****  *             changed. Memory which is dynamic should generally not
 236:Middlewares/Third_Party/LwIP/src/core/pbuf.c ****  *             be attached to PBUF_ROM pbufs. Use PBUF_REF instead.
 237:Middlewares/Third_Party/LwIP/src/core/pbuf.c ****  * - PBUF_REF: no buffer memory is allocated for the pbuf, even for
 238:Middlewares/Third_Party/LwIP/src/core/pbuf.c ****  *             protocol headers. It is assumed that the pbuf is only
 239:Middlewares/Third_Party/LwIP/src/core/pbuf.c ****  *             being used in a single thread. If the pbuf gets queued,
 240:Middlewares/Third_Party/LwIP/src/core/pbuf.c ****  *             then pbuf_take should be called to copy the buffer.
 241:Middlewares/Third_Party/LwIP/src/core/pbuf.c ****  * - PBUF_POOL: the pbuf is allocated as a pbuf chain, with pbufs from
 242:Middlewares/Third_Party/LwIP/src/core/pbuf.c ****  *              the pbuf pool that is allocated during pbuf_init().
 243:Middlewares/Third_Party/LwIP/src/core/pbuf.c ****  *
 244:Middlewares/Third_Party/LwIP/src/core/pbuf.c ****  * @return the allocated pbuf. If multiple pbufs where allocated, this
 245:Middlewares/Third_Party/LwIP/src/core/pbuf.c ****  * is the first pbuf of a pbuf chain.
 246:Middlewares/Third_Party/LwIP/src/core/pbuf.c ****  */
 247:Middlewares/Third_Party/LwIP/src/core/pbuf.c **** struct pbuf *
 248:Middlewares/Third_Party/LwIP/src/core/pbuf.c **** pbuf_alloc(pbuf_layer layer, u16_t length, pbuf_type type)
 249:Middlewares/Third_Party/LwIP/src/core/pbuf.c **** {
 250:Middlewares/Third_Party/LwIP/src/core/pbuf.c ****   struct pbuf *p, *q, *r;
 251:Middlewares/Third_Party/LwIP/src/core/pbuf.c ****   u16_t offset;
 252:Middlewares/Third_Party/LwIP/src/core/pbuf.c ****   s32_t rem_len; /* remaining length */
 253:Middlewares/Third_Party/LwIP/src/core/pbuf.c ****   LWIP_DEBUGF(PBUF_DEBUG | LWIP_DBG_TRACE, ("pbuf_alloc(length=%"U16_F")\n", length));
 254:Middlewares/Third_Party/LwIP/src/core/pbuf.c **** 
 255:Middlewares/Third_Party/LwIP/src/core/pbuf.c ****   /* determine header offset */
 256:Middlewares/Third_Party/LwIP/src/core/pbuf.c ****   switch (layer) {
 257:Middlewares/Third_Party/LwIP/src/core/pbuf.c ****   case PBUF_TRANSPORT:
 258:Middlewares/Third_Party/LwIP/src/core/pbuf.c ****     /* add room for transport (often TCP) layer header */
 259:Middlewares/Third_Party/LwIP/src/core/pbuf.c ****     offset = PBUF_LINK_ENCAPSULATION_HLEN + PBUF_LINK_HLEN + PBUF_IP_HLEN + PBUF_TRANSPORT_HLEN;
 260:Middlewares/Third_Party/LwIP/src/core/pbuf.c ****     break;
 261:Middlewares/Third_Party/LwIP/src/core/pbuf.c ****   case PBUF_IP:
 262:Middlewares/Third_Party/LwIP/src/core/pbuf.c ****     /* add room for IP layer header */
 263:Middlewares/Third_Party/LwIP/src/core/pbuf.c ****     offset = PBUF_LINK_ENCAPSULATION_HLEN + PBUF_LINK_HLEN + PBUF_IP_HLEN;
 264:Middlewares/Third_Party/LwIP/src/core/pbuf.c ****     break;
 265:Middlewares/Third_Party/LwIP/src/core/pbuf.c ****   case PBUF_LINK:
 266:Middlewares/Third_Party/LwIP/src/core/pbuf.c ****     /* add room for link layer header */
 267:Middlewares/Third_Party/LwIP/src/core/pbuf.c ****     offset = PBUF_LINK_ENCAPSULATION_HLEN + PBUF_LINK_HLEN;
 268:Middlewares/Third_Party/LwIP/src/core/pbuf.c ****     break;
 269:Middlewares/Third_Party/LwIP/src/core/pbuf.c ****   case PBUF_RAW_TX:
 270:Middlewares/Third_Party/LwIP/src/core/pbuf.c ****     /* add room for encapsulating link layer headers (e.g. 802.11) */
 271:Middlewares/Third_Party/LwIP/src/core/pbuf.c ****     offset = PBUF_LINK_ENCAPSULATION_HLEN;
 272:Middlewares/Third_Party/LwIP/src/core/pbuf.c ****     break;
 273:Middlewares/Third_Party/LwIP/src/core/pbuf.c ****   case PBUF_RAW:
 274:Middlewares/Third_Party/LwIP/src/core/pbuf.c ****     /* no offset (e.g. RX buffers or chain successors) */
 275:Middlewares/Third_Party/LwIP/src/core/pbuf.c ****     offset = 0;
 276:Middlewares/Third_Party/LwIP/src/core/pbuf.c ****     break;
 277:Middlewares/Third_Party/LwIP/src/core/pbuf.c ****   default:
 278:Middlewares/Third_Party/LwIP/src/core/pbuf.c ****     LWIP_ASSERT("pbuf_alloc: bad pbuf layer", 0);
 279:Middlewares/Third_Party/LwIP/src/core/pbuf.c ****     return NULL;
 280:Middlewares/Third_Party/LwIP/src/core/pbuf.c ****   }
 281:Middlewares/Third_Party/LwIP/src/core/pbuf.c **** 
 282:Middlewares/Third_Party/LwIP/src/core/pbuf.c ****   switch (type) {
 283:Middlewares/Third_Party/LwIP/src/core/pbuf.c ****   case PBUF_POOL:
 284:Middlewares/Third_Party/LwIP/src/core/pbuf.c ****     /* allocate head of pbuf chain into p */
 285:Middlewares/Third_Party/LwIP/src/core/pbuf.c ****     p = (struct pbuf *)memp_malloc(MEMP_PBUF_POOL);
 286:Middlewares/Third_Party/LwIP/src/core/pbuf.c ****     LWIP_DEBUGF(PBUF_DEBUG | LWIP_DBG_TRACE, ("pbuf_alloc: allocated pbuf %p\n", (void *)p));
ARM GAS  /tmp/ccvTpBVd.s 			page 7


 287:Middlewares/Third_Party/LwIP/src/core/pbuf.c ****     if (p == NULL) {
 288:Middlewares/Third_Party/LwIP/src/core/pbuf.c ****       PBUF_POOL_IS_EMPTY();
 289:Middlewares/Third_Party/LwIP/src/core/pbuf.c ****       return NULL;
 290:Middlewares/Third_Party/LwIP/src/core/pbuf.c ****     }
 291:Middlewares/Third_Party/LwIP/src/core/pbuf.c ****     p->type = type;
 292:Middlewares/Third_Party/LwIP/src/core/pbuf.c ****     p->next = NULL;
 293:Middlewares/Third_Party/LwIP/src/core/pbuf.c **** 
 294:Middlewares/Third_Party/LwIP/src/core/pbuf.c ****     /* make the payload pointer point 'offset' bytes into pbuf data memory */
 295:Middlewares/Third_Party/LwIP/src/core/pbuf.c ****     p->payload = LWIP_MEM_ALIGN((void *)((u8_t *)p + (SIZEOF_STRUCT_PBUF + offset)));
 296:Middlewares/Third_Party/LwIP/src/core/pbuf.c ****     LWIP_ASSERT("pbuf_alloc: pbuf p->payload properly aligned",
 297:Middlewares/Third_Party/LwIP/src/core/pbuf.c ****             ((mem_ptr_t)p->payload % MEM_ALIGNMENT) == 0);
 298:Middlewares/Third_Party/LwIP/src/core/pbuf.c ****     /* the total length of the pbuf chain is the requested size */
 299:Middlewares/Third_Party/LwIP/src/core/pbuf.c ****     p->tot_len = length;
 300:Middlewares/Third_Party/LwIP/src/core/pbuf.c ****     /* set the length of the first pbuf in the chain */
 301:Middlewares/Third_Party/LwIP/src/core/pbuf.c ****     p->len = LWIP_MIN(length, PBUF_POOL_BUFSIZE_ALIGNED - LWIP_MEM_ALIGN_SIZE(offset));
 302:Middlewares/Third_Party/LwIP/src/core/pbuf.c ****     LWIP_ASSERT("check p->payload + p->len does not overflow pbuf",
 303:Middlewares/Third_Party/LwIP/src/core/pbuf.c ****                 ((u8_t*)p->payload + p->len <=
 304:Middlewares/Third_Party/LwIP/src/core/pbuf.c ****                  (u8_t*)p + SIZEOF_STRUCT_PBUF + PBUF_POOL_BUFSIZE_ALIGNED));
 305:Middlewares/Third_Party/LwIP/src/core/pbuf.c ****     LWIP_ASSERT("PBUF_POOL_BUFSIZE must be bigger than MEM_ALIGNMENT",
 306:Middlewares/Third_Party/LwIP/src/core/pbuf.c ****       (PBUF_POOL_BUFSIZE_ALIGNED - LWIP_MEM_ALIGN_SIZE(offset)) > 0 );
 307:Middlewares/Third_Party/LwIP/src/core/pbuf.c ****     /* set reference count (needed here in case we fail) */
 308:Middlewares/Third_Party/LwIP/src/core/pbuf.c ****     p->ref = 1;
 309:Middlewares/Third_Party/LwIP/src/core/pbuf.c **** 
 310:Middlewares/Third_Party/LwIP/src/core/pbuf.c ****     /* now allocate the tail of the pbuf chain */
 311:Middlewares/Third_Party/LwIP/src/core/pbuf.c **** 
 312:Middlewares/Third_Party/LwIP/src/core/pbuf.c ****     /* remember first pbuf for linkage in next iteration */
 313:Middlewares/Third_Party/LwIP/src/core/pbuf.c ****     r = p;
 314:Middlewares/Third_Party/LwIP/src/core/pbuf.c ****     /* remaining length to be allocated */
 315:Middlewares/Third_Party/LwIP/src/core/pbuf.c ****     rem_len = length - p->len;
 316:Middlewares/Third_Party/LwIP/src/core/pbuf.c ****     /* any remaining pbufs to be allocated? */
 317:Middlewares/Third_Party/LwIP/src/core/pbuf.c ****     while (rem_len > 0) {
 318:Middlewares/Third_Party/LwIP/src/core/pbuf.c ****       q = (struct pbuf *)memp_malloc(MEMP_PBUF_POOL);
 319:Middlewares/Third_Party/LwIP/src/core/pbuf.c ****       if (q == NULL) {
 320:Middlewares/Third_Party/LwIP/src/core/pbuf.c ****         PBUF_POOL_IS_EMPTY();
 321:Middlewares/Third_Party/LwIP/src/core/pbuf.c ****         /* free chain so far allocated */
 322:Middlewares/Third_Party/LwIP/src/core/pbuf.c ****         pbuf_free(p);
 323:Middlewares/Third_Party/LwIP/src/core/pbuf.c ****         /* bail out unsuccessfully */
 324:Middlewares/Third_Party/LwIP/src/core/pbuf.c ****         return NULL;
 325:Middlewares/Third_Party/LwIP/src/core/pbuf.c ****       }
 326:Middlewares/Third_Party/LwIP/src/core/pbuf.c ****       q->type = type;
 327:Middlewares/Third_Party/LwIP/src/core/pbuf.c ****       q->flags = 0;
 328:Middlewares/Third_Party/LwIP/src/core/pbuf.c ****       q->next = NULL;
 329:Middlewares/Third_Party/LwIP/src/core/pbuf.c ****       /* make previous pbuf point to this pbuf */
 330:Middlewares/Third_Party/LwIP/src/core/pbuf.c ****       r->next = q;
 331:Middlewares/Third_Party/LwIP/src/core/pbuf.c ****       /* set total length of this pbuf and next in chain */
 332:Middlewares/Third_Party/LwIP/src/core/pbuf.c ****       LWIP_ASSERT("rem_len < max_u16_t", rem_len < 0xffff);
 333:Middlewares/Third_Party/LwIP/src/core/pbuf.c ****       q->tot_len = (u16_t)rem_len;
 334:Middlewares/Third_Party/LwIP/src/core/pbuf.c ****       /* this pbuf length is pool size, unless smaller sized tail */
 335:Middlewares/Third_Party/LwIP/src/core/pbuf.c ****       q->len = LWIP_MIN((u16_t)rem_len, PBUF_POOL_BUFSIZE_ALIGNED);
 336:Middlewares/Third_Party/LwIP/src/core/pbuf.c ****       q->payload = (void *)((u8_t *)q + SIZEOF_STRUCT_PBUF);
 337:Middlewares/Third_Party/LwIP/src/core/pbuf.c ****       LWIP_ASSERT("pbuf_alloc: pbuf q->payload properly aligned",
 338:Middlewares/Third_Party/LwIP/src/core/pbuf.c ****               ((mem_ptr_t)q->payload % MEM_ALIGNMENT) == 0);
 339:Middlewares/Third_Party/LwIP/src/core/pbuf.c ****       LWIP_ASSERT("check p->payload + p->len does not overflow pbuf",
 340:Middlewares/Third_Party/LwIP/src/core/pbuf.c ****                   ((u8_t*)p->payload + p->len <=
 341:Middlewares/Third_Party/LwIP/src/core/pbuf.c ****                    (u8_t*)p + SIZEOF_STRUCT_PBUF + PBUF_POOL_BUFSIZE_ALIGNED));
 342:Middlewares/Third_Party/LwIP/src/core/pbuf.c ****       q->ref = 1;
 343:Middlewares/Third_Party/LwIP/src/core/pbuf.c ****       /* calculate remaining length to be allocated */
ARM GAS  /tmp/ccvTpBVd.s 			page 8


 344:Middlewares/Third_Party/LwIP/src/core/pbuf.c ****       rem_len -= q->len;
 345:Middlewares/Third_Party/LwIP/src/core/pbuf.c ****       /* remember this pbuf for linkage in next iteration */
 346:Middlewares/Third_Party/LwIP/src/core/pbuf.c ****       r = q;
 347:Middlewares/Third_Party/LwIP/src/core/pbuf.c ****     }
 348:Middlewares/Third_Party/LwIP/src/core/pbuf.c ****     /* end of chain */
 349:Middlewares/Third_Party/LwIP/src/core/pbuf.c ****     /*r->next = NULL;*/
 350:Middlewares/Third_Party/LwIP/src/core/pbuf.c **** 
 351:Middlewares/Third_Party/LwIP/src/core/pbuf.c ****     break;
 352:Middlewares/Third_Party/LwIP/src/core/pbuf.c ****   case PBUF_RAM:
 353:Middlewares/Third_Party/LwIP/src/core/pbuf.c ****     {
 354:Middlewares/Third_Party/LwIP/src/core/pbuf.c ****       mem_size_t alloc_len = LWIP_MEM_ALIGN_SIZE(SIZEOF_STRUCT_PBUF + offset) + LWIP_MEM_ALIGN_SIZE
 355:Middlewares/Third_Party/LwIP/src/core/pbuf.c ****       
 356:Middlewares/Third_Party/LwIP/src/core/pbuf.c ****       /* bug #50040: Check for integer overflow when calculating alloc_len */
 357:Middlewares/Third_Party/LwIP/src/core/pbuf.c ****       if (alloc_len < LWIP_MEM_ALIGN_SIZE(length)) {
 358:Middlewares/Third_Party/LwIP/src/core/pbuf.c ****         return NULL;
 359:Middlewares/Third_Party/LwIP/src/core/pbuf.c ****       }
 360:Middlewares/Third_Party/LwIP/src/core/pbuf.c ****     
 361:Middlewares/Third_Party/LwIP/src/core/pbuf.c ****       /* If pbuf is to be allocated in RAM, allocate memory for it. */
 362:Middlewares/Third_Party/LwIP/src/core/pbuf.c ****       p = (struct pbuf*)mem_malloc(alloc_len);
 363:Middlewares/Third_Party/LwIP/src/core/pbuf.c ****     }
 364:Middlewares/Third_Party/LwIP/src/core/pbuf.c **** 
 365:Middlewares/Third_Party/LwIP/src/core/pbuf.c ****     if (p == NULL) {
 366:Middlewares/Third_Party/LwIP/src/core/pbuf.c ****       return NULL;
 367:Middlewares/Third_Party/LwIP/src/core/pbuf.c ****     }
 368:Middlewares/Third_Party/LwIP/src/core/pbuf.c ****     /* Set up internal structure of the pbuf. */
 369:Middlewares/Third_Party/LwIP/src/core/pbuf.c ****     p->payload = LWIP_MEM_ALIGN((void *)((u8_t *)p + SIZEOF_STRUCT_PBUF + offset));
 370:Middlewares/Third_Party/LwIP/src/core/pbuf.c ****     p->len = p->tot_len = length;
 371:Middlewares/Third_Party/LwIP/src/core/pbuf.c ****     p->next = NULL;
 372:Middlewares/Third_Party/LwIP/src/core/pbuf.c ****     p->type = type;
 373:Middlewares/Third_Party/LwIP/src/core/pbuf.c **** 
 374:Middlewares/Third_Party/LwIP/src/core/pbuf.c ****     LWIP_ASSERT("pbuf_alloc: pbuf->payload properly aligned",
 375:Middlewares/Third_Party/LwIP/src/core/pbuf.c ****            ((mem_ptr_t)p->payload % MEM_ALIGNMENT) == 0);
 376:Middlewares/Third_Party/LwIP/src/core/pbuf.c ****     break;
 377:Middlewares/Third_Party/LwIP/src/core/pbuf.c ****   /* pbuf references existing (non-volatile static constant) ROM payload? */
 378:Middlewares/Third_Party/LwIP/src/core/pbuf.c ****   case PBUF_ROM:
 379:Middlewares/Third_Party/LwIP/src/core/pbuf.c ****   /* pbuf references existing (externally allocated) RAM payload? */
 380:Middlewares/Third_Party/LwIP/src/core/pbuf.c ****   case PBUF_REF:
 381:Middlewares/Third_Party/LwIP/src/core/pbuf.c ****     /* only allocate memory for the pbuf structure */
 382:Middlewares/Third_Party/LwIP/src/core/pbuf.c ****     p = (struct pbuf *)memp_malloc(MEMP_PBUF);
 383:Middlewares/Third_Party/LwIP/src/core/pbuf.c ****     if (p == NULL) {
 384:Middlewares/Third_Party/LwIP/src/core/pbuf.c ****       LWIP_DEBUGF(PBUF_DEBUG | LWIP_DBG_LEVEL_SERIOUS,
 385:Middlewares/Third_Party/LwIP/src/core/pbuf.c ****                   ("pbuf_alloc: Could not allocate MEMP_PBUF for PBUF_%s.\n",
 386:Middlewares/Third_Party/LwIP/src/core/pbuf.c ****                   (type == PBUF_ROM) ? "ROM" : "REF"));
 387:Middlewares/Third_Party/LwIP/src/core/pbuf.c ****       return NULL;
 388:Middlewares/Third_Party/LwIP/src/core/pbuf.c ****     }
 389:Middlewares/Third_Party/LwIP/src/core/pbuf.c ****     /* caller must set this field properly, afterwards */
 390:Middlewares/Third_Party/LwIP/src/core/pbuf.c ****     p->payload = NULL;
 391:Middlewares/Third_Party/LwIP/src/core/pbuf.c ****     p->len = p->tot_len = length;
 392:Middlewares/Third_Party/LwIP/src/core/pbuf.c ****     p->next = NULL;
 393:Middlewares/Third_Party/LwIP/src/core/pbuf.c ****     p->type = type;
 394:Middlewares/Third_Party/LwIP/src/core/pbuf.c ****     break;
 395:Middlewares/Third_Party/LwIP/src/core/pbuf.c ****   default:
 396:Middlewares/Third_Party/LwIP/src/core/pbuf.c ****     LWIP_ASSERT("pbuf_alloc: erroneous type", 0);
 397:Middlewares/Third_Party/LwIP/src/core/pbuf.c ****     return NULL;
 398:Middlewares/Third_Party/LwIP/src/core/pbuf.c ****   }
 399:Middlewares/Third_Party/LwIP/src/core/pbuf.c ****   /* set reference count */
 400:Middlewares/Third_Party/LwIP/src/core/pbuf.c ****   p->ref = 1;
ARM GAS  /tmp/ccvTpBVd.s 			page 9


 401:Middlewares/Third_Party/LwIP/src/core/pbuf.c ****   /* set flags */
 402:Middlewares/Third_Party/LwIP/src/core/pbuf.c ****   p->flags = 0;
 403:Middlewares/Third_Party/LwIP/src/core/pbuf.c ****   LWIP_DEBUGF(PBUF_DEBUG | LWIP_DBG_TRACE, ("pbuf_alloc(length=%"U16_F") == %p\n", length, (void *)
 404:Middlewares/Third_Party/LwIP/src/core/pbuf.c ****   return p;
 405:Middlewares/Third_Party/LwIP/src/core/pbuf.c **** }
 406:Middlewares/Third_Party/LwIP/src/core/pbuf.c **** 
 407:Middlewares/Third_Party/LwIP/src/core/pbuf.c **** #if LWIP_SUPPORT_CUSTOM_PBUF
 408:Middlewares/Third_Party/LwIP/src/core/pbuf.c **** /**
 409:Middlewares/Third_Party/LwIP/src/core/pbuf.c ****  * @ingroup pbuf
 410:Middlewares/Third_Party/LwIP/src/core/pbuf.c ****  * Initialize a custom pbuf (already allocated).
 411:Middlewares/Third_Party/LwIP/src/core/pbuf.c ****  *
 412:Middlewares/Third_Party/LwIP/src/core/pbuf.c ****  * @param l flag to define header size
 413:Middlewares/Third_Party/LwIP/src/core/pbuf.c ****  * @param length size of the pbuf's payload
 414:Middlewares/Third_Party/LwIP/src/core/pbuf.c ****  * @param type type of the pbuf (only used to treat the pbuf accordingly, as
 415:Middlewares/Third_Party/LwIP/src/core/pbuf.c ****  *        this function allocates no memory)
 416:Middlewares/Third_Party/LwIP/src/core/pbuf.c ****  * @param p pointer to the custom pbuf to initialize (already allocated)
 417:Middlewares/Third_Party/LwIP/src/core/pbuf.c ****  * @param payload_mem pointer to the buffer that is used for payload and headers,
 418:Middlewares/Third_Party/LwIP/src/core/pbuf.c ****  *        must be at least big enough to hold 'length' plus the header size,
 419:Middlewares/Third_Party/LwIP/src/core/pbuf.c ****  *        may be NULL if set later.
 420:Middlewares/Third_Party/LwIP/src/core/pbuf.c ****  *        ATTENTION: The caller is responsible for correct alignment of this buffer!!
 421:Middlewares/Third_Party/LwIP/src/core/pbuf.c ****  * @param payload_mem_len the size of the 'payload_mem' buffer, must be at least
 422:Middlewares/Third_Party/LwIP/src/core/pbuf.c ****  *        big enough to hold 'length' plus the header size
 423:Middlewares/Third_Party/LwIP/src/core/pbuf.c ****  */
 424:Middlewares/Third_Party/LwIP/src/core/pbuf.c **** struct pbuf*
 425:Middlewares/Third_Party/LwIP/src/core/pbuf.c **** pbuf_alloced_custom(pbuf_layer l, u16_t length, pbuf_type type, struct pbuf_custom *p,
 426:Middlewares/Third_Party/LwIP/src/core/pbuf.c ****                     void *payload_mem, u16_t payload_mem_len)
 427:Middlewares/Third_Party/LwIP/src/core/pbuf.c **** {
 428:Middlewares/Third_Party/LwIP/src/core/pbuf.c ****   u16_t offset;
 429:Middlewares/Third_Party/LwIP/src/core/pbuf.c ****   LWIP_DEBUGF(PBUF_DEBUG | LWIP_DBG_TRACE, ("pbuf_alloced_custom(length=%"U16_F")\n", length));
 430:Middlewares/Third_Party/LwIP/src/core/pbuf.c **** 
 431:Middlewares/Third_Party/LwIP/src/core/pbuf.c ****   /* determine header offset */
 432:Middlewares/Third_Party/LwIP/src/core/pbuf.c ****   switch (l) {
 433:Middlewares/Third_Party/LwIP/src/core/pbuf.c ****   case PBUF_TRANSPORT:
 434:Middlewares/Third_Party/LwIP/src/core/pbuf.c ****     /* add room for transport (often TCP) layer header */
 435:Middlewares/Third_Party/LwIP/src/core/pbuf.c ****     offset = PBUF_LINK_ENCAPSULATION_HLEN + PBUF_LINK_HLEN + PBUF_IP_HLEN + PBUF_TRANSPORT_HLEN;
 436:Middlewares/Third_Party/LwIP/src/core/pbuf.c ****     break;
 437:Middlewares/Third_Party/LwIP/src/core/pbuf.c ****   case PBUF_IP:
 438:Middlewares/Third_Party/LwIP/src/core/pbuf.c ****     /* add room for IP layer header */
 439:Middlewares/Third_Party/LwIP/src/core/pbuf.c ****     offset = PBUF_LINK_ENCAPSULATION_HLEN + PBUF_LINK_HLEN + PBUF_IP_HLEN;
 440:Middlewares/Third_Party/LwIP/src/core/pbuf.c ****     break;
 441:Middlewares/Third_Party/LwIP/src/core/pbuf.c ****   case PBUF_LINK:
 442:Middlewares/Third_Party/LwIP/src/core/pbuf.c ****     /* add room for link layer header */
 443:Middlewares/Third_Party/LwIP/src/core/pbuf.c ****     offset = PBUF_LINK_ENCAPSULATION_HLEN + PBUF_LINK_HLEN;
 444:Middlewares/Third_Party/LwIP/src/core/pbuf.c ****     break;
 445:Middlewares/Third_Party/LwIP/src/core/pbuf.c ****   case PBUF_RAW_TX:
 446:Middlewares/Third_Party/LwIP/src/core/pbuf.c ****     /* add room for encapsulating link layer headers (e.g. 802.11) */
 447:Middlewares/Third_Party/LwIP/src/core/pbuf.c ****     offset = PBUF_LINK_ENCAPSULATION_HLEN;
 448:Middlewares/Third_Party/LwIP/src/core/pbuf.c ****     break;
 449:Middlewares/Third_Party/LwIP/src/core/pbuf.c ****   case PBUF_RAW:
 450:Middlewares/Third_Party/LwIP/src/core/pbuf.c ****     offset = 0;
 451:Middlewares/Third_Party/LwIP/src/core/pbuf.c ****     break;
 452:Middlewares/Third_Party/LwIP/src/core/pbuf.c ****   default:
 453:Middlewares/Third_Party/LwIP/src/core/pbuf.c ****     LWIP_ASSERT("pbuf_alloced_custom: bad pbuf layer", 0);
 454:Middlewares/Third_Party/LwIP/src/core/pbuf.c ****     return NULL;
 455:Middlewares/Third_Party/LwIP/src/core/pbuf.c ****   }
 456:Middlewares/Third_Party/LwIP/src/core/pbuf.c **** 
 457:Middlewares/Third_Party/LwIP/src/core/pbuf.c ****   if (LWIP_MEM_ALIGN_SIZE(offset) + length > payload_mem_len) {
ARM GAS  /tmp/ccvTpBVd.s 			page 10


 458:Middlewares/Third_Party/LwIP/src/core/pbuf.c ****     LWIP_DEBUGF(PBUF_DEBUG | LWIP_DBG_LEVEL_WARNING, ("pbuf_alloced_custom(length=%"U16_F") buffer 
 459:Middlewares/Third_Party/LwIP/src/core/pbuf.c ****     return NULL;
 460:Middlewares/Third_Party/LwIP/src/core/pbuf.c ****   }
 461:Middlewares/Third_Party/LwIP/src/core/pbuf.c **** 
 462:Middlewares/Third_Party/LwIP/src/core/pbuf.c ****   p->pbuf.next = NULL;
 463:Middlewares/Third_Party/LwIP/src/core/pbuf.c ****   if (payload_mem != NULL) {
 464:Middlewares/Third_Party/LwIP/src/core/pbuf.c ****     p->pbuf.payload = (u8_t *)payload_mem + LWIP_MEM_ALIGN_SIZE(offset);
 465:Middlewares/Third_Party/LwIP/src/core/pbuf.c ****   } else {
 466:Middlewares/Third_Party/LwIP/src/core/pbuf.c ****     p->pbuf.payload = NULL;
 467:Middlewares/Third_Party/LwIP/src/core/pbuf.c ****   }
 468:Middlewares/Third_Party/LwIP/src/core/pbuf.c ****   p->pbuf.flags = PBUF_FLAG_IS_CUSTOM;
 469:Middlewares/Third_Party/LwIP/src/core/pbuf.c ****   p->pbuf.len = p->pbuf.tot_len = length;
 470:Middlewares/Third_Party/LwIP/src/core/pbuf.c ****   p->pbuf.type = type;
 471:Middlewares/Third_Party/LwIP/src/core/pbuf.c ****   p->pbuf.ref = 1;
 472:Middlewares/Third_Party/LwIP/src/core/pbuf.c ****   return &p->pbuf;
 473:Middlewares/Third_Party/LwIP/src/core/pbuf.c **** }
 474:Middlewares/Third_Party/LwIP/src/core/pbuf.c **** #endif /* LWIP_SUPPORT_CUSTOM_PBUF */
 475:Middlewares/Third_Party/LwIP/src/core/pbuf.c **** 
 476:Middlewares/Third_Party/LwIP/src/core/pbuf.c **** /**
 477:Middlewares/Third_Party/LwIP/src/core/pbuf.c ****  * @ingroup pbuf
 478:Middlewares/Third_Party/LwIP/src/core/pbuf.c ****  * Shrink a pbuf chain to a desired length.
 479:Middlewares/Third_Party/LwIP/src/core/pbuf.c ****  *
 480:Middlewares/Third_Party/LwIP/src/core/pbuf.c ****  * @param p pbuf to shrink.
 481:Middlewares/Third_Party/LwIP/src/core/pbuf.c ****  * @param new_len desired new length of pbuf chain
 482:Middlewares/Third_Party/LwIP/src/core/pbuf.c ****  *
 483:Middlewares/Third_Party/LwIP/src/core/pbuf.c ****  * Depending on the desired length, the first few pbufs in a chain might
 484:Middlewares/Third_Party/LwIP/src/core/pbuf.c ****  * be skipped and left unchanged. The new last pbuf in the chain will be
 485:Middlewares/Third_Party/LwIP/src/core/pbuf.c ****  * resized, and any remaining pbufs will be freed.
 486:Middlewares/Third_Party/LwIP/src/core/pbuf.c ****  *
 487:Middlewares/Third_Party/LwIP/src/core/pbuf.c ****  * @note If the pbuf is ROM/REF, only the ->tot_len and ->len fields are adjusted.
 488:Middlewares/Third_Party/LwIP/src/core/pbuf.c ****  * @note May not be called on a packet queue.
 489:Middlewares/Third_Party/LwIP/src/core/pbuf.c ****  *
 490:Middlewares/Third_Party/LwIP/src/core/pbuf.c ****  * @note Despite its name, pbuf_realloc cannot grow the size of a pbuf (chain).
 491:Middlewares/Third_Party/LwIP/src/core/pbuf.c ****  */
 492:Middlewares/Third_Party/LwIP/src/core/pbuf.c **** void
 493:Middlewares/Third_Party/LwIP/src/core/pbuf.c **** pbuf_realloc(struct pbuf *p, u16_t new_len)
 494:Middlewares/Third_Party/LwIP/src/core/pbuf.c **** {
 495:Middlewares/Third_Party/LwIP/src/core/pbuf.c ****   struct pbuf *q;
 496:Middlewares/Third_Party/LwIP/src/core/pbuf.c ****   u16_t rem_len; /* remaining length */
 497:Middlewares/Third_Party/LwIP/src/core/pbuf.c ****   s32_t grow;
 498:Middlewares/Third_Party/LwIP/src/core/pbuf.c **** 
 499:Middlewares/Third_Party/LwIP/src/core/pbuf.c ****   LWIP_ASSERT("pbuf_realloc: p != NULL", p != NULL);
 500:Middlewares/Third_Party/LwIP/src/core/pbuf.c ****   LWIP_ASSERT("pbuf_realloc: sane p->type", p->type == PBUF_POOL ||
 501:Middlewares/Third_Party/LwIP/src/core/pbuf.c ****               p->type == PBUF_ROM ||
 502:Middlewares/Third_Party/LwIP/src/core/pbuf.c ****               p->type == PBUF_RAM ||
 503:Middlewares/Third_Party/LwIP/src/core/pbuf.c ****               p->type == PBUF_REF);
 504:Middlewares/Third_Party/LwIP/src/core/pbuf.c **** 
 505:Middlewares/Third_Party/LwIP/src/core/pbuf.c ****   /* desired length larger than current length? */
 506:Middlewares/Third_Party/LwIP/src/core/pbuf.c ****   if (new_len >= p->tot_len) {
 507:Middlewares/Third_Party/LwIP/src/core/pbuf.c ****     /* enlarging not yet supported */
 508:Middlewares/Third_Party/LwIP/src/core/pbuf.c ****     return;
 509:Middlewares/Third_Party/LwIP/src/core/pbuf.c ****   }
 510:Middlewares/Third_Party/LwIP/src/core/pbuf.c **** 
 511:Middlewares/Third_Party/LwIP/src/core/pbuf.c ****   /* the pbuf chain grows by (new_len - p->tot_len) bytes
 512:Middlewares/Third_Party/LwIP/src/core/pbuf.c ****    * (which may be negative in case of shrinking) */
 513:Middlewares/Third_Party/LwIP/src/core/pbuf.c ****   grow = new_len - p->tot_len;
 514:Middlewares/Third_Party/LwIP/src/core/pbuf.c **** 
ARM GAS  /tmp/ccvTpBVd.s 			page 11


 515:Middlewares/Third_Party/LwIP/src/core/pbuf.c ****   /* first, step over any pbufs that should remain in the chain */
 516:Middlewares/Third_Party/LwIP/src/core/pbuf.c ****   rem_len = new_len;
 517:Middlewares/Third_Party/LwIP/src/core/pbuf.c ****   q = p;
 518:Middlewares/Third_Party/LwIP/src/core/pbuf.c ****   /* should this pbuf be kept? */
 519:Middlewares/Third_Party/LwIP/src/core/pbuf.c ****   while (rem_len > q->len) {
 520:Middlewares/Third_Party/LwIP/src/core/pbuf.c ****     /* decrease remaining length by pbuf length */
 521:Middlewares/Third_Party/LwIP/src/core/pbuf.c ****     rem_len -= q->len;
 522:Middlewares/Third_Party/LwIP/src/core/pbuf.c ****     /* decrease total length indicator */
 523:Middlewares/Third_Party/LwIP/src/core/pbuf.c ****     LWIP_ASSERT("grow < max_u16_t", grow < 0xffff);
 524:Middlewares/Third_Party/LwIP/src/core/pbuf.c ****     q->tot_len += (u16_t)grow;
 525:Middlewares/Third_Party/LwIP/src/core/pbuf.c ****     /* proceed to next pbuf in chain */
 526:Middlewares/Third_Party/LwIP/src/core/pbuf.c ****     q = q->next;
 527:Middlewares/Third_Party/LwIP/src/core/pbuf.c ****     LWIP_ASSERT("pbuf_realloc: q != NULL", q != NULL);
 528:Middlewares/Third_Party/LwIP/src/core/pbuf.c ****   }
 529:Middlewares/Third_Party/LwIP/src/core/pbuf.c ****   /* we have now reached the new last pbuf (in q) */
 530:Middlewares/Third_Party/LwIP/src/core/pbuf.c ****   /* rem_len == desired length for pbuf q */
 531:Middlewares/Third_Party/LwIP/src/core/pbuf.c **** 
 532:Middlewares/Third_Party/LwIP/src/core/pbuf.c ****   /* shrink allocated memory for PBUF_RAM */
 533:Middlewares/Third_Party/LwIP/src/core/pbuf.c ****   /* (other types merely adjust their length fields */
 534:Middlewares/Third_Party/LwIP/src/core/pbuf.c ****   if ((q->type == PBUF_RAM) && (rem_len != q->len)
 535:Middlewares/Third_Party/LwIP/src/core/pbuf.c **** #if LWIP_SUPPORT_CUSTOM_PBUF
 536:Middlewares/Third_Party/LwIP/src/core/pbuf.c ****       && ((q->flags & PBUF_FLAG_IS_CUSTOM) == 0)
 537:Middlewares/Third_Party/LwIP/src/core/pbuf.c **** #endif /* LWIP_SUPPORT_CUSTOM_PBUF */
 538:Middlewares/Third_Party/LwIP/src/core/pbuf.c ****      ) {
 539:Middlewares/Third_Party/LwIP/src/core/pbuf.c ****     /* reallocate and adjust the length of the pbuf that will be split */
 540:Middlewares/Third_Party/LwIP/src/core/pbuf.c ****     q = (struct pbuf *)mem_trim(q, (u16_t)((u8_t *)q->payload - (u8_t *)q) + rem_len);
 541:Middlewares/Third_Party/LwIP/src/core/pbuf.c ****     LWIP_ASSERT("mem_trim returned q == NULL", q != NULL);
 542:Middlewares/Third_Party/LwIP/src/core/pbuf.c ****   }
 543:Middlewares/Third_Party/LwIP/src/core/pbuf.c ****   /* adjust length fields for new last pbuf */
 544:Middlewares/Third_Party/LwIP/src/core/pbuf.c ****   q->len = rem_len;
 545:Middlewares/Third_Party/LwIP/src/core/pbuf.c ****   q->tot_len = q->len;
 546:Middlewares/Third_Party/LwIP/src/core/pbuf.c **** 
 547:Middlewares/Third_Party/LwIP/src/core/pbuf.c ****   /* any remaining pbufs in chain? */
 548:Middlewares/Third_Party/LwIP/src/core/pbuf.c ****   if (q->next != NULL) {
 549:Middlewares/Third_Party/LwIP/src/core/pbuf.c ****     /* free remaining pbufs in chain */
 550:Middlewares/Third_Party/LwIP/src/core/pbuf.c ****     pbuf_free(q->next);
 551:Middlewares/Third_Party/LwIP/src/core/pbuf.c ****   }
 552:Middlewares/Third_Party/LwIP/src/core/pbuf.c ****   /* q is last packet in chain */
 553:Middlewares/Third_Party/LwIP/src/core/pbuf.c ****   q->next = NULL;
 554:Middlewares/Third_Party/LwIP/src/core/pbuf.c **** 
 555:Middlewares/Third_Party/LwIP/src/core/pbuf.c **** }
 556:Middlewares/Third_Party/LwIP/src/core/pbuf.c **** 
 557:Middlewares/Third_Party/LwIP/src/core/pbuf.c **** /**
 558:Middlewares/Third_Party/LwIP/src/core/pbuf.c ****  * Adjusts the payload pointer to hide or reveal headers in the payload.
 559:Middlewares/Third_Party/LwIP/src/core/pbuf.c ****  * @see pbuf_header.
 560:Middlewares/Third_Party/LwIP/src/core/pbuf.c ****  *
 561:Middlewares/Third_Party/LwIP/src/core/pbuf.c ****  * @param p pbuf to change the header size.
 562:Middlewares/Third_Party/LwIP/src/core/pbuf.c ****  * @param header_size_increment Number of bytes to increment header size.
 563:Middlewares/Third_Party/LwIP/src/core/pbuf.c ****  * @param force Allow 'header_size_increment > 0' for PBUF_REF/PBUF_ROM types
 564:Middlewares/Third_Party/LwIP/src/core/pbuf.c ****  *
 565:Middlewares/Third_Party/LwIP/src/core/pbuf.c ****  * @return non-zero on failure, zero on success.
 566:Middlewares/Third_Party/LwIP/src/core/pbuf.c ****  *
 567:Middlewares/Third_Party/LwIP/src/core/pbuf.c ****  */
 568:Middlewares/Third_Party/LwIP/src/core/pbuf.c **** static u8_t
 569:Middlewares/Third_Party/LwIP/src/core/pbuf.c **** pbuf_header_impl(struct pbuf *p, s16_t header_size_increment, u8_t force)
 570:Middlewares/Third_Party/LwIP/src/core/pbuf.c **** {
 571:Middlewares/Third_Party/LwIP/src/core/pbuf.c ****   u16_t type;
ARM GAS  /tmp/ccvTpBVd.s 			page 12


 572:Middlewares/Third_Party/LwIP/src/core/pbuf.c ****   void *payload;
 573:Middlewares/Third_Party/LwIP/src/core/pbuf.c ****   u16_t increment_magnitude;
 574:Middlewares/Third_Party/LwIP/src/core/pbuf.c **** 
 575:Middlewares/Third_Party/LwIP/src/core/pbuf.c ****   LWIP_ASSERT("p != NULL", p != NULL);
 576:Middlewares/Third_Party/LwIP/src/core/pbuf.c ****   if ((header_size_increment == 0) || (p == NULL)) {
 577:Middlewares/Third_Party/LwIP/src/core/pbuf.c ****     return 0;
 578:Middlewares/Third_Party/LwIP/src/core/pbuf.c ****   }
 579:Middlewares/Third_Party/LwIP/src/core/pbuf.c **** 
 580:Middlewares/Third_Party/LwIP/src/core/pbuf.c ****   if (header_size_increment < 0) {
 581:Middlewares/Third_Party/LwIP/src/core/pbuf.c ****     increment_magnitude = (u16_t)-header_size_increment;
 582:Middlewares/Third_Party/LwIP/src/core/pbuf.c ****     /* Check that we aren't going to move off the end of the pbuf */
 583:Middlewares/Third_Party/LwIP/src/core/pbuf.c ****     LWIP_ERROR("increment_magnitude <= p->len", (increment_magnitude <= p->len), return 1;);
 584:Middlewares/Third_Party/LwIP/src/core/pbuf.c ****   } else {
 585:Middlewares/Third_Party/LwIP/src/core/pbuf.c ****     increment_magnitude = (u16_t)header_size_increment;
 586:Middlewares/Third_Party/LwIP/src/core/pbuf.c **** #if 0
 587:Middlewares/Third_Party/LwIP/src/core/pbuf.c ****     /* Can't assert these as some callers speculatively call
 588:Middlewares/Third_Party/LwIP/src/core/pbuf.c ****          pbuf_header() to see if it's OK.  Will return 1 below instead. */
 589:Middlewares/Third_Party/LwIP/src/core/pbuf.c ****     /* Check that we've got the correct type of pbuf to work with */
 590:Middlewares/Third_Party/LwIP/src/core/pbuf.c ****     LWIP_ASSERT("p->type == PBUF_RAM || p->type == PBUF_POOL",
 591:Middlewares/Third_Party/LwIP/src/core/pbuf.c ****                 p->type == PBUF_RAM || p->type == PBUF_POOL);
 592:Middlewares/Third_Party/LwIP/src/core/pbuf.c ****     /* Check that we aren't going to move off the beginning of the pbuf */
 593:Middlewares/Third_Party/LwIP/src/core/pbuf.c ****     LWIP_ASSERT("p->payload - increment_magnitude >= p + SIZEOF_STRUCT_PBUF",
 594:Middlewares/Third_Party/LwIP/src/core/pbuf.c ****                 (u8_t *)p->payload - increment_magnitude >= (u8_t *)p + SIZEOF_STRUCT_PBUF);
 595:Middlewares/Third_Party/LwIP/src/core/pbuf.c **** #endif
 596:Middlewares/Third_Party/LwIP/src/core/pbuf.c ****   }
 597:Middlewares/Third_Party/LwIP/src/core/pbuf.c **** 
 598:Middlewares/Third_Party/LwIP/src/core/pbuf.c ****   type = p->type;
 599:Middlewares/Third_Party/LwIP/src/core/pbuf.c ****   /* remember current payload pointer */
 600:Middlewares/Third_Party/LwIP/src/core/pbuf.c ****   payload = p->payload;
 601:Middlewares/Third_Party/LwIP/src/core/pbuf.c **** 
 602:Middlewares/Third_Party/LwIP/src/core/pbuf.c ****   /* pbuf types containing payloads? */
 603:Middlewares/Third_Party/LwIP/src/core/pbuf.c ****   if (type == PBUF_RAM || type == PBUF_POOL) {
 604:Middlewares/Third_Party/LwIP/src/core/pbuf.c ****     /* set new payload pointer */
 605:Middlewares/Third_Party/LwIP/src/core/pbuf.c ****     p->payload = (u8_t *)p->payload - header_size_increment;
 606:Middlewares/Third_Party/LwIP/src/core/pbuf.c ****     /* boundary check fails? */
 607:Middlewares/Third_Party/LwIP/src/core/pbuf.c ****     if ((u8_t *)p->payload < (u8_t *)p + SIZEOF_STRUCT_PBUF) {
 608:Middlewares/Third_Party/LwIP/src/core/pbuf.c ****       LWIP_DEBUGF( PBUF_DEBUG | LWIP_DBG_TRACE,
 609:Middlewares/Third_Party/LwIP/src/core/pbuf.c ****         ("pbuf_header: failed as %p < %p (not enough space for new header size)\n",
 610:Middlewares/Third_Party/LwIP/src/core/pbuf.c ****         (void *)p->payload, (void *)((u8_t *)p + SIZEOF_STRUCT_PBUF)));
 611:Middlewares/Third_Party/LwIP/src/core/pbuf.c ****       /* restore old payload pointer */
 612:Middlewares/Third_Party/LwIP/src/core/pbuf.c ****       p->payload = payload;
 613:Middlewares/Third_Party/LwIP/src/core/pbuf.c ****       /* bail out unsuccessfully */
 614:Middlewares/Third_Party/LwIP/src/core/pbuf.c ****       return 1;
 615:Middlewares/Third_Party/LwIP/src/core/pbuf.c ****     }
 616:Middlewares/Third_Party/LwIP/src/core/pbuf.c ****   /* pbuf types referring to external payloads? */
 617:Middlewares/Third_Party/LwIP/src/core/pbuf.c ****   } else if (type == PBUF_REF || type == PBUF_ROM) {
 618:Middlewares/Third_Party/LwIP/src/core/pbuf.c ****     /* hide a header in the payload? */
 619:Middlewares/Third_Party/LwIP/src/core/pbuf.c ****     if ((header_size_increment < 0) && (increment_magnitude <= p->len)) {
 620:Middlewares/Third_Party/LwIP/src/core/pbuf.c ****       /* increase payload pointer */
 621:Middlewares/Third_Party/LwIP/src/core/pbuf.c ****       p->payload = (u8_t *)p->payload - header_size_increment;
 622:Middlewares/Third_Party/LwIP/src/core/pbuf.c ****     } else if ((header_size_increment > 0) && force) {
 623:Middlewares/Third_Party/LwIP/src/core/pbuf.c ****       p->payload = (u8_t *)p->payload - header_size_increment;
 624:Middlewares/Third_Party/LwIP/src/core/pbuf.c ****     } else {
 625:Middlewares/Third_Party/LwIP/src/core/pbuf.c ****       /* cannot expand payload to front (yet!)
 626:Middlewares/Third_Party/LwIP/src/core/pbuf.c ****        * bail out unsuccessfully */
 627:Middlewares/Third_Party/LwIP/src/core/pbuf.c ****       return 1;
 628:Middlewares/Third_Party/LwIP/src/core/pbuf.c ****     }
ARM GAS  /tmp/ccvTpBVd.s 			page 13


 629:Middlewares/Third_Party/LwIP/src/core/pbuf.c ****   } else {
 630:Middlewares/Third_Party/LwIP/src/core/pbuf.c ****     /* Unknown type */
 631:Middlewares/Third_Party/LwIP/src/core/pbuf.c ****     LWIP_ASSERT("bad pbuf type", 0);
 632:Middlewares/Third_Party/LwIP/src/core/pbuf.c ****     return 1;
 633:Middlewares/Third_Party/LwIP/src/core/pbuf.c ****   }
 634:Middlewares/Third_Party/LwIP/src/core/pbuf.c ****   /* modify pbuf length fields */
 635:Middlewares/Third_Party/LwIP/src/core/pbuf.c ****   p->len += header_size_increment;
 636:Middlewares/Third_Party/LwIP/src/core/pbuf.c ****   p->tot_len += header_size_increment;
 637:Middlewares/Third_Party/LwIP/src/core/pbuf.c **** 
 638:Middlewares/Third_Party/LwIP/src/core/pbuf.c ****   LWIP_DEBUGF(PBUF_DEBUG | LWIP_DBG_TRACE, ("pbuf_header: old %p new %p (%"S16_F")\n",
 639:Middlewares/Third_Party/LwIP/src/core/pbuf.c ****     (void *)payload, (void *)p->payload, header_size_increment));
 640:Middlewares/Third_Party/LwIP/src/core/pbuf.c **** 
 641:Middlewares/Third_Party/LwIP/src/core/pbuf.c ****   return 0;
 642:Middlewares/Third_Party/LwIP/src/core/pbuf.c **** }
 643:Middlewares/Third_Party/LwIP/src/core/pbuf.c **** 
 644:Middlewares/Third_Party/LwIP/src/core/pbuf.c **** /**
 645:Middlewares/Third_Party/LwIP/src/core/pbuf.c ****  * Adjusts the payload pointer to hide or reveal headers in the payload.
 646:Middlewares/Third_Party/LwIP/src/core/pbuf.c ****  *
 647:Middlewares/Third_Party/LwIP/src/core/pbuf.c ****  * Adjusts the ->payload pointer so that space for a header
 648:Middlewares/Third_Party/LwIP/src/core/pbuf.c ****  * (dis)appears in the pbuf payload.
 649:Middlewares/Third_Party/LwIP/src/core/pbuf.c ****  *
 650:Middlewares/Third_Party/LwIP/src/core/pbuf.c ****  * The ->payload, ->tot_len and ->len fields are adjusted.
 651:Middlewares/Third_Party/LwIP/src/core/pbuf.c ****  *
 652:Middlewares/Third_Party/LwIP/src/core/pbuf.c ****  * @param p pbuf to change the header size.
 653:Middlewares/Third_Party/LwIP/src/core/pbuf.c ****  * @param header_size_increment Number of bytes to increment header size which
 654:Middlewares/Third_Party/LwIP/src/core/pbuf.c ****  * increases the size of the pbuf. New space is on the front.
 655:Middlewares/Third_Party/LwIP/src/core/pbuf.c ****  * (Using a negative value decreases the header size.)
 656:Middlewares/Third_Party/LwIP/src/core/pbuf.c ****  * If hdr_size_inc is 0, this function does nothing and returns successful.
 657:Middlewares/Third_Party/LwIP/src/core/pbuf.c ****  *
 658:Middlewares/Third_Party/LwIP/src/core/pbuf.c ****  * PBUF_ROM and PBUF_REF type buffers cannot have their sizes increased, so
 659:Middlewares/Third_Party/LwIP/src/core/pbuf.c ****  * the call will fail. A check is made that the increase in header size does
 660:Middlewares/Third_Party/LwIP/src/core/pbuf.c ****  * not move the payload pointer in front of the start of the buffer.
 661:Middlewares/Third_Party/LwIP/src/core/pbuf.c ****  * @return non-zero on failure, zero on success.
 662:Middlewares/Third_Party/LwIP/src/core/pbuf.c ****  *
 663:Middlewares/Third_Party/LwIP/src/core/pbuf.c ****  */
 664:Middlewares/Third_Party/LwIP/src/core/pbuf.c **** u8_t
 665:Middlewares/Third_Party/LwIP/src/core/pbuf.c **** pbuf_header(struct pbuf *p, s16_t header_size_increment)
 666:Middlewares/Third_Party/LwIP/src/core/pbuf.c **** {
 667:Middlewares/Third_Party/LwIP/src/core/pbuf.c ****    return pbuf_header_impl(p, header_size_increment, 0);
 668:Middlewares/Third_Party/LwIP/src/core/pbuf.c **** }
 669:Middlewares/Third_Party/LwIP/src/core/pbuf.c **** 
 670:Middlewares/Third_Party/LwIP/src/core/pbuf.c **** /**
 671:Middlewares/Third_Party/LwIP/src/core/pbuf.c ****  * Same as pbuf_header but does not check if 'header_size > 0' is allowed.
 672:Middlewares/Third_Party/LwIP/src/core/pbuf.c ****  * This is used internally only, to allow PBUF_REF for RX.
 673:Middlewares/Third_Party/LwIP/src/core/pbuf.c ****  */
 674:Middlewares/Third_Party/LwIP/src/core/pbuf.c **** u8_t
 675:Middlewares/Third_Party/LwIP/src/core/pbuf.c **** pbuf_header_force(struct pbuf *p, s16_t header_size_increment)
 676:Middlewares/Third_Party/LwIP/src/core/pbuf.c **** {
 677:Middlewares/Third_Party/LwIP/src/core/pbuf.c ****    return pbuf_header_impl(p, header_size_increment, 1);
 678:Middlewares/Third_Party/LwIP/src/core/pbuf.c **** }
 679:Middlewares/Third_Party/LwIP/src/core/pbuf.c **** 
 680:Middlewares/Third_Party/LwIP/src/core/pbuf.c **** /**
 681:Middlewares/Third_Party/LwIP/src/core/pbuf.c ****  * @ingroup pbuf
 682:Middlewares/Third_Party/LwIP/src/core/pbuf.c ****  * Dereference a pbuf chain or queue and deallocate any no-longer-used
 683:Middlewares/Third_Party/LwIP/src/core/pbuf.c ****  * pbufs at the head of this chain or queue.
 684:Middlewares/Third_Party/LwIP/src/core/pbuf.c ****  *
 685:Middlewares/Third_Party/LwIP/src/core/pbuf.c ****  * Decrements the pbuf reference count. If it reaches zero, the pbuf is
ARM GAS  /tmp/ccvTpBVd.s 			page 14


 686:Middlewares/Third_Party/LwIP/src/core/pbuf.c ****  * deallocated.
 687:Middlewares/Third_Party/LwIP/src/core/pbuf.c ****  *
 688:Middlewares/Third_Party/LwIP/src/core/pbuf.c ****  * For a pbuf chain, this is repeated for each pbuf in the chain,
 689:Middlewares/Third_Party/LwIP/src/core/pbuf.c ****  * up to the first pbuf which has a non-zero reference count after
 690:Middlewares/Third_Party/LwIP/src/core/pbuf.c ****  * decrementing. So, when all reference counts are one, the whole
 691:Middlewares/Third_Party/LwIP/src/core/pbuf.c ****  * chain is free'd.
 692:Middlewares/Third_Party/LwIP/src/core/pbuf.c ****  *
 693:Middlewares/Third_Party/LwIP/src/core/pbuf.c ****  * @param p The pbuf (chain) to be dereferenced.
 694:Middlewares/Third_Party/LwIP/src/core/pbuf.c ****  *
 695:Middlewares/Third_Party/LwIP/src/core/pbuf.c ****  * @return the number of pbufs that were de-allocated
 696:Middlewares/Third_Party/LwIP/src/core/pbuf.c ****  * from the head of the chain.
 697:Middlewares/Third_Party/LwIP/src/core/pbuf.c ****  *
 698:Middlewares/Third_Party/LwIP/src/core/pbuf.c ****  * @note MUST NOT be called on a packet queue (Not verified to work yet).
 699:Middlewares/Third_Party/LwIP/src/core/pbuf.c ****  * @note the reference counter of a pbuf equals the number of pointers
 700:Middlewares/Third_Party/LwIP/src/core/pbuf.c ****  * that refer to the pbuf (or into the pbuf).
 701:Middlewares/Third_Party/LwIP/src/core/pbuf.c ****  *
 702:Middlewares/Third_Party/LwIP/src/core/pbuf.c ****  * @internal examples:
 703:Middlewares/Third_Party/LwIP/src/core/pbuf.c ****  *
 704:Middlewares/Third_Party/LwIP/src/core/pbuf.c ****  * Assuming existing chains a->b->c with the following reference
 705:Middlewares/Third_Party/LwIP/src/core/pbuf.c ****  * counts, calling pbuf_free(a) results in:
 706:Middlewares/Third_Party/LwIP/src/core/pbuf.c ****  *
 707:Middlewares/Third_Party/LwIP/src/core/pbuf.c ****  * 1->2->3 becomes ...1->3
 708:Middlewares/Third_Party/LwIP/src/core/pbuf.c ****  * 3->3->3 becomes 2->3->3
 709:Middlewares/Third_Party/LwIP/src/core/pbuf.c ****  * 1->1->2 becomes ......1
 710:Middlewares/Third_Party/LwIP/src/core/pbuf.c ****  * 2->1->1 becomes 1->1->1
 711:Middlewares/Third_Party/LwIP/src/core/pbuf.c ****  * 1->1->1 becomes .......
 712:Middlewares/Third_Party/LwIP/src/core/pbuf.c ****  *
 713:Middlewares/Third_Party/LwIP/src/core/pbuf.c ****  */
 714:Middlewares/Third_Party/LwIP/src/core/pbuf.c **** u8_t
 715:Middlewares/Third_Party/LwIP/src/core/pbuf.c **** pbuf_free(struct pbuf *p)
 716:Middlewares/Third_Party/LwIP/src/core/pbuf.c **** {
 717:Middlewares/Third_Party/LwIP/src/core/pbuf.c ****   u16_t type;
 718:Middlewares/Third_Party/LwIP/src/core/pbuf.c ****   struct pbuf *q;
 719:Middlewares/Third_Party/LwIP/src/core/pbuf.c ****   u8_t count;
 720:Middlewares/Third_Party/LwIP/src/core/pbuf.c **** 
 721:Middlewares/Third_Party/LwIP/src/core/pbuf.c ****   if (p == NULL) {
 722:Middlewares/Third_Party/LwIP/src/core/pbuf.c ****     LWIP_ASSERT("p != NULL", p != NULL);
 723:Middlewares/Third_Party/LwIP/src/core/pbuf.c ****     /* if assertions are disabled, proceed with debug output */
 724:Middlewares/Third_Party/LwIP/src/core/pbuf.c ****     LWIP_DEBUGF(PBUF_DEBUG | LWIP_DBG_LEVEL_SERIOUS,
 725:Middlewares/Third_Party/LwIP/src/core/pbuf.c ****       ("pbuf_free(p == NULL) was called.\n"));
 726:Middlewares/Third_Party/LwIP/src/core/pbuf.c ****     return 0;
 727:Middlewares/Third_Party/LwIP/src/core/pbuf.c ****   }
 728:Middlewares/Third_Party/LwIP/src/core/pbuf.c ****   LWIP_DEBUGF(PBUF_DEBUG | LWIP_DBG_TRACE, ("pbuf_free(%p)\n", (void *)p));
 729:Middlewares/Third_Party/LwIP/src/core/pbuf.c **** 
 730:Middlewares/Third_Party/LwIP/src/core/pbuf.c ****   PERF_START;
 731:Middlewares/Third_Party/LwIP/src/core/pbuf.c **** 
 732:Middlewares/Third_Party/LwIP/src/core/pbuf.c ****   LWIP_ASSERT("pbuf_free: sane type",
 733:Middlewares/Third_Party/LwIP/src/core/pbuf.c ****     p->type == PBUF_RAM || p->type == PBUF_ROM ||
 734:Middlewares/Third_Party/LwIP/src/core/pbuf.c ****     p->type == PBUF_REF || p->type == PBUF_POOL);
 735:Middlewares/Third_Party/LwIP/src/core/pbuf.c **** 
 736:Middlewares/Third_Party/LwIP/src/core/pbuf.c ****   count = 0;
 737:Middlewares/Third_Party/LwIP/src/core/pbuf.c ****   /* de-allocate all consecutive pbufs from the head of the chain that
 738:Middlewares/Third_Party/LwIP/src/core/pbuf.c ****    * obtain a zero reference count after decrementing*/
 739:Middlewares/Third_Party/LwIP/src/core/pbuf.c ****   while (p != NULL) {
 740:Middlewares/Third_Party/LwIP/src/core/pbuf.c ****     u16_t ref;
 741:Middlewares/Third_Party/LwIP/src/core/pbuf.c ****     SYS_ARCH_DECL_PROTECT(old_level);
 742:Middlewares/Third_Party/LwIP/src/core/pbuf.c ****     /* Since decrementing ref cannot be guaranteed to be a single machine operation
ARM GAS  /tmp/ccvTpBVd.s 			page 15


 743:Middlewares/Third_Party/LwIP/src/core/pbuf.c ****      * we must protect it. We put the new ref into a local variable to prevent
 744:Middlewares/Third_Party/LwIP/src/core/pbuf.c ****      * further protection. */
 745:Middlewares/Third_Party/LwIP/src/core/pbuf.c ****     SYS_ARCH_PROTECT(old_level);
 746:Middlewares/Third_Party/LwIP/src/core/pbuf.c ****     /* all pbufs in a chain are referenced at least once */
 747:Middlewares/Third_Party/LwIP/src/core/pbuf.c ****     LWIP_ASSERT("pbuf_free: p->ref > 0", p->ref > 0);
 748:Middlewares/Third_Party/LwIP/src/core/pbuf.c ****     /* decrease reference count (number of pointers to pbuf) */
 749:Middlewares/Third_Party/LwIP/src/core/pbuf.c ****     ref = --(p->ref);
 750:Middlewares/Third_Party/LwIP/src/core/pbuf.c ****     SYS_ARCH_UNPROTECT(old_level);
 751:Middlewares/Third_Party/LwIP/src/core/pbuf.c ****     /* this pbuf is no longer referenced to? */
 752:Middlewares/Third_Party/LwIP/src/core/pbuf.c ****     if (ref == 0) {
 753:Middlewares/Third_Party/LwIP/src/core/pbuf.c ****       /* remember next pbuf in chain for next iteration */
 754:Middlewares/Third_Party/LwIP/src/core/pbuf.c ****       q = p->next;
 755:Middlewares/Third_Party/LwIP/src/core/pbuf.c ****       LWIP_DEBUGF( PBUF_DEBUG | LWIP_DBG_TRACE, ("pbuf_free: deallocating %p\n", (void *)p));
 756:Middlewares/Third_Party/LwIP/src/core/pbuf.c ****       type = p->type;
 757:Middlewares/Third_Party/LwIP/src/core/pbuf.c **** #if LWIP_SUPPORT_CUSTOM_PBUF
 758:Middlewares/Third_Party/LwIP/src/core/pbuf.c ****       /* is this a custom pbuf? */
 759:Middlewares/Third_Party/LwIP/src/core/pbuf.c ****       if ((p->flags & PBUF_FLAG_IS_CUSTOM) != 0) {
 760:Middlewares/Third_Party/LwIP/src/core/pbuf.c ****         struct pbuf_custom *pc = (struct pbuf_custom*)p;
 761:Middlewares/Third_Party/LwIP/src/core/pbuf.c ****         LWIP_ASSERT("pc->custom_free_function != NULL", pc->custom_free_function != NULL);
 762:Middlewares/Third_Party/LwIP/src/core/pbuf.c ****         pc->custom_free_function(p);
 763:Middlewares/Third_Party/LwIP/src/core/pbuf.c ****       } else
 764:Middlewares/Third_Party/LwIP/src/core/pbuf.c **** #endif /* LWIP_SUPPORT_CUSTOM_PBUF */
 765:Middlewares/Third_Party/LwIP/src/core/pbuf.c ****       {
 766:Middlewares/Third_Party/LwIP/src/core/pbuf.c ****         /* is this a pbuf from the pool? */
 767:Middlewares/Third_Party/LwIP/src/core/pbuf.c ****         if (type == PBUF_POOL) {
 768:Middlewares/Third_Party/LwIP/src/core/pbuf.c ****           memp_free(MEMP_PBUF_POOL, p);
 769:Middlewares/Third_Party/LwIP/src/core/pbuf.c ****         /* is this a ROM or RAM referencing pbuf? */
 770:Middlewares/Third_Party/LwIP/src/core/pbuf.c ****         } else if (type == PBUF_ROM || type == PBUF_REF) {
 771:Middlewares/Third_Party/LwIP/src/core/pbuf.c ****           memp_free(MEMP_PBUF, p);
 772:Middlewares/Third_Party/LwIP/src/core/pbuf.c ****         /* type == PBUF_RAM */
 773:Middlewares/Third_Party/LwIP/src/core/pbuf.c ****         } else {
 774:Middlewares/Third_Party/LwIP/src/core/pbuf.c ****           mem_free(p);
 775:Middlewares/Third_Party/LwIP/src/core/pbuf.c ****         }
 776:Middlewares/Third_Party/LwIP/src/core/pbuf.c ****       }
 777:Middlewares/Third_Party/LwIP/src/core/pbuf.c ****       count++;
 778:Middlewares/Third_Party/LwIP/src/core/pbuf.c ****       /* proceed to next pbuf */
 779:Middlewares/Third_Party/LwIP/src/core/pbuf.c ****       p = q;
 780:Middlewares/Third_Party/LwIP/src/core/pbuf.c ****     /* p->ref > 0, this pbuf is still referenced to */
 781:Middlewares/Third_Party/LwIP/src/core/pbuf.c ****     /* (and so the remaining pbufs in chain as well) */
 782:Middlewares/Third_Party/LwIP/src/core/pbuf.c ****     } else {
 783:Middlewares/Third_Party/LwIP/src/core/pbuf.c ****       LWIP_DEBUGF( PBUF_DEBUG | LWIP_DBG_TRACE, ("pbuf_free: %p has ref %"U16_F", ending here.\n", 
 784:Middlewares/Third_Party/LwIP/src/core/pbuf.c ****       /* stop walking through the chain */
 785:Middlewares/Third_Party/LwIP/src/core/pbuf.c ****       p = NULL;
 786:Middlewares/Third_Party/LwIP/src/core/pbuf.c ****     }
 787:Middlewares/Third_Party/LwIP/src/core/pbuf.c ****   }
 788:Middlewares/Third_Party/LwIP/src/core/pbuf.c ****   PERF_STOP("pbuf_free");
 789:Middlewares/Third_Party/LwIP/src/core/pbuf.c ****   /* return number of de-allocated pbufs */
 790:Middlewares/Third_Party/LwIP/src/core/pbuf.c ****   return count;
 791:Middlewares/Third_Party/LwIP/src/core/pbuf.c **** }
 792:Middlewares/Third_Party/LwIP/src/core/pbuf.c **** 
 793:Middlewares/Third_Party/LwIP/src/core/pbuf.c **** /**
 794:Middlewares/Third_Party/LwIP/src/core/pbuf.c ****  * Count number of pbufs in a chain
 795:Middlewares/Third_Party/LwIP/src/core/pbuf.c ****  *
 796:Middlewares/Third_Party/LwIP/src/core/pbuf.c ****  * @param p first pbuf of chain
 797:Middlewares/Third_Party/LwIP/src/core/pbuf.c ****  * @return the number of pbufs in a chain
 798:Middlewares/Third_Party/LwIP/src/core/pbuf.c ****  */
 799:Middlewares/Third_Party/LwIP/src/core/pbuf.c **** u16_t
ARM GAS  /tmp/ccvTpBVd.s 			page 16


 800:Middlewares/Third_Party/LwIP/src/core/pbuf.c **** pbuf_clen(const struct pbuf *p)
 801:Middlewares/Third_Party/LwIP/src/core/pbuf.c **** {
 802:Middlewares/Third_Party/LwIP/src/core/pbuf.c ****   u16_t len;
 803:Middlewares/Third_Party/LwIP/src/core/pbuf.c **** 
 804:Middlewares/Third_Party/LwIP/src/core/pbuf.c ****   len = 0;
 805:Middlewares/Third_Party/LwIP/src/core/pbuf.c ****   while (p != NULL) {
 806:Middlewares/Third_Party/LwIP/src/core/pbuf.c ****     ++len;
 807:Middlewares/Third_Party/LwIP/src/core/pbuf.c ****     p = p->next;
 808:Middlewares/Third_Party/LwIP/src/core/pbuf.c ****   }
 809:Middlewares/Third_Party/LwIP/src/core/pbuf.c ****   return len;
 810:Middlewares/Third_Party/LwIP/src/core/pbuf.c **** }
 811:Middlewares/Third_Party/LwIP/src/core/pbuf.c **** 
 812:Middlewares/Third_Party/LwIP/src/core/pbuf.c **** /**
 813:Middlewares/Third_Party/LwIP/src/core/pbuf.c ****  * @ingroup pbuf
 814:Middlewares/Third_Party/LwIP/src/core/pbuf.c ****  * Increment the reference count of the pbuf.
 815:Middlewares/Third_Party/LwIP/src/core/pbuf.c ****  *
 816:Middlewares/Third_Party/LwIP/src/core/pbuf.c ****  * @param p pbuf to increase reference counter of
 817:Middlewares/Third_Party/LwIP/src/core/pbuf.c ****  *
 818:Middlewares/Third_Party/LwIP/src/core/pbuf.c ****  */
 819:Middlewares/Third_Party/LwIP/src/core/pbuf.c **** void
 820:Middlewares/Third_Party/LwIP/src/core/pbuf.c **** pbuf_ref(struct pbuf *p)
 821:Middlewares/Third_Party/LwIP/src/core/pbuf.c **** {
 822:Middlewares/Third_Party/LwIP/src/core/pbuf.c ****   /* pbuf given? */
 823:Middlewares/Third_Party/LwIP/src/core/pbuf.c ****   if (p != NULL) {
 824:Middlewares/Third_Party/LwIP/src/core/pbuf.c ****     SYS_ARCH_INC(p->ref, 1);
 825:Middlewares/Third_Party/LwIP/src/core/pbuf.c ****     LWIP_ASSERT("pbuf ref overflow", p->ref > 0);
 826:Middlewares/Third_Party/LwIP/src/core/pbuf.c ****   }
 827:Middlewares/Third_Party/LwIP/src/core/pbuf.c **** }
 828:Middlewares/Third_Party/LwIP/src/core/pbuf.c **** 
 829:Middlewares/Third_Party/LwIP/src/core/pbuf.c **** /**
 830:Middlewares/Third_Party/LwIP/src/core/pbuf.c ****  * @ingroup pbuf
 831:Middlewares/Third_Party/LwIP/src/core/pbuf.c ****  * Concatenate two pbufs (each may be a pbuf chain) and take over
 832:Middlewares/Third_Party/LwIP/src/core/pbuf.c ****  * the caller's reference of the tail pbuf.
 833:Middlewares/Third_Party/LwIP/src/core/pbuf.c ****  *
 834:Middlewares/Third_Party/LwIP/src/core/pbuf.c ****  * @note The caller MAY NOT reference the tail pbuf afterwards.
 835:Middlewares/Third_Party/LwIP/src/core/pbuf.c ****  * Use pbuf_chain() for that purpose.
 836:Middlewares/Third_Party/LwIP/src/core/pbuf.c ****  *
 837:Middlewares/Third_Party/LwIP/src/core/pbuf.c ****  * @see pbuf_chain()
 838:Middlewares/Third_Party/LwIP/src/core/pbuf.c ****  */
 839:Middlewares/Third_Party/LwIP/src/core/pbuf.c **** void
 840:Middlewares/Third_Party/LwIP/src/core/pbuf.c **** pbuf_cat(struct pbuf *h, struct pbuf *t)
 841:Middlewares/Third_Party/LwIP/src/core/pbuf.c **** {
 842:Middlewares/Third_Party/LwIP/src/core/pbuf.c ****   struct pbuf *p;
 843:Middlewares/Third_Party/LwIP/src/core/pbuf.c **** 
 844:Middlewares/Third_Party/LwIP/src/core/pbuf.c ****   LWIP_ERROR("(h != NULL) && (t != NULL) (programmer violates API)",
 845:Middlewares/Third_Party/LwIP/src/core/pbuf.c ****              ((h != NULL) && (t != NULL)), return;);
 846:Middlewares/Third_Party/LwIP/src/core/pbuf.c **** 
 847:Middlewares/Third_Party/LwIP/src/core/pbuf.c ****   /* proceed to last pbuf of chain */
 848:Middlewares/Third_Party/LwIP/src/core/pbuf.c ****   for (p = h; p->next != NULL; p = p->next) {
 849:Middlewares/Third_Party/LwIP/src/core/pbuf.c ****     /* add total length of second chain to all totals of first chain */
 850:Middlewares/Third_Party/LwIP/src/core/pbuf.c ****     p->tot_len += t->tot_len;
 851:Middlewares/Third_Party/LwIP/src/core/pbuf.c ****   }
 852:Middlewares/Third_Party/LwIP/src/core/pbuf.c ****   /* { p is last pbuf of first h chain, p->next == NULL } */
 853:Middlewares/Third_Party/LwIP/src/core/pbuf.c ****   LWIP_ASSERT("p->tot_len == p->len (of last pbuf in chain)", p->tot_len == p->len);
 854:Middlewares/Third_Party/LwIP/src/core/pbuf.c ****   LWIP_ASSERT("p->next == NULL", p->next == NULL);
 855:Middlewares/Third_Party/LwIP/src/core/pbuf.c ****   /* add total length of second chain to last pbuf total of first chain */
 856:Middlewares/Third_Party/LwIP/src/core/pbuf.c ****   p->tot_len += t->tot_len;
ARM GAS  /tmp/ccvTpBVd.s 			page 17


 857:Middlewares/Third_Party/LwIP/src/core/pbuf.c ****   /* chain last pbuf of head (p) with first of tail (t) */
 858:Middlewares/Third_Party/LwIP/src/core/pbuf.c ****   p->next = t;
 859:Middlewares/Third_Party/LwIP/src/core/pbuf.c ****   /* p->next now references t, but the caller will drop its reference to t,
 860:Middlewares/Third_Party/LwIP/src/core/pbuf.c ****    * so netto there is no change to the reference count of t.
 861:Middlewares/Third_Party/LwIP/src/core/pbuf.c ****    */
 862:Middlewares/Third_Party/LwIP/src/core/pbuf.c **** }
 863:Middlewares/Third_Party/LwIP/src/core/pbuf.c **** 
 864:Middlewares/Third_Party/LwIP/src/core/pbuf.c **** /**
 865:Middlewares/Third_Party/LwIP/src/core/pbuf.c ****  * @ingroup pbuf
 866:Middlewares/Third_Party/LwIP/src/core/pbuf.c ****  * Chain two pbufs (or pbuf chains) together.
 867:Middlewares/Third_Party/LwIP/src/core/pbuf.c ****  *
 868:Middlewares/Third_Party/LwIP/src/core/pbuf.c ****  * The caller MUST call pbuf_free(t) once it has stopped
 869:Middlewares/Third_Party/LwIP/src/core/pbuf.c ****  * using it. Use pbuf_cat() instead if you no longer use t.
 870:Middlewares/Third_Party/LwIP/src/core/pbuf.c ****  *
 871:Middlewares/Third_Party/LwIP/src/core/pbuf.c ****  * @param h head pbuf (chain)
 872:Middlewares/Third_Party/LwIP/src/core/pbuf.c ****  * @param t tail pbuf (chain)
 873:Middlewares/Third_Party/LwIP/src/core/pbuf.c ****  * @note The pbufs MUST belong to the same packet.
 874:Middlewares/Third_Party/LwIP/src/core/pbuf.c ****  * @note MAY NOT be called on a packet queue.
 875:Middlewares/Third_Party/LwIP/src/core/pbuf.c ****  *
 876:Middlewares/Third_Party/LwIP/src/core/pbuf.c ****  * The ->tot_len fields of all pbufs of the head chain are adjusted.
 877:Middlewares/Third_Party/LwIP/src/core/pbuf.c ****  * The ->next field of the last pbuf of the head chain is adjusted.
 878:Middlewares/Third_Party/LwIP/src/core/pbuf.c ****  * The ->ref field of the first pbuf of the tail chain is adjusted.
 879:Middlewares/Third_Party/LwIP/src/core/pbuf.c ****  *
 880:Middlewares/Third_Party/LwIP/src/core/pbuf.c ****  */
 881:Middlewares/Third_Party/LwIP/src/core/pbuf.c **** void
 882:Middlewares/Third_Party/LwIP/src/core/pbuf.c **** pbuf_chain(struct pbuf *h, struct pbuf *t)
 883:Middlewares/Third_Party/LwIP/src/core/pbuf.c **** {
 884:Middlewares/Third_Party/LwIP/src/core/pbuf.c ****   pbuf_cat(h, t);
 885:Middlewares/Third_Party/LwIP/src/core/pbuf.c ****   /* t is now referenced by h */
 886:Middlewares/Third_Party/LwIP/src/core/pbuf.c ****   pbuf_ref(t);
 887:Middlewares/Third_Party/LwIP/src/core/pbuf.c ****   LWIP_DEBUGF(PBUF_DEBUG | LWIP_DBG_TRACE, ("pbuf_chain: %p references %p\n", (void *)h, (void *)t)
 888:Middlewares/Third_Party/LwIP/src/core/pbuf.c **** }
 889:Middlewares/Third_Party/LwIP/src/core/pbuf.c **** 
 890:Middlewares/Third_Party/LwIP/src/core/pbuf.c **** /**
 891:Middlewares/Third_Party/LwIP/src/core/pbuf.c ****  * Dechains the first pbuf from its succeeding pbufs in the chain.
 892:Middlewares/Third_Party/LwIP/src/core/pbuf.c ****  *
 893:Middlewares/Third_Party/LwIP/src/core/pbuf.c ****  * Makes p->tot_len field equal to p->len.
 894:Middlewares/Third_Party/LwIP/src/core/pbuf.c ****  * @param p pbuf to dechain
 895:Middlewares/Third_Party/LwIP/src/core/pbuf.c ****  * @return remainder of the pbuf chain, or NULL if it was de-allocated.
 896:Middlewares/Third_Party/LwIP/src/core/pbuf.c ****  * @note May not be called on a packet queue.
 897:Middlewares/Third_Party/LwIP/src/core/pbuf.c ****  */
 898:Middlewares/Third_Party/LwIP/src/core/pbuf.c **** struct pbuf *
 899:Middlewares/Third_Party/LwIP/src/core/pbuf.c **** pbuf_dechain(struct pbuf *p)
 900:Middlewares/Third_Party/LwIP/src/core/pbuf.c **** {
 901:Middlewares/Third_Party/LwIP/src/core/pbuf.c ****   struct pbuf *q;
 902:Middlewares/Third_Party/LwIP/src/core/pbuf.c ****   u8_t tail_gone = 1;
 903:Middlewares/Third_Party/LwIP/src/core/pbuf.c ****   /* tail */
 904:Middlewares/Third_Party/LwIP/src/core/pbuf.c ****   q = p->next;
 905:Middlewares/Third_Party/LwIP/src/core/pbuf.c ****   /* pbuf has successor in chain? */
 906:Middlewares/Third_Party/LwIP/src/core/pbuf.c ****   if (q != NULL) {
 907:Middlewares/Third_Party/LwIP/src/core/pbuf.c ****     /* assert tot_len invariant: (p->tot_len == p->len + (p->next? p->next->tot_len: 0) */
 908:Middlewares/Third_Party/LwIP/src/core/pbuf.c ****     LWIP_ASSERT("p->tot_len == p->len + q->tot_len", q->tot_len == p->tot_len - p->len);
 909:Middlewares/Third_Party/LwIP/src/core/pbuf.c ****     /* enforce invariant if assertion is disabled */
 910:Middlewares/Third_Party/LwIP/src/core/pbuf.c ****     q->tot_len = p->tot_len - p->len;
 911:Middlewares/Third_Party/LwIP/src/core/pbuf.c ****     /* decouple pbuf from remainder */
 912:Middlewares/Third_Party/LwIP/src/core/pbuf.c ****     p->next = NULL;
 913:Middlewares/Third_Party/LwIP/src/core/pbuf.c ****     /* total length of pbuf p is its own length only */
ARM GAS  /tmp/ccvTpBVd.s 			page 18


 914:Middlewares/Third_Party/LwIP/src/core/pbuf.c ****     p->tot_len = p->len;
 915:Middlewares/Third_Party/LwIP/src/core/pbuf.c ****     /* q is no longer referenced by p, free it */
 916:Middlewares/Third_Party/LwIP/src/core/pbuf.c ****     LWIP_DEBUGF(PBUF_DEBUG | LWIP_DBG_TRACE, ("pbuf_dechain: unreferencing %p\n", (void *)q));
 917:Middlewares/Third_Party/LwIP/src/core/pbuf.c ****     tail_gone = pbuf_free(q);
 918:Middlewares/Third_Party/LwIP/src/core/pbuf.c ****     if (tail_gone > 0) {
 919:Middlewares/Third_Party/LwIP/src/core/pbuf.c ****       LWIP_DEBUGF(PBUF_DEBUG | LWIP_DBG_TRACE,
 920:Middlewares/Third_Party/LwIP/src/core/pbuf.c ****                   ("pbuf_dechain: deallocated %p (as it is no longer referenced)\n", (void *)q));
 921:Middlewares/Third_Party/LwIP/src/core/pbuf.c ****     }
 922:Middlewares/Third_Party/LwIP/src/core/pbuf.c ****     /* return remaining tail or NULL if deallocated */
 923:Middlewares/Third_Party/LwIP/src/core/pbuf.c ****   }
 924:Middlewares/Third_Party/LwIP/src/core/pbuf.c ****   /* assert tot_len invariant: (p->tot_len == p->len + (p->next? p->next->tot_len: 0) */
 925:Middlewares/Third_Party/LwIP/src/core/pbuf.c ****   LWIP_ASSERT("p->tot_len == p->len", p->tot_len == p->len);
 926:Middlewares/Third_Party/LwIP/src/core/pbuf.c ****   return ((tail_gone > 0) ? NULL : q);
 927:Middlewares/Third_Party/LwIP/src/core/pbuf.c **** }
 928:Middlewares/Third_Party/LwIP/src/core/pbuf.c **** 
 929:Middlewares/Third_Party/LwIP/src/core/pbuf.c **** /**
 930:Middlewares/Third_Party/LwIP/src/core/pbuf.c ****  * @ingroup pbuf
 931:Middlewares/Third_Party/LwIP/src/core/pbuf.c ****  * Create PBUF_RAM copies of pbufs.
 932:Middlewares/Third_Party/LwIP/src/core/pbuf.c ****  *
 933:Middlewares/Third_Party/LwIP/src/core/pbuf.c ****  * Used to queue packets on behalf of the lwIP stack, such as
 934:Middlewares/Third_Party/LwIP/src/core/pbuf.c ****  * ARP based queueing.
 935:Middlewares/Third_Party/LwIP/src/core/pbuf.c ****  *
 936:Middlewares/Third_Party/LwIP/src/core/pbuf.c ****  * @note You MUST explicitly use p = pbuf_take(p);
 937:Middlewares/Third_Party/LwIP/src/core/pbuf.c ****  *
 938:Middlewares/Third_Party/LwIP/src/core/pbuf.c ****  * @note Only one packet is copied, no packet queue!
 939:Middlewares/Third_Party/LwIP/src/core/pbuf.c ****  *
 940:Middlewares/Third_Party/LwIP/src/core/pbuf.c ****  * @param p_to pbuf destination of the copy
 941:Middlewares/Third_Party/LwIP/src/core/pbuf.c ****  * @param p_from pbuf source of the copy
 942:Middlewares/Third_Party/LwIP/src/core/pbuf.c ****  *
 943:Middlewares/Third_Party/LwIP/src/core/pbuf.c ****  * @return ERR_OK if pbuf was copied
 944:Middlewares/Third_Party/LwIP/src/core/pbuf.c ****  *         ERR_ARG if one of the pbufs is NULL or p_to is not big
 945:Middlewares/Third_Party/LwIP/src/core/pbuf.c ****  *                 enough to hold p_from
 946:Middlewares/Third_Party/LwIP/src/core/pbuf.c ****  */
 947:Middlewares/Third_Party/LwIP/src/core/pbuf.c **** err_t
 948:Middlewares/Third_Party/LwIP/src/core/pbuf.c **** pbuf_copy(struct pbuf *p_to, const struct pbuf *p_from)
 949:Middlewares/Third_Party/LwIP/src/core/pbuf.c **** {
 950:Middlewares/Third_Party/LwIP/src/core/pbuf.c ****   u16_t offset_to=0, offset_from=0, len;
 951:Middlewares/Third_Party/LwIP/src/core/pbuf.c **** 
 952:Middlewares/Third_Party/LwIP/src/core/pbuf.c ****   LWIP_DEBUGF(PBUF_DEBUG | LWIP_DBG_TRACE, ("pbuf_copy(%p, %p)\n",
 953:Middlewares/Third_Party/LwIP/src/core/pbuf.c ****     (const void*)p_to, (const void*)p_from));
 954:Middlewares/Third_Party/LwIP/src/core/pbuf.c **** 
 955:Middlewares/Third_Party/LwIP/src/core/pbuf.c ****   /* is the target big enough to hold the source? */
 956:Middlewares/Third_Party/LwIP/src/core/pbuf.c ****   LWIP_ERROR("pbuf_copy: target not big enough to hold source", ((p_to != NULL) &&
 957:Middlewares/Third_Party/LwIP/src/core/pbuf.c ****              (p_from != NULL) && (p_to->tot_len >= p_from->tot_len)), return ERR_ARG;);
 958:Middlewares/Third_Party/LwIP/src/core/pbuf.c **** 
 959:Middlewares/Third_Party/LwIP/src/core/pbuf.c ****   /* iterate through pbuf chain */
 960:Middlewares/Third_Party/LwIP/src/core/pbuf.c ****   do
 961:Middlewares/Third_Party/LwIP/src/core/pbuf.c ****   {
 962:Middlewares/Third_Party/LwIP/src/core/pbuf.c ****     /* copy one part of the original chain */
 963:Middlewares/Third_Party/LwIP/src/core/pbuf.c ****     if ((p_to->len - offset_to) >= (p_from->len - offset_from)) {
 964:Middlewares/Third_Party/LwIP/src/core/pbuf.c ****       /* complete current p_from fits into current p_to */
 965:Middlewares/Third_Party/LwIP/src/core/pbuf.c ****       len = p_from->len - offset_from;
 966:Middlewares/Third_Party/LwIP/src/core/pbuf.c ****     } else {
 967:Middlewares/Third_Party/LwIP/src/core/pbuf.c ****       /* current p_from does not fit into current p_to */
 968:Middlewares/Third_Party/LwIP/src/core/pbuf.c ****       len = p_to->len - offset_to;
 969:Middlewares/Third_Party/LwIP/src/core/pbuf.c ****     }
 970:Middlewares/Third_Party/LwIP/src/core/pbuf.c ****     MEMCPY((u8_t*)p_to->payload + offset_to, (u8_t*)p_from->payload + offset_from, len);
ARM GAS  /tmp/ccvTpBVd.s 			page 19


 971:Middlewares/Third_Party/LwIP/src/core/pbuf.c ****     offset_to += len;
 972:Middlewares/Third_Party/LwIP/src/core/pbuf.c ****     offset_from += len;
 973:Middlewares/Third_Party/LwIP/src/core/pbuf.c ****     LWIP_ASSERT("offset_to <= p_to->len", offset_to <= p_to->len);
 974:Middlewares/Third_Party/LwIP/src/core/pbuf.c ****     LWIP_ASSERT("offset_from <= p_from->len", offset_from <= p_from->len);
 975:Middlewares/Third_Party/LwIP/src/core/pbuf.c ****     if (offset_from >= p_from->len) {
 976:Middlewares/Third_Party/LwIP/src/core/pbuf.c ****       /* on to next p_from (if any) */
 977:Middlewares/Third_Party/LwIP/src/core/pbuf.c ****       offset_from = 0;
 978:Middlewares/Third_Party/LwIP/src/core/pbuf.c ****       p_from = p_from->next;
 979:Middlewares/Third_Party/LwIP/src/core/pbuf.c ****     }
 980:Middlewares/Third_Party/LwIP/src/core/pbuf.c ****     if (offset_to == p_to->len) {
 981:Middlewares/Third_Party/LwIP/src/core/pbuf.c ****       /* on to next p_to (if any) */
 982:Middlewares/Third_Party/LwIP/src/core/pbuf.c ****       offset_to = 0;
 983:Middlewares/Third_Party/LwIP/src/core/pbuf.c ****       p_to = p_to->next;
 984:Middlewares/Third_Party/LwIP/src/core/pbuf.c ****       LWIP_ERROR("p_to != NULL", (p_to != NULL) || (p_from == NULL) , return ERR_ARG;);
 985:Middlewares/Third_Party/LwIP/src/core/pbuf.c ****     }
 986:Middlewares/Third_Party/LwIP/src/core/pbuf.c **** 
 987:Middlewares/Third_Party/LwIP/src/core/pbuf.c ****     if ((p_from != NULL) && (p_from->len == p_from->tot_len)) {
 988:Middlewares/Third_Party/LwIP/src/core/pbuf.c ****       /* don't copy more than one packet! */
 989:Middlewares/Third_Party/LwIP/src/core/pbuf.c ****       LWIP_ERROR("pbuf_copy() does not allow packet queues!",
 990:Middlewares/Third_Party/LwIP/src/core/pbuf.c ****                  (p_from->next == NULL), return ERR_VAL;);
 991:Middlewares/Third_Party/LwIP/src/core/pbuf.c ****     }
 992:Middlewares/Third_Party/LwIP/src/core/pbuf.c ****     if ((p_to != NULL) && (p_to->len == p_to->tot_len)) {
 993:Middlewares/Third_Party/LwIP/src/core/pbuf.c ****       /* don't copy more than one packet! */
 994:Middlewares/Third_Party/LwIP/src/core/pbuf.c ****       LWIP_ERROR("pbuf_copy() does not allow packet queues!",
 995:Middlewares/Third_Party/LwIP/src/core/pbuf.c ****                   (p_to->next == NULL), return ERR_VAL;);
 996:Middlewares/Third_Party/LwIP/src/core/pbuf.c ****     }
 997:Middlewares/Third_Party/LwIP/src/core/pbuf.c ****   } while (p_from);
 998:Middlewares/Third_Party/LwIP/src/core/pbuf.c ****   LWIP_DEBUGF(PBUF_DEBUG | LWIP_DBG_TRACE, ("pbuf_copy: end of chain reached.\n"));
 999:Middlewares/Third_Party/LwIP/src/core/pbuf.c ****   return ERR_OK;
1000:Middlewares/Third_Party/LwIP/src/core/pbuf.c **** }
1001:Middlewares/Third_Party/LwIP/src/core/pbuf.c **** 
1002:Middlewares/Third_Party/LwIP/src/core/pbuf.c **** /**
1003:Middlewares/Third_Party/LwIP/src/core/pbuf.c ****  * @ingroup pbuf
1004:Middlewares/Third_Party/LwIP/src/core/pbuf.c ****  * Copy (part of) the contents of a packet buffer
1005:Middlewares/Third_Party/LwIP/src/core/pbuf.c ****  * to an application supplied buffer.
1006:Middlewares/Third_Party/LwIP/src/core/pbuf.c ****  *
1007:Middlewares/Third_Party/LwIP/src/core/pbuf.c ****  * @param buf the pbuf from which to copy data
1008:Middlewares/Third_Party/LwIP/src/core/pbuf.c ****  * @param dataptr the application supplied buffer
1009:Middlewares/Third_Party/LwIP/src/core/pbuf.c ****  * @param len length of data to copy (dataptr must be big enough). No more
1010:Middlewares/Third_Party/LwIP/src/core/pbuf.c ****  * than buf->tot_len will be copied, irrespective of len
1011:Middlewares/Third_Party/LwIP/src/core/pbuf.c ****  * @param offset offset into the packet buffer from where to begin copying len bytes
1012:Middlewares/Third_Party/LwIP/src/core/pbuf.c ****  * @return the number of bytes copied, or 0 on failure
1013:Middlewares/Third_Party/LwIP/src/core/pbuf.c ****  */
1014:Middlewares/Third_Party/LwIP/src/core/pbuf.c **** u16_t
1015:Middlewares/Third_Party/LwIP/src/core/pbuf.c **** pbuf_copy_partial(const struct pbuf *buf, void *dataptr, u16_t len, u16_t offset)
1016:Middlewares/Third_Party/LwIP/src/core/pbuf.c **** {
1017:Middlewares/Third_Party/LwIP/src/core/pbuf.c ****   const struct pbuf *p;
1018:Middlewares/Third_Party/LwIP/src/core/pbuf.c ****   u16_t left;
1019:Middlewares/Third_Party/LwIP/src/core/pbuf.c ****   u16_t buf_copy_len;
1020:Middlewares/Third_Party/LwIP/src/core/pbuf.c ****   u16_t copied_total = 0;
1021:Middlewares/Third_Party/LwIP/src/core/pbuf.c **** 
1022:Middlewares/Third_Party/LwIP/src/core/pbuf.c ****   LWIP_ERROR("pbuf_copy_partial: invalid buf", (buf != NULL), return 0;);
1023:Middlewares/Third_Party/LwIP/src/core/pbuf.c ****   LWIP_ERROR("pbuf_copy_partial: invalid dataptr", (dataptr != NULL), return 0;);
1024:Middlewares/Third_Party/LwIP/src/core/pbuf.c **** 
1025:Middlewares/Third_Party/LwIP/src/core/pbuf.c ****   left = 0;
1026:Middlewares/Third_Party/LwIP/src/core/pbuf.c **** 
1027:Middlewares/Third_Party/LwIP/src/core/pbuf.c ****   if ((buf == NULL) || (dataptr == NULL)) {
ARM GAS  /tmp/ccvTpBVd.s 			page 20


1028:Middlewares/Third_Party/LwIP/src/core/pbuf.c ****     return 0;
1029:Middlewares/Third_Party/LwIP/src/core/pbuf.c ****   }
1030:Middlewares/Third_Party/LwIP/src/core/pbuf.c **** 
1031:Middlewares/Third_Party/LwIP/src/core/pbuf.c ****   /* Note some systems use byte copy if dataptr or one of the pbuf payload pointers are unaligned. 
1032:Middlewares/Third_Party/LwIP/src/core/pbuf.c ****   for (p = buf; len != 0 && p != NULL; p = p->next) {
1033:Middlewares/Third_Party/LwIP/src/core/pbuf.c ****     if ((offset != 0) && (offset >= p->len)) {
1034:Middlewares/Third_Party/LwIP/src/core/pbuf.c ****       /* don't copy from this buffer -> on to the next */
1035:Middlewares/Third_Party/LwIP/src/core/pbuf.c ****       offset -= p->len;
1036:Middlewares/Third_Party/LwIP/src/core/pbuf.c ****     } else {
1037:Middlewares/Third_Party/LwIP/src/core/pbuf.c ****       /* copy from this buffer. maybe only partially. */
1038:Middlewares/Third_Party/LwIP/src/core/pbuf.c ****       buf_copy_len = p->len - offset;
1039:Middlewares/Third_Party/LwIP/src/core/pbuf.c ****       if (buf_copy_len > len) {
1040:Middlewares/Third_Party/LwIP/src/core/pbuf.c ****         buf_copy_len = len;
1041:Middlewares/Third_Party/LwIP/src/core/pbuf.c ****       }
1042:Middlewares/Third_Party/LwIP/src/core/pbuf.c ****       /* copy the necessary parts of the buffer */
1043:Middlewares/Third_Party/LwIP/src/core/pbuf.c ****       MEMCPY(&((char*)dataptr)[left], &((char*)p->payload)[offset], buf_copy_len);
1044:Middlewares/Third_Party/LwIP/src/core/pbuf.c ****       copied_total += buf_copy_len;
1045:Middlewares/Third_Party/LwIP/src/core/pbuf.c ****       left += buf_copy_len;
1046:Middlewares/Third_Party/LwIP/src/core/pbuf.c ****       len -= buf_copy_len;
1047:Middlewares/Third_Party/LwIP/src/core/pbuf.c ****       offset = 0;
1048:Middlewares/Third_Party/LwIP/src/core/pbuf.c ****     }
1049:Middlewares/Third_Party/LwIP/src/core/pbuf.c ****   }
1050:Middlewares/Third_Party/LwIP/src/core/pbuf.c ****   return copied_total;
1051:Middlewares/Third_Party/LwIP/src/core/pbuf.c **** }
1052:Middlewares/Third_Party/LwIP/src/core/pbuf.c **** 
1053:Middlewares/Third_Party/LwIP/src/core/pbuf.c **** #if LWIP_TCP && TCP_QUEUE_OOSEQ && LWIP_WND_SCALE
1054:Middlewares/Third_Party/LwIP/src/core/pbuf.c **** /**
1055:Middlewares/Third_Party/LwIP/src/core/pbuf.c ****  * This method modifies a 'pbuf chain', so that its total length is
1056:Middlewares/Third_Party/LwIP/src/core/pbuf.c ****  * smaller than 64K. The remainder of the original pbuf chain is stored
1057:Middlewares/Third_Party/LwIP/src/core/pbuf.c ****  * in *rest.
1058:Middlewares/Third_Party/LwIP/src/core/pbuf.c ****  * This function never creates new pbufs, but splits an existing chain
1059:Middlewares/Third_Party/LwIP/src/core/pbuf.c ****  * in two parts. The tot_len of the modified packet queue will likely be
1060:Middlewares/Third_Party/LwIP/src/core/pbuf.c ****  * smaller than 64K.
1061:Middlewares/Third_Party/LwIP/src/core/pbuf.c ****  * 'packet queues' are not supported by this function.
1062:Middlewares/Third_Party/LwIP/src/core/pbuf.c ****  *
1063:Middlewares/Third_Party/LwIP/src/core/pbuf.c ****  * @param p the pbuf queue to be split
1064:Middlewares/Third_Party/LwIP/src/core/pbuf.c ****  * @param rest pointer to store the remainder (after the first 64K)
1065:Middlewares/Third_Party/LwIP/src/core/pbuf.c ****  */
1066:Middlewares/Third_Party/LwIP/src/core/pbuf.c **** void pbuf_split_64k(struct pbuf *p, struct pbuf **rest)
1067:Middlewares/Third_Party/LwIP/src/core/pbuf.c **** {
1068:Middlewares/Third_Party/LwIP/src/core/pbuf.c ****   *rest = NULL;
1069:Middlewares/Third_Party/LwIP/src/core/pbuf.c ****   if ((p != NULL) && (p->next != NULL)) {
1070:Middlewares/Third_Party/LwIP/src/core/pbuf.c ****     u16_t tot_len_front = p->len;
1071:Middlewares/Third_Party/LwIP/src/core/pbuf.c ****     struct pbuf *i = p;
1072:Middlewares/Third_Party/LwIP/src/core/pbuf.c ****     struct pbuf *r = p->next;
1073:Middlewares/Third_Party/LwIP/src/core/pbuf.c **** 
1074:Middlewares/Third_Party/LwIP/src/core/pbuf.c ****     /* continue until the total length (summed up as u16_t) overflows */
1075:Middlewares/Third_Party/LwIP/src/core/pbuf.c ****     while ((r != NULL) && ((u16_t)(tot_len_front + r->len) > tot_len_front)) {
1076:Middlewares/Third_Party/LwIP/src/core/pbuf.c ****       tot_len_front += r->len;
1077:Middlewares/Third_Party/LwIP/src/core/pbuf.c ****       i = r;
1078:Middlewares/Third_Party/LwIP/src/core/pbuf.c ****       r = r->next;
1079:Middlewares/Third_Party/LwIP/src/core/pbuf.c ****     }
1080:Middlewares/Third_Party/LwIP/src/core/pbuf.c ****     /* i now points to last packet of the first segment. Set next
1081:Middlewares/Third_Party/LwIP/src/core/pbuf.c ****        pointer to NULL */
1082:Middlewares/Third_Party/LwIP/src/core/pbuf.c ****     i->next = NULL;
1083:Middlewares/Third_Party/LwIP/src/core/pbuf.c **** 
1084:Middlewares/Third_Party/LwIP/src/core/pbuf.c ****     if (r != NULL) {
ARM GAS  /tmp/ccvTpBVd.s 			page 21


1085:Middlewares/Third_Party/LwIP/src/core/pbuf.c ****       /* Update the tot_len field in the first part */
1086:Middlewares/Third_Party/LwIP/src/core/pbuf.c ****       for (i = p; i != NULL; i = i->next) {
1087:Middlewares/Third_Party/LwIP/src/core/pbuf.c ****         i->tot_len -= r->tot_len;
1088:Middlewares/Third_Party/LwIP/src/core/pbuf.c ****         LWIP_ASSERT("tot_len/len mismatch in last pbuf",
1089:Middlewares/Third_Party/LwIP/src/core/pbuf.c ****                     (i->next != NULL) || (i->tot_len == i->len));
1090:Middlewares/Third_Party/LwIP/src/core/pbuf.c ****       }
1091:Middlewares/Third_Party/LwIP/src/core/pbuf.c ****       if (p->flags & PBUF_FLAG_TCP_FIN) {
1092:Middlewares/Third_Party/LwIP/src/core/pbuf.c ****         r->flags |= PBUF_FLAG_TCP_FIN;
1093:Middlewares/Third_Party/LwIP/src/core/pbuf.c ****       }
1094:Middlewares/Third_Party/LwIP/src/core/pbuf.c **** 
1095:Middlewares/Third_Party/LwIP/src/core/pbuf.c ****       /* tot_len field in rest does not need modifications */
1096:Middlewares/Third_Party/LwIP/src/core/pbuf.c ****       /* reference counters do not need modifications */
1097:Middlewares/Third_Party/LwIP/src/core/pbuf.c ****       *rest = r;
1098:Middlewares/Third_Party/LwIP/src/core/pbuf.c ****     }
1099:Middlewares/Third_Party/LwIP/src/core/pbuf.c ****   }
1100:Middlewares/Third_Party/LwIP/src/core/pbuf.c **** }
1101:Middlewares/Third_Party/LwIP/src/core/pbuf.c **** #endif /* LWIP_TCP && TCP_QUEUE_OOSEQ && LWIP_WND_SCALE */
1102:Middlewares/Third_Party/LwIP/src/core/pbuf.c **** 
1103:Middlewares/Third_Party/LwIP/src/core/pbuf.c **** /* Actual implementation of pbuf_skip() but returning const pointer... */
1104:Middlewares/Third_Party/LwIP/src/core/pbuf.c **** static const struct pbuf*
1105:Middlewares/Third_Party/LwIP/src/core/pbuf.c **** pbuf_skip_const(const struct pbuf* in, u16_t in_offset, u16_t* out_offset)
1106:Middlewares/Third_Party/LwIP/src/core/pbuf.c **** {
  60              		.loc 1 1106 1 is_stmt 1 view -0
  61              		.cfi_startproc
  62              		@ args = 0, pretend = 0, frame = 0
  63              		@ frame_needed = 0, uses_anonymous_args = 0
  64              		@ link register save eliminated.
1107:Middlewares/Third_Party/LwIP/src/core/pbuf.c ****   u16_t offset_left = in_offset;
  65              		.loc 1 1107 3 view .LVU8
1108:Middlewares/Third_Party/LwIP/src/core/pbuf.c ****   const struct pbuf* q = in;
  66              		.loc 1 1108 3 view .LVU9
1109:Middlewares/Third_Party/LwIP/src/core/pbuf.c **** 
1110:Middlewares/Third_Party/LwIP/src/core/pbuf.c ****   /* get the correct pbuf */
1111:Middlewares/Third_Party/LwIP/src/core/pbuf.c ****   while ((q != NULL) && (q->len <= offset_left)) {
  67              		.loc 1 1111 3 view .LVU10
  68              	.L5:
  69              		.loc 1 1111 9 is_stmt 0 view .LVU11
  70 0000 30B1     		cbz	r0, .L6
  71              		.loc 1 1111 27 discriminator 1 view .LVU12
  72 0002 4389     		ldrh	r3, [r0, #10]
  73              		.loc 1 1111 22 discriminator 1 view .LVU13
  74 0004 8B42     		cmp	r3, r1
  75 0006 03D8     		bhi	.L6
1112:Middlewares/Third_Party/LwIP/src/core/pbuf.c ****     offset_left -= q->len;
  76              		.loc 1 1112 5 is_stmt 1 view .LVU14
  77              		.loc 1 1112 17 is_stmt 0 view .LVU15
  78 0008 C91A     		subs	r1, r1, r3
  79              	.LVL1:
  80              		.loc 1 1112 17 view .LVU16
  81 000a 89B2     		uxth	r1, r1
  82              	.LVL2:
1113:Middlewares/Third_Party/LwIP/src/core/pbuf.c ****     q = q->next;
  83              		.loc 1 1113 5 is_stmt 1 view .LVU17
  84              		.loc 1 1113 7 is_stmt 0 view .LVU18
  85 000c 0068     		ldr	r0, [r0]
  86              	.LVL3:
  87              		.loc 1 1113 7 view .LVU19
ARM GAS  /tmp/ccvTpBVd.s 			page 22


  88 000e F7E7     		b	.L5
  89              	.L6:
1114:Middlewares/Third_Party/LwIP/src/core/pbuf.c ****   }
1115:Middlewares/Third_Party/LwIP/src/core/pbuf.c ****   if (out_offset != NULL) {
  90              		.loc 1 1115 3 is_stmt 1 view .LVU20
  91              		.loc 1 1115 6 is_stmt 0 view .LVU21
  92 0010 02B1     		cbz	r2, .L8
1116:Middlewares/Third_Party/LwIP/src/core/pbuf.c ****     *out_offset = offset_left;
  93              		.loc 1 1116 5 is_stmt 1 view .LVU22
  94              		.loc 1 1116 17 is_stmt 0 view .LVU23
  95 0012 1180     		strh	r1, [r2]	@ movhi
  96              	.L8:
1117:Middlewares/Third_Party/LwIP/src/core/pbuf.c ****   }
1118:Middlewares/Third_Party/LwIP/src/core/pbuf.c ****   return q;
  97              		.loc 1 1118 3 is_stmt 1 view .LVU24
1119:Middlewares/Third_Party/LwIP/src/core/pbuf.c **** }
  98              		.loc 1 1119 1 is_stmt 0 view .LVU25
  99 0014 7047     		bx	lr
 100              		.cfi_endproc
 101              	.LFE176:
 103              		.section	.text.pbuf_header_impl,"ax",%progbits
 104              		.align	1
 105              		.syntax unified
 106              		.thumb
 107              		.thumb_func
 108              		.fpu fpv5-sp-d16
 110              	pbuf_header_impl:
 111              	.LVL4:
 112              	.LFB165:
 570:Middlewares/Third_Party/LwIP/src/core/pbuf.c ****   u16_t type;
 113              		.loc 1 570 1 is_stmt 1 view -0
 114              		.cfi_startproc
 115              		@ args = 0, pretend = 0, frame = 0
 116              		@ frame_needed = 0, uses_anonymous_args = 0
 570:Middlewares/Third_Party/LwIP/src/core/pbuf.c ****   u16_t type;
 117              		.loc 1 570 1 is_stmt 0 view .LVU27
 118 0000 70B5     		push	{r4, r5, r6, lr}
 119              	.LCFI0:
 120              		.cfi_def_cfa_offset 16
 121              		.cfi_offset 4, -16
 122              		.cfi_offset 5, -12
 123              		.cfi_offset 6, -8
 124              		.cfi_offset 14, -4
 125 0002 0C46     		mov	r4, r1
 126 0004 1646     		mov	r6, r2
 571:Middlewares/Third_Party/LwIP/src/core/pbuf.c ****   void *payload;
 127              		.loc 1 571 3 is_stmt 1 view .LVU28
 572:Middlewares/Third_Party/LwIP/src/core/pbuf.c ****   u16_t increment_magnitude;
 128              		.loc 1 572 3 view .LVU29
 573:Middlewares/Third_Party/LwIP/src/core/pbuf.c **** 
 129              		.loc 1 573 3 view .LVU30
 575:Middlewares/Third_Party/LwIP/src/core/pbuf.c ****   if ((header_size_increment == 0) || (p == NULL)) {
 130              		.loc 1 575 3 view .LVU31
 575:Middlewares/Third_Party/LwIP/src/core/pbuf.c ****   if ((header_size_increment == 0) || (p == NULL)) {
 131              		.loc 1 575 3 view .LVU32
 132 0006 0546     		mov	r5, r0
 133 0008 18B3     		cbz	r0, .L21
ARM GAS  /tmp/ccvTpBVd.s 			page 23


 134              	.LVL5:
 135              	.L10:
 576:Middlewares/Third_Party/LwIP/src/core/pbuf.c ****     return 0;
 136              		.loc 1 576 3 view .LVU33
 576:Middlewares/Third_Party/LwIP/src/core/pbuf.c ****     return 0;
 137              		.loc 1 576 42 is_stmt 0 view .LVU34
 138 000a B5FA85F3 		clz	r3, r5
 139 000e 5B09     		lsrs	r3, r3, #5
 576:Middlewares/Third_Party/LwIP/src/core/pbuf.c ****     return 0;
 140              		.loc 1 576 36 view .LVU35
 141 0010 002C     		cmp	r4, #0
 142 0012 08BF     		it	eq
 143 0014 0123     		moveq	r3, #1
 576:Middlewares/Third_Party/LwIP/src/core/pbuf.c ****     return 0;
 144              		.loc 1 576 6 view .LVU36
 145 0016 002B     		cmp	r3, #0
 146 0018 51D1     		bne	.L18
 580:Middlewares/Third_Party/LwIP/src/core/pbuf.c ****     increment_magnitude = (u16_t)-header_size_increment;
 147              		.loc 1 580 3 is_stmt 1 view .LVU37
 580:Middlewares/Third_Party/LwIP/src/core/pbuf.c ****     increment_magnitude = (u16_t)-header_size_increment;
 148              		.loc 1 580 6 is_stmt 0 view .LVU38
 149 001a 002C     		cmp	r4, #0
 150 001c 21DB     		blt	.L22
 585:Middlewares/Third_Party/LwIP/src/core/pbuf.c **** #if 0
 151              		.loc 1 585 5 is_stmt 1 view .LVU39
 585:Middlewares/Third_Party/LwIP/src/core/pbuf.c **** #if 0
 152              		.loc 1 585 25 is_stmt 0 view .LVU40
 153 001e A1B2     		uxth	r1, r4
 154              	.LVL6:
 155              	.L13:
 598:Middlewares/Third_Party/LwIP/src/core/pbuf.c ****   /* remember current payload pointer */
 156              		.loc 1 598 3 is_stmt 1 view .LVU41
 598:Middlewares/Third_Party/LwIP/src/core/pbuf.c ****   /* remember current payload pointer */
 157              		.loc 1 598 8 is_stmt 0 view .LVU42
 158 0020 2B7B     		ldrb	r3, [r5, #12]	@ zero_extendqisi2
 159              	.LVL7:
 600:Middlewares/Third_Party/LwIP/src/core/pbuf.c **** 
 160              		.loc 1 600 3 is_stmt 1 view .LVU43
 600:Middlewares/Third_Party/LwIP/src/core/pbuf.c **** 
 161              		.loc 1 600 11 is_stmt 0 view .LVU44
 162 0022 6868     		ldr	r0, [r5, #4]
 163              	.LVL8:
 603:Middlewares/Third_Party/LwIP/src/core/pbuf.c ****     /* set new payload pointer */
 164              		.loc 1 603 3 is_stmt 1 view .LVU45
 603:Middlewares/Third_Party/LwIP/src/core/pbuf.c ****     /* set new payload pointer */
 165              		.loc 1 603 32 is_stmt 0 view .LVU46
 166 0024 032B     		cmp	r3, #3
 167 0026 14BF     		ite	ne
 168 0028 0022     		movne	r2, #0
 169 002a 0122     		moveq	r2, #1
 603:Middlewares/Third_Party/LwIP/src/core/pbuf.c ****     /* set new payload pointer */
 170              		.loc 1 603 24 view .LVU47
 171 002c 002B     		cmp	r3, #0
 172 002e 08BF     		it	eq
 173 0030 0122     		moveq	r2, #1
 603:Middlewares/Third_Party/LwIP/src/core/pbuf.c ****     /* set new payload pointer */
 174              		.loc 1 603 6 view .LVU48
ARM GAS  /tmp/ccvTpBVd.s 			page 24


 175 0032 42B3     		cbz	r2, .L14
 605:Middlewares/Third_Party/LwIP/src/core/pbuf.c ****     /* boundary check fails? */
 176              		.loc 1 605 5 is_stmt 1 view .LVU49
 605:Middlewares/Third_Party/LwIP/src/core/pbuf.c ****     /* boundary check fails? */
 177              		.loc 1 605 37 is_stmt 0 view .LVU50
 178 0034 031B     		subs	r3, r0, r4
 179              	.LVL9:
 605:Middlewares/Third_Party/LwIP/src/core/pbuf.c ****     /* boundary check fails? */
 180              		.loc 1 605 16 view .LVU51
 181 0036 6B60     		str	r3, [r5, #4]
 607:Middlewares/Third_Party/LwIP/src/core/pbuf.c ****       LWIP_DEBUGF( PBUF_DEBUG | LWIP_DBG_TRACE,
 182              		.loc 1 607 5 is_stmt 1 view .LVU52
 607:Middlewares/Third_Party/LwIP/src/core/pbuf.c ****       LWIP_DEBUGF( PBUF_DEBUG | LWIP_DBG_TRACE,
 183              		.loc 1 607 40 is_stmt 0 view .LVU53
 184 0038 05F11002 		add	r2, r5, #16
 607:Middlewares/Third_Party/LwIP/src/core/pbuf.c ****       LWIP_DEBUGF( PBUF_DEBUG | LWIP_DBG_TRACE,
 185              		.loc 1 607 8 view .LVU54
 186 003c 9342     		cmp	r3, r2
 187 003e 1FD3     		bcc	.L23
 188              	.LVL10:
 189              	.L15:
 635:Middlewares/Third_Party/LwIP/src/core/pbuf.c ****   p->tot_len += header_size_increment;
 190              		.loc 1 635 3 is_stmt 1 view .LVU55
 635:Middlewares/Third_Party/LwIP/src/core/pbuf.c ****   p->tot_len += header_size_increment;
 191              		.loc 1 635 10 is_stmt 0 view .LVU56
 192 0040 A4B2     		uxth	r4, r4
 193 0042 6B89     		ldrh	r3, [r5, #10]
 194 0044 2344     		add	r3, r3, r4
 195 0046 6B81     		strh	r3, [r5, #10]	@ movhi
 636:Middlewares/Third_Party/LwIP/src/core/pbuf.c **** 
 196              		.loc 1 636 3 is_stmt 1 view .LVU57
 636:Middlewares/Third_Party/LwIP/src/core/pbuf.c **** 
 197              		.loc 1 636 14 is_stmt 0 view .LVU58
 198 0048 2B89     		ldrh	r3, [r5, #8]
 199 004a 1C44     		add	r4, r4, r3
 200 004c 2C81     		strh	r4, [r5, #8]	@ movhi
 639:Middlewares/Third_Party/LwIP/src/core/pbuf.c **** 
 201              		.loc 1 639 65 is_stmt 1 view .LVU59
 641:Middlewares/Third_Party/LwIP/src/core/pbuf.c **** }
 202              		.loc 1 641 3 view .LVU60
 641:Middlewares/Third_Party/LwIP/src/core/pbuf.c **** }
 203              		.loc 1 641 10 is_stmt 0 view .LVU61
 204 004e 0020     		movs	r0, #0
 205              	.LVL11:
 206              	.L11:
 642:Middlewares/Third_Party/LwIP/src/core/pbuf.c **** 
 207              		.loc 1 642 1 view .LVU62
 208 0050 70BD     		pop	{r4, r5, r6, pc}
 209              	.LVL12:
 210              	.L21:
 575:Middlewares/Third_Party/LwIP/src/core/pbuf.c ****   if ((header_size_increment == 0) || (p == NULL)) {
 211              		.loc 1 575 3 is_stmt 1 discriminator 1 view .LVU63
 575:Middlewares/Third_Party/LwIP/src/core/pbuf.c ****   if ((header_size_increment == 0) || (p == NULL)) {
 212              		.loc 1 575 3 discriminator 1 view .LVU64
 213 0052 1D4B     		ldr	r3, .L25
 214 0054 40F23F22 		movw	r2, #575
 215              	.LVL13:
ARM GAS  /tmp/ccvTpBVd.s 			page 25


 575:Middlewares/Third_Party/LwIP/src/core/pbuf.c ****   if ((header_size_increment == 0) || (p == NULL)) {
 216              		.loc 1 575 3 is_stmt 0 discriminator 1 view .LVU65
 217 0058 1C49     		ldr	r1, .L25+4
 218              	.LVL14:
 575:Middlewares/Third_Party/LwIP/src/core/pbuf.c ****   if ((header_size_increment == 0) || (p == NULL)) {
 219              		.loc 1 575 3 discriminator 1 view .LVU66
 220 005a 1D48     		ldr	r0, .L25+8
 221              	.LVL15:
 575:Middlewares/Third_Party/LwIP/src/core/pbuf.c ****   if ((header_size_increment == 0) || (p == NULL)) {
 222              		.loc 1 575 3 discriminator 1 view .LVU67
 223 005c FFF7FEFF 		bl	printf
 224              	.LVL16:
 225 0060 D3E7     		b	.L10
 226              	.L22:
 581:Middlewares/Third_Party/LwIP/src/core/pbuf.c ****     /* Check that we aren't going to move off the end of the pbuf */
 227              		.loc 1 581 5 is_stmt 1 view .LVU68
 581:Middlewares/Third_Party/LwIP/src/core/pbuf.c ****     /* Check that we aren't going to move off the end of the pbuf */
 228              		.loc 1 581 27 is_stmt 0 view .LVU69
 229 0062 A1B2     		uxth	r1, r4
 581:Middlewares/Third_Party/LwIP/src/core/pbuf.c ****     /* Check that we aren't going to move off the end of the pbuf */
 230              		.loc 1 581 25 view .LVU70
 231 0064 4942     		rsbs	r1, r1, #0
 232 0066 89B2     		uxth	r1, r1
 233              	.LVL17:
 583:Middlewares/Third_Party/LwIP/src/core/pbuf.c ****   } else {
 234              		.loc 1 583 5 is_stmt 1 view .LVU71
 583:Middlewares/Third_Party/LwIP/src/core/pbuf.c ****   } else {
 235              		.loc 1 583 5 view .LVU72
 236 0068 6B89     		ldrh	r3, [r5, #10]
 237 006a 8B42     		cmp	r3, r1
 238 006c D8D2     		bcs	.L13
 583:Middlewares/Third_Party/LwIP/src/core/pbuf.c ****   } else {
 239              		.loc 1 583 5 discriminator 1 view .LVU73
 583:Middlewares/Third_Party/LwIP/src/core/pbuf.c ****   } else {
 240              		.loc 1 583 5 discriminator 1 view .LVU74
 241 006e 164B     		ldr	r3, .L25
 242 0070 40F24722 		movw	r2, #583
 243 0074 1749     		ldr	r1, .L25+12
 244              	.LVL18:
 583:Middlewares/Third_Party/LwIP/src/core/pbuf.c ****   } else {
 245              		.loc 1 583 5 is_stmt 0 discriminator 1 view .LVU75
 246 0076 1648     		ldr	r0, .L25+8
 247 0078 FFF7FEFF 		bl	printf
 248              	.LVL19:
 583:Middlewares/Third_Party/LwIP/src/core/pbuf.c ****   } else {
 249              		.loc 1 583 5 is_stmt 1 discriminator 1 view .LVU76
 250 007c 0120     		movs	r0, #1
 251 007e E7E7     		b	.L11
 252              	.LVL20:
 253              	.L23:
 610:Middlewares/Third_Party/LwIP/src/core/pbuf.c ****       /* restore old payload pointer */
 254              		.loc 1 610 71 view .LVU77
 612:Middlewares/Third_Party/LwIP/src/core/pbuf.c ****       /* bail out unsuccessfully */
 255              		.loc 1 612 7 view .LVU78
 612:Middlewares/Third_Party/LwIP/src/core/pbuf.c ****       /* bail out unsuccessfully */
 256              		.loc 1 612 18 is_stmt 0 view .LVU79
 257 0080 6860     		str	r0, [r5, #4]
ARM GAS  /tmp/ccvTpBVd.s 			page 26


 614:Middlewares/Third_Party/LwIP/src/core/pbuf.c ****     }
 258              		.loc 1 614 7 is_stmt 1 view .LVU80
 614:Middlewares/Third_Party/LwIP/src/core/pbuf.c ****     }
 259              		.loc 1 614 14 is_stmt 0 view .LVU81
 260 0082 0120     		movs	r0, #1
 261              	.LVL21:
 614:Middlewares/Third_Party/LwIP/src/core/pbuf.c ****     }
 262              		.loc 1 614 14 view .LVU82
 263 0084 E4E7     		b	.L11
 264              	.LVL22:
 265              	.L14:
 617:Middlewares/Third_Party/LwIP/src/core/pbuf.c ****     /* hide a header in the payload? */
 266              		.loc 1 617 10 is_stmt 1 view .LVU83
 617:Middlewares/Third_Party/LwIP/src/core/pbuf.c ****     /* hide a header in the payload? */
 267              		.loc 1 617 31 is_stmt 0 view .LVU84
 268 0086 013B     		subs	r3, r3, #1
 269              	.LVL23:
 617:Middlewares/Third_Party/LwIP/src/core/pbuf.c ****     /* hide a header in the payload? */
 270              		.loc 1 617 31 view .LVU85
 271 0088 9BB2     		uxth	r3, r3
 272              	.LVL24:
 617:Middlewares/Third_Party/LwIP/src/core/pbuf.c ****     /* hide a header in the payload? */
 273              		.loc 1 617 13 view .LVU86
 274 008a 012B     		cmp	r3, #1
 275 008c 0ED8     		bhi	.L16
 619:Middlewares/Third_Party/LwIP/src/core/pbuf.c ****       /* increase payload pointer */
 276              		.loc 1 619 5 is_stmt 1 view .LVU87
 619:Middlewares/Third_Party/LwIP/src/core/pbuf.c ****       /* increase payload pointer */
 277              		.loc 1 619 8 is_stmt 0 view .LVU88
 278 008e 002C     		cmp	r4, #0
 279 0090 06DB     		blt	.L24
 280              	.L17:
 622:Middlewares/Third_Party/LwIP/src/core/pbuf.c ****       p->payload = (u8_t *)p->payload - header_size_increment;
 281              		.loc 1 622 12 is_stmt 1 view .LVU89
 622:Middlewares/Third_Party/LwIP/src/core/pbuf.c ****       p->payload = (u8_t *)p->payload - header_size_increment;
 282              		.loc 1 622 15 is_stmt 0 view .LVU90
 283 0092 002E     		cmp	r6, #0
 284 0094 18BF     		it	ne
 285 0096 002C     		cmpne	r4, #0
 286 0098 13DD     		ble	.L19
 623:Middlewares/Third_Party/LwIP/src/core/pbuf.c ****     } else {
 287              		.loc 1 623 7 is_stmt 1 view .LVU91
 623:Middlewares/Third_Party/LwIP/src/core/pbuf.c ****     } else {
 288              		.loc 1 623 39 is_stmt 0 view .LVU92
 289 009a 001B     		subs	r0, r0, r4
 290              	.LVL25:
 623:Middlewares/Third_Party/LwIP/src/core/pbuf.c ****     } else {
 291              		.loc 1 623 18 view .LVU93
 292 009c 6860     		str	r0, [r5, #4]
 293              	.LVL26:
 623:Middlewares/Third_Party/LwIP/src/core/pbuf.c ****     } else {
 294              		.loc 1 623 18 view .LVU94
 295 009e CFE7     		b	.L15
 296              	.LVL27:
 297              	.L24:
 619:Middlewares/Third_Party/LwIP/src/core/pbuf.c ****       /* increase payload pointer */
 298              		.loc 1 619 65 discriminator 1 view .LVU95
ARM GAS  /tmp/ccvTpBVd.s 			page 27


 299 00a0 6B89     		ldrh	r3, [r5, #10]
 619:Middlewares/Third_Party/LwIP/src/core/pbuf.c ****       /* increase payload pointer */
 300              		.loc 1 619 37 discriminator 1 view .LVU96
 301 00a2 8B42     		cmp	r3, r1
 302 00a4 F5D3     		bcc	.L17
 621:Middlewares/Third_Party/LwIP/src/core/pbuf.c ****     } else if ((header_size_increment > 0) && force) {
 303              		.loc 1 621 7 is_stmt 1 view .LVU97
 621:Middlewares/Third_Party/LwIP/src/core/pbuf.c ****     } else if ((header_size_increment > 0) && force) {
 304              		.loc 1 621 39 is_stmt 0 view .LVU98
 305 00a6 001B     		subs	r0, r0, r4
 306              	.LVL28:
 621:Middlewares/Third_Party/LwIP/src/core/pbuf.c ****     } else if ((header_size_increment > 0) && force) {
 307              		.loc 1 621 18 view .LVU99
 308 00a8 6860     		str	r0, [r5, #4]
 309              	.LVL29:
 621:Middlewares/Third_Party/LwIP/src/core/pbuf.c ****     } else if ((header_size_increment > 0) && force) {
 310              		.loc 1 621 18 view .LVU100
 311 00aa C9E7     		b	.L15
 312              	.LVL30:
 313              	.L16:
 631:Middlewares/Third_Party/LwIP/src/core/pbuf.c ****     return 1;
 314              		.loc 1 631 5 is_stmt 1 discriminator 1 view .LVU101
 631:Middlewares/Third_Party/LwIP/src/core/pbuf.c ****     return 1;
 315              		.loc 1 631 5 discriminator 1 view .LVU102
 631:Middlewares/Third_Party/LwIP/src/core/pbuf.c ****     return 1;
 316              		.loc 1 631 5 discriminator 1 view .LVU103
 631:Middlewares/Third_Party/LwIP/src/core/pbuf.c ****     return 1;
 317              		.loc 1 631 5 discriminator 1 view .LVU104
 318 00ac 064B     		ldr	r3, .L25
 319 00ae 40F27722 		movw	r2, #631
 320 00b2 0949     		ldr	r1, .L25+16
 321              	.LVL31:
 631:Middlewares/Third_Party/LwIP/src/core/pbuf.c ****     return 1;
 322              		.loc 1 631 5 is_stmt 0 discriminator 1 view .LVU105
 323 00b4 0648     		ldr	r0, .L25+8
 324              	.LVL32:
 631:Middlewares/Third_Party/LwIP/src/core/pbuf.c ****     return 1;
 325              		.loc 1 631 5 discriminator 1 view .LVU106
 326 00b6 FFF7FEFF 		bl	printf
 327              	.LVL33:
 632:Middlewares/Third_Party/LwIP/src/core/pbuf.c ****   }
 328              		.loc 1 632 5 is_stmt 1 discriminator 1 view .LVU107
 632:Middlewares/Third_Party/LwIP/src/core/pbuf.c ****   }
 329              		.loc 1 632 12 is_stmt 0 discriminator 1 view .LVU108
 330 00ba 0120     		movs	r0, #1
 331 00bc C8E7     		b	.L11
 332              	.L18:
 577:Middlewares/Third_Party/LwIP/src/core/pbuf.c ****   }
 333              		.loc 1 577 12 view .LVU109
 334 00be 0020     		movs	r0, #0
 335 00c0 C6E7     		b	.L11
 336              	.LVL34:
 337              	.L19:
 627:Middlewares/Third_Party/LwIP/src/core/pbuf.c ****     }
 338              		.loc 1 627 14 view .LVU110
 339 00c2 0120     		movs	r0, #1
 340              	.LVL35:
ARM GAS  /tmp/ccvTpBVd.s 			page 28


 627:Middlewares/Third_Party/LwIP/src/core/pbuf.c ****     }
 341              		.loc 1 627 14 view .LVU111
 342 00c4 C4E7     		b	.L11
 343              	.L26:
 344 00c6 00BF     		.align	2
 345              	.L25:
 346 00c8 00000000 		.word	.LC0
 347 00cc 30000000 		.word	.LC1
 348 00d0 3C000000 		.word	.LC2
 349 00d4 64000000 		.word	.LC3
 350 00d8 84000000 		.word	.LC4
 351              		.cfi_endproc
 352              	.LFE165:
 354              		.section	.text.pbuf_free_ooseq,"ax",%progbits
 355              		.align	1
 356              		.global	pbuf_free_ooseq
 357              		.syntax unified
 358              		.thumb
 359              		.thumb_func
 360              		.fpu fpv5-sp-d16
 362              	pbuf_free_ooseq:
 363              	.LFB160:
 166:Middlewares/Third_Party/LwIP/src/core/pbuf.c ****   struct tcp_pcb* pcb;
 364              		.loc 1 166 1 is_stmt 1 view -0
 365              		.cfi_startproc
 366              		@ args = 0, pretend = 0, frame = 0
 367              		@ frame_needed = 0, uses_anonymous_args = 0
 368 0000 10B5     		push	{r4, lr}
 369              	.LCFI1:
 370              		.cfi_def_cfa_offset 8
 371              		.cfi_offset 4, -8
 372              		.cfi_offset 14, -4
 167:Middlewares/Third_Party/LwIP/src/core/pbuf.c ****   SYS_ARCH_SET(pbuf_free_ooseq_pending, 0);
 373              		.loc 1 167 3 view .LVU113
 168:Middlewares/Third_Party/LwIP/src/core/pbuf.c **** 
 374              		.loc 1 168 3 view .LVU114
 168:Middlewares/Third_Party/LwIP/src/core/pbuf.c **** 
 375              		.loc 1 168 3 view .LVU115
 168:Middlewares/Third_Party/LwIP/src/core/pbuf.c **** 
 376              		.loc 1 168 3 view .LVU116
 168:Middlewares/Third_Party/LwIP/src/core/pbuf.c **** 
 377              		.loc 1 168 3 view .LVU117
 378 0002 074B     		ldr	r3, .L34
 379 0004 0022     		movs	r2, #0
 380 0006 1A70     		strb	r2, [r3]
 168:Middlewares/Third_Party/LwIP/src/core/pbuf.c **** 
 381              		.loc 1 168 3 view .LVU118
 170:Middlewares/Third_Party/LwIP/src/core/pbuf.c ****     if (NULL != pcb->ooseq) {
 382              		.loc 1 170 3 view .LVU119
 170:Middlewares/Third_Party/LwIP/src/core/pbuf.c ****     if (NULL != pcb->ooseq) {
 383              		.loc 1 170 12 is_stmt 0 view .LVU120
 384 0008 064B     		ldr	r3, .L34+4
 385 000a 1C68     		ldr	r4, [r3]
 386              	.LVL36:
 387              	.L28:
 170:Middlewares/Third_Party/LwIP/src/core/pbuf.c ****     if (NULL != pcb->ooseq) {
 388              		.loc 1 170 3 discriminator 1 view .LVU121
ARM GAS  /tmp/ccvTpBVd.s 			page 29


 389 000c 3CB1     		cbz	r4, .L27
 171:Middlewares/Third_Party/LwIP/src/core/pbuf.c ****       /** Free the ooseq pbufs of one PCB only */
 390              		.loc 1 171 5 is_stmt 1 view .LVU122
 171:Middlewares/Third_Party/LwIP/src/core/pbuf.c ****       /** Free the ooseq pbufs of one PCB only */
 391              		.loc 1 171 20 is_stmt 0 view .LVU123
 392 000e 206F     		ldr	r0, [r4, #112]
 171:Middlewares/Third_Party/LwIP/src/core/pbuf.c ****       /** Free the ooseq pbufs of one PCB only */
 393              		.loc 1 171 8 view .LVU124
 394 0010 08B9     		cbnz	r0, .L33
 170:Middlewares/Third_Party/LwIP/src/core/pbuf.c ****     if (NULL != pcb->ooseq) {
 395              		.loc 1 170 48 discriminator 2 view .LVU125
 396 0012 E468     		ldr	r4, [r4, #12]
 397              	.LVL37:
 170:Middlewares/Third_Party/LwIP/src/core/pbuf.c ****     if (NULL != pcb->ooseq) {
 398              		.loc 1 170 48 discriminator 2 view .LVU126
 399 0014 FAE7     		b	.L28
 400              	.L33:
 173:Middlewares/Third_Party/LwIP/src/core/pbuf.c ****       tcp_segs_free(pcb->ooseq);
 401              		.loc 1 173 101 is_stmt 1 view .LVU127
 174:Middlewares/Third_Party/LwIP/src/core/pbuf.c ****       pcb->ooseq = NULL;
 402              		.loc 1 174 7 view .LVU128
 403 0016 FFF7FEFF 		bl	tcp_segs_free
 404              	.LVL38:
 175:Middlewares/Third_Party/LwIP/src/core/pbuf.c ****       return;
 405              		.loc 1 175 7 view .LVU129
 175:Middlewares/Third_Party/LwIP/src/core/pbuf.c ****       return;
 406              		.loc 1 175 18 is_stmt 0 view .LVU130
 407 001a 0023     		movs	r3, #0
 408 001c 2367     		str	r3, [r4, #112]
 176:Middlewares/Third_Party/LwIP/src/core/pbuf.c ****     }
 409              		.loc 1 176 7 is_stmt 1 view .LVU131
 410              	.L27:
 179:Middlewares/Third_Party/LwIP/src/core/pbuf.c **** 
 411              		.loc 1 179 1 is_stmt 0 view .LVU132
 412 001e 10BD     		pop	{r4, pc}
 413              	.LVL39:
 414              	.L35:
 179:Middlewares/Third_Party/LwIP/src/core/pbuf.c **** 
 415              		.loc 1 179 1 view .LVU133
 416              		.align	2
 417              	.L34:
 418 0020 00000000 		.word	pbuf_free_ooseq_pending
 419 0024 00000000 		.word	tcp_active_pcbs
 420              		.cfi_endproc
 421              	.LFE160:
 423              		.section	.text.pbuf_alloced_custom,"ax",%progbits
 424              		.align	1
 425              		.global	pbuf_alloced_custom
 426              		.syntax unified
 427              		.thumb
 428              		.thumb_func
 429              		.fpu fpv5-sp-d16
 431              	pbuf_alloced_custom:
 432              	.LVL40:
 433              	.LFB163:
 427:Middlewares/Third_Party/LwIP/src/core/pbuf.c ****   u16_t offset;
 434              		.loc 1 427 1 is_stmt 1 view -0
ARM GAS  /tmp/ccvTpBVd.s 			page 30


 435              		.cfi_startproc
 436              		@ args = 8, pretend = 0, frame = 0
 437              		@ frame_needed = 0, uses_anonymous_args = 0
 427:Middlewares/Third_Party/LwIP/src/core/pbuf.c ****   u16_t offset;
 438              		.loc 1 427 1 is_stmt 0 view .LVU135
 439 0000 70B5     		push	{r4, r5, r6, lr}
 440              	.LCFI2:
 441              		.cfi_def_cfa_offset 16
 442              		.cfi_offset 4, -16
 443              		.cfi_offset 5, -12
 444              		.cfi_offset 6, -8
 445              		.cfi_offset 14, -4
 446 0002 049C     		ldr	r4, [sp, #16]
 428:Middlewares/Third_Party/LwIP/src/core/pbuf.c ****   LWIP_DEBUGF(PBUF_DEBUG | LWIP_DBG_TRACE, ("pbuf_alloced_custom(length=%"U16_F")\n", length));
 447              		.loc 1 428 3 is_stmt 1 view .LVU136
 429:Middlewares/Third_Party/LwIP/src/core/pbuf.c **** 
 448              		.loc 1 429 95 view .LVU137
 432:Middlewares/Third_Party/LwIP/src/core/pbuf.c ****   case PBUF_TRANSPORT:
 449              		.loc 1 432 3 view .LVU138
 450 0004 0428     		cmp	r0, #4
 451 0006 0AD8     		bhi	.L37
 452 0008 DFE800F0 		tbb	[pc, r0]
 453              	.L39:
 454 000c 12       		.byte	(.L43-.L39)/2
 455 000d 14       		.byte	(.L47-.L39)/2
 456 000e 03       		.byte	(.L41-.L39)/2
 457 000f 05       		.byte	(.L40-.L39)/2
 458 0010 07       		.byte	(.L38-.L39)/2
 459 0011 00       		.p2align 1
 460              	.L41:
 443:Middlewares/Third_Party/LwIP/src/core/pbuf.c ****     break;
 461              		.loc 1 443 5 view .LVU139
 462              	.LVL41:
 444:Middlewares/Third_Party/LwIP/src/core/pbuf.c ****   case PBUF_RAW_TX:
 463              		.loc 1 444 5 view .LVU140
 443:Middlewares/Third_Party/LwIP/src/core/pbuf.c ****     break;
 464              		.loc 1 443 12 is_stmt 0 view .LVU141
 465 0012 0E20     		movs	r0, #14
 466              	.LVL42:
 444:Middlewares/Third_Party/LwIP/src/core/pbuf.c ****   case PBUF_RAW_TX:
 467              		.loc 1 444 5 view .LVU142
 468 0014 0FE0     		b	.L42
 469              	.LVL43:
 470              	.L40:
 447:Middlewares/Third_Party/LwIP/src/core/pbuf.c ****     break;
 471              		.loc 1 447 5 is_stmt 1 view .LVU143
 448:Middlewares/Third_Party/LwIP/src/core/pbuf.c ****   case PBUF_RAW:
 472              		.loc 1 448 5 view .LVU144
 447:Middlewares/Third_Party/LwIP/src/core/pbuf.c ****     break;
 473              		.loc 1 447 12 is_stmt 0 view .LVU145
 474 0016 0020     		movs	r0, #0
 475              	.LVL44:
 448:Middlewares/Third_Party/LwIP/src/core/pbuf.c ****   case PBUF_RAW:
 476              		.loc 1 448 5 view .LVU146
 477 0018 0DE0     		b	.L42
 478              	.LVL45:
 479              	.L38:
ARM GAS  /tmp/ccvTpBVd.s 			page 31


 450:Middlewares/Third_Party/LwIP/src/core/pbuf.c ****     break;
 480              		.loc 1 450 5 is_stmt 1 view .LVU147
 451:Middlewares/Third_Party/LwIP/src/core/pbuf.c ****   default:
 481              		.loc 1 451 5 view .LVU148
 450:Middlewares/Third_Party/LwIP/src/core/pbuf.c ****     break;
 482              		.loc 1 450 12 is_stmt 0 view .LVU149
 483 001a 0020     		movs	r0, #0
 484              	.LVL46:
 451:Middlewares/Third_Party/LwIP/src/core/pbuf.c ****   default:
 485              		.loc 1 451 5 view .LVU150
 486 001c 0BE0     		b	.L42
 487              	.LVL47:
 488              	.L37:
 453:Middlewares/Third_Party/LwIP/src/core/pbuf.c ****     return NULL;
 489              		.loc 1 453 5 is_stmt 1 discriminator 1 view .LVU151
 453:Middlewares/Third_Party/LwIP/src/core/pbuf.c ****     return NULL;
 490              		.loc 1 453 5 discriminator 1 view .LVU152
 453:Middlewares/Third_Party/LwIP/src/core/pbuf.c ****     return NULL;
 491              		.loc 1 453 5 discriminator 1 view .LVU153
 453:Middlewares/Third_Party/LwIP/src/core/pbuf.c ****     return NULL;
 492              		.loc 1 453 5 discriminator 1 view .LVU154
 493 001e 134B     		ldr	r3, .L50
 494              	.LVL48:
 453:Middlewares/Third_Party/LwIP/src/core/pbuf.c ****     return NULL;
 495              		.loc 1 453 5 is_stmt 0 discriminator 1 view .LVU155
 496 0020 40F2C512 		movw	r2, #453
 497              	.LVL49:
 453:Middlewares/Third_Party/LwIP/src/core/pbuf.c ****     return NULL;
 498              		.loc 1 453 5 discriminator 1 view .LVU156
 499 0024 1249     		ldr	r1, .L50+4
 500              	.LVL50:
 453:Middlewares/Third_Party/LwIP/src/core/pbuf.c ****     return NULL;
 501              		.loc 1 453 5 discriminator 1 view .LVU157
 502 0026 1348     		ldr	r0, .L50+8
 503              	.LVL51:
 453:Middlewares/Third_Party/LwIP/src/core/pbuf.c ****     return NULL;
 504              		.loc 1 453 5 discriminator 1 view .LVU158
 505 0028 FFF7FEFF 		bl	printf
 506              	.LVL52:
 454:Middlewares/Third_Party/LwIP/src/core/pbuf.c ****   }
 507              		.loc 1 454 5 is_stmt 1 discriminator 1 view .LVU159
 454:Middlewares/Third_Party/LwIP/src/core/pbuf.c ****   }
 508              		.loc 1 454 12 is_stmt 0 discriminator 1 view .LVU160
 509 002c 0020     		movs	r0, #0
 510 002e 17E0     		b	.L36
 511              	.LVL53:
 512              	.L43:
 435:Middlewares/Third_Party/LwIP/src/core/pbuf.c ****     break;
 513              		.loc 1 435 12 view .LVU161
 514 0030 3620     		movs	r0, #54
 515              	.LVL54:
 435:Middlewares/Third_Party/LwIP/src/core/pbuf.c ****     break;
 516              		.loc 1 435 12 view .LVU162
 517 0032 00E0     		b	.L42
 518              	.LVL55:
 519              	.L47:
 439:Middlewares/Third_Party/LwIP/src/core/pbuf.c ****     break;
ARM GAS  /tmp/ccvTpBVd.s 			page 32


 520              		.loc 1 439 12 view .LVU163
 521 0034 2220     		movs	r0, #34
 522              	.LVL56:
 523              	.L42:
 457:Middlewares/Third_Party/LwIP/src/core/pbuf.c ****     LWIP_DEBUGF(PBUF_DEBUG | LWIP_DBG_LEVEL_WARNING, ("pbuf_alloced_custom(length=%"U16_F") buffer 
 524              		.loc 1 457 3 is_stmt 1 view .LVU164
 457:Middlewares/Third_Party/LwIP/src/core/pbuf.c ****     LWIP_DEBUGF(PBUF_DEBUG | LWIP_DBG_LEVEL_WARNING, ("pbuf_alloced_custom(length=%"U16_F") buffer 
 525              		.loc 1 457 7 is_stmt 0 view .LVU165
 526 0036 0330     		adds	r0, r0, #3
 527              	.LVL57:
 457:Middlewares/Third_Party/LwIP/src/core/pbuf.c ****     LWIP_DEBUGF(PBUF_DEBUG | LWIP_DBG_LEVEL_WARNING, ("pbuf_alloced_custom(length=%"U16_F") buffer 
 528              		.loc 1 457 7 view .LVU166
 529 0038 20F00300 		bic	r0, r0, #3
 457:Middlewares/Third_Party/LwIP/src/core/pbuf.c ****     LWIP_DEBUGF(PBUF_DEBUG | LWIP_DBG_LEVEL_WARNING, ("pbuf_alloced_custom(length=%"U16_F") buffer 
 530              		.loc 1 457 35 view .LVU167
 531 003c 0E18     		adds	r6, r1, r0
 457:Middlewares/Third_Party/LwIP/src/core/pbuf.c ****     LWIP_DEBUGF(PBUF_DEBUG | LWIP_DBG_LEVEL_WARNING, ("pbuf_alloced_custom(length=%"U16_F") buffer 
 532              		.loc 1 457 6 view .LVU168
 533 003e BDF81450 		ldrh	r5, [sp, #20]
 534 0042 AE42     		cmp	r6, r5
 535 0044 10D8     		bhi	.L48
 462:Middlewares/Third_Party/LwIP/src/core/pbuf.c ****   if (payload_mem != NULL) {
 536              		.loc 1 462 3 is_stmt 1 view .LVU169
 462:Middlewares/Third_Party/LwIP/src/core/pbuf.c ****   if (payload_mem != NULL) {
 537              		.loc 1 462 16 is_stmt 0 view .LVU170
 538 0046 0025     		movs	r5, #0
 539 0048 1D60     		str	r5, [r3]
 463:Middlewares/Third_Party/LwIP/src/core/pbuf.c ****     p->pbuf.payload = (u8_t *)payload_mem + LWIP_MEM_ALIGN_SIZE(offset);
 540              		.loc 1 463 3 is_stmt 1 view .LVU171
 463:Middlewares/Third_Party/LwIP/src/core/pbuf.c ****     p->pbuf.payload = (u8_t *)payload_mem + LWIP_MEM_ALIGN_SIZE(offset);
 541              		.loc 1 463 6 is_stmt 0 view .LVU172
 542 004a 54B1     		cbz	r4, .L45
 464:Middlewares/Third_Party/LwIP/src/core/pbuf.c ****   } else {
 543              		.loc 1 464 5 is_stmt 1 view .LVU173
 464:Middlewares/Third_Party/LwIP/src/core/pbuf.c ****   } else {
 544              		.loc 1 464 43 is_stmt 0 view .LVU174
 545 004c 2044     		add	r0, r0, r4
 464:Middlewares/Third_Party/LwIP/src/core/pbuf.c ****   } else {
 546              		.loc 1 464 21 view .LVU175
 547 004e 5860     		str	r0, [r3, #4]
 548              	.L46:
 468:Middlewares/Third_Party/LwIP/src/core/pbuf.c ****   p->pbuf.len = p->pbuf.tot_len = length;
 549              		.loc 1 468 3 is_stmt 1 view .LVU176
 468:Middlewares/Third_Party/LwIP/src/core/pbuf.c ****   p->pbuf.len = p->pbuf.tot_len = length;
 550              		.loc 1 468 17 is_stmt 0 view .LVU177
 551 0050 0220     		movs	r0, #2
 552 0052 5873     		strb	r0, [r3, #13]
 469:Middlewares/Third_Party/LwIP/src/core/pbuf.c ****   p->pbuf.type = type;
 553              		.loc 1 469 3 is_stmt 1 view .LVU178
 469:Middlewares/Third_Party/LwIP/src/core/pbuf.c ****   p->pbuf.type = type;
 554              		.loc 1 469 33 is_stmt 0 view .LVU179
 555 0054 1981     		strh	r1, [r3, #8]	@ movhi
 469:Middlewares/Third_Party/LwIP/src/core/pbuf.c ****   p->pbuf.type = type;
 556              		.loc 1 469 15 view .LVU180
 557 0056 5981     		strh	r1, [r3, #10]	@ movhi
 470:Middlewares/Third_Party/LwIP/src/core/pbuf.c ****   p->pbuf.ref = 1;
 558              		.loc 1 470 3 is_stmt 1 view .LVU181
ARM GAS  /tmp/ccvTpBVd.s 			page 33


 470:Middlewares/Third_Party/LwIP/src/core/pbuf.c ****   p->pbuf.ref = 1;
 559              		.loc 1 470 16 is_stmt 0 view .LVU182
 560 0058 1A73     		strb	r2, [r3, #12]
 471:Middlewares/Third_Party/LwIP/src/core/pbuf.c ****   return &p->pbuf;
 561              		.loc 1 471 3 is_stmt 1 view .LVU183
 471:Middlewares/Third_Party/LwIP/src/core/pbuf.c ****   return &p->pbuf;
 562              		.loc 1 471 15 is_stmt 0 view .LVU184
 563 005a 0122     		movs	r2, #1
 564              	.LVL58:
 471:Middlewares/Third_Party/LwIP/src/core/pbuf.c ****   return &p->pbuf;
 565              		.loc 1 471 15 view .LVU185
 566 005c DA81     		strh	r2, [r3, #14]	@ movhi
 472:Middlewares/Third_Party/LwIP/src/core/pbuf.c **** }
 567              		.loc 1 472 3 is_stmt 1 view .LVU186
 472:Middlewares/Third_Party/LwIP/src/core/pbuf.c **** }
 568              		.loc 1 472 10 is_stmt 0 view .LVU187
 569 005e 1846     		mov	r0, r3
 570              	.LVL59:
 571              	.L36:
 473:Middlewares/Third_Party/LwIP/src/core/pbuf.c **** #endif /* LWIP_SUPPORT_CUSTOM_PBUF */
 572              		.loc 1 473 1 view .LVU188
 573 0060 70BD     		pop	{r4, r5, r6, pc}
 574              	.LVL60:
 575              	.L45:
 466:Middlewares/Third_Party/LwIP/src/core/pbuf.c ****   }
 576              		.loc 1 466 5 is_stmt 1 view .LVU189
 466:Middlewares/Third_Party/LwIP/src/core/pbuf.c ****   }
 577              		.loc 1 466 21 is_stmt 0 view .LVU190
 578 0062 0020     		movs	r0, #0
 579 0064 5860     		str	r0, [r3, #4]
 580 0066 F3E7     		b	.L46
 581              	.L48:
 459:Middlewares/Third_Party/LwIP/src/core/pbuf.c ****   }
 582              		.loc 1 459 12 view .LVU191
 583 0068 0020     		movs	r0, #0
 584 006a F9E7     		b	.L36
 585              	.L51:
 586              		.align	2
 587              	.L50:
 588 006c 00000000 		.word	.LC0
 589 0070 00000000 		.word	.LC5
 590 0074 3C000000 		.word	.LC2
 591              		.cfi_endproc
 592              	.LFE163:
 594              		.section	.text.pbuf_header,"ax",%progbits
 595              		.align	1
 596              		.global	pbuf_header
 597              		.syntax unified
 598              		.thumb
 599              		.thumb_func
 600              		.fpu fpv5-sp-d16
 602              	pbuf_header:
 603              	.LVL61:
 604              	.LFB166:
 666:Middlewares/Third_Party/LwIP/src/core/pbuf.c ****    return pbuf_header_impl(p, header_size_increment, 0);
 605              		.loc 1 666 1 is_stmt 1 view -0
 606              		.cfi_startproc
ARM GAS  /tmp/ccvTpBVd.s 			page 34


 607              		@ args = 0, pretend = 0, frame = 0
 608              		@ frame_needed = 0, uses_anonymous_args = 0
 666:Middlewares/Third_Party/LwIP/src/core/pbuf.c ****    return pbuf_header_impl(p, header_size_increment, 0);
 609              		.loc 1 666 1 is_stmt 0 view .LVU193
 610 0000 08B5     		push	{r3, lr}
 611              	.LCFI3:
 612              		.cfi_def_cfa_offset 8
 613              		.cfi_offset 3, -8
 614              		.cfi_offset 14, -4
 667:Middlewares/Third_Party/LwIP/src/core/pbuf.c **** }
 615              		.loc 1 667 4 is_stmt 1 view .LVU194
 667:Middlewares/Third_Party/LwIP/src/core/pbuf.c **** }
 616              		.loc 1 667 11 is_stmt 0 view .LVU195
 617 0002 0022     		movs	r2, #0
 618 0004 FFF7FEFF 		bl	pbuf_header_impl
 619              	.LVL62:
 668:Middlewares/Third_Party/LwIP/src/core/pbuf.c **** 
 620              		.loc 1 668 1 view .LVU196
 621 0008 08BD     		pop	{r3, pc}
 622              		.cfi_endproc
 623              	.LFE166:
 625              		.section	.text.pbuf_header_force,"ax",%progbits
 626              		.align	1
 627              		.global	pbuf_header_force
 628              		.syntax unified
 629              		.thumb
 630              		.thumb_func
 631              		.fpu fpv5-sp-d16
 633              	pbuf_header_force:
 634              	.LVL63:
 635              	.LFB167:
 676:Middlewares/Third_Party/LwIP/src/core/pbuf.c ****    return pbuf_header_impl(p, header_size_increment, 1);
 636              		.loc 1 676 1 is_stmt 1 view -0
 637              		.cfi_startproc
 638              		@ args = 0, pretend = 0, frame = 0
 639              		@ frame_needed = 0, uses_anonymous_args = 0
 676:Middlewares/Third_Party/LwIP/src/core/pbuf.c ****    return pbuf_header_impl(p, header_size_increment, 1);
 640              		.loc 1 676 1 is_stmt 0 view .LVU198
 641 0000 08B5     		push	{r3, lr}
 642              	.LCFI4:
 643              		.cfi_def_cfa_offset 8
 644              		.cfi_offset 3, -8
 645              		.cfi_offset 14, -4
 677:Middlewares/Third_Party/LwIP/src/core/pbuf.c **** }
 646              		.loc 1 677 4 is_stmt 1 view .LVU199
 677:Middlewares/Third_Party/LwIP/src/core/pbuf.c **** }
 647              		.loc 1 677 11 is_stmt 0 view .LVU200
 648 0002 0122     		movs	r2, #1
 649 0004 FFF7FEFF 		bl	pbuf_header_impl
 650              	.LVL64:
 678:Middlewares/Third_Party/LwIP/src/core/pbuf.c **** 
 651              		.loc 1 678 1 view .LVU201
 652 0008 08BD     		pop	{r3, pc}
 653              		.cfi_endproc
 654              	.LFE167:
 656              		.section	.text.pbuf_free,"ax",%progbits
 657              		.align	1
ARM GAS  /tmp/ccvTpBVd.s 			page 35


 658              		.global	pbuf_free
 659              		.syntax unified
 660              		.thumb
 661              		.thumb_func
 662              		.fpu fpv5-sp-d16
 664              	pbuf_free:
 665              	.LVL65:
 666              	.LFB168:
 716:Middlewares/Third_Party/LwIP/src/core/pbuf.c ****   u16_t type;
 667              		.loc 1 716 1 is_stmt 1 view -0
 668              		.cfi_startproc
 669              		@ args = 0, pretend = 0, frame = 0
 670              		@ frame_needed = 0, uses_anonymous_args = 0
 716:Middlewares/Third_Party/LwIP/src/core/pbuf.c ****   u16_t type;
 671              		.loc 1 716 1 is_stmt 0 view .LVU203
 672 0000 70B5     		push	{r4, r5, r6, lr}
 673              	.LCFI5:
 674              		.cfi_def_cfa_offset 16
 675              		.cfi_offset 4, -16
 676              		.cfi_offset 5, -12
 677              		.cfi_offset 6, -8
 678              		.cfi_offset 14, -4
 717:Middlewares/Third_Party/LwIP/src/core/pbuf.c ****   struct pbuf *q;
 679              		.loc 1 717 3 is_stmt 1 view .LVU204
 718:Middlewares/Third_Party/LwIP/src/core/pbuf.c ****   u8_t count;
 680              		.loc 1 718 3 view .LVU205
 719:Middlewares/Third_Party/LwIP/src/core/pbuf.c **** 
 681              		.loc 1 719 3 view .LVU206
 721:Middlewares/Third_Party/LwIP/src/core/pbuf.c ****     LWIP_ASSERT("p != NULL", p != NULL);
 682              		.loc 1 721 3 view .LVU207
 721:Middlewares/Third_Party/LwIP/src/core/pbuf.c ****     LWIP_ASSERT("p != NULL", p != NULL);
 683              		.loc 1 721 6 is_stmt 0 view .LVU208
 684 0002 28B1     		cbz	r0, .L69
 685 0004 0446     		mov	r4, r0
 728:Middlewares/Third_Party/LwIP/src/core/pbuf.c **** 
 686              		.loc 1 728 75 is_stmt 1 view .LVU209
 730:Middlewares/Third_Party/LwIP/src/core/pbuf.c **** 
 687              		.loc 1 730 13 view .LVU210
 732:Middlewares/Third_Party/LwIP/src/core/pbuf.c ****     p->type == PBUF_RAM || p->type == PBUF_ROM ||
 688              		.loc 1 732 3 view .LVU211
 732:Middlewares/Third_Party/LwIP/src/core/pbuf.c ****     p->type == PBUF_RAM || p->type == PBUF_ROM ||
 689              		.loc 1 732 3 view .LVU212
 690 0006 037B     		ldrb	r3, [r0, #12]	@ zero_extendqisi2
 691 0008 032B     		cmp	r3, #3
 692 000a 0BD8     		bhi	.L70
 693              	.LVL66:
 694              	.L59:
 716:Middlewares/Third_Party/LwIP/src/core/pbuf.c ****   u16_t type;
 695              		.loc 1 716 1 is_stmt 0 view .LVU213
 696 000c 0025     		movs	r5, #0
 697 000e 1FE0     		b	.L66
 698              	.LVL67:
 699              	.L69:
 722:Middlewares/Third_Party/LwIP/src/core/pbuf.c ****     /* if assertions are disabled, proceed with debug output */
 700              		.loc 1 722 5 is_stmt 1 discriminator 1 view .LVU214
 722:Middlewares/Third_Party/LwIP/src/core/pbuf.c ****     /* if assertions are disabled, proceed with debug output */
 701              		.loc 1 722 5 discriminator 1 view .LVU215
ARM GAS  /tmp/ccvTpBVd.s 			page 36


 722:Middlewares/Third_Party/LwIP/src/core/pbuf.c ****     /* if assertions are disabled, proceed with debug output */
 702              		.loc 1 722 5 discriminator 1 view .LVU216
 722:Middlewares/Third_Party/LwIP/src/core/pbuf.c ****     /* if assertions are disabled, proceed with debug output */
 703              		.loc 1 722 5 discriminator 1 view .LVU217
 704 0010 274B     		ldr	r3, .L74
 705 0012 40F2D222 		movw	r2, #722
 706 0016 2749     		ldr	r1, .L74+4
 707 0018 2748     		ldr	r0, .L74+8
 708              	.LVL68:
 722:Middlewares/Third_Party/LwIP/src/core/pbuf.c ****     /* if assertions are disabled, proceed with debug output */
 709              		.loc 1 722 5 is_stmt 0 discriminator 1 view .LVU218
 710 001a FFF7FEFF 		bl	printf
 711              	.LVL69:
 725:Middlewares/Third_Party/LwIP/src/core/pbuf.c ****     return 0;
 712              		.loc 1 725 46 is_stmt 1 discriminator 1 view .LVU219
 726:Middlewares/Third_Party/LwIP/src/core/pbuf.c ****   }
 713              		.loc 1 726 5 discriminator 1 view .LVU220
 726:Middlewares/Third_Party/LwIP/src/core/pbuf.c ****   }
 714              		.loc 1 726 12 is_stmt 0 discriminator 1 view .LVU221
 715 001e 0025     		movs	r5, #0
 716              	.LVL70:
 717              	.L58:
 791:Middlewares/Third_Party/LwIP/src/core/pbuf.c **** 
 718              		.loc 1 791 1 view .LVU222
 719 0020 2846     		mov	r0, r5
 720 0022 70BD     		pop	{r4, r5, r6, pc}
 721              	.LVL71:
 722              	.L70:
 732:Middlewares/Third_Party/LwIP/src/core/pbuf.c ****     p->type == PBUF_RAM || p->type == PBUF_ROM ||
 723              		.loc 1 732 3 is_stmt 1 discriminator 1 view .LVU223
 732:Middlewares/Third_Party/LwIP/src/core/pbuf.c ****     p->type == PBUF_RAM || p->type == PBUF_ROM ||
 724              		.loc 1 732 3 discriminator 1 view .LVU224
 725 0024 224B     		ldr	r3, .L74
 726 0026 40F2DE22 		movw	r2, #734
 727 002a 2449     		ldr	r1, .L74+12
 728 002c 2248     		ldr	r0, .L74+8
 729              	.LVL72:
 732:Middlewares/Third_Party/LwIP/src/core/pbuf.c ****     p->type == PBUF_RAM || p->type == PBUF_ROM ||
 730              		.loc 1 732 3 is_stmt 0 discriminator 1 view .LVU225
 731 002e FFF7FEFF 		bl	printf
 732              	.LVL73:
 733 0032 EBE7     		b	.L59
 734              	.LVL74:
 735              	.L71:
 736              	.LBB2:
 747:Middlewares/Third_Party/LwIP/src/core/pbuf.c ****     /* decrease reference count (number of pointers to pbuf) */
 737              		.loc 1 747 5 is_stmt 1 discriminator 1 view .LVU226
 747:Middlewares/Third_Party/LwIP/src/core/pbuf.c ****     /* decrease reference count (number of pointers to pbuf) */
 738              		.loc 1 747 5 discriminator 1 view .LVU227
 739 0034 1E4B     		ldr	r3, .L74
 740 0036 40F2EB22 		movw	r2, #747
 741 003a 2149     		ldr	r1, .L74+16
 742 003c 1E48     		ldr	r0, .L74+8
 743 003e FFF7FEFF 		bl	printf
 744              	.LVL75:
 745 0042 0AE0     		b	.L60
 746              	.LVL76:
ARM GAS  /tmp/ccvTpBVd.s 			page 37


 747              	.L62:
 748              	.LBB3:
 762:Middlewares/Third_Party/LwIP/src/core/pbuf.c ****       } else
 749              		.loc 1 762 9 view .LVU228
 762:Middlewares/Third_Party/LwIP/src/core/pbuf.c ****       } else
 750              		.loc 1 762 11 is_stmt 0 view .LVU229
 751 0044 2369     		ldr	r3, [r4, #16]
 762:Middlewares/Third_Party/LwIP/src/core/pbuf.c ****       } else
 752              		.loc 1 762 9 view .LVU230
 753 0046 2046     		mov	r0, r4
 754 0048 9847     		blx	r3
 755              	.LVL77:
 756              	.L63:
 762:Middlewares/Third_Party/LwIP/src/core/pbuf.c ****       } else
 757              		.loc 1 762 9 view .LVU231
 758              	.LBE3:
 777:Middlewares/Third_Party/LwIP/src/core/pbuf.c ****       /* proceed to next pbuf */
 759              		.loc 1 777 7 is_stmt 1 view .LVU232
 777:Middlewares/Third_Party/LwIP/src/core/pbuf.c ****       /* proceed to next pbuf */
 760              		.loc 1 777 12 is_stmt 0 view .LVU233
 761 004a 0135     		adds	r5, r5, #1
 762              	.LVL78:
 777:Middlewares/Third_Party/LwIP/src/core/pbuf.c ****       /* proceed to next pbuf */
 763              		.loc 1 777 12 view .LVU234
 764 004c EDB2     		uxtb	r5, r5
 765              	.LVL79:
 779:Middlewares/Third_Party/LwIP/src/core/pbuf.c ****     /* p->ref > 0, this pbuf is still referenced to */
 766              		.loc 1 779 7 is_stmt 1 view .LVU235
 779:Middlewares/Third_Party/LwIP/src/core/pbuf.c ****     /* p->ref > 0, this pbuf is still referenced to */
 767              		.loc 1 779 9 is_stmt 0 view .LVU236
 768 004e 3446     		mov	r4, r6
 769              	.LVL80:
 770              	.L66:
 779:Middlewares/Third_Party/LwIP/src/core/pbuf.c ****     /* p->ref > 0, this pbuf is still referenced to */
 771              		.loc 1 779 9 view .LVU237
 772              	.LBE2:
 739:Middlewares/Third_Party/LwIP/src/core/pbuf.c ****     u16_t ref;
 773              		.loc 1 739 9 view .LVU238
 774 0050 002C     		cmp	r4, #0
 775 0052 E5D0     		beq	.L58
 776              	.LBB5:
 740:Middlewares/Third_Party/LwIP/src/core/pbuf.c ****     SYS_ARCH_DECL_PROTECT(old_level);
 777              		.loc 1 740 5 is_stmt 1 view .LVU239
 741:Middlewares/Third_Party/LwIP/src/core/pbuf.c ****     /* Since decrementing ref cannot be guaranteed to be a single machine operation
 778              		.loc 1 741 37 view .LVU240
 745:Middlewares/Third_Party/LwIP/src/core/pbuf.c ****     /* all pbufs in a chain are referenced at least once */
 779              		.loc 1 745 32 view .LVU241
 747:Middlewares/Third_Party/LwIP/src/core/pbuf.c ****     /* decrease reference count (number of pointers to pbuf) */
 780              		.loc 1 747 5 view .LVU242
 747:Middlewares/Third_Party/LwIP/src/core/pbuf.c ****     /* decrease reference count (number of pointers to pbuf) */
 781              		.loc 1 747 5 view .LVU243
 782 0054 E389     		ldrh	r3, [r4, #14]
 783 0056 002B     		cmp	r3, #0
 784 0058 ECD0     		beq	.L71
 785              	.L60:
 749:Middlewares/Third_Party/LwIP/src/core/pbuf.c ****     SYS_ARCH_UNPROTECT(old_level);
 786              		.loc 1 749 5 view .LVU244
ARM GAS  /tmp/ccvTpBVd.s 			page 38


 749:Middlewares/Third_Party/LwIP/src/core/pbuf.c ****     SYS_ARCH_UNPROTECT(old_level);
 787              		.loc 1 749 15 is_stmt 0 view .LVU245
 788 005a E389     		ldrh	r3, [r4, #14]
 749:Middlewares/Third_Party/LwIP/src/core/pbuf.c ****     SYS_ARCH_UNPROTECT(old_level);
 789              		.loc 1 749 11 view .LVU246
 790 005c 013B     		subs	r3, r3, #1
 791 005e 9BB2     		uxth	r3, r3
 749:Middlewares/Third_Party/LwIP/src/core/pbuf.c ****     SYS_ARCH_UNPROTECT(old_level);
 792              		.loc 1 749 9 view .LVU247
 793 0060 E381     		strh	r3, [r4, #14]	@ movhi
 794              	.LVL81:
 750:Middlewares/Third_Party/LwIP/src/core/pbuf.c ****     /* this pbuf is no longer referenced to? */
 795              		.loc 1 750 34 is_stmt 1 view .LVU248
 752:Middlewares/Third_Party/LwIP/src/core/pbuf.c ****       /* remember next pbuf in chain for next iteration */
 796              		.loc 1 752 5 view .LVU249
 752:Middlewares/Third_Party/LwIP/src/core/pbuf.c ****       /* remember next pbuf in chain for next iteration */
 797              		.loc 1 752 8 is_stmt 0 view .LVU250
 798 0062 002B     		cmp	r3, #0
 799 0064 DCD1     		bne	.L58
 754:Middlewares/Third_Party/LwIP/src/core/pbuf.c ****       LWIP_DEBUGF( PBUF_DEBUG | LWIP_DBG_TRACE, ("pbuf_free: deallocating %p\n", (void *)p));
 800              		.loc 1 754 7 is_stmt 1 view .LVU251
 754:Middlewares/Third_Party/LwIP/src/core/pbuf.c ****       LWIP_DEBUGF( PBUF_DEBUG | LWIP_DBG_TRACE, ("pbuf_free: deallocating %p\n", (void *)p));
 801              		.loc 1 754 9 is_stmt 0 view .LVU252
 802 0066 2668     		ldr	r6, [r4]
 803              	.LVL82:
 755:Middlewares/Third_Party/LwIP/src/core/pbuf.c ****       type = p->type;
 804              		.loc 1 755 93 is_stmt 1 view .LVU253
 756:Middlewares/Third_Party/LwIP/src/core/pbuf.c **** #if LWIP_SUPPORT_CUSTOM_PBUF
 805              		.loc 1 756 7 view .LVU254
 756:Middlewares/Third_Party/LwIP/src/core/pbuf.c **** #if LWIP_SUPPORT_CUSTOM_PBUF
 806              		.loc 1 756 12 is_stmt 0 view .LVU255
 807 0068 237B     		ldrb	r3, [r4, #12]	@ zero_extendqisi2
 808              	.LVL83:
 759:Middlewares/Third_Party/LwIP/src/core/pbuf.c ****         struct pbuf_custom *pc = (struct pbuf_custom*)p;
 809              		.loc 1 759 7 is_stmt 1 view .LVU256
 759:Middlewares/Third_Party/LwIP/src/core/pbuf.c ****         struct pbuf_custom *pc = (struct pbuf_custom*)p;
 810              		.loc 1 759 13 is_stmt 0 view .LVU257
 811 006a 627B     		ldrb	r2, [r4, #13]	@ zero_extendqisi2
 759:Middlewares/Third_Party/LwIP/src/core/pbuf.c ****         struct pbuf_custom *pc = (struct pbuf_custom*)p;
 812              		.loc 1 759 10 view .LVU258
 813 006c 12F0020F 		tst	r2, #2
 814 0070 0AD0     		beq	.L61
 815              	.LBB4:
 760:Middlewares/Third_Party/LwIP/src/core/pbuf.c ****         LWIP_ASSERT("pc->custom_free_function != NULL", pc->custom_free_function != NULL);
 816              		.loc 1 760 9 is_stmt 1 view .LVU259
 817              	.LVL84:
 761:Middlewares/Third_Party/LwIP/src/core/pbuf.c ****         pc->custom_free_function(p);
 818              		.loc 1 761 9 view .LVU260
 761:Middlewares/Third_Party/LwIP/src/core/pbuf.c ****         pc->custom_free_function(p);
 819              		.loc 1 761 9 view .LVU261
 820 0072 2369     		ldr	r3, [r4, #16]
 821              	.LVL85:
 761:Middlewares/Third_Party/LwIP/src/core/pbuf.c ****         pc->custom_free_function(p);
 822              		.loc 1 761 9 is_stmt 0 view .LVU262
 823 0074 002B     		cmp	r3, #0
 824 0076 E5D1     		bne	.L62
 761:Middlewares/Third_Party/LwIP/src/core/pbuf.c ****         pc->custom_free_function(p);
ARM GAS  /tmp/ccvTpBVd.s 			page 39


 825              		.loc 1 761 9 is_stmt 1 discriminator 1 view .LVU263
 761:Middlewares/Third_Party/LwIP/src/core/pbuf.c ****         pc->custom_free_function(p);
 826              		.loc 1 761 9 discriminator 1 view .LVU264
 827 0078 0D4B     		ldr	r3, .L74
 828 007a 40F2F922 		movw	r2, #761
 829 007e 1149     		ldr	r1, .L74+20
 830 0080 0D48     		ldr	r0, .L74+8
 831 0082 FFF7FEFF 		bl	printf
 832              	.LVL86:
 761:Middlewares/Third_Party/LwIP/src/core/pbuf.c ****         pc->custom_free_function(p);
 833              		.loc 1 761 9 is_stmt 0 discriminator 1 view .LVU265
 834 0086 DDE7     		b	.L62
 835              	.LVL87:
 836              	.L61:
 761:Middlewares/Third_Party/LwIP/src/core/pbuf.c ****         pc->custom_free_function(p);
 837              		.loc 1 761 9 discriminator 1 view .LVU266
 838              	.LBE4:
 767:Middlewares/Third_Party/LwIP/src/core/pbuf.c ****           memp_free(MEMP_PBUF_POOL, p);
 839              		.loc 1 767 9 is_stmt 1 view .LVU267
 767:Middlewares/Third_Party/LwIP/src/core/pbuf.c ****           memp_free(MEMP_PBUF_POOL, p);
 840              		.loc 1 767 12 is_stmt 0 view .LVU268
 841 0088 032B     		cmp	r3, #3
 842 008a 07D0     		beq	.L72
 770:Middlewares/Third_Party/LwIP/src/core/pbuf.c ****           memp_free(MEMP_PBUF, p);
 843              		.loc 1 770 16 is_stmt 1 view .LVU269
 770:Middlewares/Third_Party/LwIP/src/core/pbuf.c ****           memp_free(MEMP_PBUF, p);
 844              		.loc 1 770 37 is_stmt 0 view .LVU270
 845 008c 013B     		subs	r3, r3, #1
 846              	.LVL88:
 770:Middlewares/Third_Party/LwIP/src/core/pbuf.c ****           memp_free(MEMP_PBUF, p);
 847              		.loc 1 770 37 view .LVU271
 848 008e 9BB2     		uxth	r3, r3
 849              	.LVL89:
 770:Middlewares/Third_Party/LwIP/src/core/pbuf.c ****           memp_free(MEMP_PBUF, p);
 850              		.loc 1 770 19 view .LVU272
 851 0090 012B     		cmp	r3, #1
 852 0092 08D9     		bls	.L73
 774:Middlewares/Third_Party/LwIP/src/core/pbuf.c ****         }
 853              		.loc 1 774 11 is_stmt 1 view .LVU273
 854 0094 2046     		mov	r0, r4
 855 0096 FFF7FEFF 		bl	mem_free
 856              	.LVL90:
 774:Middlewares/Third_Party/LwIP/src/core/pbuf.c ****         }
 857              		.loc 1 774 11 is_stmt 0 view .LVU274
 858 009a D6E7     		b	.L63
 859              	.LVL91:
 860              	.L72:
 768:Middlewares/Third_Party/LwIP/src/core/pbuf.c ****         /* is this a ROM or RAM referencing pbuf? */
 861              		.loc 1 768 11 is_stmt 1 view .LVU275
 862 009c 2146     		mov	r1, r4
 863 009e 0820     		movs	r0, #8
 864 00a0 FFF7FEFF 		bl	memp_free
 865              	.LVL92:
 768:Middlewares/Third_Party/LwIP/src/core/pbuf.c ****         /* is this a ROM or RAM referencing pbuf? */
 866              		.loc 1 768 11 is_stmt 0 view .LVU276
 867 00a4 D1E7     		b	.L63
 868              	.LVL93:
ARM GAS  /tmp/ccvTpBVd.s 			page 40


 869              	.L73:
 771:Middlewares/Third_Party/LwIP/src/core/pbuf.c ****         /* type == PBUF_RAM */
 870              		.loc 1 771 11 is_stmt 1 view .LVU277
 871 00a6 2146     		mov	r1, r4
 872 00a8 0720     		movs	r0, #7
 873 00aa FFF7FEFF 		bl	memp_free
 874              	.LVL94:
 771:Middlewares/Third_Party/LwIP/src/core/pbuf.c ****         /* type == PBUF_RAM */
 875              		.loc 1 771 11 is_stmt 0 view .LVU278
 876 00ae CCE7     		b	.L63
 877              	.L75:
 878              		.align	2
 879              	.L74:
 880 00b0 00000000 		.word	.LC0
 881 00b4 30000000 		.word	.LC1
 882 00b8 3C000000 		.word	.LC2
 883 00bc 00000000 		.word	.LC6
 884 00c0 18000000 		.word	.LC7
 885 00c4 30000000 		.word	.LC8
 886              	.LBE5:
 887              		.cfi_endproc
 888              	.LFE168:
 890              		.section	.text.pbuf_alloc,"ax",%progbits
 891              		.align	1
 892              		.global	pbuf_alloc
 893              		.syntax unified
 894              		.thumb
 895              		.thumb_func
 896              		.fpu fpv5-sp-d16
 898              	pbuf_alloc:
 899              	.LVL95:
 900              	.LFB162:
 249:Middlewares/Third_Party/LwIP/src/core/pbuf.c ****   struct pbuf *p, *q, *r;
 901              		.loc 1 249 1 is_stmt 1 view -0
 902              		.cfi_startproc
 903              		@ args = 0, pretend = 0, frame = 0
 904              		@ frame_needed = 0, uses_anonymous_args = 0
 249:Middlewares/Third_Party/LwIP/src/core/pbuf.c ****   struct pbuf *p, *q, *r;
 905              		.loc 1 249 1 is_stmt 0 view .LVU280
 906 0000 2DE9F843 		push	{r3, r4, r5, r6, r7, r8, r9, lr}
 907              	.LCFI6:
 908              		.cfi_def_cfa_offset 32
 909              		.cfi_offset 3, -32
 910              		.cfi_offset 4, -28
 911              		.cfi_offset 5, -24
 912              		.cfi_offset 6, -20
 913              		.cfi_offset 7, -16
 914              		.cfi_offset 8, -12
 915              		.cfi_offset 9, -8
 916              		.cfi_offset 14, -4
 917 0004 0D46     		mov	r5, r1
 918 0006 1746     		mov	r7, r2
 250:Middlewares/Third_Party/LwIP/src/core/pbuf.c ****   u16_t offset;
 919              		.loc 1 250 3 is_stmt 1 view .LVU281
 251:Middlewares/Third_Party/LwIP/src/core/pbuf.c ****   s32_t rem_len; /* remaining length */
 920              		.loc 1 251 3 view .LVU282
 252:Middlewares/Third_Party/LwIP/src/core/pbuf.c ****   LWIP_DEBUGF(PBUF_DEBUG | LWIP_DBG_TRACE, ("pbuf_alloc(length=%"U16_F")\n", length));
ARM GAS  /tmp/ccvTpBVd.s 			page 41


 921              		.loc 1 252 3 view .LVU283
 253:Middlewares/Third_Party/LwIP/src/core/pbuf.c **** 
 922              		.loc 1 253 86 view .LVU284
 256:Middlewares/Third_Party/LwIP/src/core/pbuf.c ****   case PBUF_TRANSPORT:
 923              		.loc 1 256 3 view .LVU285
 924 0008 0428     		cmp	r0, #4
 925 000a 0AD8     		bhi	.L77
 926 000c DFE800F0 		tbb	[pc, r0]
 927              	.L79:
 928 0010 12       		.byte	(.L83-.L79)/2
 929 0011 14       		.byte	(.L99-.L79)/2
 930 0012 03       		.byte	(.L81-.L79)/2
 931 0013 05       		.byte	(.L80-.L79)/2
 932 0014 07       		.byte	(.L78-.L79)/2
 933 0015 00       		.p2align 1
 934              	.L81:
 267:Middlewares/Third_Party/LwIP/src/core/pbuf.c ****     break;
 935              		.loc 1 267 5 view .LVU286
 936              	.LVL96:
 268:Middlewares/Third_Party/LwIP/src/core/pbuf.c ****   case PBUF_RAW_TX:
 937              		.loc 1 268 5 view .LVU287
 267:Middlewares/Third_Party/LwIP/src/core/pbuf.c ****     break;
 938              		.loc 1 267 12 is_stmt 0 view .LVU288
 939 0016 0E24     		movs	r4, #14
 268:Middlewares/Third_Party/LwIP/src/core/pbuf.c ****   case PBUF_RAW_TX:
 940              		.loc 1 268 5 view .LVU289
 941 0018 0FE0     		b	.L82
 942              	.LVL97:
 943              	.L80:
 271:Middlewares/Third_Party/LwIP/src/core/pbuf.c ****     break;
 944              		.loc 1 271 5 is_stmt 1 view .LVU290
 272:Middlewares/Third_Party/LwIP/src/core/pbuf.c ****   case PBUF_RAW:
 945              		.loc 1 272 5 view .LVU291
 271:Middlewares/Third_Party/LwIP/src/core/pbuf.c ****     break;
 946              		.loc 1 271 12 is_stmt 0 view .LVU292
 947 001a 0024     		movs	r4, #0
 272:Middlewares/Third_Party/LwIP/src/core/pbuf.c ****   case PBUF_RAW:
 948              		.loc 1 272 5 view .LVU293
 949 001c 0DE0     		b	.L82
 950              	.LVL98:
 951              	.L78:
 275:Middlewares/Third_Party/LwIP/src/core/pbuf.c ****     break;
 952              		.loc 1 275 5 is_stmt 1 view .LVU294
 276:Middlewares/Third_Party/LwIP/src/core/pbuf.c ****   default:
 953              		.loc 1 276 5 view .LVU295
 275:Middlewares/Third_Party/LwIP/src/core/pbuf.c ****     break;
 954              		.loc 1 275 12 is_stmt 0 view .LVU296
 955 001e 0024     		movs	r4, #0
 276:Middlewares/Third_Party/LwIP/src/core/pbuf.c ****   default:
 956              		.loc 1 276 5 view .LVU297
 957 0020 0BE0     		b	.L82
 958              	.LVL99:
 959              	.L77:
 278:Middlewares/Third_Party/LwIP/src/core/pbuf.c ****     return NULL;
 960              		.loc 1 278 5 is_stmt 1 discriminator 1 view .LVU298
 278:Middlewares/Third_Party/LwIP/src/core/pbuf.c ****     return NULL;
 961              		.loc 1 278 5 discriminator 1 view .LVU299
ARM GAS  /tmp/ccvTpBVd.s 			page 42


 278:Middlewares/Third_Party/LwIP/src/core/pbuf.c ****     return NULL;
 962              		.loc 1 278 5 discriminator 1 view .LVU300
 278:Middlewares/Third_Party/LwIP/src/core/pbuf.c ****     return NULL;
 963              		.loc 1 278 5 discriminator 1 view .LVU301
 964 0022 644B     		ldr	r3, .L108
 965 0024 4FF48B72 		mov	r2, #278
 966              	.LVL100:
 278:Middlewares/Third_Party/LwIP/src/core/pbuf.c ****     return NULL;
 967              		.loc 1 278 5 is_stmt 0 discriminator 1 view .LVU302
 968 0028 6349     		ldr	r1, .L108+4
 969              	.LVL101:
 278:Middlewares/Third_Party/LwIP/src/core/pbuf.c ****     return NULL;
 970              		.loc 1 278 5 discriminator 1 view .LVU303
 971 002a 6448     		ldr	r0, .L108+8
 972              	.LVL102:
 278:Middlewares/Third_Party/LwIP/src/core/pbuf.c ****     return NULL;
 973              		.loc 1 278 5 discriminator 1 view .LVU304
 974 002c FFF7FEFF 		bl	printf
 975              	.LVL103:
 279:Middlewares/Third_Party/LwIP/src/core/pbuf.c ****   }
 976              		.loc 1 279 5 is_stmt 1 discriminator 1 view .LVU305
 279:Middlewares/Third_Party/LwIP/src/core/pbuf.c ****   }
 977              		.loc 1 279 12 is_stmt 0 discriminator 1 view .LVU306
 978 0030 0026     		movs	r6, #0
 979 0032 B1E0     		b	.L76
 980              	.LVL104:
 981              	.L83:
 259:Middlewares/Third_Party/LwIP/src/core/pbuf.c ****     break;
 982              		.loc 1 259 12 view .LVU307
 983 0034 3624     		movs	r4, #54
 984 0036 00E0     		b	.L82
 985              	.L99:
 263:Middlewares/Third_Party/LwIP/src/core/pbuf.c ****     break;
 986              		.loc 1 263 12 view .LVU308
 987 0038 2224     		movs	r4, #34
 988              	.L82:
 989              	.LVL105:
 282:Middlewares/Third_Party/LwIP/src/core/pbuf.c ****   case PBUF_POOL:
 990              		.loc 1 282 3 is_stmt 1 view .LVU309
 991 003a 032F     		cmp	r7, #3
 992 003c 00F2AF80 		bhi	.L85
 993 0040 DFE807F0 		tbb	[pc, r7]
 994              	.L87:
 995 0044 7B       		.byte	(.L89-.L87)/2
 996 0045 9B       		.byte	(.L88-.L87)/2
 997 0046 9B       		.byte	(.L88-.L87)/2
 998 0047 02       		.byte	(.L86-.L87)/2
 999              		.p2align 1
 1000              	.L86:
 285:Middlewares/Third_Party/LwIP/src/core/pbuf.c ****     LWIP_DEBUGF(PBUF_DEBUG | LWIP_DBG_TRACE, ("pbuf_alloc: allocated pbuf %p\n", (void *)p));
 1001              		.loc 1 285 5 view .LVU310
 285:Middlewares/Third_Party/LwIP/src/core/pbuf.c ****     LWIP_DEBUGF(PBUF_DEBUG | LWIP_DBG_TRACE, ("pbuf_alloc: allocated pbuf %p\n", (void *)p));
 1002              		.loc 1 285 24 is_stmt 0 view .LVU311
 1003 0048 0820     		movs	r0, #8
 1004              	.LVL106:
 285:Middlewares/Third_Party/LwIP/src/core/pbuf.c ****     LWIP_DEBUGF(PBUF_DEBUG | LWIP_DBG_TRACE, ("pbuf_alloc: allocated pbuf %p\n", (void *)p));
 1005              		.loc 1 285 24 view .LVU312
ARM GAS  /tmp/ccvTpBVd.s 			page 43


 1006 004a FFF7FEFF 		bl	memp_malloc
 1007              	.LVL107:
 286:Middlewares/Third_Party/LwIP/src/core/pbuf.c ****     if (p == NULL) {
 1008              		.loc 1 286 93 is_stmt 1 view .LVU313
 287:Middlewares/Third_Party/LwIP/src/core/pbuf.c ****       PBUF_POOL_IS_EMPTY();
 1009              		.loc 1 287 5 view .LVU314
 287:Middlewares/Third_Party/LwIP/src/core/pbuf.c ****       PBUF_POOL_IS_EMPTY();
 1010              		.loc 1 287 8 is_stmt 0 view .LVU315
 1011 004e 0646     		mov	r6, r0
 1012 0050 F8B1     		cbz	r0, .L102
 291:Middlewares/Third_Party/LwIP/src/core/pbuf.c ****     p->next = NULL;
 1013              		.loc 1 291 5 is_stmt 1 view .LVU316
 291:Middlewares/Third_Party/LwIP/src/core/pbuf.c ****     p->next = NULL;
 1014              		.loc 1 291 13 is_stmt 0 view .LVU317
 1015 0052 0773     		strb	r7, [r0, #12]
 292:Middlewares/Third_Party/LwIP/src/core/pbuf.c **** 
 1016              		.loc 1 292 5 is_stmt 1 view .LVU318
 292:Middlewares/Third_Party/LwIP/src/core/pbuf.c **** 
 1017              		.loc 1 292 13 is_stmt 0 view .LVU319
 1018 0054 0023     		movs	r3, #0
 1019 0056 0360     		str	r3, [r0]
 295:Middlewares/Third_Party/LwIP/src/core/pbuf.c ****     LWIP_ASSERT("pbuf_alloc: pbuf p->payload properly aligned",
 1020              		.loc 1 295 5 is_stmt 1 view .LVU320
 295:Middlewares/Third_Party/LwIP/src/core/pbuf.c ****     LWIP_ASSERT("pbuf_alloc: pbuf p->payload properly aligned",
 1021              		.loc 1 295 18 is_stmt 0 view .LVU321
 1022 0058 04F11003 		add	r3, r4, #16
 1023 005c 0344     		add	r3, r3, r0
 1024 005e 0333     		adds	r3, r3, #3
 1025 0060 23F00303 		bic	r3, r3, #3
 295:Middlewares/Third_Party/LwIP/src/core/pbuf.c ****     LWIP_ASSERT("pbuf_alloc: pbuf p->payload properly aligned",
 1026              		.loc 1 295 16 view .LVU322
 1027 0064 4360     		str	r3, [r0, #4]
 296:Middlewares/Third_Party/LwIP/src/core/pbuf.c ****             ((mem_ptr_t)p->payload % MEM_ALIGNMENT) == 0);
 1028              		.loc 1 296 5 is_stmt 1 view .LVU323
 296:Middlewares/Third_Party/LwIP/src/core/pbuf.c ****             ((mem_ptr_t)p->payload % MEM_ALIGNMENT) == 0);
 1029              		.loc 1 296 5 view .LVU324
 299:Middlewares/Third_Party/LwIP/src/core/pbuf.c ****     /* set the length of the first pbuf in the chain */
 1030              		.loc 1 299 5 view .LVU325
 299:Middlewares/Third_Party/LwIP/src/core/pbuf.c ****     /* set the length of the first pbuf in the chain */
 1031              		.loc 1 299 16 is_stmt 0 view .LVU326
 1032 0066 0581     		strh	r5, [r0, #8]	@ movhi
 301:Middlewares/Third_Party/LwIP/src/core/pbuf.c ****     LWIP_ASSERT("check p->payload + p->len does not overflow pbuf",
 1033              		.loc 1 301 5 is_stmt 1 view .LVU327
 301:Middlewares/Third_Party/LwIP/src/core/pbuf.c ****     LWIP_ASSERT("check p->payload + p->len does not overflow pbuf",
 1034              		.loc 1 301 14 is_stmt 0 view .LVU328
 1035 0068 E21C     		adds	r2, r4, #3
 1036 006a 22F00302 		bic	r2, r2, #3
 1037 006e C2F51472 		rsb	r2, r2, #592
 1038 0072 AA42     		cmp	r2, r5
 1039 0074 28BF     		it	cs
 1040 0076 2A46     		movcs	r2, r5
 301:Middlewares/Third_Party/LwIP/src/core/pbuf.c ****     LWIP_ASSERT("check p->payload + p->len does not overflow pbuf",
 1041              		.loc 1 301 12 view .LVU329
 1042 0078 92B2     		uxth	r2, r2
 1043 007a 4281     		strh	r2, [r0, #10]	@ movhi
 302:Middlewares/Third_Party/LwIP/src/core/pbuf.c ****                 ((u8_t*)p->payload + p->len <=
 1044              		.loc 1 302 5 is_stmt 1 view .LVU330
ARM GAS  /tmp/ccvTpBVd.s 			page 44


 302:Middlewares/Third_Party/LwIP/src/core/pbuf.c ****                 ((u8_t*)p->payload + p->len <=
 1045              		.loc 1 302 5 view .LVU331
 1046 007c 1344     		add	r3, r3, r2
 1047 007e 00F51878 		add	r8, r0, #608
 1048 0082 4345     		cmp	r3, r8
 1049 0084 08D8     		bhi	.L103
 1050              	.LVL108:
 1051              	.L91:
 305:Middlewares/Third_Party/LwIP/src/core/pbuf.c ****       (PBUF_POOL_BUFSIZE_ALIGNED - LWIP_MEM_ALIGN_SIZE(offset)) > 0 );
 1052              		.loc 1 305 5 view .LVU332
 305:Middlewares/Third_Party/LwIP/src/core/pbuf.c ****       (PBUF_POOL_BUFSIZE_ALIGNED - LWIP_MEM_ALIGN_SIZE(offset)) > 0 );
 1053              		.loc 1 305 5 view .LVU333
 308:Middlewares/Third_Party/LwIP/src/core/pbuf.c **** 
 1054              		.loc 1 308 5 view .LVU334
 308:Middlewares/Third_Party/LwIP/src/core/pbuf.c **** 
 1055              		.loc 1 308 12 is_stmt 0 view .LVU335
 1056 0086 0123     		movs	r3, #1
 1057 0088 F381     		strh	r3, [r6, #14]	@ movhi
 313:Middlewares/Third_Party/LwIP/src/core/pbuf.c ****     /* remaining length to be allocated */
 1058              		.loc 1 313 5 is_stmt 1 view .LVU336
 1059              	.LVL109:
 315:Middlewares/Third_Party/LwIP/src/core/pbuf.c ****     /* any remaining pbufs to be allocated? */
 1060              		.loc 1 315 5 view .LVU337
 315:Middlewares/Third_Party/LwIP/src/core/pbuf.c ****     /* any remaining pbufs to be allocated? */
 1061              		.loc 1 315 25 is_stmt 0 view .LVU338
 1062 008a 7389     		ldrh	r3, [r6, #10]
 315:Middlewares/Third_Party/LwIP/src/core/pbuf.c ****     /* any remaining pbufs to be allocated? */
 1063              		.loc 1 315 13 view .LVU339
 1064 008c ED1A     		subs	r5, r5, r3
 1065              	.LVL110:
 317:Middlewares/Third_Party/LwIP/src/core/pbuf.c ****       q = (struct pbuf *)memp_malloc(MEMP_PBUF_POOL);
 1066              		.loc 1 317 5 is_stmt 1 view .LVU340
 313:Middlewares/Third_Party/LwIP/src/core/pbuf.c ****     /* remaining length to be allocated */
 1067              		.loc 1 313 7 is_stmt 0 view .LVU341
 1068 008e B146     		mov	r9, r6
 317:Middlewares/Third_Party/LwIP/src/core/pbuf.c ****       q = (struct pbuf *)memp_malloc(MEMP_PBUF_POOL);
 1069              		.loc 1 317 11 view .LVU342
 1070 0090 2DE0     		b	.L92
 1071              	.LVL111:
 1072              	.L102:
 288:Middlewares/Third_Party/LwIP/src/core/pbuf.c ****       return NULL;
 1073              		.loc 1 288 7 is_stmt 1 view .LVU343
 1074 0092 FFF7FEFF 		bl	pbuf_pool_is_empty
 1075              	.LVL112:
 289:Middlewares/Third_Party/LwIP/src/core/pbuf.c ****     }
 1076              		.loc 1 289 7 view .LVU344
 289:Middlewares/Third_Party/LwIP/src/core/pbuf.c ****     }
 1077              		.loc 1 289 14 is_stmt 0 view .LVU345
 1078 0096 7FE0     		b	.L76
 1079              	.LVL113:
 1080              	.L103:
 302:Middlewares/Third_Party/LwIP/src/core/pbuf.c ****                 ((u8_t*)p->payload + p->len <=
 1081              		.loc 1 302 5 is_stmt 1 discriminator 1 view .LVU346
 302:Middlewares/Third_Party/LwIP/src/core/pbuf.c ****                 ((u8_t*)p->payload + p->len <=
 1082              		.loc 1 302 5 discriminator 1 view .LVU347
 1083 0098 464B     		ldr	r3, .L108
 1084 009a 4FF49872 		mov	r2, #304
ARM GAS  /tmp/ccvTpBVd.s 			page 45


 1085 009e 4849     		ldr	r1, .L108+12
 1086 00a0 4648     		ldr	r0, .L108+8
 1087              	.LVL114:
 302:Middlewares/Third_Party/LwIP/src/core/pbuf.c ****                 ((u8_t*)p->payload + p->len <=
 1088              		.loc 1 302 5 is_stmt 0 discriminator 1 view .LVU348
 1089 00a2 FFF7FEFF 		bl	printf
 1090              	.LVL115:
 1091 00a6 EEE7     		b	.L91
 1092              	.LVL116:
 1093              	.L104:
 320:Middlewares/Third_Party/LwIP/src/core/pbuf.c ****         /* free chain so far allocated */
 1094              		.loc 1 320 9 is_stmt 1 view .LVU349
 1095 00a8 FFF7FEFF 		bl	pbuf_pool_is_empty
 1096              	.LVL117:
 322:Middlewares/Third_Party/LwIP/src/core/pbuf.c ****         /* bail out unsuccessfully */
 1097              		.loc 1 322 9 view .LVU350
 1098 00ac 3046     		mov	r0, r6
 1099 00ae FFF7FEFF 		bl	pbuf_free
 1100              	.LVL118:
 324:Middlewares/Third_Party/LwIP/src/core/pbuf.c ****       }
 1101              		.loc 1 324 9 view .LVU351
 324:Middlewares/Third_Party/LwIP/src/core/pbuf.c ****       }
 1102              		.loc 1 324 16 is_stmt 0 view .LVU352
 1103 00b2 2646     		mov	r6, r4
 1104              	.LVL119:
 324:Middlewares/Third_Party/LwIP/src/core/pbuf.c ****       }
 1105              		.loc 1 324 16 view .LVU353
 1106 00b4 70E0     		b	.L76
 1107              	.LVL120:
 1108              	.L105:
 332:Middlewares/Third_Party/LwIP/src/core/pbuf.c ****       q->tot_len = (u16_t)rem_len;
 1109              		.loc 1 332 7 is_stmt 1 discriminator 1 view .LVU354
 332:Middlewares/Third_Party/LwIP/src/core/pbuf.c ****       q->tot_len = (u16_t)rem_len;
 1110              		.loc 1 332 7 discriminator 1 view .LVU355
 1111 00b6 3F4B     		ldr	r3, .L108
 1112 00b8 4FF4A672 		mov	r2, #332
 1113 00bc 4149     		ldr	r1, .L108+16
 1114 00be 3F48     		ldr	r0, .L108+8
 1115              	.LVL121:
 332:Middlewares/Third_Party/LwIP/src/core/pbuf.c ****       q->tot_len = (u16_t)rem_len;
 1116              		.loc 1 332 7 is_stmt 0 discriminator 1 view .LVU356
 1117 00c0 FFF7FEFF 		bl	printf
 1118              	.LVL122:
 1119 00c4 25E0     		b	.L94
 1120              	.L106:
 337:Middlewares/Third_Party/LwIP/src/core/pbuf.c ****               ((mem_ptr_t)q->payload % MEM_ALIGNMENT) == 0);
 1121              		.loc 1 337 7 is_stmt 1 discriminator 1 view .LVU357
 337:Middlewares/Third_Party/LwIP/src/core/pbuf.c ****               ((mem_ptr_t)q->payload % MEM_ALIGNMENT) == 0);
 1122              		.loc 1 337 7 discriminator 1 view .LVU358
 1123 00c6 3B4B     		ldr	r3, .L108
 1124 00c8 4FF4A972 		mov	r2, #338
 1125 00cc 3E49     		ldr	r1, .L108+20
 1126 00ce 3B48     		ldr	r0, .L108+8
 1127 00d0 FFF7FEFF 		bl	printf
 1128              	.LVL123:
 1129 00d4 2BE0     		b	.L95
 1130              	.L107:
ARM GAS  /tmp/ccvTpBVd.s 			page 46


 339:Middlewares/Third_Party/LwIP/src/core/pbuf.c ****                   ((u8_t*)p->payload + p->len <=
 1131              		.loc 1 339 7 discriminator 1 view .LVU359
 339:Middlewares/Third_Party/LwIP/src/core/pbuf.c ****                   ((u8_t*)p->payload + p->len <=
 1132              		.loc 1 339 7 discriminator 1 view .LVU360
 1133 00d6 374B     		ldr	r3, .L108
 1134 00d8 40F25512 		movw	r2, #341
 1135 00dc 3849     		ldr	r1, .L108+12
 1136 00de 3748     		ldr	r0, .L108+8
 1137 00e0 FFF7FEFF 		bl	printf
 1138              	.LVL124:
 1139              	.L96:
 342:Middlewares/Third_Party/LwIP/src/core/pbuf.c ****       /* calculate remaining length to be allocated */
 1140              		.loc 1 342 7 view .LVU361
 342:Middlewares/Third_Party/LwIP/src/core/pbuf.c ****       /* calculate remaining length to be allocated */
 1141              		.loc 1 342 14 is_stmt 0 view .LVU362
 1142 00e4 0123     		movs	r3, #1
 1143 00e6 E381     		strh	r3, [r4, #14]	@ movhi
 344:Middlewares/Third_Party/LwIP/src/core/pbuf.c ****       /* remember this pbuf for linkage in next iteration */
 1144              		.loc 1 344 7 is_stmt 1 view .LVU363
 344:Middlewares/Third_Party/LwIP/src/core/pbuf.c ****       /* remember this pbuf for linkage in next iteration */
 1145              		.loc 1 344 19 is_stmt 0 view .LVU364
 1146 00e8 6389     		ldrh	r3, [r4, #10]
 344:Middlewares/Third_Party/LwIP/src/core/pbuf.c ****       /* remember this pbuf for linkage in next iteration */
 1147              		.loc 1 344 15 view .LVU365
 1148 00ea ED1A     		subs	r5, r5, r3
 1149              	.LVL125:
 346:Middlewares/Third_Party/LwIP/src/core/pbuf.c ****     }
 1150              		.loc 1 346 7 is_stmt 1 view .LVU366
 346:Middlewares/Third_Party/LwIP/src/core/pbuf.c ****     }
 1151              		.loc 1 346 9 is_stmt 0 view .LVU367
 1152 00ec A146     		mov	r9, r4
 1153              	.LVL126:
 1154              	.L92:
 317:Middlewares/Third_Party/LwIP/src/core/pbuf.c ****       q = (struct pbuf *)memp_malloc(MEMP_PBUF_POOL);
 1155              		.loc 1 317 11 view .LVU368
 1156 00ee 002D     		cmp	r5, #0
 1157 00f0 4EDD     		ble	.L98
 318:Middlewares/Third_Party/LwIP/src/core/pbuf.c ****       if (q == NULL) {
 1158              		.loc 1 318 7 is_stmt 1 view .LVU369
 318:Middlewares/Third_Party/LwIP/src/core/pbuf.c ****       if (q == NULL) {
 1159              		.loc 1 318 26 is_stmt 0 view .LVU370
 1160 00f2 0820     		movs	r0, #8
 1161 00f4 FFF7FEFF 		bl	memp_malloc
 1162              	.LVL127:
 319:Middlewares/Third_Party/LwIP/src/core/pbuf.c ****         PBUF_POOL_IS_EMPTY();
 1163              		.loc 1 319 7 is_stmt 1 view .LVU371
 319:Middlewares/Third_Party/LwIP/src/core/pbuf.c ****         PBUF_POOL_IS_EMPTY();
 1164              		.loc 1 319 10 is_stmt 0 view .LVU372
 1165 00f8 0446     		mov	r4, r0
 1166 00fa 0028     		cmp	r0, #0
 1167 00fc D4D0     		beq	.L104
 326:Middlewares/Third_Party/LwIP/src/core/pbuf.c ****       q->flags = 0;
 1168              		.loc 1 326 7 is_stmt 1 view .LVU373
 326:Middlewares/Third_Party/LwIP/src/core/pbuf.c ****       q->flags = 0;
 1169              		.loc 1 326 15 is_stmt 0 view .LVU374
 1170 00fe 0773     		strb	r7, [r0, #12]
 327:Middlewares/Third_Party/LwIP/src/core/pbuf.c ****       q->next = NULL;
ARM GAS  /tmp/ccvTpBVd.s 			page 47


 1171              		.loc 1 327 7 is_stmt 1 view .LVU375
 327:Middlewares/Third_Party/LwIP/src/core/pbuf.c ****       q->next = NULL;
 1172              		.loc 1 327 16 is_stmt 0 view .LVU376
 1173 0100 0023     		movs	r3, #0
 1174 0102 4373     		strb	r3, [r0, #13]
 328:Middlewares/Third_Party/LwIP/src/core/pbuf.c ****       /* make previous pbuf point to this pbuf */
 1175              		.loc 1 328 7 is_stmt 1 view .LVU377
 328:Middlewares/Third_Party/LwIP/src/core/pbuf.c ****       /* make previous pbuf point to this pbuf */
 1176              		.loc 1 328 15 is_stmt 0 view .LVU378
 1177 0104 0360     		str	r3, [r0]
 330:Middlewares/Third_Party/LwIP/src/core/pbuf.c ****       /* set total length of this pbuf and next in chain */
 1178              		.loc 1 330 7 is_stmt 1 view .LVU379
 330:Middlewares/Third_Party/LwIP/src/core/pbuf.c ****       /* set total length of this pbuf and next in chain */
 1179              		.loc 1 330 15 is_stmt 0 view .LVU380
 1180 0106 C9F80000 		str	r0, [r9]
 332:Middlewares/Third_Party/LwIP/src/core/pbuf.c ****       q->tot_len = (u16_t)rem_len;
 1181              		.loc 1 332 7 is_stmt 1 view .LVU381
 332:Middlewares/Third_Party/LwIP/src/core/pbuf.c ****       q->tot_len = (u16_t)rem_len;
 1182              		.loc 1 332 7 view .LVU382
 1183 010a 4FF6FE73 		movw	r3, #65534
 1184 010e 9D42     		cmp	r5, r3
 1185 0110 D1DC     		bgt	.L105
 1186              	.LVL128:
 1187              	.L94:
 333:Middlewares/Third_Party/LwIP/src/core/pbuf.c ****       /* this pbuf length is pool size, unless smaller sized tail */
 1188              		.loc 1 333 7 view .LVU383
 333:Middlewares/Third_Party/LwIP/src/core/pbuf.c ****       /* this pbuf length is pool size, unless smaller sized tail */
 1189              		.loc 1 333 20 is_stmt 0 view .LVU384
 1190 0112 ABB2     		uxth	r3, r5
 333:Middlewares/Third_Party/LwIP/src/core/pbuf.c ****       /* this pbuf length is pool size, unless smaller sized tail */
 1191              		.loc 1 333 18 view .LVU385
 1192 0114 2381     		strh	r3, [r4, #8]	@ movhi
 335:Middlewares/Third_Party/LwIP/src/core/pbuf.c ****       q->payload = (void *)((u8_t *)q + SIZEOF_STRUCT_PBUF);
 1193              		.loc 1 335 7 is_stmt 1 view .LVU386
 335:Middlewares/Third_Party/LwIP/src/core/pbuf.c ****       q->payload = (void *)((u8_t *)q + SIZEOF_STRUCT_PBUF);
 1194              		.loc 1 335 16 is_stmt 0 view .LVU387
 1195 0116 B3F5147F 		cmp	r3, #592
 1196 011a 28BF     		it	cs
 1197 011c 4FF41473 		movcs	r3, #592
 335:Middlewares/Third_Party/LwIP/src/core/pbuf.c ****       q->payload = (void *)((u8_t *)q + SIZEOF_STRUCT_PBUF);
 1198              		.loc 1 335 14 view .LVU388
 1199 0120 6381     		strh	r3, [r4, #10]	@ movhi
 336:Middlewares/Third_Party/LwIP/src/core/pbuf.c ****       LWIP_ASSERT("pbuf_alloc: pbuf q->payload properly aligned",
 1200              		.loc 1 336 7 is_stmt 1 view .LVU389
 336:Middlewares/Third_Party/LwIP/src/core/pbuf.c ****       LWIP_ASSERT("pbuf_alloc: pbuf q->payload properly aligned",
 1201              		.loc 1 336 20 is_stmt 0 view .LVU390
 1202 0122 04F11003 		add	r3, r4, #16
 336:Middlewares/Third_Party/LwIP/src/core/pbuf.c ****       LWIP_ASSERT("pbuf_alloc: pbuf q->payload properly aligned",
 1203              		.loc 1 336 18 view .LVU391
 1204 0126 6360     		str	r3, [r4, #4]
 337:Middlewares/Third_Party/LwIP/src/core/pbuf.c ****               ((mem_ptr_t)q->payload % MEM_ALIGNMENT) == 0);
 1205              		.loc 1 337 7 is_stmt 1 view .LVU392
 337:Middlewares/Third_Party/LwIP/src/core/pbuf.c ****               ((mem_ptr_t)q->payload % MEM_ALIGNMENT) == 0);
 1206              		.loc 1 337 7 view .LVU393
 1207 0128 13F0030F 		tst	r3, #3
 1208 012c CBD1     		bne	.L106
 1209              	.L95:
ARM GAS  /tmp/ccvTpBVd.s 			page 48


 339:Middlewares/Third_Party/LwIP/src/core/pbuf.c ****                   ((u8_t*)p->payload + p->len <=
 1210              		.loc 1 339 7 view .LVU394
 339:Middlewares/Third_Party/LwIP/src/core/pbuf.c ****                   ((u8_t*)p->payload + p->len <=
 1211              		.loc 1 339 7 view .LVU395
 1212 012e 7368     		ldr	r3, [r6, #4]
 1213 0130 7289     		ldrh	r2, [r6, #10]
 1214 0132 1344     		add	r3, r3, r2
 1215 0134 9845     		cmp	r8, r3
 1216 0136 D5D2     		bcs	.L96
 1217 0138 CDE7     		b	.L107
 1218              	.LVL129:
 1219              	.L89:
 1220              	.LBB6:
 354:Middlewares/Third_Party/LwIP/src/core/pbuf.c ****       
 1221              		.loc 1 354 7 view .LVU396
 354:Middlewares/Third_Party/LwIP/src/core/pbuf.c ****       
 1222              		.loc 1 354 30 is_stmt 0 view .LVU397
 1223 013a 04F11300 		add	r0, r4, #19
 1224              	.LVL130:
 354:Middlewares/Third_Party/LwIP/src/core/pbuf.c ****       
 1225              		.loc 1 354 30 view .LVU398
 1226 013e 20F00300 		bic	r0, r0, #3
 1227 0142 83B2     		uxth	r3, r0
 354:Middlewares/Third_Party/LwIP/src/core/pbuf.c ****       
 1228              		.loc 1 354 81 view .LVU399
 1229 0144 EA1C     		adds	r2, r5, #3
 1230              	.LVL131:
 354:Middlewares/Third_Party/LwIP/src/core/pbuf.c ****       
 1231              		.loc 1 354 81 view .LVU400
 1232 0146 90B2     		uxth	r0, r2
 1233 0148 20F00300 		bic	r0, r0, #3
 354:Middlewares/Third_Party/LwIP/src/core/pbuf.c ****       
 1234              		.loc 1 354 18 view .LVU401
 1235 014c 1844     		add	r0, r0, r3
 1236 014e 80B2     		uxth	r0, r0
 1237              	.LVL132:
 357:Middlewares/Third_Party/LwIP/src/core/pbuf.c ****         return NULL;
 1238              		.loc 1 357 7 is_stmt 1 view .LVU402
 357:Middlewares/Third_Party/LwIP/src/core/pbuf.c ****         return NULL;
 1239              		.loc 1 357 23 is_stmt 0 view .LVU403
 1240 0150 22F00302 		bic	r2, r2, #3
 357:Middlewares/Third_Party/LwIP/src/core/pbuf.c ****         return NULL;
 1241              		.loc 1 357 10 view .LVU404
 1242 0154 9042     		cmp	r0, r2
 1243 0156 2BD3     		bcc	.L100
 362:Middlewares/Third_Party/LwIP/src/core/pbuf.c ****     }
 1244              		.loc 1 362 7 is_stmt 1 view .LVU405
 362:Middlewares/Third_Party/LwIP/src/core/pbuf.c ****     }
 1245              		.loc 1 362 25 is_stmt 0 view .LVU406
 1246 0158 FFF7FEFF 		bl	mem_malloc
 1247              	.LVL133:
 362:Middlewares/Third_Party/LwIP/src/core/pbuf.c ****     }
 1248              		.loc 1 362 25 view .LVU407
 1249              	.LBE6:
 365:Middlewares/Third_Party/LwIP/src/core/pbuf.c ****       return NULL;
 1250              		.loc 1 365 5 is_stmt 1 view .LVU408
 365:Middlewares/Third_Party/LwIP/src/core/pbuf.c ****       return NULL;
ARM GAS  /tmp/ccvTpBVd.s 			page 49


 1251              		.loc 1 365 8 is_stmt 0 view .LVU409
 1252 015c 0646     		mov	r6, r0
 1253 015e D8B1     		cbz	r0, .L76
 369:Middlewares/Third_Party/LwIP/src/core/pbuf.c ****     p->len = p->tot_len = length;
 1254              		.loc 1 369 5 is_stmt 1 view .LVU410
 369:Middlewares/Third_Party/LwIP/src/core/pbuf.c ****     p->len = p->tot_len = length;
 1255              		.loc 1 369 18 is_stmt 0 view .LVU411
 1256 0160 04F11003 		add	r3, r4, #16
 1257 0164 0344     		add	r3, r3, r0
 1258 0166 0333     		adds	r3, r3, #3
 1259 0168 23F00303 		bic	r3, r3, #3
 369:Middlewares/Third_Party/LwIP/src/core/pbuf.c ****     p->len = p->tot_len = length;
 1260              		.loc 1 369 16 view .LVU412
 1261 016c 4360     		str	r3, [r0, #4]
 370:Middlewares/Third_Party/LwIP/src/core/pbuf.c ****     p->next = NULL;
 1262              		.loc 1 370 5 is_stmt 1 view .LVU413
 370:Middlewares/Third_Party/LwIP/src/core/pbuf.c ****     p->next = NULL;
 1263              		.loc 1 370 25 is_stmt 0 view .LVU414
 1264 016e 0581     		strh	r5, [r0, #8]	@ movhi
 370:Middlewares/Third_Party/LwIP/src/core/pbuf.c ****     p->next = NULL;
 1265              		.loc 1 370 12 view .LVU415
 1266 0170 4581     		strh	r5, [r0, #10]	@ movhi
 371:Middlewares/Third_Party/LwIP/src/core/pbuf.c ****     p->type = type;
 1267              		.loc 1 371 5 is_stmt 1 view .LVU416
 371:Middlewares/Third_Party/LwIP/src/core/pbuf.c ****     p->type = type;
 1268              		.loc 1 371 13 is_stmt 0 view .LVU417
 1269 0172 0023     		movs	r3, #0
 1270 0174 0360     		str	r3, [r0]
 372:Middlewares/Third_Party/LwIP/src/core/pbuf.c **** 
 1271              		.loc 1 372 5 is_stmt 1 view .LVU418
 372:Middlewares/Third_Party/LwIP/src/core/pbuf.c **** 
 1272              		.loc 1 372 13 is_stmt 0 view .LVU419
 1273 0176 0773     		strb	r7, [r0, #12]
 374:Middlewares/Third_Party/LwIP/src/core/pbuf.c ****            ((mem_ptr_t)p->payload % MEM_ALIGNMENT) == 0);
 1274              		.loc 1 374 5 is_stmt 1 view .LVU420
 374:Middlewares/Third_Party/LwIP/src/core/pbuf.c ****            ((mem_ptr_t)p->payload % MEM_ALIGNMENT) == 0);
 1275              		.loc 1 374 5 view .LVU421
 1276 0178 0AE0     		b	.L98
 1277              	.LVL134:
 1278              	.L88:
 382:Middlewares/Third_Party/LwIP/src/core/pbuf.c ****     if (p == NULL) {
 1279              		.loc 1 382 5 view .LVU422
 382:Middlewares/Third_Party/LwIP/src/core/pbuf.c ****     if (p == NULL) {
 1280              		.loc 1 382 24 is_stmt 0 view .LVU423
 1281 017a 0720     		movs	r0, #7
 1282              	.LVL135:
 382:Middlewares/Third_Party/LwIP/src/core/pbuf.c ****     if (p == NULL) {
 1283              		.loc 1 382 24 view .LVU424
 1284 017c FFF7FEFF 		bl	memp_malloc
 1285              	.LVL136:
 383:Middlewares/Third_Party/LwIP/src/core/pbuf.c ****       LWIP_DEBUGF(PBUF_DEBUG | LWIP_DBG_LEVEL_SERIOUS,
 1286              		.loc 1 383 5 is_stmt 1 view .LVU425
 383:Middlewares/Third_Party/LwIP/src/core/pbuf.c ****       LWIP_DEBUGF(PBUF_DEBUG | LWIP_DBG_LEVEL_SERIOUS,
 1287              		.loc 1 383 8 is_stmt 0 view .LVU426
 1288 0180 0646     		mov	r6, r0
 1289 0182 48B1     		cbz	r0, .L76
 390:Middlewares/Third_Party/LwIP/src/core/pbuf.c ****     p->len = p->tot_len = length;
ARM GAS  /tmp/ccvTpBVd.s 			page 50


 1290              		.loc 1 390 5 is_stmt 1 view .LVU427
 390:Middlewares/Third_Party/LwIP/src/core/pbuf.c ****     p->len = p->tot_len = length;
 1291              		.loc 1 390 16 is_stmt 0 view .LVU428
 1292 0184 0023     		movs	r3, #0
 1293 0186 4360     		str	r3, [r0, #4]
 391:Middlewares/Third_Party/LwIP/src/core/pbuf.c ****     p->next = NULL;
 1294              		.loc 1 391 5 is_stmt 1 view .LVU429
 391:Middlewares/Third_Party/LwIP/src/core/pbuf.c ****     p->next = NULL;
 1295              		.loc 1 391 25 is_stmt 0 view .LVU430
 1296 0188 0581     		strh	r5, [r0, #8]	@ movhi
 391:Middlewares/Third_Party/LwIP/src/core/pbuf.c ****     p->next = NULL;
 1297              		.loc 1 391 12 view .LVU431
 1298 018a 4581     		strh	r5, [r0, #10]	@ movhi
 392:Middlewares/Third_Party/LwIP/src/core/pbuf.c ****     p->type = type;
 1299              		.loc 1 392 5 is_stmt 1 view .LVU432
 392:Middlewares/Third_Party/LwIP/src/core/pbuf.c ****     p->type = type;
 1300              		.loc 1 392 13 is_stmt 0 view .LVU433
 1301 018c 0360     		str	r3, [r0]
 393:Middlewares/Third_Party/LwIP/src/core/pbuf.c ****     break;
 1302              		.loc 1 393 5 is_stmt 1 view .LVU434
 393:Middlewares/Third_Party/LwIP/src/core/pbuf.c ****     break;
 1303              		.loc 1 393 13 is_stmt 0 view .LVU435
 1304 018e 0773     		strb	r7, [r0, #12]
 394:Middlewares/Third_Party/LwIP/src/core/pbuf.c ****   default:
 1305              		.loc 1 394 5 is_stmt 1 view .LVU436
 1306              	.LVL137:
 1307              	.L98:
 400:Middlewares/Third_Party/LwIP/src/core/pbuf.c ****   /* set flags */
 1308              		.loc 1 400 3 view .LVU437
 400:Middlewares/Third_Party/LwIP/src/core/pbuf.c ****   /* set flags */
 1309              		.loc 1 400 10 is_stmt 0 view .LVU438
 1310 0190 0123     		movs	r3, #1
 1311 0192 F381     		strh	r3, [r6, #14]	@ movhi
 402:Middlewares/Third_Party/LwIP/src/core/pbuf.c ****   LWIP_DEBUGF(PBUF_DEBUG | LWIP_DBG_TRACE, ("pbuf_alloc(length=%"U16_F") == %p\n", length, (void *)
 1312              		.loc 1 402 3 is_stmt 1 view .LVU439
 402:Middlewares/Third_Party/LwIP/src/core/pbuf.c ****   LWIP_DEBUGF(PBUF_DEBUG | LWIP_DBG_TRACE, ("pbuf_alloc(length=%"U16_F") == %p\n", length, (void *)
 1313              		.loc 1 402 12 is_stmt 0 view .LVU440
 1314 0194 0023     		movs	r3, #0
 1315 0196 7373     		strb	r3, [r6, #13]
 403:Middlewares/Third_Party/LwIP/src/core/pbuf.c ****   return p;
 1316              		.loc 1 403 103 is_stmt 1 view .LVU441
 404:Middlewares/Third_Party/LwIP/src/core/pbuf.c **** }
 1317              		.loc 1 404 3 view .LVU442
 1318              	.LVL138:
 1319              	.L76:
 405:Middlewares/Third_Party/LwIP/src/core/pbuf.c **** 
 1320              		.loc 1 405 1 is_stmt 0 view .LVU443
 1321 0198 3046     		mov	r0, r6
 1322 019a BDE8F883 		pop	{r3, r4, r5, r6, r7, r8, r9, pc}
 1323              	.LVL139:
 1324              	.L85:
 396:Middlewares/Third_Party/LwIP/src/core/pbuf.c ****     return NULL;
 1325              		.loc 1 396 5 is_stmt 1 discriminator 1 view .LVU444
 396:Middlewares/Third_Party/LwIP/src/core/pbuf.c ****     return NULL;
 1326              		.loc 1 396 5 discriminator 1 view .LVU445
 396:Middlewares/Third_Party/LwIP/src/core/pbuf.c ****     return NULL;
 1327              		.loc 1 396 5 discriminator 1 view .LVU446
ARM GAS  /tmp/ccvTpBVd.s 			page 51


 396:Middlewares/Third_Party/LwIP/src/core/pbuf.c ****     return NULL;
 1328              		.loc 1 396 5 discriminator 1 view .LVU447
 1329 019e 054B     		ldr	r3, .L108
 1330 01a0 4FF4C672 		mov	r2, #396
 1331              	.LVL140:
 396:Middlewares/Third_Party/LwIP/src/core/pbuf.c ****     return NULL;
 1332              		.loc 1 396 5 is_stmt 0 discriminator 1 view .LVU448
 1333 01a4 0949     		ldr	r1, .L108+24
 1334              	.LVL141:
 396:Middlewares/Third_Party/LwIP/src/core/pbuf.c ****     return NULL;
 1335              		.loc 1 396 5 discriminator 1 view .LVU449
 1336 01a6 0548     		ldr	r0, .L108+8
 1337              	.LVL142:
 396:Middlewares/Third_Party/LwIP/src/core/pbuf.c ****     return NULL;
 1338              		.loc 1 396 5 discriminator 1 view .LVU450
 1339 01a8 FFF7FEFF 		bl	printf
 1340              	.LVL143:
 397:Middlewares/Third_Party/LwIP/src/core/pbuf.c ****   }
 1341              		.loc 1 397 5 is_stmt 1 discriminator 1 view .LVU451
 397:Middlewares/Third_Party/LwIP/src/core/pbuf.c ****   }
 1342              		.loc 1 397 12 is_stmt 0 discriminator 1 view .LVU452
 1343 01ac 0026     		movs	r6, #0
 1344 01ae F3E7     		b	.L76
 1345              	.LVL144:
 1346              	.L100:
 1347              	.LBB7:
 358:Middlewares/Third_Party/LwIP/src/core/pbuf.c ****       }
 1348              		.loc 1 358 16 view .LVU453
 1349 01b0 0026     		movs	r6, #0
 1350 01b2 F1E7     		b	.L76
 1351              	.L109:
 1352              		.align	2
 1353              	.L108:
 1354 01b4 00000000 		.word	.LC0
 1355 01b8 00000000 		.word	.LC9
 1356 01bc 3C000000 		.word	.LC2
 1357 01c0 1C000000 		.word	.LC10
 1358 01c4 50000000 		.word	.LC11
 1359 01c8 64000000 		.word	.LC12
 1360 01cc 94000000 		.word	.LC13
 1361              	.LBE7:
 1362              		.cfi_endproc
 1363              	.LFE162:
 1365              		.section	.text.pbuf_realloc,"ax",%progbits
 1366              		.align	1
 1367              		.global	pbuf_realloc
 1368              		.syntax unified
 1369              		.thumb
 1370              		.thumb_func
 1371              		.fpu fpv5-sp-d16
 1373              	pbuf_realloc:
 1374              	.LVL145:
 1375              	.LFB164:
 494:Middlewares/Third_Party/LwIP/src/core/pbuf.c ****   struct pbuf *q;
 1376              		.loc 1 494 1 is_stmt 1 view -0
 1377              		.cfi_startproc
 1378              		@ args = 0, pretend = 0, frame = 0
ARM GAS  /tmp/ccvTpBVd.s 			page 52


 1379              		@ frame_needed = 0, uses_anonymous_args = 0
 494:Middlewares/Third_Party/LwIP/src/core/pbuf.c ****   struct pbuf *q;
 1380              		.loc 1 494 1 is_stmt 0 view .LVU455
 1381 0000 2DE9F041 		push	{r4, r5, r6, r7, r8, lr}
 1382              	.LCFI7:
 1383              		.cfi_def_cfa_offset 24
 1384              		.cfi_offset 4, -24
 1385              		.cfi_offset 5, -20
 1386              		.cfi_offset 6, -16
 1387              		.cfi_offset 7, -12
 1388              		.cfi_offset 8, -8
 1389              		.cfi_offset 14, -4
 1390 0004 0E46     		mov	r6, r1
 495:Middlewares/Third_Party/LwIP/src/core/pbuf.c ****   u16_t rem_len; /* remaining length */
 1391              		.loc 1 495 3 is_stmt 1 view .LVU456
 496:Middlewares/Third_Party/LwIP/src/core/pbuf.c ****   s32_t grow;
 1392              		.loc 1 496 3 view .LVU457
 497:Middlewares/Third_Party/LwIP/src/core/pbuf.c **** 
 1393              		.loc 1 497 3 view .LVU458
 499:Middlewares/Third_Party/LwIP/src/core/pbuf.c ****   LWIP_ASSERT("pbuf_realloc: sane p->type", p->type == PBUF_POOL ||
 1394              		.loc 1 499 3 view .LVU459
 499:Middlewares/Third_Party/LwIP/src/core/pbuf.c ****   LWIP_ASSERT("pbuf_realloc: sane p->type", p->type == PBUF_POOL ||
 1395              		.loc 1 499 3 view .LVU460
 1396 0006 0446     		mov	r4, r0
 1397 0008 70B1     		cbz	r0, .L121
 1398              	.LVL146:
 1399              	.L111:
 500:Middlewares/Third_Party/LwIP/src/core/pbuf.c ****               p->type == PBUF_ROM ||
 1400              		.loc 1 500 3 view .LVU461
 500:Middlewares/Third_Party/LwIP/src/core/pbuf.c ****               p->type == PBUF_ROM ||
 1401              		.loc 1 500 3 view .LVU462
 1402 000a 237B     		ldrb	r3, [r4, #12]	@ zero_extendqisi2
 1403 000c 032B     		cmp	r3, #3
 1404 000e 18BF     		it	ne
 1405 0010 012B     		cmpne	r3, #1
 1406 0012 02D0     		beq	.L112
 500:Middlewares/Third_Party/LwIP/src/core/pbuf.c ****               p->type == PBUF_ROM ||
 1407              		.loc 1 500 3 is_stmt 0 discriminator 1 view .LVU463
 1408 0014 0BB1     		cbz	r3, .L112
 500:Middlewares/Third_Party/LwIP/src/core/pbuf.c ****               p->type == PBUF_ROM ||
 1409              		.loc 1 500 3 discriminator 2 view .LVU464
 1410 0016 022B     		cmp	r3, #2
 1411 0018 0ED1     		bne	.L122
 1412              	.L112:
 506:Middlewares/Third_Party/LwIP/src/core/pbuf.c ****     /* enlarging not yet supported */
 1413              		.loc 1 506 3 is_stmt 1 view .LVU465
 506:Middlewares/Third_Party/LwIP/src/core/pbuf.c ****     /* enlarging not yet supported */
 1414              		.loc 1 506 19 is_stmt 0 view .LVU466
 1415 001a 2789     		ldrh	r7, [r4, #8]
 506:Middlewares/Third_Party/LwIP/src/core/pbuf.c ****     /* enlarging not yet supported */
 1416              		.loc 1 506 6 view .LVU467
 1417 001c B742     		cmp	r7, r6
 1418 001e 43D9     		bls	.L110
 513:Middlewares/Third_Party/LwIP/src/core/pbuf.c **** 
 1419              		.loc 1 513 3 is_stmt 1 view .LVU468
 513:Middlewares/Third_Party/LwIP/src/core/pbuf.c **** 
 1420              		.loc 1 513 8 is_stmt 0 view .LVU469
ARM GAS  /tmp/ccvTpBVd.s 			page 53


 1421 0020 A6EB0708 		sub	r8, r6, r7
 1422              	.LVL147:
 516:Middlewares/Third_Party/LwIP/src/core/pbuf.c ****   q = p;
 1423              		.loc 1 516 3 is_stmt 1 view .LVU470
 517:Middlewares/Third_Party/LwIP/src/core/pbuf.c ****   /* should this pbuf be kept? */
 1424              		.loc 1 517 3 view .LVU471
 519:Middlewares/Third_Party/LwIP/src/core/pbuf.c ****     /* decrease remaining length by pbuf length */
 1425              		.loc 1 519 3 view .LVU472
 516:Middlewares/Third_Party/LwIP/src/core/pbuf.c ****   q = p;
 1426              		.loc 1 516 11 is_stmt 0 view .LVU473
 1427 0024 3546     		mov	r5, r6
 519:Middlewares/Third_Party/LwIP/src/core/pbuf.c ****     /* decrease remaining length by pbuf length */
 1428              		.loc 1 519 9 view .LVU474
 1429 0026 1DE0     		b	.L114
 1430              	.LVL148:
 1431              	.L121:
 499:Middlewares/Third_Party/LwIP/src/core/pbuf.c ****   LWIP_ASSERT("pbuf_realloc: sane p->type", p->type == PBUF_POOL ||
 1432              		.loc 1 499 3 is_stmt 1 discriminator 1 view .LVU475
 499:Middlewares/Third_Party/LwIP/src/core/pbuf.c ****   LWIP_ASSERT("pbuf_realloc: sane p->type", p->type == PBUF_POOL ||
 1433              		.loc 1 499 3 discriminator 1 view .LVU476
 1434 0028 2A4B     		ldr	r3, .L127
 1435 002a 40F2F312 		movw	r2, #499
 1436 002e 2A49     		ldr	r1, .L127+4
 1437              	.LVL149:
 499:Middlewares/Third_Party/LwIP/src/core/pbuf.c ****   LWIP_ASSERT("pbuf_realloc: sane p->type", p->type == PBUF_POOL ||
 1438              		.loc 1 499 3 is_stmt 0 discriminator 1 view .LVU477
 1439 0030 2A48     		ldr	r0, .L127+8
 1440              	.LVL150:
 499:Middlewares/Third_Party/LwIP/src/core/pbuf.c ****   LWIP_ASSERT("pbuf_realloc: sane p->type", p->type == PBUF_POOL ||
 1441              		.loc 1 499 3 discriminator 1 view .LVU478
 1442 0032 FFF7FEFF 		bl	printf
 1443              	.LVL151:
 1444 0036 E8E7     		b	.L111
 1445              	.L122:
 500:Middlewares/Third_Party/LwIP/src/core/pbuf.c ****               p->type == PBUF_ROM ||
 1446              		.loc 1 500 3 is_stmt 1 discriminator 3 view .LVU479
 500:Middlewares/Third_Party/LwIP/src/core/pbuf.c ****               p->type == PBUF_ROM ||
 1447              		.loc 1 500 3 discriminator 3 view .LVU480
 1448 0038 264B     		ldr	r3, .L127
 1449 003a 40F2F712 		movw	r2, #503
 1450 003e 2849     		ldr	r1, .L127+12
 1451 0040 2648     		ldr	r0, .L127+8
 1452 0042 FFF7FEFF 		bl	printf
 1453              	.LVL152:
 1454 0046 E8E7     		b	.L112
 1455              	.LVL153:
 1456              	.L125:
 523:Middlewares/Third_Party/LwIP/src/core/pbuf.c ****     q->tot_len += (u16_t)grow;
 1457              		.loc 1 523 5 discriminator 1 view .LVU481
 523:Middlewares/Third_Party/LwIP/src/core/pbuf.c ****     q->tot_len += (u16_t)grow;
 1458              		.loc 1 523 5 discriminator 1 view .LVU482
 1459 0048 224B     		ldr	r3, .L127
 1460 004a 40F20B22 		movw	r2, #523
 1461 004e 2549     		ldr	r1, .L127+16
 1462 0050 2248     		ldr	r0, .L127+8
 1463 0052 FFF7FEFF 		bl	printf
 1464              	.LVL154:
ARM GAS  /tmp/ccvTpBVd.s 			page 54


 1465              	.L115:
 524:Middlewares/Third_Party/LwIP/src/core/pbuf.c ****     /* proceed to next pbuf in chain */
 1466              		.loc 1 524 5 view .LVU483
 524:Middlewares/Third_Party/LwIP/src/core/pbuf.c ****     /* proceed to next pbuf in chain */
 1467              		.loc 1 524 19 is_stmt 0 view .LVU484
 1468 0056 F31B     		subs	r3, r6, r7
 524:Middlewares/Third_Party/LwIP/src/core/pbuf.c ****     /* proceed to next pbuf in chain */
 1469              		.loc 1 524 16 view .LVU485
 1470 0058 2289     		ldrh	r2, [r4, #8]
 1471 005a 12FA83F3 		uxtah	r3, r2, r3
 1472 005e 2381     		strh	r3, [r4, #8]	@ movhi
 526:Middlewares/Third_Party/LwIP/src/core/pbuf.c ****     LWIP_ASSERT("pbuf_realloc: q != NULL", q != NULL);
 1473              		.loc 1 526 5 is_stmt 1 view .LVU486
 526:Middlewares/Third_Party/LwIP/src/core/pbuf.c ****     LWIP_ASSERT("pbuf_realloc: q != NULL", q != NULL);
 1474              		.loc 1 526 7 is_stmt 0 view .LVU487
 1475 0060 2468     		ldr	r4, [r4]
 1476              	.LVL155:
 527:Middlewares/Third_Party/LwIP/src/core/pbuf.c ****   }
 1477              		.loc 1 527 5 is_stmt 1 view .LVU488
 527:Middlewares/Third_Party/LwIP/src/core/pbuf.c ****   }
 1478              		.loc 1 527 5 view .LVU489
 1479 0062 4CB1     		cbz	r4, .L123
 1480              	.LVL156:
 1481              	.L114:
 519:Middlewares/Third_Party/LwIP/src/core/pbuf.c ****     /* decrease remaining length by pbuf length */
 1482              		.loc 1 519 21 is_stmt 0 view .LVU490
 1483 0064 6389     		ldrh	r3, [r4, #10]
 519:Middlewares/Third_Party/LwIP/src/core/pbuf.c ****     /* decrease remaining length by pbuf length */
 1484              		.loc 1 519 9 view .LVU491
 1485 0066 AB42     		cmp	r3, r5
 1486 0068 0ED2     		bcs	.L124
 521:Middlewares/Third_Party/LwIP/src/core/pbuf.c ****     /* decrease total length indicator */
 1487              		.loc 1 521 5 is_stmt 1 view .LVU492
 521:Middlewares/Third_Party/LwIP/src/core/pbuf.c ****     /* decrease total length indicator */
 1488              		.loc 1 521 13 is_stmt 0 view .LVU493
 1489 006a ED1A     		subs	r5, r5, r3
 1490              	.LVL157:
 521:Middlewares/Third_Party/LwIP/src/core/pbuf.c ****     /* decrease total length indicator */
 1491              		.loc 1 521 13 view .LVU494
 1492 006c ADB2     		uxth	r5, r5
 1493              	.LVL158:
 523:Middlewares/Third_Party/LwIP/src/core/pbuf.c ****     q->tot_len += (u16_t)grow;
 1494              		.loc 1 523 5 is_stmt 1 view .LVU495
 523:Middlewares/Third_Party/LwIP/src/core/pbuf.c ****     q->tot_len += (u16_t)grow;
 1495              		.loc 1 523 5 view .LVU496
 1496 006e 4FF6FE73 		movw	r3, #65534
 1497 0072 9845     		cmp	r8, r3
 1498 0074 EFDD     		ble	.L115
 1499 0076 E7E7     		b	.L125
 1500              	.L123:
 527:Middlewares/Third_Party/LwIP/src/core/pbuf.c ****   }
 1501              		.loc 1 527 5 discriminator 1 view .LVU497
 527:Middlewares/Third_Party/LwIP/src/core/pbuf.c ****   }
 1502              		.loc 1 527 5 discriminator 1 view .LVU498
 1503 0078 164B     		ldr	r3, .L127
 1504 007a 40F20F22 		movw	r2, #527
 1505 007e 1A49     		ldr	r1, .L127+20
ARM GAS  /tmp/ccvTpBVd.s 			page 55


 1506 0080 1648     		ldr	r0, .L127+8
 1507 0082 FFF7FEFF 		bl	printf
 1508              	.LVL159:
 1509 0086 EDE7     		b	.L114
 1510              	.L124:
 534:Middlewares/Third_Party/LwIP/src/core/pbuf.c **** #if LWIP_SUPPORT_CUSTOM_PBUF
 1511              		.loc 1 534 3 view .LVU499
 534:Middlewares/Third_Party/LwIP/src/core/pbuf.c **** #if LWIP_SUPPORT_CUSTOM_PBUF
 1512              		.loc 1 534 9 is_stmt 0 view .LVU500
 1513 0088 227B     		ldrb	r2, [r4, #12]	@ zero_extendqisi2
 534:Middlewares/Third_Party/LwIP/src/core/pbuf.c **** #if LWIP_SUPPORT_CUSTOM_PBUF
 1514              		.loc 1 534 6 view .LVU501
 1515 008a 2AB9     		cbnz	r2, .L118
 534:Middlewares/Third_Party/LwIP/src/core/pbuf.c **** #if LWIP_SUPPORT_CUSTOM_PBUF
 1516              		.loc 1 534 29 discriminator 1 view .LVU502
 1517 008c AB42     		cmp	r3, r5
 1518 008e 03D0     		beq	.L118
 536:Middlewares/Third_Party/LwIP/src/core/pbuf.c **** #endif /* LWIP_SUPPORT_CUSTOM_PBUF */
 1519              		.loc 1 536 13 view .LVU503
 1520 0090 637B     		ldrb	r3, [r4, #13]	@ zero_extendqisi2
 536:Middlewares/Third_Party/LwIP/src/core/pbuf.c **** #endif /* LWIP_SUPPORT_CUSTOM_PBUF */
 1521              		.loc 1 536 7 view .LVU504
 1522 0092 13F0020F 		tst	r3, #2
 1523 0096 09D0     		beq	.L126
 1524              	.L118:
 544:Middlewares/Third_Party/LwIP/src/core/pbuf.c ****   q->tot_len = q->len;
 1525              		.loc 1 544 3 is_stmt 1 view .LVU505
 544:Middlewares/Third_Party/LwIP/src/core/pbuf.c ****   q->tot_len = q->len;
 1526              		.loc 1 544 10 is_stmt 0 view .LVU506
 1527 0098 6581     		strh	r5, [r4, #10]	@ movhi
 545:Middlewares/Third_Party/LwIP/src/core/pbuf.c **** 
 1528              		.loc 1 545 3 is_stmt 1 view .LVU507
 545:Middlewares/Third_Party/LwIP/src/core/pbuf.c **** 
 1529              		.loc 1 545 14 is_stmt 0 view .LVU508
 1530 009a 2581     		strh	r5, [r4, #8]	@ movhi
 548:Middlewares/Third_Party/LwIP/src/core/pbuf.c ****     /* free remaining pbufs in chain */
 1531              		.loc 1 548 3 is_stmt 1 view .LVU509
 548:Middlewares/Third_Party/LwIP/src/core/pbuf.c ****     /* free remaining pbufs in chain */
 1532              		.loc 1 548 8 is_stmt 0 view .LVU510
 1533 009c 2068     		ldr	r0, [r4]
 548:Middlewares/Third_Party/LwIP/src/core/pbuf.c ****     /* free remaining pbufs in chain */
 1534              		.loc 1 548 6 view .LVU511
 1535 009e 08B1     		cbz	r0, .L119
 550:Middlewares/Third_Party/LwIP/src/core/pbuf.c ****   }
 1536              		.loc 1 550 5 is_stmt 1 view .LVU512
 1537 00a0 FFF7FEFF 		bl	pbuf_free
 1538              	.LVL160:
 1539              	.L119:
 553:Middlewares/Third_Party/LwIP/src/core/pbuf.c **** 
 1540              		.loc 1 553 3 view .LVU513
 553:Middlewares/Third_Party/LwIP/src/core/pbuf.c **** 
 1541              		.loc 1 553 11 is_stmt 0 view .LVU514
 1542 00a4 0023     		movs	r3, #0
 1543 00a6 2360     		str	r3, [r4]
 1544              	.LVL161:
 1545              	.L110:
 555:Middlewares/Third_Party/LwIP/src/core/pbuf.c **** 
ARM GAS  /tmp/ccvTpBVd.s 			page 56


 1546              		.loc 1 555 1 view .LVU515
 1547 00a8 BDE8F081 		pop	{r4, r5, r6, r7, r8, pc}
 1548              	.LVL162:
 1549              	.L126:
 540:Middlewares/Third_Party/LwIP/src/core/pbuf.c ****     LWIP_ASSERT("mem_trim returned q == NULL", q != NULL);
 1550              		.loc 1 540 5 is_stmt 1 view .LVU516
 540:Middlewares/Third_Party/LwIP/src/core/pbuf.c ****     LWIP_ASSERT("mem_trim returned q == NULL", q != NULL);
 1551              		.loc 1 540 53 is_stmt 0 view .LVU517
 1552 00ac 6368     		ldr	r3, [r4, #4]
 540:Middlewares/Third_Party/LwIP/src/core/pbuf.c ****     LWIP_ASSERT("mem_trim returned q == NULL", q != NULL);
 1553              		.loc 1 540 63 view .LVU518
 1554 00ae 1B1B     		subs	r3, r3, r4
 540:Middlewares/Third_Party/LwIP/src/core/pbuf.c ****     LWIP_ASSERT("mem_trim returned q == NULL", q != NULL);
 1555              		.loc 1 540 24 view .LVU519
 1556 00b0 15FA83F1 		uxtah	r1, r5, r3
 1557 00b4 89B2     		uxth	r1, r1
 1558 00b6 2046     		mov	r0, r4
 1559 00b8 FFF7FEFF 		bl	mem_trim
 1560              	.LVL163:
 541:Middlewares/Third_Party/LwIP/src/core/pbuf.c ****   }
 1561              		.loc 1 541 5 is_stmt 1 view .LVU520
 541:Middlewares/Third_Party/LwIP/src/core/pbuf.c ****   }
 1562              		.loc 1 541 5 view .LVU521
 1563 00bc 0446     		mov	r4, r0
 1564 00be 0028     		cmp	r0, #0
 1565 00c0 EAD1     		bne	.L118
 541:Middlewares/Third_Party/LwIP/src/core/pbuf.c ****   }
 1566              		.loc 1 541 5 discriminator 1 view .LVU522
 541:Middlewares/Third_Party/LwIP/src/core/pbuf.c ****   }
 1567              		.loc 1 541 5 discriminator 1 view .LVU523
 1568 00c2 044B     		ldr	r3, .L127
 1569 00c4 40F21D22 		movw	r2, #541
 1570 00c8 0849     		ldr	r1, .L127+24
 1571 00ca 0448     		ldr	r0, .L127+8
 1572              	.LVL164:
 541:Middlewares/Third_Party/LwIP/src/core/pbuf.c ****   }
 1573              		.loc 1 541 5 is_stmt 0 discriminator 1 view .LVU524
 1574 00cc FFF7FEFF 		bl	printf
 1575              	.LVL165:
 1576 00d0 E2E7     		b	.L118
 1577              	.L128:
 1578 00d2 00BF     		.align	2
 1579              	.L127:
 1580 00d4 00000000 		.word	.LC0
 1581 00d8 00000000 		.word	.LC14
 1582 00dc 3C000000 		.word	.LC2
 1583 00e0 18000000 		.word	.LC15
 1584 00e4 34000000 		.word	.LC16
 1585 00e8 48000000 		.word	.LC17
 1586 00ec 60000000 		.word	.LC18
 1587              		.cfi_endproc
 1588              	.LFE164:
 1590              		.section	.text.pbuf_clen,"ax",%progbits
 1591              		.align	1
 1592              		.global	pbuf_clen
 1593              		.syntax unified
 1594              		.thumb
ARM GAS  /tmp/ccvTpBVd.s 			page 57


 1595              		.thumb_func
 1596              		.fpu fpv5-sp-d16
 1598              	pbuf_clen:
 1599              	.LVL166:
 1600              	.LFB169:
 801:Middlewares/Third_Party/LwIP/src/core/pbuf.c ****   u16_t len;
 1601              		.loc 1 801 1 is_stmt 1 view -0
 1602              		.cfi_startproc
 1603              		@ args = 0, pretend = 0, frame = 0
 1604              		@ frame_needed = 0, uses_anonymous_args = 0
 1605              		@ link register save eliminated.
 802:Middlewares/Third_Party/LwIP/src/core/pbuf.c **** 
 1606              		.loc 1 802 3 view .LVU526
 804:Middlewares/Third_Party/LwIP/src/core/pbuf.c ****   while (p != NULL) {
 1607              		.loc 1 804 3 view .LVU527
 805:Middlewares/Third_Party/LwIP/src/core/pbuf.c ****     ++len;
 1608              		.loc 1 805 3 view .LVU528
 804:Middlewares/Third_Party/LwIP/src/core/pbuf.c ****   while (p != NULL) {
 1609              		.loc 1 804 7 is_stmt 0 view .LVU529
 1610 0000 0023     		movs	r3, #0
 1611              	.LVL167:
 1612              	.L130:
 805:Middlewares/Third_Party/LwIP/src/core/pbuf.c ****     ++len;
 1613              		.loc 1 805 9 view .LVU530
 1614 0002 18B1     		cbz	r0, .L132
 806:Middlewares/Third_Party/LwIP/src/core/pbuf.c ****     p = p->next;
 1615              		.loc 1 806 5 is_stmt 1 view .LVU531
 1616 0004 0133     		adds	r3, r3, #1
 1617              	.LVL168:
 806:Middlewares/Third_Party/LwIP/src/core/pbuf.c ****     p = p->next;
 1618              		.loc 1 806 5 is_stmt 0 view .LVU532
 1619 0006 9BB2     		uxth	r3, r3
 1620              	.LVL169:
 807:Middlewares/Third_Party/LwIP/src/core/pbuf.c ****   }
 1621              		.loc 1 807 5 is_stmt 1 view .LVU533
 807:Middlewares/Third_Party/LwIP/src/core/pbuf.c ****   }
 1622              		.loc 1 807 7 is_stmt 0 view .LVU534
 1623 0008 0068     		ldr	r0, [r0]
 1624              	.LVL170:
 807:Middlewares/Third_Party/LwIP/src/core/pbuf.c ****   }
 1625              		.loc 1 807 7 view .LVU535
 1626 000a FAE7     		b	.L130
 1627              	.L132:
 809:Middlewares/Third_Party/LwIP/src/core/pbuf.c **** }
 1628              		.loc 1 809 3 is_stmt 1 view .LVU536
 810:Middlewares/Third_Party/LwIP/src/core/pbuf.c **** 
 1629              		.loc 1 810 1 is_stmt 0 view .LVU537
 1630 000c 1846     		mov	r0, r3
 1631              	.LVL171:
 810:Middlewares/Third_Party/LwIP/src/core/pbuf.c **** 
 1632              		.loc 1 810 1 view .LVU538
 1633 000e 7047     		bx	lr
 1634              		.cfi_endproc
 1635              	.LFE169:
 1637              		.section	.text.pbuf_ref,"ax",%progbits
 1638              		.align	1
 1639              		.global	pbuf_ref
ARM GAS  /tmp/ccvTpBVd.s 			page 58


 1640              		.syntax unified
 1641              		.thumb
 1642              		.thumb_func
 1643              		.fpu fpv5-sp-d16
 1645              	pbuf_ref:
 1646              	.LVL172:
 1647              	.LFB170:
 821:Middlewares/Third_Party/LwIP/src/core/pbuf.c ****   /* pbuf given? */
 1648              		.loc 1 821 1 is_stmt 1 view -0
 1649              		.cfi_startproc
 1650              		@ args = 0, pretend = 0, frame = 0
 1651              		@ frame_needed = 0, uses_anonymous_args = 0
 823:Middlewares/Third_Party/LwIP/src/core/pbuf.c ****     SYS_ARCH_INC(p->ref, 1);
 1652              		.loc 1 823 3 view .LVU540
 823:Middlewares/Third_Party/LwIP/src/core/pbuf.c ****     SYS_ARCH_INC(p->ref, 1);
 1653              		.loc 1 823 6 is_stmt 0 view .LVU541
 1654 0000 70B1     		cbz	r0, .L136
 821:Middlewares/Third_Party/LwIP/src/core/pbuf.c ****   /* pbuf given? */
 1655              		.loc 1 821 1 view .LVU542
 1656 0002 08B5     		push	{r3, lr}
 1657              	.LCFI8:
 1658              		.cfi_def_cfa_offset 8
 1659              		.cfi_offset 3, -8
 1660              		.cfi_offset 14, -4
 824:Middlewares/Third_Party/LwIP/src/core/pbuf.c ****     LWIP_ASSERT("pbuf ref overflow", p->ref > 0);
 1661              		.loc 1 824 5 is_stmt 1 view .LVU543
 824:Middlewares/Third_Party/LwIP/src/core/pbuf.c ****     LWIP_ASSERT("pbuf ref overflow", p->ref > 0);
 1662              		.loc 1 824 5 view .LVU544
 824:Middlewares/Third_Party/LwIP/src/core/pbuf.c ****     LWIP_ASSERT("pbuf ref overflow", p->ref > 0);
 1663              		.loc 1 824 5 view .LVU545
 824:Middlewares/Third_Party/LwIP/src/core/pbuf.c ****     LWIP_ASSERT("pbuf ref overflow", p->ref > 0);
 1664              		.loc 1 824 5 view .LVU546
 1665 0004 C389     		ldrh	r3, [r0, #14]
 1666 0006 0133     		adds	r3, r3, #1
 1667 0008 9BB2     		uxth	r3, r3
 1668 000a C381     		strh	r3, [r0, #14]	@ movhi
 824:Middlewares/Third_Party/LwIP/src/core/pbuf.c ****     LWIP_ASSERT("pbuf ref overflow", p->ref > 0);
 1669              		.loc 1 824 5 view .LVU547
 825:Middlewares/Third_Party/LwIP/src/core/pbuf.c ****   }
 1670              		.loc 1 825 5 view .LVU548
 825:Middlewares/Third_Party/LwIP/src/core/pbuf.c ****   }
 1671              		.loc 1 825 5 view .LVU549
 1672 000c 03B1     		cbz	r3, .L139
 1673              	.LVL173:
 1674              	.L133:
 827:Middlewares/Third_Party/LwIP/src/core/pbuf.c **** 
 1675              		.loc 1 827 1 is_stmt 0 view .LVU550
 1676 000e 08BD     		pop	{r3, pc}
 1677              	.LVL174:
 1678              	.L139:
 825:Middlewares/Third_Party/LwIP/src/core/pbuf.c ****   }
 1679              		.loc 1 825 5 is_stmt 1 discriminator 1 view .LVU551
 825:Middlewares/Third_Party/LwIP/src/core/pbuf.c ****   }
 1680              		.loc 1 825 5 discriminator 1 view .LVU552
 1681 0010 044B     		ldr	r3, .L140
 1682 0012 40F23932 		movw	r2, #825
 1683 0016 0449     		ldr	r1, .L140+4
ARM GAS  /tmp/ccvTpBVd.s 			page 59


 1684 0018 0448     		ldr	r0, .L140+8
 1685              	.LVL175:
 825:Middlewares/Third_Party/LwIP/src/core/pbuf.c ****   }
 1686              		.loc 1 825 5 is_stmt 0 discriminator 1 view .LVU553
 1687 001a FFF7FEFF 		bl	printf
 1688              	.LVL176:
 827:Middlewares/Third_Party/LwIP/src/core/pbuf.c **** 
 1689              		.loc 1 827 1 discriminator 1 view .LVU554
 1690 001e F6E7     		b	.L133
 1691              	.LVL177:
 1692              	.L136:
 1693              	.LCFI9:
 1694              		.cfi_def_cfa_offset 0
 1695              		.cfi_restore 3
 1696              		.cfi_restore 14
 827:Middlewares/Third_Party/LwIP/src/core/pbuf.c **** 
 1697              		.loc 1 827 1 discriminator 1 view .LVU555
 1698 0020 7047     		bx	lr
 1699              	.L141:
 1700 0022 00BF     		.align	2
 1701              	.L140:
 1702 0024 00000000 		.word	.LC0
 1703 0028 00000000 		.word	.LC19
 1704 002c 3C000000 		.word	.LC2
 1705              		.cfi_endproc
 1706              	.LFE170:
 1708              		.section	.text.pbuf_cat,"ax",%progbits
 1709              		.align	1
 1710              		.global	pbuf_cat
 1711              		.syntax unified
 1712              		.thumb
 1713              		.thumb_func
 1714              		.fpu fpv5-sp-d16
 1716              	pbuf_cat:
 1717              	.LVL178:
 1718              	.LFB171:
 841:Middlewares/Third_Party/LwIP/src/core/pbuf.c ****   struct pbuf *p;
 1719              		.loc 1 841 1 is_stmt 1 view -0
 1720              		.cfi_startproc
 1721              		@ args = 0, pretend = 0, frame = 0
 1722              		@ frame_needed = 0, uses_anonymous_args = 0
 841:Middlewares/Third_Party/LwIP/src/core/pbuf.c ****   struct pbuf *p;
 1723              		.loc 1 841 1 is_stmt 0 view .LVU557
 1724 0000 38B5     		push	{r3, r4, r5, lr}
 1725              	.LCFI10:
 1726              		.cfi_def_cfa_offset 16
 1727              		.cfi_offset 3, -16
 1728              		.cfi_offset 4, -12
 1729              		.cfi_offset 5, -8
 1730              		.cfi_offset 14, -4
 842:Middlewares/Third_Party/LwIP/src/core/pbuf.c **** 
 1731              		.loc 1 842 3 is_stmt 1 view .LVU558
 844:Middlewares/Third_Party/LwIP/src/core/pbuf.c ****              ((h != NULL) && (t != NULL)), return;);
 1732              		.loc 1 844 3 view .LVU559
 844:Middlewares/Third_Party/LwIP/src/core/pbuf.c ****              ((h != NULL) && (t != NULL)), return;);
 1733              		.loc 1 844 3 view .LVU560
 1734 0002 0446     		mov	r4, r0
ARM GAS  /tmp/ccvTpBVd.s 			page 60


 1735 0004 0D46     		mov	r5, r1
 1736 0006 B1FA81F1 		clz	r1, r1
 1737              	.LVL179:
 844:Middlewares/Third_Party/LwIP/src/core/pbuf.c ****              ((h != NULL) && (t != NULL)), return;);
 1738              		.loc 1 844 3 is_stmt 0 view .LVU561
 1739 000a 4909     		lsrs	r1, r1, #5
 1740 000c 0028     		cmp	r0, #0
 1741 000e 08BF     		it	eq
 1742 0010 0121     		moveq	r1, #1
 1743 0012 39B9     		cbnz	r1, .L149
 1744              	.L143:
 1745              	.LVL180:
 848:Middlewares/Third_Party/LwIP/src/core/pbuf.c ****     /* add total length of second chain to all totals of first chain */
 1746              		.loc 1 848 16 discriminator 1 view .LVU562
 1747 0014 2268     		ldr	r2, [r4]
 848:Middlewares/Third_Party/LwIP/src/core/pbuf.c ****     /* add total length of second chain to all totals of first chain */
 1748              		.loc 1 848 3 discriminator 1 view .LVU563
 1749 0016 6AB1     		cbz	r2, .L150
 850:Middlewares/Third_Party/LwIP/src/core/pbuf.c ****   }
 1750              		.loc 1 850 5 is_stmt 1 discriminator 3 view .LVU564
 850:Middlewares/Third_Party/LwIP/src/core/pbuf.c ****   }
 1751              		.loc 1 850 20 is_stmt 0 discriminator 3 view .LVU565
 1752 0018 2B89     		ldrh	r3, [r5, #8]
 850:Middlewares/Third_Party/LwIP/src/core/pbuf.c ****   }
 1753              		.loc 1 850 16 discriminator 3 view .LVU566
 1754 001a 2189     		ldrh	r1, [r4, #8]
 1755 001c 0B44     		add	r3, r3, r1
 1756 001e 2381     		strh	r3, [r4, #8]	@ movhi
 1757              	.LVL181:
 848:Middlewares/Third_Party/LwIP/src/core/pbuf.c ****     /* add total length of second chain to all totals of first chain */
 1758              		.loc 1 848 34 discriminator 3 view .LVU567
 1759 0020 1446     		mov	r4, r2
 1760 0022 F7E7     		b	.L143
 1761              	.LVL182:
 1762              	.L149:
 844:Middlewares/Third_Party/LwIP/src/core/pbuf.c ****              ((h != NULL) && (t != NULL)), return;);
 1763              		.loc 1 844 3 is_stmt 1 discriminator 1 view .LVU568
 844:Middlewares/Third_Party/LwIP/src/core/pbuf.c ****              ((h != NULL) && (t != NULL)), return;);
 1764              		.loc 1 844 3 discriminator 1 view .LVU569
 1765 0024 114B     		ldr	r3, .L152
 1766 0026 40F24D32 		movw	r2, #845
 1767 002a 1149     		ldr	r1, .L152+4
 1768 002c 1148     		ldr	r0, .L152+8
 1769              	.LVL183:
 844:Middlewares/Third_Party/LwIP/src/core/pbuf.c ****              ((h != NULL) && (t != NULL)), return;);
 1770              		.loc 1 844 3 is_stmt 0 discriminator 1 view .LVU570
 1771 002e FFF7FEFF 		bl	printf
 1772              	.LVL184:
 844:Middlewares/Third_Party/LwIP/src/core/pbuf.c ****              ((h != NULL) && (t != NULL)), return;);
 1773              		.loc 1 844 3 is_stmt 1 discriminator 1 view .LVU571
 1774 0032 11E0     		b	.L142
 1775              	.LVL185:
 1776              	.L150:
 853:Middlewares/Third_Party/LwIP/src/core/pbuf.c ****   LWIP_ASSERT("p->next == NULL", p->next == NULL);
 1777              		.loc 1 853 3 view .LVU572
 853:Middlewares/Third_Party/LwIP/src/core/pbuf.c ****   LWIP_ASSERT("p->next == NULL", p->next == NULL);
 1778              		.loc 1 853 3 view .LVU573
ARM GAS  /tmp/ccvTpBVd.s 			page 61


 1779 0034 2289     		ldrh	r2, [r4, #8]
 1780 0036 6389     		ldrh	r3, [r4, #10]
 1781 0038 9A42     		cmp	r2, r3
 1782 003a 0ED1     		bne	.L151
 1783              	.LVL186:
 1784              	.L146:
 854:Middlewares/Third_Party/LwIP/src/core/pbuf.c ****   /* add total length of second chain to last pbuf total of first chain */
 1785              		.loc 1 854 3 view .LVU574
 854:Middlewares/Third_Party/LwIP/src/core/pbuf.c ****   /* add total length of second chain to last pbuf total of first chain */
 1786              		.loc 1 854 3 view .LVU575
 1787 003c 2368     		ldr	r3, [r4]
 1788 003e 33B1     		cbz	r3, .L147
 854:Middlewares/Third_Party/LwIP/src/core/pbuf.c ****   /* add total length of second chain to last pbuf total of first chain */
 1789              		.loc 1 854 3 discriminator 1 view .LVU576
 854:Middlewares/Third_Party/LwIP/src/core/pbuf.c ****   /* add total length of second chain to last pbuf total of first chain */
 1790              		.loc 1 854 3 discriminator 1 view .LVU577
 1791 0040 0A4B     		ldr	r3, .L152
 1792 0042 40F25632 		movw	r2, #854
 1793 0046 0C49     		ldr	r1, .L152+12
 1794 0048 0A48     		ldr	r0, .L152+8
 1795 004a FFF7FEFF 		bl	printf
 1796              	.LVL187:
 1797              	.L147:
 856:Middlewares/Third_Party/LwIP/src/core/pbuf.c ****   /* chain last pbuf of head (p) with first of tail (t) */
 1798              		.loc 1 856 3 view .LVU578
 856:Middlewares/Third_Party/LwIP/src/core/pbuf.c ****   /* chain last pbuf of head (p) with first of tail (t) */
 1799              		.loc 1 856 18 is_stmt 0 view .LVU579
 1800 004e 2B89     		ldrh	r3, [r5, #8]
 856:Middlewares/Third_Party/LwIP/src/core/pbuf.c ****   /* chain last pbuf of head (p) with first of tail (t) */
 1801              		.loc 1 856 14 view .LVU580
 1802 0050 2289     		ldrh	r2, [r4, #8]
 1803 0052 1344     		add	r3, r3, r2
 1804 0054 2381     		strh	r3, [r4, #8]	@ movhi
 858:Middlewares/Third_Party/LwIP/src/core/pbuf.c ****   /* p->next now references t, but the caller will drop its reference to t,
 1805              		.loc 1 858 3 is_stmt 1 view .LVU581
 858:Middlewares/Third_Party/LwIP/src/core/pbuf.c ****   /* p->next now references t, but the caller will drop its reference to t,
 1806              		.loc 1 858 11 is_stmt 0 view .LVU582
 1807 0056 2560     		str	r5, [r4]
 1808              	.LVL188:
 1809              	.L142:
 862:Middlewares/Third_Party/LwIP/src/core/pbuf.c **** 
 1810              		.loc 1 862 1 view .LVU583
 1811 0058 38BD     		pop	{r3, r4, r5, pc}
 1812              	.LVL189:
 1813              	.L151:
 853:Middlewares/Third_Party/LwIP/src/core/pbuf.c ****   LWIP_ASSERT("p->next == NULL", p->next == NULL);
 1814              		.loc 1 853 3 is_stmt 1 discriminator 1 view .LVU584
 853:Middlewares/Third_Party/LwIP/src/core/pbuf.c ****   LWIP_ASSERT("p->next == NULL", p->next == NULL);
 1815              		.loc 1 853 3 discriminator 1 view .LVU585
 1816 005a 044B     		ldr	r3, .L152
 1817 005c 40F25532 		movw	r2, #853
 1818 0060 0649     		ldr	r1, .L152+16
 1819 0062 0448     		ldr	r0, .L152+8
 1820              	.LVL190:
 853:Middlewares/Third_Party/LwIP/src/core/pbuf.c ****   LWIP_ASSERT("p->next == NULL", p->next == NULL);
 1821              		.loc 1 853 3 is_stmt 0 discriminator 1 view .LVU586
 1822 0064 FFF7FEFF 		bl	printf
ARM GAS  /tmp/ccvTpBVd.s 			page 62


 1823              	.LVL191:
 1824 0068 E8E7     		b	.L146
 1825              	.L153:
 1826 006a 00BF     		.align	2
 1827              	.L152:
 1828 006c 00000000 		.word	.LC0
 1829 0070 00000000 		.word	.LC20
 1830 0074 3C000000 		.word	.LC2
 1831 0078 68000000 		.word	.LC22
 1832 007c 38000000 		.word	.LC21
 1833              		.cfi_endproc
 1834              	.LFE171:
 1836              		.section	.text.pbuf_chain,"ax",%progbits
 1837              		.align	1
 1838              		.global	pbuf_chain
 1839              		.syntax unified
 1840              		.thumb
 1841              		.thumb_func
 1842              		.fpu fpv5-sp-d16
 1844              	pbuf_chain:
 1845              	.LVL192:
 1846              	.LFB172:
 883:Middlewares/Third_Party/LwIP/src/core/pbuf.c ****   pbuf_cat(h, t);
 1847              		.loc 1 883 1 is_stmt 1 view -0
 1848              		.cfi_startproc
 1849              		@ args = 0, pretend = 0, frame = 0
 1850              		@ frame_needed = 0, uses_anonymous_args = 0
 883:Middlewares/Third_Party/LwIP/src/core/pbuf.c ****   pbuf_cat(h, t);
 1851              		.loc 1 883 1 is_stmt 0 view .LVU588
 1852 0000 10B5     		push	{r4, lr}
 1853              	.LCFI11:
 1854              		.cfi_def_cfa_offset 8
 1855              		.cfi_offset 4, -8
 1856              		.cfi_offset 14, -4
 1857 0002 0C46     		mov	r4, r1
 884:Middlewares/Third_Party/LwIP/src/core/pbuf.c ****   /* t is now referenced by h */
 1858              		.loc 1 884 3 is_stmt 1 view .LVU589
 1859 0004 FFF7FEFF 		bl	pbuf_cat
 1860              	.LVL193:
 886:Middlewares/Third_Party/LwIP/src/core/pbuf.c ****   LWIP_DEBUGF(PBUF_DEBUG | LWIP_DBG_TRACE, ("pbuf_chain: %p references %p\n", (void *)h, (void *)t)
 1861              		.loc 1 886 3 view .LVU590
 1862 0008 2046     		mov	r0, r4
 1863 000a FFF7FEFF 		bl	pbuf_ref
 1864              	.LVL194:
 887:Middlewares/Third_Party/LwIP/src/core/pbuf.c **** }
 1865              		.loc 1 887 101 view .LVU591
 888:Middlewares/Third_Party/LwIP/src/core/pbuf.c **** 
 1866              		.loc 1 888 1 is_stmt 0 view .LVU592
 1867 000e 10BD     		pop	{r4, pc}
 888:Middlewares/Third_Party/LwIP/src/core/pbuf.c **** 
 1868              		.loc 1 888 1 view .LVU593
 1869              		.cfi_endproc
 1870              	.LFE172:
 1872              		.section	.text.pbuf_dechain,"ax",%progbits
 1873              		.align	1
 1874              		.global	pbuf_dechain
 1875              		.syntax unified
ARM GAS  /tmp/ccvTpBVd.s 			page 63


 1876              		.thumb
 1877              		.thumb_func
 1878              		.fpu fpv5-sp-d16
 1880              	pbuf_dechain:
 1881              	.LVL195:
 1882              	.LFB173:
 900:Middlewares/Third_Party/LwIP/src/core/pbuf.c ****   struct pbuf *q;
 1883              		.loc 1 900 1 is_stmt 1 view -0
 1884              		.cfi_startproc
 1885              		@ args = 0, pretend = 0, frame = 0
 1886              		@ frame_needed = 0, uses_anonymous_args = 0
 900:Middlewares/Third_Party/LwIP/src/core/pbuf.c ****   struct pbuf *q;
 1887              		.loc 1 900 1 is_stmt 0 view .LVU595
 1888 0000 70B5     		push	{r4, r5, r6, lr}
 1889              	.LCFI12:
 1890              		.cfi_def_cfa_offset 16
 1891              		.cfi_offset 4, -16
 1892              		.cfi_offset 5, -12
 1893              		.cfi_offset 6, -8
 1894              		.cfi_offset 14, -4
 1895 0002 0446     		mov	r4, r0
 901:Middlewares/Third_Party/LwIP/src/core/pbuf.c ****   u8_t tail_gone = 1;
 1896              		.loc 1 901 3 is_stmt 1 view .LVU596
 902:Middlewares/Third_Party/LwIP/src/core/pbuf.c ****   /* tail */
 1897              		.loc 1 902 3 view .LVU597
 1898              	.LVL196:
 904:Middlewares/Third_Party/LwIP/src/core/pbuf.c ****   /* pbuf has successor in chain? */
 1899              		.loc 1 904 3 view .LVU598
 904:Middlewares/Third_Party/LwIP/src/core/pbuf.c ****   /* pbuf has successor in chain? */
 1900              		.loc 1 904 5 is_stmt 0 view .LVU599
 1901 0004 0568     		ldr	r5, [r0]
 1902              	.LVL197:
 906:Middlewares/Third_Party/LwIP/src/core/pbuf.c ****     /* assert tot_len invariant: (p->tot_len == p->len + (p->next? p->next->tot_len: 0) */
 1903              		.loc 1 906 3 is_stmt 1 view .LVU600
 906:Middlewares/Third_Party/LwIP/src/core/pbuf.c ****     /* assert tot_len invariant: (p->tot_len == p->len + (p->next? p->next->tot_len: 0) */
 1904              		.loc 1 906 6 is_stmt 0 view .LVU601
 1905 0006 05B3     		cbz	r5, .L161
 908:Middlewares/Third_Party/LwIP/src/core/pbuf.c ****     /* enforce invariant if assertion is disabled */
 1906              		.loc 1 908 5 is_stmt 1 view .LVU602
 908:Middlewares/Third_Party/LwIP/src/core/pbuf.c ****     /* enforce invariant if assertion is disabled */
 1907              		.loc 1 908 5 view .LVU603
 1908 0008 2A89     		ldrh	r2, [r5, #8]
 1909 000a 0389     		ldrh	r3, [r0, #8]
 1910 000c 4189     		ldrh	r1, [r0, #10]
 1911 000e 5B1A     		subs	r3, r3, r1
 1912 0010 9A42     		cmp	r2, r3
 1913 0012 12D1     		bne	.L164
 1914              	.LVL198:
 1915              	.L158:
 910:Middlewares/Third_Party/LwIP/src/core/pbuf.c ****     /* decouple pbuf from remainder */
 1916              		.loc 1 910 5 view .LVU604
 910:Middlewares/Third_Party/LwIP/src/core/pbuf.c ****     /* decouple pbuf from remainder */
 1917              		.loc 1 910 19 is_stmt 0 view .LVU605
 1918 0014 2389     		ldrh	r3, [r4, #8]
 910:Middlewares/Third_Party/LwIP/src/core/pbuf.c ****     /* decouple pbuf from remainder */
 1919              		.loc 1 910 32 view .LVU606
 1920 0016 6289     		ldrh	r2, [r4, #10]
ARM GAS  /tmp/ccvTpBVd.s 			page 64


 910:Middlewares/Third_Party/LwIP/src/core/pbuf.c ****     /* decouple pbuf from remainder */
 1921              		.loc 1 910 29 view .LVU607
 1922 0018 9B1A     		subs	r3, r3, r2
 910:Middlewares/Third_Party/LwIP/src/core/pbuf.c ****     /* decouple pbuf from remainder */
 1923              		.loc 1 910 16 view .LVU608
 1924 001a 2B81     		strh	r3, [r5, #8]	@ movhi
 912:Middlewares/Third_Party/LwIP/src/core/pbuf.c ****     /* total length of pbuf p is its own length only */
 1925              		.loc 1 912 5 is_stmt 1 view .LVU609
 912:Middlewares/Third_Party/LwIP/src/core/pbuf.c ****     /* total length of pbuf p is its own length only */
 1926              		.loc 1 912 13 is_stmt 0 view .LVU610
 1927 001c 0023     		movs	r3, #0
 1928 001e 2360     		str	r3, [r4]
 914:Middlewares/Third_Party/LwIP/src/core/pbuf.c ****     /* q is no longer referenced by p, free it */
 1929              		.loc 1 914 5 is_stmt 1 view .LVU611
 914:Middlewares/Third_Party/LwIP/src/core/pbuf.c ****     /* q is no longer referenced by p, free it */
 1930              		.loc 1 914 19 is_stmt 0 view .LVU612
 1931 0020 6389     		ldrh	r3, [r4, #10]
 914:Middlewares/Third_Party/LwIP/src/core/pbuf.c ****     /* q is no longer referenced by p, free it */
 1932              		.loc 1 914 16 view .LVU613
 1933 0022 2381     		strh	r3, [r4, #8]	@ movhi
 916:Middlewares/Third_Party/LwIP/src/core/pbuf.c ****     tail_gone = pbuf_free(q);
 1934              		.loc 1 916 94 is_stmt 1 view .LVU614
 917:Middlewares/Third_Party/LwIP/src/core/pbuf.c ****     if (tail_gone > 0) {
 1935              		.loc 1 917 5 view .LVU615
 917:Middlewares/Third_Party/LwIP/src/core/pbuf.c ****     if (tail_gone > 0) {
 1936              		.loc 1 917 17 is_stmt 0 view .LVU616
 1937 0024 2846     		mov	r0, r5
 1938 0026 FFF7FEFF 		bl	pbuf_free
 1939              	.LVL199:
 1940 002a 0646     		mov	r6, r0
 1941              	.LVL200:
 918:Middlewares/Third_Party/LwIP/src/core/pbuf.c ****       LWIP_DEBUGF(PBUF_DEBUG | LWIP_DBG_TRACE,
 1942              		.loc 1 918 5 is_stmt 1 view .LVU617
 1943              	.L157:
 920:Middlewares/Third_Party/LwIP/src/core/pbuf.c ****     }
 1944              		.loc 1 920 97 view .LVU618
 925:Middlewares/Third_Party/LwIP/src/core/pbuf.c ****   return ((tail_gone > 0) ? NULL : q);
 1945              		.loc 1 925 3 view .LVU619
 925:Middlewares/Third_Party/LwIP/src/core/pbuf.c ****   return ((tail_gone > 0) ? NULL : q);
 1946              		.loc 1 925 3 view .LVU620
 1947 002c 2289     		ldrh	r2, [r4, #8]
 1948 002e 6389     		ldrh	r3, [r4, #10]
 1949 0030 9A42     		cmp	r2, r3
 1950 0032 0CD1     		bne	.L165
 1951              	.L159:
 926:Middlewares/Third_Party/LwIP/src/core/pbuf.c **** }
 1952              		.loc 1 926 3 view .LVU621
 926:Middlewares/Third_Party/LwIP/src/core/pbuf.c **** }
 1953              		.loc 1 926 34 is_stmt 0 view .LVU622
 1954 0034 9EB9     		cbnz	r6, .L166
 1955              	.LVL201:
 1956              	.L156:
 927:Middlewares/Third_Party/LwIP/src/core/pbuf.c **** 
 1957              		.loc 1 927 1 view .LVU623
 1958 0036 2846     		mov	r0, r5
 1959 0038 70BD     		pop	{r4, r5, r6, pc}
 1960              	.LVL202:
ARM GAS  /tmp/ccvTpBVd.s 			page 65


 1961              	.L164:
 908:Middlewares/Third_Party/LwIP/src/core/pbuf.c ****     /* enforce invariant if assertion is disabled */
 1962              		.loc 1 908 5 is_stmt 1 discriminator 1 view .LVU624
 908:Middlewares/Third_Party/LwIP/src/core/pbuf.c ****     /* enforce invariant if assertion is disabled */
 1963              		.loc 1 908 5 discriminator 1 view .LVU625
 1964 003a 0A4B     		ldr	r3, .L167
 1965 003c 4FF46372 		mov	r2, #908
 1966 0040 0949     		ldr	r1, .L167+4
 1967 0042 0A48     		ldr	r0, .L167+8
 1968              	.LVL203:
 908:Middlewares/Third_Party/LwIP/src/core/pbuf.c ****     /* enforce invariant if assertion is disabled */
 1969              		.loc 1 908 5 is_stmt 0 discriminator 1 view .LVU626
 1970 0044 FFF7FEFF 		bl	printf
 1971              	.LVL204:
 1972 0048 E4E7     		b	.L158
 1973              	.LVL205:
 1974              	.L161:
 902:Middlewares/Third_Party/LwIP/src/core/pbuf.c ****   /* tail */
 1975              		.loc 1 902 8 view .LVU627
 1976 004a 0126     		movs	r6, #1
 1977 004c EEE7     		b	.L157
 1978              	.LVL206:
 1979              	.L165:
 925:Middlewares/Third_Party/LwIP/src/core/pbuf.c ****   return ((tail_gone > 0) ? NULL : q);
 1980              		.loc 1 925 3 is_stmt 1 discriminator 1 view .LVU628
 925:Middlewares/Third_Party/LwIP/src/core/pbuf.c ****   return ((tail_gone > 0) ? NULL : q);
 1981              		.loc 1 925 3 discriminator 1 view .LVU629
 1982 004e 054B     		ldr	r3, .L167
 1983 0050 40F29D32 		movw	r2, #925
 1984 0054 0649     		ldr	r1, .L167+12
 1985 0056 0548     		ldr	r0, .L167+8
 1986 0058 FFF7FEFF 		bl	printf
 1987              	.LVL207:
 1988 005c EAE7     		b	.L159
 1989              	.L166:
 926:Middlewares/Third_Party/LwIP/src/core/pbuf.c **** }
 1990              		.loc 1 926 34 is_stmt 0 view .LVU630
 1991 005e 0025     		movs	r5, #0
 1992              	.LVL208:
 926:Middlewares/Third_Party/LwIP/src/core/pbuf.c **** }
 1993              		.loc 1 926 34 view .LVU631
 1994 0060 E9E7     		b	.L156
 1995              	.L168:
 1996 0062 00BF     		.align	2
 1997              	.L167:
 1998 0064 00000000 		.word	.LC0
 1999 0068 00000000 		.word	.LC23
 2000 006c 3C000000 		.word	.LC2
 2001 0070 24000000 		.word	.LC24
 2002              		.cfi_endproc
 2003              	.LFE173:
 2005              		.section	.text.pbuf_copy,"ax",%progbits
 2006              		.align	1
 2007              		.global	pbuf_copy
 2008              		.syntax unified
 2009              		.thumb
 2010              		.thumb_func
ARM GAS  /tmp/ccvTpBVd.s 			page 66


 2011              		.fpu fpv5-sp-d16
 2013              	pbuf_copy:
 2014              	.LVL209:
 2015              	.LFB174:
 949:Middlewares/Third_Party/LwIP/src/core/pbuf.c ****   u16_t offset_to=0, offset_from=0, len;
 2016              		.loc 1 949 1 is_stmt 1 view -0
 2017              		.cfi_startproc
 2018              		@ args = 0, pretend = 0, frame = 0
 2019              		@ frame_needed = 0, uses_anonymous_args = 0
 949:Middlewares/Third_Party/LwIP/src/core/pbuf.c ****   u16_t offset_to=0, offset_from=0, len;
 2020              		.loc 1 949 1 is_stmt 0 view .LVU633
 2021 0000 2DE9F041 		push	{r4, r5, r6, r7, r8, lr}
 2022              	.LCFI13:
 2023              		.cfi_def_cfa_offset 24
 2024              		.cfi_offset 4, -24
 2025              		.cfi_offset 5, -20
 2026              		.cfi_offset 6, -16
 2027              		.cfi_offset 7, -12
 2028              		.cfi_offset 8, -8
 2029              		.cfi_offset 14, -4
 950:Middlewares/Third_Party/LwIP/src/core/pbuf.c **** 
 2030              		.loc 1 950 3 is_stmt 1 view .LVU634
 2031              	.LVL210:
 953:Middlewares/Third_Party/LwIP/src/core/pbuf.c **** 
 2032              		.loc 1 953 45 view .LVU635
 956:Middlewares/Third_Party/LwIP/src/core/pbuf.c ****              (p_from != NULL) && (p_to->tot_len >= p_from->tot_len)), return ERR_ARG;);
 2033              		.loc 1 956 3 view .LVU636
 956:Middlewares/Third_Party/LwIP/src/core/pbuf.c ****              (p_from != NULL) && (p_to->tot_len >= p_from->tot_len)), return ERR_ARG;);
 2034              		.loc 1 956 3 view .LVU637
 2035 0004 0D46     		mov	r5, r1
 2036 0006 B1FA81F1 		clz	r1, r1
 2037              	.LVL211:
 956:Middlewares/Third_Party/LwIP/src/core/pbuf.c ****              (p_from != NULL) && (p_to->tot_len >= p_from->tot_len)), return ERR_ARG;);
 2038              		.loc 1 956 3 is_stmt 0 view .LVU638
 2039 000a 4909     		lsrs	r1, r1, #5
 2040 000c 0028     		cmp	r0, #0
 2041 000e 08BF     		it	eq
 2042 0010 0121     		moveq	r1, #1
 2043 0012 41B9     		cbnz	r1, .L170
 2044 0014 0746     		mov	r7, r0
 956:Middlewares/Third_Party/LwIP/src/core/pbuf.c ****              (p_from != NULL) && (p_to->tot_len >= p_from->tot_len)), return ERR_ARG;);
 2045              		.loc 1 956 3 discriminator 2 view .LVU639
 2046 0016 0289     		ldrh	r2, [r0, #8]
 2047 0018 2B89     		ldrh	r3, [r5, #8]
 2048 001a 9A42     		cmp	r2, r3
 2049 001c 03D3     		bcc	.L170
 950:Middlewares/Third_Party/LwIP/src/core/pbuf.c **** 
 2050              		.loc 1 950 22 view .LVU640
 2051 001e 4FF00008 		mov	r8, #0
 950:Middlewares/Third_Party/LwIP/src/core/pbuf.c **** 
 2052              		.loc 1 950 9 view .LVU641
 2053 0022 4646     		mov	r6, r8
 2054 0024 3FE0     		b	.L171
 2055              	.L170:
 956:Middlewares/Third_Party/LwIP/src/core/pbuf.c ****              (p_from != NULL) && (p_to->tot_len >= p_from->tot_len)), return ERR_ARG;);
 2056              		.loc 1 956 3 is_stmt 1 discriminator 3 view .LVU642
 956:Middlewares/Third_Party/LwIP/src/core/pbuf.c ****              (p_from != NULL) && (p_to->tot_len >= p_from->tot_len)), return ERR_ARG;);
ARM GAS  /tmp/ccvTpBVd.s 			page 67


 2057              		.loc 1 956 3 discriminator 3 view .LVU643
 2058 0026 3F4B     		ldr	r3, .L190
 2059 0028 40F2BD32 		movw	r2, #957
 2060 002c 3E49     		ldr	r1, .L190+4
 2061 002e 3F48     		ldr	r0, .L190+8
 2062              	.LVL212:
 956:Middlewares/Third_Party/LwIP/src/core/pbuf.c ****              (p_from != NULL) && (p_to->tot_len >= p_from->tot_len)), return ERR_ARG;);
 2063              		.loc 1 956 3 is_stmt 0 discriminator 3 view .LVU644
 2064 0030 FFF7FEFF 		bl	printf
 2065              	.LVL213:
 956:Middlewares/Third_Party/LwIP/src/core/pbuf.c ****              (p_from != NULL) && (p_to->tot_len >= p_from->tot_len)), return ERR_ARG;);
 2066              		.loc 1 956 3 is_stmt 1 discriminator 3 view .LVU645
 2067 0034 6FF00F00 		mvn	r0, #15
 2068 0038 71E0     		b	.L172
 2069              	.LVL214:
 2070              	.L173:
 968:Middlewares/Third_Party/LwIP/src/core/pbuf.c ****     }
 2071              		.loc 1 968 7 view .LVU646
 968:Middlewares/Third_Party/LwIP/src/core/pbuf.c ****     }
 2072              		.loc 1 968 11 is_stmt 0 view .LVU647
 2073 003a 9B1B     		subs	r3, r3, r6
 2074 003c 9CB2     		uxth	r4, r3
 2075              	.LVL215:
 968:Middlewares/Third_Party/LwIP/src/core/pbuf.c ****     }
 2076              		.loc 1 968 11 view .LVU648
 2077 003e 3AE0     		b	.L174
 2078              	.LVL216:
 2079              	.L186:
 973:Middlewares/Third_Party/LwIP/src/core/pbuf.c ****     LWIP_ASSERT("offset_from <= p_from->len", offset_from <= p_from->len);
 2080              		.loc 1 973 5 is_stmt 1 discriminator 1 view .LVU649
 973:Middlewares/Third_Party/LwIP/src/core/pbuf.c ****     LWIP_ASSERT("offset_from <= p_from->len", offset_from <= p_from->len);
 2081              		.loc 1 973 5 discriminator 1 view .LVU650
 2082 0040 384B     		ldr	r3, .L190
 2083 0042 40F2CD32 		movw	r2, #973
 2084 0046 3A49     		ldr	r1, .L190+12
 2085 0048 3848     		ldr	r0, .L190+8
 2086 004a FFF7FEFF 		bl	printf
 2087              	.LVL217:
 2088 004e 41E0     		b	.L175
 2089              	.L187:
 974:Middlewares/Third_Party/LwIP/src/core/pbuf.c ****     if (offset_from >= p_from->len) {
 2090              		.loc 1 974 5 discriminator 1 view .LVU651
 974:Middlewares/Third_Party/LwIP/src/core/pbuf.c ****     if (offset_from >= p_from->len) {
 2091              		.loc 1 974 5 discriminator 1 view .LVU652
 2092 0050 344B     		ldr	r3, .L190
 2093 0052 40F2CE32 		movw	r2, #974
 2094 0056 3749     		ldr	r1, .L190+16
 2095 0058 3448     		ldr	r0, .L190+8
 2096 005a FFF7FEFF 		bl	printf
 2097              	.LVL218:
 2098 005e 3CE0     		b	.L176
 2099              	.L188:
 982:Middlewares/Third_Party/LwIP/src/core/pbuf.c ****       p_to = p_to->next;
 2100              		.loc 1 982 7 view .LVU653
 2101              	.LVL219:
 983:Middlewares/Third_Party/LwIP/src/core/pbuf.c ****       LWIP_ERROR("p_to != NULL", (p_to != NULL) || (p_from == NULL) , return ERR_ARG;);
 2102              		.loc 1 983 7 view .LVU654
ARM GAS  /tmp/ccvTpBVd.s 			page 68


 983:Middlewares/Third_Party/LwIP/src/core/pbuf.c ****       LWIP_ERROR("p_to != NULL", (p_to != NULL) || (p_from == NULL) , return ERR_ARG;);
 2103              		.loc 1 983 12 is_stmt 0 view .LVU655
 2104 0060 3F68     		ldr	r7, [r7]
 2105              	.LVL220:
 984:Middlewares/Third_Party/LwIP/src/core/pbuf.c ****     }
 2106              		.loc 1 984 7 is_stmt 1 view .LVU656
 984:Middlewares/Third_Party/LwIP/src/core/pbuf.c ****     }
 2107              		.loc 1 984 7 view .LVU657
 2108 0062 2B1C     		adds	r3, r5, #0
 2109 0064 18BF     		it	ne
 2110 0066 0123     		movne	r3, #1
 2111 0068 002F     		cmp	r7, #0
 2112 006a 18BF     		it	ne
 2113 006c 0023     		movne	r3, #0
 2114 006e 0BB9     		cbnz	r3, .L184
 982:Middlewares/Third_Party/LwIP/src/core/pbuf.c ****       p_to = p_to->next;
 2115              		.loc 1 982 17 is_stmt 0 view .LVU658
 2116 0070 0026     		movs	r6, #0
 2117 0072 3BE0     		b	.L178
 2118              	.L184:
 984:Middlewares/Third_Party/LwIP/src/core/pbuf.c ****     }
 2119              		.loc 1 984 7 is_stmt 1 discriminator 1 view .LVU659
 984:Middlewares/Third_Party/LwIP/src/core/pbuf.c ****     }
 2120              		.loc 1 984 7 discriminator 1 view .LVU660
 2121 0074 2B4B     		ldr	r3, .L190
 2122 0076 4FF47672 		mov	r2, #984
 2123 007a 2F49     		ldr	r1, .L190+20
 2124 007c 2B48     		ldr	r0, .L190+8
 2125 007e FFF7FEFF 		bl	printf
 2126              	.LVL221:
 984:Middlewares/Third_Party/LwIP/src/core/pbuf.c ****     }
 2127              		.loc 1 984 7 discriminator 1 view .LVU661
 2128 0082 6FF00F00 		mvn	r0, #15
 2129 0086 4AE0     		b	.L172
 2130              	.LVL222:
 2131              	.L189:
 989:Middlewares/Third_Party/LwIP/src/core/pbuf.c ****                  (p_from->next == NULL), return ERR_VAL;);
 2132              		.loc 1 989 7 view .LVU662
 989:Middlewares/Third_Party/LwIP/src/core/pbuf.c ****                  (p_from->next == NULL), return ERR_VAL;);
 2133              		.loc 1 989 7 view .LVU663
 2134 0088 2B68     		ldr	r3, [r5]
 2135 008a 002B     		cmp	r3, #0
 2136 008c 33D0     		beq	.L179
 989:Middlewares/Third_Party/LwIP/src/core/pbuf.c ****                  (p_from->next == NULL), return ERR_VAL;);
 2137              		.loc 1 989 7 discriminator 1 view .LVU664
 989:Middlewares/Third_Party/LwIP/src/core/pbuf.c ****                  (p_from->next == NULL), return ERR_VAL;);
 2138              		.loc 1 989 7 discriminator 1 view .LVU665
 2139 008e 254B     		ldr	r3, .L190
 2140 0090 40F2DE32 		movw	r2, #990
 2141 0094 2949     		ldr	r1, .L190+24
 2142 0096 2548     		ldr	r0, .L190+8
 2143 0098 FFF7FEFF 		bl	printf
 2144              	.LVL223:
 989:Middlewares/Third_Party/LwIP/src/core/pbuf.c ****                  (p_from->next == NULL), return ERR_VAL;);
 2145              		.loc 1 989 7 discriminator 1 view .LVU666
 2146 009c 6FF00500 		mvn	r0, #5
 2147 00a0 3DE0     		b	.L172
ARM GAS  /tmp/ccvTpBVd.s 			page 69


 2148              	.L180:
 994:Middlewares/Third_Party/LwIP/src/core/pbuf.c ****                   (p_to->next == NULL), return ERR_VAL;);
 2149              		.loc 1 994 7 discriminator 2 view .LVU667
 997:Middlewares/Third_Party/LwIP/src/core/pbuf.c ****   LWIP_DEBUGF(PBUF_DEBUG | LWIP_DBG_TRACE, ("pbuf_copy: end of chain reached.\n"));
 2150              		.loc 1 997 3 is_stmt 0 discriminator 2 view .LVU668
 2151 00a2 002D     		cmp	r5, #0
 2152 00a4 3AD0     		beq	.L185
 2153              	.LVL224:
 2154              	.L171:
 956:Middlewares/Third_Party/LwIP/src/core/pbuf.c ****              (p_from != NULL) && (p_to->tot_len >= p_from->tot_len)), return ERR_ARG;);
 2155              		.loc 1 956 3 is_stmt 1 discriminator 4 view .LVU669
 960:Middlewares/Third_Party/LwIP/src/core/pbuf.c ****   {
 2156              		.loc 1 960 3 discriminator 4 view .LVU670
 963:Middlewares/Third_Party/LwIP/src/core/pbuf.c ****       /* complete current p_from fits into current p_to */
 2157              		.loc 1 963 5 discriminator 4 view .LVU671
 963:Middlewares/Third_Party/LwIP/src/core/pbuf.c ****       /* complete current p_from fits into current p_to */
 2158              		.loc 1 963 14 is_stmt 0 discriminator 4 view .LVU672
 2159 00a6 7B89     		ldrh	r3, [r7, #10]
 963:Middlewares/Third_Party/LwIP/src/core/pbuf.c ****       /* complete current p_from fits into current p_to */
 2160              		.loc 1 963 20 discriminator 4 view .LVU673
 2161 00a8 991B     		subs	r1, r3, r6
 963:Middlewares/Third_Party/LwIP/src/core/pbuf.c ****       /* complete current p_from fits into current p_to */
 2162              		.loc 1 963 43 discriminator 4 view .LVU674
 2163 00aa 6C89     		ldrh	r4, [r5, #10]
 963:Middlewares/Third_Party/LwIP/src/core/pbuf.c ****       /* complete current p_from fits into current p_to */
 2164              		.loc 1 963 49 discriminator 4 view .LVU675
 2165 00ac A4EB0802 		sub	r2, r4, r8
 963:Middlewares/Third_Party/LwIP/src/core/pbuf.c ****       /* complete current p_from fits into current p_to */
 2166              		.loc 1 963 8 discriminator 4 view .LVU676
 2167 00b0 9142     		cmp	r1, r2
 2168 00b2 C2DB     		blt	.L173
 965:Middlewares/Third_Party/LwIP/src/core/pbuf.c ****     } else {
 2169              		.loc 1 965 7 is_stmt 1 view .LVU677
 965:Middlewares/Third_Party/LwIP/src/core/pbuf.c ****     } else {
 2170              		.loc 1 965 11 is_stmt 0 view .LVU678
 2171 00b4 94B2     		uxth	r4, r2
 2172              	.LVL225:
 2173              	.L174:
 970:Middlewares/Third_Party/LwIP/src/core/pbuf.c ****     offset_to += len;
 2174              		.loc 1 970 5 is_stmt 1 view .LVU679
 2175 00b6 7868     		ldr	r0, [r7, #4]
 2176 00b8 6968     		ldr	r1, [r5, #4]
 2177 00ba 2246     		mov	r2, r4
 2178 00bc 4144     		add	r1, r1, r8
 2179 00be 3044     		add	r0, r0, r6
 2180 00c0 FFF7FEFF 		bl	memcpy
 2181              	.LVL226:
 971:Middlewares/Third_Party/LwIP/src/core/pbuf.c ****     offset_from += len;
 2182              		.loc 1 971 5 view .LVU680
 971:Middlewares/Third_Party/LwIP/src/core/pbuf.c ****     offset_from += len;
 2183              		.loc 1 971 15 is_stmt 0 view .LVU681
 2184 00c4 2644     		add	r6, r6, r4
 2185              	.LVL227:
 971:Middlewares/Third_Party/LwIP/src/core/pbuf.c ****     offset_from += len;
 2186              		.loc 1 971 15 view .LVU682
 2187 00c6 B6B2     		uxth	r6, r6
 2188              	.LVL228:
ARM GAS  /tmp/ccvTpBVd.s 			page 70


 972:Middlewares/Third_Party/LwIP/src/core/pbuf.c ****     LWIP_ASSERT("offset_to <= p_to->len", offset_to <= p_to->len);
 2189              		.loc 1 972 5 is_stmt 1 view .LVU683
 972:Middlewares/Third_Party/LwIP/src/core/pbuf.c ****     LWIP_ASSERT("offset_to <= p_to->len", offset_to <= p_to->len);
 2190              		.loc 1 972 17 is_stmt 0 view .LVU684
 2191 00c8 4444     		add	r4, r4, r8
 2192              	.LVL229:
 972:Middlewares/Third_Party/LwIP/src/core/pbuf.c ****     LWIP_ASSERT("offset_to <= p_to->len", offset_to <= p_to->len);
 2193              		.loc 1 972 17 view .LVU685
 2194 00ca 1FFA84F8 		uxth	r8, r4
 2195              	.LVL230:
 973:Middlewares/Third_Party/LwIP/src/core/pbuf.c ****     LWIP_ASSERT("offset_from <= p_from->len", offset_from <= p_from->len);
 2196              		.loc 1 973 5 is_stmt 1 view .LVU686
 973:Middlewares/Third_Party/LwIP/src/core/pbuf.c ****     LWIP_ASSERT("offset_from <= p_from->len", offset_from <= p_from->len);
 2197              		.loc 1 973 5 view .LVU687
 2198 00ce 7B89     		ldrh	r3, [r7, #10]
 2199 00d0 B342     		cmp	r3, r6
 2200 00d2 B5D3     		bcc	.L186
 2201              	.L175:
 974:Middlewares/Third_Party/LwIP/src/core/pbuf.c ****     if (offset_from >= p_from->len) {
 2202              		.loc 1 974 5 view .LVU688
 974:Middlewares/Third_Party/LwIP/src/core/pbuf.c ****     if (offset_from >= p_from->len) {
 2203              		.loc 1 974 5 view .LVU689
 2204 00d4 6B89     		ldrh	r3, [r5, #10]
 2205 00d6 4345     		cmp	r3, r8
 2206 00d8 BAD3     		bcc	.L187
 2207              	.L176:
 975:Middlewares/Third_Party/LwIP/src/core/pbuf.c ****       /* on to next p_from (if any) */
 2208              		.loc 1 975 5 view .LVU690
 975:Middlewares/Third_Party/LwIP/src/core/pbuf.c ****       /* on to next p_from (if any) */
 2209              		.loc 1 975 30 is_stmt 0 view .LVU691
 2210 00da 6B89     		ldrh	r3, [r5, #10]
 975:Middlewares/Third_Party/LwIP/src/core/pbuf.c ****       /* on to next p_from (if any) */
 2211              		.loc 1 975 8 view .LVU692
 2212 00dc 4345     		cmp	r3, r8
 2213 00de 02D8     		bhi	.L177
 977:Middlewares/Third_Party/LwIP/src/core/pbuf.c ****       p_from = p_from->next;
 2214              		.loc 1 977 7 is_stmt 1 view .LVU693
 2215              	.LVL231:
 978:Middlewares/Third_Party/LwIP/src/core/pbuf.c ****     }
 2216              		.loc 1 978 7 view .LVU694
 978:Middlewares/Third_Party/LwIP/src/core/pbuf.c ****     }
 2217              		.loc 1 978 14 is_stmt 0 view .LVU695
 2218 00e0 2D68     		ldr	r5, [r5]
 2219              	.LVL232:
 977:Middlewares/Third_Party/LwIP/src/core/pbuf.c ****       p_from = p_from->next;
 2220              		.loc 1 977 19 view .LVU696
 2221 00e2 4FF00008 		mov	r8, #0
 2222              	.LVL233:
 2223              	.L177:
 980:Middlewares/Third_Party/LwIP/src/core/pbuf.c ****       /* on to next p_to (if any) */
 2224              		.loc 1 980 5 is_stmt 1 view .LVU697
 980:Middlewares/Third_Party/LwIP/src/core/pbuf.c ****       /* on to next p_to (if any) */
 2225              		.loc 1 980 26 is_stmt 0 view .LVU698
 2226 00e6 7B89     		ldrh	r3, [r7, #10]
 980:Middlewares/Third_Party/LwIP/src/core/pbuf.c ****       /* on to next p_to (if any) */
 2227              		.loc 1 980 8 view .LVU699
 2228 00e8 B342     		cmp	r3, r6
ARM GAS  /tmp/ccvTpBVd.s 			page 71


 2229 00ea B9D0     		beq	.L188
 2230              	.LVL234:
 2231              	.L178:
 984:Middlewares/Third_Party/LwIP/src/core/pbuf.c ****     }
 2232              		.loc 1 984 7 is_stmt 1 discriminator 2 view .LVU700
 987:Middlewares/Third_Party/LwIP/src/core/pbuf.c ****       /* don't copy more than one packet! */
 2233              		.loc 1 987 5 discriminator 2 view .LVU701
 987:Middlewares/Third_Party/LwIP/src/core/pbuf.c ****       /* don't copy more than one packet! */
 2234              		.loc 1 987 8 is_stmt 0 discriminator 2 view .LVU702
 2235 00ec 1DB1     		cbz	r5, .L179
 987:Middlewares/Third_Party/LwIP/src/core/pbuf.c ****       /* don't copy more than one packet! */
 2236              		.loc 1 987 36 discriminator 1 view .LVU703
 2237 00ee 6A89     		ldrh	r2, [r5, #10]
 987:Middlewares/Third_Party/LwIP/src/core/pbuf.c ****       /* don't copy more than one packet! */
 2238              		.loc 1 987 51 discriminator 1 view .LVU704
 2239 00f0 2B89     		ldrh	r3, [r5, #8]
 987:Middlewares/Third_Party/LwIP/src/core/pbuf.c ****       /* don't copy more than one packet! */
 2240              		.loc 1 987 26 discriminator 1 view .LVU705
 2241 00f2 9A42     		cmp	r2, r3
 2242 00f4 C8D0     		beq	.L189
 2243              	.L179:
 989:Middlewares/Third_Party/LwIP/src/core/pbuf.c ****                  (p_from->next == NULL), return ERR_VAL;);
 2244              		.loc 1 989 7 is_stmt 1 discriminator 2 view .LVU706
 992:Middlewares/Third_Party/LwIP/src/core/pbuf.c ****       /* don't copy more than one packet! */
 2245              		.loc 1 992 5 discriminator 2 view .LVU707
 992:Middlewares/Third_Party/LwIP/src/core/pbuf.c ****       /* don't copy more than one packet! */
 2246              		.loc 1 992 8 is_stmt 0 discriminator 2 view .LVU708
 2247 00f6 002F     		cmp	r7, #0
 2248 00f8 D3D0     		beq	.L180
 992:Middlewares/Third_Party/LwIP/src/core/pbuf.c ****       /* don't copy more than one packet! */
 2249              		.loc 1 992 32 discriminator 1 view .LVU709
 2250 00fa 7A89     		ldrh	r2, [r7, #10]
 992:Middlewares/Third_Party/LwIP/src/core/pbuf.c ****       /* don't copy more than one packet! */
 2251              		.loc 1 992 45 discriminator 1 view .LVU710
 2252 00fc 3B89     		ldrh	r3, [r7, #8]
 992:Middlewares/Third_Party/LwIP/src/core/pbuf.c ****       /* don't copy more than one packet! */
 2253              		.loc 1 992 24 discriminator 1 view .LVU711
 2254 00fe 9A42     		cmp	r2, r3
 2255 0100 CFD1     		bne	.L180
 994:Middlewares/Third_Party/LwIP/src/core/pbuf.c ****                   (p_to->next == NULL), return ERR_VAL;);
 2256              		.loc 1 994 7 is_stmt 1 view .LVU712
 994:Middlewares/Third_Party/LwIP/src/core/pbuf.c ****                   (p_to->next == NULL), return ERR_VAL;);
 2257              		.loc 1 994 7 view .LVU713
 2258 0102 3B68     		ldr	r3, [r7]
 2259 0104 002B     		cmp	r3, #0
 2260 0106 CCD0     		beq	.L180
 994:Middlewares/Third_Party/LwIP/src/core/pbuf.c ****                   (p_to->next == NULL), return ERR_VAL;);
 2261              		.loc 1 994 7 discriminator 1 view .LVU714
 994:Middlewares/Third_Party/LwIP/src/core/pbuf.c ****                   (p_to->next == NULL), return ERR_VAL;);
 2262              		.loc 1 994 7 discriminator 1 view .LVU715
 2263 0108 064B     		ldr	r3, .L190
 2264 010a 40F2E332 		movw	r2, #995
 2265 010e 0B49     		ldr	r1, .L190+24
 2266 0110 0648     		ldr	r0, .L190+8
 2267 0112 FFF7FEFF 		bl	printf
 2268              	.LVL235:
 994:Middlewares/Third_Party/LwIP/src/core/pbuf.c ****                   (p_to->next == NULL), return ERR_VAL;);
ARM GAS  /tmp/ccvTpBVd.s 			page 72


 2269              		.loc 1 994 7 discriminator 1 view .LVU716
 2270 0116 6FF00500 		mvn	r0, #5
 2271 011a 00E0     		b	.L172
 2272              	.L185:
 999:Middlewares/Third_Party/LwIP/src/core/pbuf.c **** }
 2273              		.loc 1 999 10 is_stmt 0 view .LVU717
 2274 011c 0020     		movs	r0, #0
 2275              	.LVL236:
 2276              	.L172:
1000:Middlewares/Third_Party/LwIP/src/core/pbuf.c **** 
 2277              		.loc 1 1000 1 view .LVU718
 2278 011e BDE8F081 		pop	{r4, r5, r6, r7, r8, pc}
 2279              	.LVL237:
 2280              	.L191:
1000:Middlewares/Third_Party/LwIP/src/core/pbuf.c **** 
 2281              		.loc 1 1000 1 view .LVU719
 2282 0122 00BF     		.align	2
 2283              	.L190:
 2284 0124 00000000 		.word	.LC0
 2285 0128 00000000 		.word	.LC25
 2286 012c 3C000000 		.word	.LC2
 2287 0130 30000000 		.word	.LC26
 2288 0134 48000000 		.word	.LC27
 2289 0138 64000000 		.word	.LC28
 2290 013c 74000000 		.word	.LC29
 2291              		.cfi_endproc
 2292              	.LFE174:
 2294              		.section	.text.pbuf_copy_partial,"ax",%progbits
 2295              		.align	1
 2296              		.global	pbuf_copy_partial
 2297              		.syntax unified
 2298              		.thumb
 2299              		.thumb_func
 2300              		.fpu fpv5-sp-d16
 2302              	pbuf_copy_partial:
 2303              	.LVL238:
 2304              	.LFB175:
1016:Middlewares/Third_Party/LwIP/src/core/pbuf.c ****   const struct pbuf *p;
 2305              		.loc 1 1016 1 is_stmt 1 view -0
 2306              		.cfi_startproc
 2307              		@ args = 0, pretend = 0, frame = 0
 2308              		@ frame_needed = 0, uses_anonymous_args = 0
1016:Middlewares/Third_Party/LwIP/src/core/pbuf.c ****   const struct pbuf *p;
 2309              		.loc 1 1016 1 is_stmt 0 view .LVU721
 2310 0000 2DE9F041 		push	{r4, r5, r6, r7, r8, lr}
 2311              	.LCFI14:
 2312              		.cfi_def_cfa_offset 24
 2313              		.cfi_offset 4, -24
 2314              		.cfi_offset 5, -20
 2315              		.cfi_offset 6, -16
 2316              		.cfi_offset 7, -12
 2317              		.cfi_offset 8, -8
 2318              		.cfi_offset 14, -4
1017:Middlewares/Third_Party/LwIP/src/core/pbuf.c ****   u16_t left;
 2319              		.loc 1 1017 3 is_stmt 1 view .LVU722
1018:Middlewares/Third_Party/LwIP/src/core/pbuf.c ****   u16_t buf_copy_len;
 2320              		.loc 1 1018 3 view .LVU723
ARM GAS  /tmp/ccvTpBVd.s 			page 73


1019:Middlewares/Third_Party/LwIP/src/core/pbuf.c ****   u16_t copied_total = 0;
 2321              		.loc 1 1019 3 view .LVU724
1020:Middlewares/Third_Party/LwIP/src/core/pbuf.c **** 
 2322              		.loc 1 1020 3 view .LVU725
 2323              	.LVL239:
1022:Middlewares/Third_Party/LwIP/src/core/pbuf.c ****   LWIP_ERROR("pbuf_copy_partial: invalid dataptr", (dataptr != NULL), return 0;);
 2324              		.loc 1 1022 3 view .LVU726
1022:Middlewares/Third_Party/LwIP/src/core/pbuf.c ****   LWIP_ERROR("pbuf_copy_partial: invalid dataptr", (dataptr != NULL), return 0;);
 2325              		.loc 1 1022 3 view .LVU727
 2326 0004 28B1     		cbz	r0, .L203
 2327 0006 0F46     		mov	r7, r1
 2328 0008 9046     		mov	r8, r2
 2329 000a 0546     		mov	r5, r0
1022:Middlewares/Third_Party/LwIP/src/core/pbuf.c ****   LWIP_ERROR("pbuf_copy_partial: invalid dataptr", (dataptr != NULL), return 0;);
 2330              		.loc 1 1022 3 discriminator 2 view .LVU728
1023:Middlewares/Third_Party/LwIP/src/core/pbuf.c **** 
 2331              		.loc 1 1023 3 discriminator 2 view .LVU729
1023:Middlewares/Third_Party/LwIP/src/core/pbuf.c **** 
 2332              		.loc 1 1023 3 discriminator 2 view .LVU730
 2333 000c 61B1     		cbz	r1, .L204
1025:Middlewares/Third_Party/LwIP/src/core/pbuf.c **** 
 2334              		.loc 1 1025 8 is_stmt 0 view .LVU731
 2335 000e 0026     		movs	r6, #0
 2336 0010 27E0     		b	.L195
 2337              	.L203:
1022:Middlewares/Third_Party/LwIP/src/core/pbuf.c ****   LWIP_ERROR("pbuf_copy_partial: invalid dataptr", (dataptr != NULL), return 0;);
 2338              		.loc 1 1022 3 is_stmt 1 discriminator 1 view .LVU732
1022:Middlewares/Third_Party/LwIP/src/core/pbuf.c ****   LWIP_ERROR("pbuf_copy_partial: invalid dataptr", (dataptr != NULL), return 0;);
 2339              		.loc 1 1022 3 discriminator 1 view .LVU733
 2340 0012 1C4B     		ldr	r3, .L205
 2341              	.LVL240:
1022:Middlewares/Third_Party/LwIP/src/core/pbuf.c ****   LWIP_ERROR("pbuf_copy_partial: invalid dataptr", (dataptr != NULL), return 0;);
 2342              		.loc 1 1022 3 is_stmt 0 discriminator 1 view .LVU734
 2343 0014 40F2FE32 		movw	r2, #1022
 2344              	.LVL241:
1022:Middlewares/Third_Party/LwIP/src/core/pbuf.c ****   LWIP_ERROR("pbuf_copy_partial: invalid dataptr", (dataptr != NULL), return 0;);
 2345              		.loc 1 1022 3 discriminator 1 view .LVU735
 2346 0018 1B49     		ldr	r1, .L205+4
 2347              	.LVL242:
1022:Middlewares/Third_Party/LwIP/src/core/pbuf.c ****   LWIP_ERROR("pbuf_copy_partial: invalid dataptr", (dataptr != NULL), return 0;);
 2348              		.loc 1 1022 3 discriminator 1 view .LVU736
 2349 001a 1C48     		ldr	r0, .L205+8
 2350              	.LVL243:
1022:Middlewares/Third_Party/LwIP/src/core/pbuf.c ****   LWIP_ERROR("pbuf_copy_partial: invalid dataptr", (dataptr != NULL), return 0;);
 2351              		.loc 1 1022 3 discriminator 1 view .LVU737
 2352 001c FFF7FEFF 		bl	printf
 2353              	.LVL244:
1022:Middlewares/Third_Party/LwIP/src/core/pbuf.c ****   LWIP_ERROR("pbuf_copy_partial: invalid dataptr", (dataptr != NULL), return 0;);
 2354              		.loc 1 1022 3 is_stmt 1 discriminator 1 view .LVU738
 2355 0020 0026     		movs	r6, #0
 2356              	.LVL245:
 2357              	.L194:
1051:Middlewares/Third_Party/LwIP/src/core/pbuf.c **** 
 2358              		.loc 1 1051 1 is_stmt 0 view .LVU739
 2359 0022 3046     		mov	r0, r6
 2360 0024 BDE8F081 		pop	{r4, r5, r6, r7, r8, pc}
 2361              	.LVL246:
ARM GAS  /tmp/ccvTpBVd.s 			page 74


 2362              	.L204:
1023:Middlewares/Third_Party/LwIP/src/core/pbuf.c **** 
 2363              		.loc 1 1023 3 is_stmt 1 discriminator 1 view .LVU740
1023:Middlewares/Third_Party/LwIP/src/core/pbuf.c **** 
 2364              		.loc 1 1023 3 discriminator 1 view .LVU741
 2365 0028 164B     		ldr	r3, .L205
 2366              	.LVL247:
1023:Middlewares/Third_Party/LwIP/src/core/pbuf.c **** 
 2367              		.loc 1 1023 3 is_stmt 0 discriminator 1 view .LVU742
 2368 002a 40F2FF32 		movw	r2, #1023
 2369              	.LVL248:
1023:Middlewares/Third_Party/LwIP/src/core/pbuf.c **** 
 2370              		.loc 1 1023 3 discriminator 1 view .LVU743
 2371 002e 1849     		ldr	r1, .L205+12
 2372              	.LVL249:
1023:Middlewares/Third_Party/LwIP/src/core/pbuf.c **** 
 2373              		.loc 1 1023 3 discriminator 1 view .LVU744
 2374 0030 1648     		ldr	r0, .L205+8
 2375              	.LVL250:
1023:Middlewares/Third_Party/LwIP/src/core/pbuf.c **** 
 2376              		.loc 1 1023 3 discriminator 1 view .LVU745
 2377 0032 FFF7FEFF 		bl	printf
 2378              	.LVL251:
1023:Middlewares/Third_Party/LwIP/src/core/pbuf.c **** 
 2379              		.loc 1 1023 3 is_stmt 1 discriminator 1 view .LVU746
 2380 0036 0026     		movs	r6, #0
 2381 0038 F3E7     		b	.L194
 2382              	.LVL252:
 2383              	.L196:
1038:Middlewares/Third_Party/LwIP/src/core/pbuf.c ****       if (buf_copy_len > len) {
 2384              		.loc 1 1038 7 view .LVU747
1038:Middlewares/Third_Party/LwIP/src/core/pbuf.c ****       if (buf_copy_len > len) {
 2385              		.loc 1 1038 23 is_stmt 0 view .LVU748
 2386 003a 6C89     		ldrh	r4, [r5, #10]
1038:Middlewares/Third_Party/LwIP/src/core/pbuf.c ****       if (buf_copy_len > len) {
 2387              		.loc 1 1038 20 view .LVU749
 2388 003c E41A     		subs	r4, r4, r3
 2389 003e A4B2     		uxth	r4, r4
 2390              	.LVL253:
1039:Middlewares/Third_Party/LwIP/src/core/pbuf.c ****         buf_copy_len = len;
 2391              		.loc 1 1039 7 is_stmt 1 view .LVU750
1039:Middlewares/Third_Party/LwIP/src/core/pbuf.c ****         buf_copy_len = len;
 2392              		.loc 1 1039 10 is_stmt 0 view .LVU751
 2393 0040 A045     		cmp	r8, r4
 2394 0042 00D2     		bcs	.L198
1040:Middlewares/Third_Party/LwIP/src/core/pbuf.c ****       }
 2395              		.loc 1 1040 22 view .LVU752
 2396 0044 4446     		mov	r4, r8
 2397              	.LVL254:
 2398              	.L198:
1043:Middlewares/Third_Party/LwIP/src/core/pbuf.c ****       copied_total += buf_copy_len;
 2399              		.loc 1 1043 7 is_stmt 1 view .LVU753
 2400 0046 6968     		ldr	r1, [r5, #4]
 2401 0048 2246     		mov	r2, r4
 2402 004a 1944     		add	r1, r1, r3
 2403 004c B819     		adds	r0, r7, r6
 2404 004e FFF7FEFF 		bl	memcpy
ARM GAS  /tmp/ccvTpBVd.s 			page 75


 2405              	.LVL255:
1044:Middlewares/Third_Party/LwIP/src/core/pbuf.c ****       left += buf_copy_len;
 2406              		.loc 1 1044 7 view .LVU754
1044:Middlewares/Third_Party/LwIP/src/core/pbuf.c ****       left += buf_copy_len;
 2407              		.loc 1 1044 20 is_stmt 0 view .LVU755
 2408 0052 2644     		add	r6, r6, r4
 2409              	.LVL256:
1044:Middlewares/Third_Party/LwIP/src/core/pbuf.c ****       left += buf_copy_len;
 2410              		.loc 1 1044 20 view .LVU756
 2411 0054 B6B2     		uxth	r6, r6
 2412              	.LVL257:
1045:Middlewares/Third_Party/LwIP/src/core/pbuf.c ****       len -= buf_copy_len;
 2413              		.loc 1 1045 7 is_stmt 1 view .LVU757
1046:Middlewares/Third_Party/LwIP/src/core/pbuf.c ****       offset = 0;
 2414              		.loc 1 1046 7 view .LVU758
1046:Middlewares/Third_Party/LwIP/src/core/pbuf.c ****       offset = 0;
 2415              		.loc 1 1046 11 is_stmt 0 view .LVU759
 2416 0056 A8EB0404 		sub	r4, r8, r4
 2417              	.LVL258:
1046:Middlewares/Third_Party/LwIP/src/core/pbuf.c ****       offset = 0;
 2418              		.loc 1 1046 11 view .LVU760
 2419 005a 1FFA84F8 		uxth	r8, r4
 2420              	.LVL259:
1047:Middlewares/Third_Party/LwIP/src/core/pbuf.c ****     }
 2421              		.loc 1 1047 7 is_stmt 1 view .LVU761
1047:Middlewares/Third_Party/LwIP/src/core/pbuf.c ****     }
 2422              		.loc 1 1047 14 is_stmt 0 view .LVU762
 2423 005e 0023     		movs	r3, #0
 2424              	.LVL260:
 2425              	.L197:
1032:Middlewares/Third_Party/LwIP/src/core/pbuf.c ****     if ((offset != 0) && (offset >= p->len)) {
 2426              		.loc 1 1032 42 discriminator 2 view .LVU763
 2427 0060 2D68     		ldr	r5, [r5]
 2428              	.LVL261:
 2429              	.L195:
1032:Middlewares/Third_Party/LwIP/src/core/pbuf.c ****     if ((offset != 0) && (offset >= p->len)) {
 2430              		.loc 1 1032 31 discriminator 1 view .LVU764
 2431 0062 2A1C     		adds	r2, r5, #0
 2432 0064 18BF     		it	ne
 2433 0066 0122     		movne	r2, #1
1032:Middlewares/Third_Party/LwIP/src/core/pbuf.c ****     if ((offset != 0) && (offset >= p->len)) {
 2434              		.loc 1 1032 26 discriminator 1 view .LVU765
 2435 0068 B8F1000F 		cmp	r8, #0
 2436 006c 08BF     		it	eq
 2437 006e 0022     		moveq	r2, #0
1032:Middlewares/Third_Party/LwIP/src/core/pbuf.c ****     if ((offset != 0) && (offset >= p->len)) {
 2438              		.loc 1 1032 3 discriminator 1 view .LVU766
 2439 0070 002A     		cmp	r2, #0
 2440 0072 D6D0     		beq	.L194
1033:Middlewares/Third_Party/LwIP/src/core/pbuf.c ****       /* don't copy from this buffer -> on to the next */
 2441              		.loc 1 1033 5 is_stmt 1 view .LVU767
1033:Middlewares/Third_Party/LwIP/src/core/pbuf.c ****       /* don't copy from this buffer -> on to the next */
 2442              		.loc 1 1033 8 is_stmt 0 view .LVU768
 2443 0074 002B     		cmp	r3, #0
 2444 0076 E0D0     		beq	.L196
1033:Middlewares/Third_Party/LwIP/src/core/pbuf.c ****       /* don't copy from this buffer -> on to the next */
 2445              		.loc 1 1033 38 discriminator 1 view .LVU769
ARM GAS  /tmp/ccvTpBVd.s 			page 76


 2446 0078 6989     		ldrh	r1, [r5, #10]
1033:Middlewares/Third_Party/LwIP/src/core/pbuf.c ****       /* don't copy from this buffer -> on to the next */
 2447              		.loc 1 1033 23 discriminator 1 view .LVU770
 2448 007a 9942     		cmp	r1, r3
 2449 007c DDD8     		bhi	.L196
1035:Middlewares/Third_Party/LwIP/src/core/pbuf.c ****     } else {
 2450              		.loc 1 1035 7 is_stmt 1 view .LVU771
1035:Middlewares/Third_Party/LwIP/src/core/pbuf.c ****     } else {
 2451              		.loc 1 1035 14 is_stmt 0 view .LVU772
 2452 007e 5B1A     		subs	r3, r3, r1
 2453              	.LVL262:
1035:Middlewares/Third_Party/LwIP/src/core/pbuf.c ****     } else {
 2454              		.loc 1 1035 14 view .LVU773
 2455 0080 9BB2     		uxth	r3, r3
 2456              	.LVL263:
1035:Middlewares/Third_Party/LwIP/src/core/pbuf.c ****     } else {
 2457              		.loc 1 1035 14 view .LVU774
 2458 0082 EDE7     		b	.L197
 2459              	.L206:
 2460              		.align	2
 2461              	.L205:
 2462 0084 00000000 		.word	.LC0
 2463 0088 00000000 		.word	.LC30
 2464 008c 3C000000 		.word	.LC2
 2465 0090 20000000 		.word	.LC31
 2466              		.cfi_endproc
 2467              	.LFE175:
 2469              		.section	.text.pbuf_skip,"ax",%progbits
 2470              		.align	1
 2471              		.global	pbuf_skip
 2472              		.syntax unified
 2473              		.thumb
 2474              		.thumb_func
 2475              		.fpu fpv5-sp-d16
 2477              	pbuf_skip:
 2478              	.LVL264:
 2479              	.LFB177:
1120:Middlewares/Third_Party/LwIP/src/core/pbuf.c **** 
1121:Middlewares/Third_Party/LwIP/src/core/pbuf.c **** /**
1122:Middlewares/Third_Party/LwIP/src/core/pbuf.c ****  * @ingroup pbuf
1123:Middlewares/Third_Party/LwIP/src/core/pbuf.c ****  * Skip a number of bytes at the start of a pbuf
1124:Middlewares/Third_Party/LwIP/src/core/pbuf.c ****  *
1125:Middlewares/Third_Party/LwIP/src/core/pbuf.c ****  * @param in input pbuf
1126:Middlewares/Third_Party/LwIP/src/core/pbuf.c ****  * @param in_offset offset to skip
1127:Middlewares/Third_Party/LwIP/src/core/pbuf.c ****  * @param out_offset resulting offset in the returned pbuf
1128:Middlewares/Third_Party/LwIP/src/core/pbuf.c ****  * @return the pbuf in the queue where the offset is
1129:Middlewares/Third_Party/LwIP/src/core/pbuf.c ****  */
1130:Middlewares/Third_Party/LwIP/src/core/pbuf.c **** struct pbuf*
1131:Middlewares/Third_Party/LwIP/src/core/pbuf.c **** pbuf_skip(struct pbuf* in, u16_t in_offset, u16_t* out_offset)
1132:Middlewares/Third_Party/LwIP/src/core/pbuf.c **** {
 2480              		.loc 1 1132 1 is_stmt 1 view -0
 2481              		.cfi_startproc
 2482              		@ args = 0, pretend = 0, frame = 0
 2483              		@ frame_needed = 0, uses_anonymous_args = 0
 2484              		.loc 1 1132 1 is_stmt 0 view .LVU776
 2485 0000 08B5     		push	{r3, lr}
 2486              	.LCFI15:
ARM GAS  /tmp/ccvTpBVd.s 			page 77


 2487              		.cfi_def_cfa_offset 8
 2488              		.cfi_offset 3, -8
 2489              		.cfi_offset 14, -4
1133:Middlewares/Third_Party/LwIP/src/core/pbuf.c ****   const struct pbuf* out = pbuf_skip_const(in, in_offset, out_offset);
 2490              		.loc 1 1133 3 is_stmt 1 view .LVU777
 2491              		.loc 1 1133 28 is_stmt 0 view .LVU778
 2492 0002 FFF7FEFF 		bl	pbuf_skip_const
 2493              	.LVL265:
1134:Middlewares/Third_Party/LwIP/src/core/pbuf.c ****   return LWIP_CONST_CAST(struct pbuf*, out);
 2494              		.loc 1 1134 3 is_stmt 1 view .LVU779
1135:Middlewares/Third_Party/LwIP/src/core/pbuf.c **** }
 2495              		.loc 1 1135 1 is_stmt 0 view .LVU780
 2496 0006 08BD     		pop	{r3, pc}
 2497              		.cfi_endproc
 2498              	.LFE177:
 2500              		.section	.text.pbuf_take,"ax",%progbits
 2501              		.align	1
 2502              		.global	pbuf_take
 2503              		.syntax unified
 2504              		.thumb
 2505              		.thumb_func
 2506              		.fpu fpv5-sp-d16
 2508              	pbuf_take:
 2509              	.LVL266:
 2510              	.LFB178:
1136:Middlewares/Third_Party/LwIP/src/core/pbuf.c **** 
1137:Middlewares/Third_Party/LwIP/src/core/pbuf.c **** /**
1138:Middlewares/Third_Party/LwIP/src/core/pbuf.c ****  * @ingroup pbuf
1139:Middlewares/Third_Party/LwIP/src/core/pbuf.c ****  * Copy application supplied data into a pbuf.
1140:Middlewares/Third_Party/LwIP/src/core/pbuf.c ****  * This function can only be used to copy the equivalent of buf->tot_len data.
1141:Middlewares/Third_Party/LwIP/src/core/pbuf.c ****  *
1142:Middlewares/Third_Party/LwIP/src/core/pbuf.c ****  * @param buf pbuf to fill with data
1143:Middlewares/Third_Party/LwIP/src/core/pbuf.c ****  * @param dataptr application supplied data buffer
1144:Middlewares/Third_Party/LwIP/src/core/pbuf.c ****  * @param len length of the application supplied data buffer
1145:Middlewares/Third_Party/LwIP/src/core/pbuf.c ****  *
1146:Middlewares/Third_Party/LwIP/src/core/pbuf.c ****  * @return ERR_OK if successful, ERR_MEM if the pbuf is not big enough
1147:Middlewares/Third_Party/LwIP/src/core/pbuf.c ****  */
1148:Middlewares/Third_Party/LwIP/src/core/pbuf.c **** err_t
1149:Middlewares/Third_Party/LwIP/src/core/pbuf.c **** pbuf_take(struct pbuf *buf, const void *dataptr, u16_t len)
1150:Middlewares/Third_Party/LwIP/src/core/pbuf.c **** {
 2511              		.loc 1 1150 1 is_stmt 1 view -0
 2512              		.cfi_startproc
 2513              		@ args = 0, pretend = 0, frame = 0
 2514              		@ frame_needed = 0, uses_anonymous_args = 0
 2515              		.loc 1 1150 1 is_stmt 0 view .LVU782
 2516 0000 2DE9F843 		push	{r3, r4, r5, r6, r7, r8, r9, lr}
 2517              	.LCFI16:
 2518              		.cfi_def_cfa_offset 32
 2519              		.cfi_offset 3, -32
 2520              		.cfi_offset 4, -28
 2521              		.cfi_offset 5, -24
 2522              		.cfi_offset 6, -20
 2523              		.cfi_offset 7, -16
 2524              		.cfi_offset 8, -12
 2525              		.cfi_offset 9, -8
 2526              		.cfi_offset 14, -4
1151:Middlewares/Third_Party/LwIP/src/core/pbuf.c ****   struct pbuf *p;
ARM GAS  /tmp/ccvTpBVd.s 			page 78


 2527              		.loc 1 1151 3 is_stmt 1 view .LVU783
1152:Middlewares/Third_Party/LwIP/src/core/pbuf.c ****   u16_t buf_copy_len;
 2528              		.loc 1 1152 3 view .LVU784
1153:Middlewares/Third_Party/LwIP/src/core/pbuf.c ****   u16_t total_copy_len = len;
 2529              		.loc 1 1153 3 view .LVU785
 2530              	.LVL267:
1154:Middlewares/Third_Party/LwIP/src/core/pbuf.c ****   u16_t copied_total = 0;
 2531              		.loc 1 1154 3 view .LVU786
1155:Middlewares/Third_Party/LwIP/src/core/pbuf.c **** 
1156:Middlewares/Third_Party/LwIP/src/core/pbuf.c ****   LWIP_ERROR("pbuf_take: invalid buf", (buf != NULL), return ERR_ARG;);
 2532              		.loc 1 1156 3 view .LVU787
 2533              		.loc 1 1156 3 view .LVU788
 2534 0004 48B1     		cbz	r0, .L220
 2535 0006 8846     		mov	r8, r1
 2536 0008 9146     		mov	r9, r2
 2537 000a 0646     		mov	r6, r0
 2538              		.loc 1 1156 3 discriminator 2 view .LVU789
1157:Middlewares/Third_Party/LwIP/src/core/pbuf.c ****   LWIP_ERROR("pbuf_take: invalid dataptr", (dataptr != NULL), return ERR_ARG;);
 2539              		.loc 1 1157 3 discriminator 2 view .LVU790
 2540              		.loc 1 1157 3 discriminator 2 view .LVU791
 2541 000c 79B1     		cbz	r1, .L221
 2542              		.loc 1 1157 3 discriminator 2 view .LVU792
1158:Middlewares/Third_Party/LwIP/src/core/pbuf.c ****   LWIP_ERROR("pbuf_take: buf not large enough", (buf->tot_len >= len), return ERR_MEM;);
 2543              		.loc 1 1158 3 discriminator 2 view .LVU793
 2544              		.loc 1 1158 3 discriminator 2 view .LVU794
 2545 000e 0389     		ldrh	r3, [r0, #8]
 2546 0010 9342     		cmp	r3, r2
 2547 0012 16D3     		bcc	.L222
1153:Middlewares/Third_Party/LwIP/src/core/pbuf.c ****   u16_t copied_total = 0;
 2548              		.loc 1 1153 9 is_stmt 0 view .LVU795
 2549 0014 1446     		mov	r4, r2
1154:Middlewares/Third_Party/LwIP/src/core/pbuf.c **** 
 2550              		.loc 1 1154 9 view .LVU796
 2551 0016 0027     		movs	r7, #0
 2552 0018 30E0     		b	.L213
 2553              	.L220:
1156:Middlewares/Third_Party/LwIP/src/core/pbuf.c ****   LWIP_ERROR("pbuf_take: invalid dataptr", (dataptr != NULL), return ERR_ARG;);
 2554              		.loc 1 1156 3 is_stmt 1 discriminator 1 view .LVU797
1156:Middlewares/Third_Party/LwIP/src/core/pbuf.c ****   LWIP_ERROR("pbuf_take: invalid dataptr", (dataptr != NULL), return ERR_ARG;);
 2555              		.loc 1 1156 3 discriminator 1 view .LVU798
 2556 001a 234B     		ldr	r3, .L226
 2557 001c 40F28442 		movw	r2, #1156
 2558              	.LVL268:
1156:Middlewares/Third_Party/LwIP/src/core/pbuf.c ****   LWIP_ERROR("pbuf_take: invalid dataptr", (dataptr != NULL), return ERR_ARG;);
 2559              		.loc 1 1156 3 is_stmt 0 discriminator 1 view .LVU799
 2560 0020 2249     		ldr	r1, .L226+4
 2561              	.LVL269:
1156:Middlewares/Third_Party/LwIP/src/core/pbuf.c ****   LWIP_ERROR("pbuf_take: invalid dataptr", (dataptr != NULL), return ERR_ARG;);
 2562              		.loc 1 1156 3 discriminator 1 view .LVU800
 2563 0022 2348     		ldr	r0, .L226+8
 2564              	.LVL270:
1156:Middlewares/Third_Party/LwIP/src/core/pbuf.c ****   LWIP_ERROR("pbuf_take: invalid dataptr", (dataptr != NULL), return ERR_ARG;);
 2565              		.loc 1 1156 3 discriminator 1 view .LVU801
 2566 0024 FFF7FEFF 		bl	printf
 2567              	.LVL271:
1156:Middlewares/Third_Party/LwIP/src/core/pbuf.c ****   LWIP_ERROR("pbuf_take: invalid dataptr", (dataptr != NULL), return ERR_ARG;);
 2568              		.loc 1 1156 3 is_stmt 1 discriminator 1 view .LVU802
ARM GAS  /tmp/ccvTpBVd.s 			page 79


 2569 0028 6FF00F00 		mvn	r0, #15
 2570 002c 31E0     		b	.L211
 2571              	.LVL272:
 2572              	.L221:
1157:Middlewares/Third_Party/LwIP/src/core/pbuf.c ****   LWIP_ERROR("pbuf_take: buf not large enough", (buf->tot_len >= len), return ERR_MEM;);
 2573              		.loc 1 1157 3 discriminator 1 view .LVU803
1157:Middlewares/Third_Party/LwIP/src/core/pbuf.c ****   LWIP_ERROR("pbuf_take: buf not large enough", (buf->tot_len >= len), return ERR_MEM;);
 2574              		.loc 1 1157 3 discriminator 1 view .LVU804
 2575 002e 1E4B     		ldr	r3, .L226
 2576 0030 40F28542 		movw	r2, #1157
 2577              	.LVL273:
1157:Middlewares/Third_Party/LwIP/src/core/pbuf.c ****   LWIP_ERROR("pbuf_take: buf not large enough", (buf->tot_len >= len), return ERR_MEM;);
 2578              		.loc 1 1157 3 is_stmt 0 discriminator 1 view .LVU805
 2579 0034 1F49     		ldr	r1, .L226+12
 2580              	.LVL274:
1157:Middlewares/Third_Party/LwIP/src/core/pbuf.c ****   LWIP_ERROR("pbuf_take: buf not large enough", (buf->tot_len >= len), return ERR_MEM;);
 2581              		.loc 1 1157 3 discriminator 1 view .LVU806
 2582 0036 1E48     		ldr	r0, .L226+8
 2583              	.LVL275:
1157:Middlewares/Third_Party/LwIP/src/core/pbuf.c ****   LWIP_ERROR("pbuf_take: buf not large enough", (buf->tot_len >= len), return ERR_MEM;);
 2584              		.loc 1 1157 3 discriminator 1 view .LVU807
 2585 0038 FFF7FEFF 		bl	printf
 2586              	.LVL276:
1157:Middlewares/Third_Party/LwIP/src/core/pbuf.c ****   LWIP_ERROR("pbuf_take: buf not large enough", (buf->tot_len >= len), return ERR_MEM;);
 2587              		.loc 1 1157 3 is_stmt 1 discriminator 1 view .LVU808
 2588 003c 6FF00F00 		mvn	r0, #15
 2589 0040 27E0     		b	.L211
 2590              	.LVL277:
 2591              	.L222:
 2592              		.loc 1 1158 3 discriminator 1 view .LVU809
 2593              		.loc 1 1158 3 discriminator 1 view .LVU810
 2594 0042 194B     		ldr	r3, .L226
 2595 0044 40F28642 		movw	r2, #1158
 2596              	.LVL278:
 2597              		.loc 1 1158 3 is_stmt 0 discriminator 1 view .LVU811
 2598 0048 1B49     		ldr	r1, .L226+16
 2599              	.LVL279:
 2600              		.loc 1 1158 3 discriminator 1 view .LVU812
 2601 004a 1948     		ldr	r0, .L226+8
 2602              	.LVL280:
 2603              		.loc 1 1158 3 discriminator 1 view .LVU813
 2604 004c FFF7FEFF 		bl	printf
 2605              	.LVL281:
 2606              		.loc 1 1158 3 is_stmt 1 discriminator 1 view .LVU814
 2607 0050 4FF0FF30 		mov	r0, #-1
 2608 0054 1DE0     		b	.L211
 2609              	.LVL282:
 2610              	.L224:
1159:Middlewares/Third_Party/LwIP/src/core/pbuf.c **** 
1160:Middlewares/Third_Party/LwIP/src/core/pbuf.c ****   if ((buf == NULL) || (dataptr == NULL) || (buf->tot_len < len)) {
1161:Middlewares/Third_Party/LwIP/src/core/pbuf.c ****     return ERR_ARG;
1162:Middlewares/Third_Party/LwIP/src/core/pbuf.c ****   }
1163:Middlewares/Third_Party/LwIP/src/core/pbuf.c **** 
1164:Middlewares/Third_Party/LwIP/src/core/pbuf.c ****   /* Note some systems use byte copy if dataptr or one of the pbuf payload pointers are unaligned. 
1165:Middlewares/Third_Party/LwIP/src/core/pbuf.c ****   for (p = buf; total_copy_len != 0; p = p->next) {
1166:Middlewares/Third_Party/LwIP/src/core/pbuf.c ****     LWIP_ASSERT("pbuf_take: invalid pbuf", p != NULL);
 2611              		.loc 1 1166 5 discriminator 1 view .LVU815
ARM GAS  /tmp/ccvTpBVd.s 			page 80


 2612              		.loc 1 1166 5 discriminator 1 view .LVU816
 2613 0056 144B     		ldr	r3, .L226
 2614 0058 40F28E42 		movw	r2, #1166
 2615 005c 1749     		ldr	r1, .L226+20
 2616 005e 1448     		ldr	r0, .L226+8
 2617 0060 FFF7FEFF 		bl	printf
 2618              	.LVL283:
 2619 0064 0DE0     		b	.L214
 2620              	.LVL284:
 2621              	.L215:
1167:Middlewares/Third_Party/LwIP/src/core/pbuf.c ****     buf_copy_len = total_copy_len;
1168:Middlewares/Third_Party/LwIP/src/core/pbuf.c ****     if (buf_copy_len > p->len) {
1169:Middlewares/Third_Party/LwIP/src/core/pbuf.c ****       /* this pbuf cannot hold all remaining data */
1170:Middlewares/Third_Party/LwIP/src/core/pbuf.c ****       buf_copy_len = p->len;
1171:Middlewares/Third_Party/LwIP/src/core/pbuf.c ****     }
1172:Middlewares/Third_Party/LwIP/src/core/pbuf.c ****     /* copy the necessary parts of the buffer */
1173:Middlewares/Third_Party/LwIP/src/core/pbuf.c ****     MEMCPY(p->payload, &((const char*)dataptr)[copied_total], buf_copy_len);
 2622              		.loc 1 1173 5 discriminator 2 view .LVU817
 2623 0066 2A46     		mov	r2, r5
 2624 0068 08EB0701 		add	r1, r8, r7
 2625 006c 7068     		ldr	r0, [r6, #4]
 2626 006e FFF7FEFF 		bl	memcpy
 2627              	.LVL285:
1174:Middlewares/Third_Party/LwIP/src/core/pbuf.c ****     total_copy_len -= buf_copy_len;
 2628              		.loc 1 1174 5 discriminator 2 view .LVU818
 2629              		.loc 1 1174 20 is_stmt 0 discriminator 2 view .LVU819
 2630 0072 641B     		subs	r4, r4, r5
 2631              	.LVL286:
 2632              		.loc 1 1174 20 discriminator 2 view .LVU820
 2633 0074 A4B2     		uxth	r4, r4
 2634              	.LVL287:
1175:Middlewares/Third_Party/LwIP/src/core/pbuf.c ****     copied_total += buf_copy_len;
 2635              		.loc 1 1175 5 is_stmt 1 discriminator 2 view .LVU821
 2636              		.loc 1 1175 18 is_stmt 0 discriminator 2 view .LVU822
 2637 0076 2F44     		add	r7, r7, r5
 2638              	.LVL288:
 2639              		.loc 1 1175 18 discriminator 2 view .LVU823
 2640 0078 BFB2     		uxth	r7, r7
 2641              	.LVL289:
1165:Middlewares/Third_Party/LwIP/src/core/pbuf.c ****     LWIP_ASSERT("pbuf_take: invalid pbuf", p != NULL);
 2642              		.loc 1 1165 40 discriminator 2 view .LVU824
 2643 007a 3668     		ldr	r6, [r6]
 2644              	.LVL290:
 2645              	.L213:
1165:Middlewares/Third_Party/LwIP/src/core/pbuf.c ****     LWIP_ASSERT("pbuf_take: invalid pbuf", p != NULL);
 2646              		.loc 1 1165 3 discriminator 1 view .LVU825
 2647 007c 34B1     		cbz	r4, .L223
1166:Middlewares/Third_Party/LwIP/src/core/pbuf.c ****     buf_copy_len = total_copy_len;
 2648              		.loc 1 1166 5 is_stmt 1 view .LVU826
1166:Middlewares/Third_Party/LwIP/src/core/pbuf.c ****     buf_copy_len = total_copy_len;
 2649              		.loc 1 1166 5 view .LVU827
 2650 007e 002E     		cmp	r6, #0
 2651 0080 E9D0     		beq	.L224
 2652              	.L214:
1167:Middlewares/Third_Party/LwIP/src/core/pbuf.c ****     if (buf_copy_len > p->len) {
 2653              		.loc 1 1167 5 view .LVU828
 2654              	.LVL291:
ARM GAS  /tmp/ccvTpBVd.s 			page 81


1168:Middlewares/Third_Party/LwIP/src/core/pbuf.c ****       /* this pbuf cannot hold all remaining data */
 2655              		.loc 1 1168 5 view .LVU829
1168:Middlewares/Third_Party/LwIP/src/core/pbuf.c ****       /* this pbuf cannot hold all remaining data */
 2656              		.loc 1 1168 25 is_stmt 0 view .LVU830
 2657 0082 7589     		ldrh	r5, [r6, #10]
1168:Middlewares/Third_Party/LwIP/src/core/pbuf.c ****       /* this pbuf cannot hold all remaining data */
 2658              		.loc 1 1168 8 view .LVU831
 2659 0084 A542     		cmp	r5, r4
 2660 0086 EED3     		bcc	.L215
1167:Middlewares/Third_Party/LwIP/src/core/pbuf.c ****     if (buf_copy_len > p->len) {
 2661              		.loc 1 1167 18 view .LVU832
 2662 0088 2546     		mov	r5, r4
 2663 008a ECE7     		b	.L215
 2664              	.LVL292:
 2665              	.L223:
1176:Middlewares/Third_Party/LwIP/src/core/pbuf.c ****   }
1177:Middlewares/Third_Party/LwIP/src/core/pbuf.c ****   LWIP_ASSERT("did not copy all data", total_copy_len == 0 && copied_total == len);
 2666              		.loc 1 1177 3 is_stmt 1 view .LVU833
 2667              		.loc 1 1177 3 view .LVU834
 2668 008c 4F45     		cmp	r7, r9
 2669 008e 02D1     		bne	.L225
1178:Middlewares/Third_Party/LwIP/src/core/pbuf.c ****   return ERR_OK;
 2670              		.loc 1 1178 10 is_stmt 0 view .LVU835
 2671 0090 0020     		movs	r0, #0
 2672              	.LVL293:
 2673              	.L211:
1179:Middlewares/Third_Party/LwIP/src/core/pbuf.c **** }
 2674              		.loc 1 1179 1 view .LVU836
 2675 0092 BDE8F883 		pop	{r3, r4, r5, r6, r7, r8, r9, pc}
 2676              	.LVL294:
 2677              	.L225:
1177:Middlewares/Third_Party/LwIP/src/core/pbuf.c ****   return ERR_OK;
 2678              		.loc 1 1177 3 is_stmt 1 discriminator 1 view .LVU837
1177:Middlewares/Third_Party/LwIP/src/core/pbuf.c ****   return ERR_OK;
 2679              		.loc 1 1177 3 discriminator 1 view .LVU838
 2680 0096 044B     		ldr	r3, .L226
 2681 0098 40F29942 		movw	r2, #1177
 2682 009c 0849     		ldr	r1, .L226+24
 2683 009e 0448     		ldr	r0, .L226+8
 2684 00a0 FFF7FEFF 		bl	printf
 2685              	.LVL295:
1178:Middlewares/Third_Party/LwIP/src/core/pbuf.c ****   return ERR_OK;
 2686              		.loc 1 1178 10 is_stmt 0 discriminator 1 view .LVU839
 2687 00a4 0020     		movs	r0, #0
 2688 00a6 F4E7     		b	.L211
 2689              	.L227:
 2690              		.align	2
 2691              	.L226:
 2692 00a8 00000000 		.word	.LC0
 2693 00ac 00000000 		.word	.LC32
 2694 00b0 3C000000 		.word	.LC2
 2695 00b4 18000000 		.word	.LC33
 2696 00b8 34000000 		.word	.LC34
 2697 00bc 54000000 		.word	.LC35
 2698 00c0 6C000000 		.word	.LC36
 2699              		.cfi_endproc
 2700              	.LFE178:
ARM GAS  /tmp/ccvTpBVd.s 			page 82


 2702              		.section	.text.pbuf_take_at,"ax",%progbits
 2703              		.align	1
 2704              		.global	pbuf_take_at
 2705              		.syntax unified
 2706              		.thumb
 2707              		.thumb_func
 2708              		.fpu fpv5-sp-d16
 2710              	pbuf_take_at:
 2711              	.LVL296:
 2712              	.LFB179:
1180:Middlewares/Third_Party/LwIP/src/core/pbuf.c **** 
1181:Middlewares/Third_Party/LwIP/src/core/pbuf.c **** /**
1182:Middlewares/Third_Party/LwIP/src/core/pbuf.c ****  * @ingroup pbuf
1183:Middlewares/Third_Party/LwIP/src/core/pbuf.c ****  * Same as pbuf_take() but puts data at an offset
1184:Middlewares/Third_Party/LwIP/src/core/pbuf.c ****  *
1185:Middlewares/Third_Party/LwIP/src/core/pbuf.c ****  * @param buf pbuf to fill with data
1186:Middlewares/Third_Party/LwIP/src/core/pbuf.c ****  * @param dataptr application supplied data buffer
1187:Middlewares/Third_Party/LwIP/src/core/pbuf.c ****  * @param len length of the application supplied data buffer
1188:Middlewares/Third_Party/LwIP/src/core/pbuf.c ****  * @param offset offset in pbuf where to copy dataptr to
1189:Middlewares/Third_Party/LwIP/src/core/pbuf.c ****  *
1190:Middlewares/Third_Party/LwIP/src/core/pbuf.c ****  * @return ERR_OK if successful, ERR_MEM if the pbuf is not big enough
1191:Middlewares/Third_Party/LwIP/src/core/pbuf.c ****  */
1192:Middlewares/Third_Party/LwIP/src/core/pbuf.c **** err_t
1193:Middlewares/Third_Party/LwIP/src/core/pbuf.c **** pbuf_take_at(struct pbuf *buf, const void *dataptr, u16_t len, u16_t offset)
1194:Middlewares/Third_Party/LwIP/src/core/pbuf.c **** {
 2713              		.loc 1 1194 1 is_stmt 1 view -0
 2714              		.cfi_startproc
 2715              		@ args = 0, pretend = 0, frame = 8
 2716              		@ frame_needed = 0, uses_anonymous_args = 0
 2717              		.loc 1 1194 1 is_stmt 0 view .LVU841
 2718 0000 F0B5     		push	{r4, r5, r6, r7, lr}
 2719              	.LCFI17:
 2720              		.cfi_def_cfa_offset 20
 2721              		.cfi_offset 4, -20
 2722              		.cfi_offset 5, -16
 2723              		.cfi_offset 6, -12
 2724              		.cfi_offset 7, -8
 2725              		.cfi_offset 14, -4
 2726 0002 83B0     		sub	sp, sp, #12
 2727              	.LCFI18:
 2728              		.cfi_def_cfa_offset 32
 2729 0004 0F46     		mov	r7, r1
 2730 0006 1546     		mov	r5, r2
1195:Middlewares/Third_Party/LwIP/src/core/pbuf.c ****   u16_t target_offset;
 2731              		.loc 1 1195 3 is_stmt 1 view .LVU842
1196:Middlewares/Third_Party/LwIP/src/core/pbuf.c ****   struct pbuf* q = pbuf_skip(buf, offset, &target_offset);
 2732              		.loc 1 1196 3 view .LVU843
 2733              		.loc 1 1196 20 is_stmt 0 view .LVU844
 2734 0008 0DF10602 		add	r2, sp, #6
 2735              	.LVL297:
 2736              		.loc 1 1196 20 view .LVU845
 2737 000c 1946     		mov	r1, r3
 2738              	.LVL298:
 2739              		.loc 1 1196 20 view .LVU846
 2740 000e FFF7FEFF 		bl	pbuf_skip
 2741              	.LVL299:
1197:Middlewares/Third_Party/LwIP/src/core/pbuf.c **** 
ARM GAS  /tmp/ccvTpBVd.s 			page 83


1198:Middlewares/Third_Party/LwIP/src/core/pbuf.c ****   /* return requested data if pbuf is OK */
1199:Middlewares/Third_Party/LwIP/src/core/pbuf.c ****   if ((q != NULL) && (q->tot_len >= target_offset + len)) {
 2742              		.loc 1 1199 3 is_stmt 1 view .LVU847
 2743              		.loc 1 1199 6 is_stmt 0 view .LVU848
 2744 0012 E8B1     		cbz	r0, .L230
 2745 0014 0646     		mov	r6, r0
 2746              		.loc 1 1199 24 discriminator 1 view .LVU849
 2747 0016 0189     		ldrh	r1, [r0, #8]
 2748              		.loc 1 1199 51 discriminator 1 view .LVU850
 2749 0018 BDF80630 		ldrh	r3, [sp, #6]
 2750 001c 5A19     		adds	r2, r3, r5
 2751              		.loc 1 1199 19 discriminator 1 view .LVU851
 2752 001e 9142     		cmp	r1, r2
 2753 0020 19DB     		blt	.L231
 2754              	.LBB8:
1200:Middlewares/Third_Party/LwIP/src/core/pbuf.c ****     u16_t remaining_len = len;
 2755              		.loc 1 1200 5 is_stmt 1 view .LVU852
 2756              	.LVL300:
1201:Middlewares/Third_Party/LwIP/src/core/pbuf.c ****     const u8_t* src_ptr = (const u8_t*)dataptr;
 2757              		.loc 1 1201 5 view .LVU853
1202:Middlewares/Third_Party/LwIP/src/core/pbuf.c ****     /* copy the part that goes into the first pbuf */
1203:Middlewares/Third_Party/LwIP/src/core/pbuf.c ****     u16_t first_copy_len = LWIP_MIN(q->len - target_offset, len);
 2758              		.loc 1 1203 5 view .LVU854
 2759              		.loc 1 1203 28 is_stmt 0 view .LVU855
 2760 0022 4489     		ldrh	r4, [r0, #10]
 2761 0024 E41A     		subs	r4, r4, r3
 2762 0026 AC42     		cmp	r4, r5
 2763 0028 A8BF     		it	ge
 2764 002a 2C46     		movge	r4, r5
 2765              		.loc 1 1203 11 view .LVU856
 2766 002c A4B2     		uxth	r4, r4
 2767              	.LVL301:
1204:Middlewares/Third_Party/LwIP/src/core/pbuf.c ****     MEMCPY(((u8_t*)q->payload) + target_offset, dataptr, first_copy_len);
 2768              		.loc 1 1204 5 is_stmt 1 view .LVU857
 2769 002e 4068     		ldr	r0, [r0, #4]
 2770              	.LVL302:
 2771              		.loc 1 1204 5 is_stmt 0 view .LVU858
 2772 0030 2246     		mov	r2, r4
 2773 0032 3946     		mov	r1, r7
 2774 0034 1844     		add	r0, r0, r3
 2775 0036 FFF7FEFF 		bl	memcpy
 2776              	.LVL303:
1205:Middlewares/Third_Party/LwIP/src/core/pbuf.c ****     remaining_len -= first_copy_len;
 2777              		.loc 1 1205 5 is_stmt 1 view .LVU859
 2778              		.loc 1 1205 19 is_stmt 0 view .LVU860
 2779 003a 2A1B     		subs	r2, r5, r4
 2780 003c 92B2     		uxth	r2, r2
 2781              	.LVL304:
1206:Middlewares/Third_Party/LwIP/src/core/pbuf.c ****     src_ptr += first_copy_len;
 2782              		.loc 1 1206 5 is_stmt 1 view .LVU861
 2783              		.loc 1 1206 13 is_stmt 0 view .LVU862
 2784 003e 3919     		adds	r1, r7, r4
 2785              	.LVL305:
1207:Middlewares/Third_Party/LwIP/src/core/pbuf.c ****     if (remaining_len > 0) {
 2786              		.loc 1 1207 5 is_stmt 1 view .LVU863
 2787              		.loc 1 1207 8 is_stmt 0 view .LVU864
 2788 0040 12B9     		cbnz	r2, .L234
ARM GAS  /tmp/ccvTpBVd.s 			page 84


1208:Middlewares/Third_Party/LwIP/src/core/pbuf.c ****       return pbuf_take(q->next, src_ptr, remaining_len);
1209:Middlewares/Third_Party/LwIP/src/core/pbuf.c ****     }
1210:Middlewares/Third_Party/LwIP/src/core/pbuf.c ****     return ERR_OK;
 2789              		.loc 1 1210 12 view .LVU865
 2790 0042 0020     		movs	r0, #0
 2791              	.LVL306:
 2792              	.L229:
 2793              		.loc 1 1210 12 view .LVU866
 2794              	.LBE8:
1211:Middlewares/Third_Party/LwIP/src/core/pbuf.c ****   }
1212:Middlewares/Third_Party/LwIP/src/core/pbuf.c ****   return ERR_MEM;
1213:Middlewares/Third_Party/LwIP/src/core/pbuf.c **** }
 2795              		.loc 1 1213 1 view .LVU867
 2796 0044 03B0     		add	sp, sp, #12
 2797              	.LCFI19:
 2798              		.cfi_remember_state
 2799              		.cfi_def_cfa_offset 20
 2800              		@ sp needed
 2801 0046 F0BD     		pop	{r4, r5, r6, r7, pc}
 2802              	.LVL307:
 2803              	.L234:
 2804              	.LCFI20:
 2805              		.cfi_restore_state
 2806              	.LBB9:
1208:Middlewares/Third_Party/LwIP/src/core/pbuf.c ****       return pbuf_take(q->next, src_ptr, remaining_len);
 2807              		.loc 1 1208 7 is_stmt 1 view .LVU868
1208:Middlewares/Third_Party/LwIP/src/core/pbuf.c ****       return pbuf_take(q->next, src_ptr, remaining_len);
 2808              		.loc 1 1208 14 is_stmt 0 view .LVU869
 2809 0048 3068     		ldr	r0, [r6]
 2810 004a FFF7FEFF 		bl	pbuf_take
 2811              	.LVL308:
1208:Middlewares/Third_Party/LwIP/src/core/pbuf.c ****       return pbuf_take(q->next, src_ptr, remaining_len);
 2812              		.loc 1 1208 14 view .LVU870
 2813 004e F9E7     		b	.L229
 2814              	.LVL309:
 2815              	.L230:
1208:Middlewares/Third_Party/LwIP/src/core/pbuf.c ****       return pbuf_take(q->next, src_ptr, remaining_len);
 2816              		.loc 1 1208 14 view .LVU871
 2817              	.LBE9:
1212:Middlewares/Third_Party/LwIP/src/core/pbuf.c **** }
 2818              		.loc 1 1212 10 view .LVU872
 2819 0050 4FF0FF30 		mov	r0, #-1
 2820              	.LVL310:
1212:Middlewares/Third_Party/LwIP/src/core/pbuf.c **** }
 2821              		.loc 1 1212 10 view .LVU873
 2822 0054 F6E7     		b	.L229
 2823              	.LVL311:
 2824              	.L231:
1212:Middlewares/Third_Party/LwIP/src/core/pbuf.c **** }
 2825              		.loc 1 1212 10 view .LVU874
 2826 0056 4FF0FF30 		mov	r0, #-1
 2827              	.LVL312:
1212:Middlewares/Third_Party/LwIP/src/core/pbuf.c **** }
 2828              		.loc 1 1212 10 view .LVU875
 2829 005a F3E7     		b	.L229
 2830              		.cfi_endproc
 2831              	.LFE179:
ARM GAS  /tmp/ccvTpBVd.s 			page 85


 2833              		.section	.text.pbuf_coalesce,"ax",%progbits
 2834              		.align	1
 2835              		.global	pbuf_coalesce
 2836              		.syntax unified
 2837              		.thumb
 2838              		.thumb_func
 2839              		.fpu fpv5-sp-d16
 2841              	pbuf_coalesce:
 2842              	.LVL313:
 2843              	.LFB180:
1214:Middlewares/Third_Party/LwIP/src/core/pbuf.c **** 
1215:Middlewares/Third_Party/LwIP/src/core/pbuf.c **** /**
1216:Middlewares/Third_Party/LwIP/src/core/pbuf.c ****  * @ingroup pbuf
1217:Middlewares/Third_Party/LwIP/src/core/pbuf.c ****  * Creates a single pbuf out of a queue of pbufs.
1218:Middlewares/Third_Party/LwIP/src/core/pbuf.c ****  *
1219:Middlewares/Third_Party/LwIP/src/core/pbuf.c ****  * @remark: Either the source pbuf 'p' is freed by this function or the original
1220:Middlewares/Third_Party/LwIP/src/core/pbuf.c ****  *          pbuf 'p' is returned, therefore the caller has to check the result!
1221:Middlewares/Third_Party/LwIP/src/core/pbuf.c ****  *
1222:Middlewares/Third_Party/LwIP/src/core/pbuf.c ****  * @param p the source pbuf
1223:Middlewares/Third_Party/LwIP/src/core/pbuf.c ****  * @param layer pbuf_layer of the new pbuf
1224:Middlewares/Third_Party/LwIP/src/core/pbuf.c ****  *
1225:Middlewares/Third_Party/LwIP/src/core/pbuf.c ****  * @return a new, single pbuf (p->next is NULL)
1226:Middlewares/Third_Party/LwIP/src/core/pbuf.c ****  *         or the old pbuf if allocation fails
1227:Middlewares/Third_Party/LwIP/src/core/pbuf.c ****  */
1228:Middlewares/Third_Party/LwIP/src/core/pbuf.c **** struct pbuf*
1229:Middlewares/Third_Party/LwIP/src/core/pbuf.c **** pbuf_coalesce(struct pbuf *p, pbuf_layer layer)
1230:Middlewares/Third_Party/LwIP/src/core/pbuf.c **** {
 2844              		.loc 1 1230 1 is_stmt 1 view -0
 2845              		.cfi_startproc
 2846              		@ args = 0, pretend = 0, frame = 0
 2847              		@ frame_needed = 0, uses_anonymous_args = 0
 2848              		.loc 1 1230 1 is_stmt 0 view .LVU877
 2849 0000 38B5     		push	{r3, r4, r5, lr}
 2850              	.LCFI21:
 2851              		.cfi_def_cfa_offset 16
 2852              		.cfi_offset 3, -16
 2853              		.cfi_offset 4, -12
 2854              		.cfi_offset 5, -8
 2855              		.cfi_offset 14, -4
 2856 0002 0446     		mov	r4, r0
1231:Middlewares/Third_Party/LwIP/src/core/pbuf.c ****   struct pbuf *q;
 2857              		.loc 1 1231 3 is_stmt 1 view .LVU878
1232:Middlewares/Third_Party/LwIP/src/core/pbuf.c ****   err_t err;
 2858              		.loc 1 1232 3 view .LVU879
1233:Middlewares/Third_Party/LwIP/src/core/pbuf.c ****   if (p->next == NULL) {
 2859              		.loc 1 1233 3 view .LVU880
 2860              		.loc 1 1233 8 is_stmt 0 view .LVU881
 2861 0004 0368     		ldr	r3, [r0]
 2862              		.loc 1 1233 6 view .LVU882
 2863 0006 73B1     		cbz	r3, .L236
 2864 0008 0846     		mov	r0, r1
 2865              	.LVL314:
1234:Middlewares/Third_Party/LwIP/src/core/pbuf.c ****     return p;
1235:Middlewares/Third_Party/LwIP/src/core/pbuf.c ****   }
1236:Middlewares/Third_Party/LwIP/src/core/pbuf.c ****   q = pbuf_alloc(layer, p->tot_len, PBUF_RAM);
 2866              		.loc 1 1236 3 is_stmt 1 view .LVU883
 2867              		.loc 1 1236 7 is_stmt 0 view .LVU884
ARM GAS  /tmp/ccvTpBVd.s 			page 86


 2868 000a 0022     		movs	r2, #0
 2869 000c 2189     		ldrh	r1, [r4, #8]
 2870              	.LVL315:
 2871              		.loc 1 1236 7 view .LVU885
 2872 000e FFF7FEFF 		bl	pbuf_alloc
 2873              	.LVL316:
1237:Middlewares/Third_Party/LwIP/src/core/pbuf.c ****   if (q == NULL) {
 2874              		.loc 1 1237 3 is_stmt 1 view .LVU886
 2875              		.loc 1 1237 6 is_stmt 0 view .LVU887
 2876 0012 0546     		mov	r5, r0
 2877 0014 38B1     		cbz	r0, .L236
1238:Middlewares/Third_Party/LwIP/src/core/pbuf.c ****     /* @todo: what do we do now? */
1239:Middlewares/Third_Party/LwIP/src/core/pbuf.c ****     return p;
1240:Middlewares/Third_Party/LwIP/src/core/pbuf.c ****   }
1241:Middlewares/Third_Party/LwIP/src/core/pbuf.c ****   err = pbuf_copy(q, p);
 2878              		.loc 1 1241 3 is_stmt 1 view .LVU888
 2879              		.loc 1 1241 9 is_stmt 0 view .LVU889
 2880 0016 2146     		mov	r1, r4
 2881 0018 FFF7FEFF 		bl	pbuf_copy
 2882              	.LVL317:
1242:Middlewares/Third_Party/LwIP/src/core/pbuf.c ****   LWIP_UNUSED_ARG(err); /* in case of LWIP_NOASSERT */
 2883              		.loc 1 1242 3 is_stmt 1 view .LVU890
1243:Middlewares/Third_Party/LwIP/src/core/pbuf.c ****   LWIP_ASSERT("pbuf_copy failed", err == ERR_OK);
 2884              		.loc 1 1243 3 view .LVU891
 2885              		.loc 1 1243 3 view .LVU892
 2886 001c 28B9     		cbnz	r0, .L239
 2887              	.LVL318:
 2888              	.L237:
1244:Middlewares/Third_Party/LwIP/src/core/pbuf.c ****   pbuf_free(p);
 2889              		.loc 1 1244 3 view .LVU893
 2890 001e 2046     		mov	r0, r4
 2891 0020 FFF7FEFF 		bl	pbuf_free
 2892              	.LVL319:
1245:Middlewares/Third_Party/LwIP/src/core/pbuf.c ****   return q;
 2893              		.loc 1 1245 3 view .LVU894
 2894              		.loc 1 1245 10 is_stmt 0 view .LVU895
 2895 0024 2C46     		mov	r4, r5
 2896              	.LVL320:
 2897              	.L236:
1246:Middlewares/Third_Party/LwIP/src/core/pbuf.c **** }
 2898              		.loc 1 1246 1 view .LVU896
 2899 0026 2046     		mov	r0, r4
 2900 0028 38BD     		pop	{r3, r4, r5, pc}
 2901              	.LVL321:
 2902              	.L239:
1243:Middlewares/Third_Party/LwIP/src/core/pbuf.c ****   pbuf_free(p);
 2903              		.loc 1 1243 3 is_stmt 1 discriminator 1 view .LVU897
1243:Middlewares/Third_Party/LwIP/src/core/pbuf.c ****   pbuf_free(p);
 2904              		.loc 1 1243 3 discriminator 1 view .LVU898
 2905 002a 044B     		ldr	r3, .L240
 2906 002c 40F2DB42 		movw	r2, #1243
 2907 0030 0349     		ldr	r1, .L240+4
 2908 0032 0448     		ldr	r0, .L240+8
 2909              	.LVL322:
1243:Middlewares/Third_Party/LwIP/src/core/pbuf.c ****   pbuf_free(p);
 2910              		.loc 1 1243 3 is_stmt 0 discriminator 1 view .LVU899
 2911 0034 FFF7FEFF 		bl	printf
ARM GAS  /tmp/ccvTpBVd.s 			page 87


 2912              	.LVL323:
 2913 0038 F1E7     		b	.L237
 2914              	.L241:
 2915 003a 00BF     		.align	2
 2916              	.L240:
 2917 003c 00000000 		.word	.LC0
 2918 0040 00000000 		.word	.LC37
 2919 0044 3C000000 		.word	.LC2
 2920              		.cfi_endproc
 2921              	.LFE180:
 2923              		.section	.text.pbuf_try_get_at,"ax",%progbits
 2924              		.align	1
 2925              		.global	pbuf_try_get_at
 2926              		.syntax unified
 2927              		.thumb
 2928              		.thumb_func
 2929              		.fpu fpv5-sp-d16
 2931              	pbuf_try_get_at:
 2932              	.LVL324:
 2933              	.LFB182:
1247:Middlewares/Third_Party/LwIP/src/core/pbuf.c **** 
1248:Middlewares/Third_Party/LwIP/src/core/pbuf.c **** #if LWIP_CHECKSUM_ON_COPY
1249:Middlewares/Third_Party/LwIP/src/core/pbuf.c **** /**
1250:Middlewares/Third_Party/LwIP/src/core/pbuf.c ****  * Copies data into a single pbuf (*not* into a pbuf queue!) and updates
1251:Middlewares/Third_Party/LwIP/src/core/pbuf.c ****  * the checksum while copying
1252:Middlewares/Third_Party/LwIP/src/core/pbuf.c ****  *
1253:Middlewares/Third_Party/LwIP/src/core/pbuf.c ****  * @param p the pbuf to copy data into
1254:Middlewares/Third_Party/LwIP/src/core/pbuf.c ****  * @param start_offset offset of p->payload where to copy the data to
1255:Middlewares/Third_Party/LwIP/src/core/pbuf.c ****  * @param dataptr data to copy into the pbuf
1256:Middlewares/Third_Party/LwIP/src/core/pbuf.c ****  * @param len length of data to copy into the pbuf
1257:Middlewares/Third_Party/LwIP/src/core/pbuf.c ****  * @param chksum pointer to the checksum which is updated
1258:Middlewares/Third_Party/LwIP/src/core/pbuf.c ****  * @return ERR_OK if successful, another error if the data does not fit
1259:Middlewares/Third_Party/LwIP/src/core/pbuf.c ****  *         within the (first) pbuf (no pbuf queues!)
1260:Middlewares/Third_Party/LwIP/src/core/pbuf.c ****  */
1261:Middlewares/Third_Party/LwIP/src/core/pbuf.c **** err_t
1262:Middlewares/Third_Party/LwIP/src/core/pbuf.c **** pbuf_fill_chksum(struct pbuf *p, u16_t start_offset, const void *dataptr,
1263:Middlewares/Third_Party/LwIP/src/core/pbuf.c ****                  u16_t len, u16_t *chksum)
1264:Middlewares/Third_Party/LwIP/src/core/pbuf.c **** {
1265:Middlewares/Third_Party/LwIP/src/core/pbuf.c ****   u32_t acc;
1266:Middlewares/Third_Party/LwIP/src/core/pbuf.c ****   u16_t copy_chksum;
1267:Middlewares/Third_Party/LwIP/src/core/pbuf.c ****   char *dst_ptr;
1268:Middlewares/Third_Party/LwIP/src/core/pbuf.c ****   LWIP_ASSERT("p != NULL", p != NULL);
1269:Middlewares/Third_Party/LwIP/src/core/pbuf.c ****   LWIP_ASSERT("dataptr != NULL", dataptr != NULL);
1270:Middlewares/Third_Party/LwIP/src/core/pbuf.c ****   LWIP_ASSERT("chksum != NULL", chksum != NULL);
1271:Middlewares/Third_Party/LwIP/src/core/pbuf.c ****   LWIP_ASSERT("len != 0", len != 0);
1272:Middlewares/Third_Party/LwIP/src/core/pbuf.c **** 
1273:Middlewares/Third_Party/LwIP/src/core/pbuf.c ****   if ((start_offset >= p->len) || (start_offset + len > p->len)) {
1274:Middlewares/Third_Party/LwIP/src/core/pbuf.c ****     return ERR_ARG;
1275:Middlewares/Third_Party/LwIP/src/core/pbuf.c ****   }
1276:Middlewares/Third_Party/LwIP/src/core/pbuf.c **** 
1277:Middlewares/Third_Party/LwIP/src/core/pbuf.c ****   dst_ptr = ((char*)p->payload) + start_offset;
1278:Middlewares/Third_Party/LwIP/src/core/pbuf.c ****   copy_chksum = LWIP_CHKSUM_COPY(dst_ptr, dataptr, len);
1279:Middlewares/Third_Party/LwIP/src/core/pbuf.c ****   if ((start_offset & 1) != 0) {
1280:Middlewares/Third_Party/LwIP/src/core/pbuf.c ****     copy_chksum = SWAP_BYTES_IN_WORD(copy_chksum);
1281:Middlewares/Third_Party/LwIP/src/core/pbuf.c ****   }
1282:Middlewares/Third_Party/LwIP/src/core/pbuf.c ****   acc = *chksum;
1283:Middlewares/Third_Party/LwIP/src/core/pbuf.c ****   acc += copy_chksum;
ARM GAS  /tmp/ccvTpBVd.s 			page 88


1284:Middlewares/Third_Party/LwIP/src/core/pbuf.c ****   *chksum = FOLD_U32T(acc);
1285:Middlewares/Third_Party/LwIP/src/core/pbuf.c ****   return ERR_OK;
1286:Middlewares/Third_Party/LwIP/src/core/pbuf.c **** }
1287:Middlewares/Third_Party/LwIP/src/core/pbuf.c **** #endif /* LWIP_CHECKSUM_ON_COPY */
1288:Middlewares/Third_Party/LwIP/src/core/pbuf.c **** 
1289:Middlewares/Third_Party/LwIP/src/core/pbuf.c **** /**
1290:Middlewares/Third_Party/LwIP/src/core/pbuf.c ****  * @ingroup pbuf
1291:Middlewares/Third_Party/LwIP/src/core/pbuf.c ****  * Get one byte from the specified position in a pbuf
1292:Middlewares/Third_Party/LwIP/src/core/pbuf.c ****  * WARNING: returns zero for offset >= p->tot_len
1293:Middlewares/Third_Party/LwIP/src/core/pbuf.c ****  *
1294:Middlewares/Third_Party/LwIP/src/core/pbuf.c ****  * @param p pbuf to parse
1295:Middlewares/Third_Party/LwIP/src/core/pbuf.c ****  * @param offset offset into p of the byte to return
1296:Middlewares/Third_Party/LwIP/src/core/pbuf.c ****  * @return byte at an offset into p OR ZERO IF 'offset' >= p->tot_len
1297:Middlewares/Third_Party/LwIP/src/core/pbuf.c ****  */
1298:Middlewares/Third_Party/LwIP/src/core/pbuf.c **** u8_t
1299:Middlewares/Third_Party/LwIP/src/core/pbuf.c **** pbuf_get_at(const struct pbuf* p, u16_t offset)
1300:Middlewares/Third_Party/LwIP/src/core/pbuf.c **** {
1301:Middlewares/Third_Party/LwIP/src/core/pbuf.c ****   int ret = pbuf_try_get_at(p, offset);
1302:Middlewares/Third_Party/LwIP/src/core/pbuf.c ****   if (ret >= 0) {
1303:Middlewares/Third_Party/LwIP/src/core/pbuf.c ****     return (u8_t)ret;
1304:Middlewares/Third_Party/LwIP/src/core/pbuf.c ****   }
1305:Middlewares/Third_Party/LwIP/src/core/pbuf.c ****   return 0;
1306:Middlewares/Third_Party/LwIP/src/core/pbuf.c **** }
1307:Middlewares/Third_Party/LwIP/src/core/pbuf.c **** 
1308:Middlewares/Third_Party/LwIP/src/core/pbuf.c **** /**
1309:Middlewares/Third_Party/LwIP/src/core/pbuf.c ****  * @ingroup pbuf
1310:Middlewares/Third_Party/LwIP/src/core/pbuf.c ****  * Get one byte from the specified position in a pbuf
1311:Middlewares/Third_Party/LwIP/src/core/pbuf.c ****  *
1312:Middlewares/Third_Party/LwIP/src/core/pbuf.c ****  * @param p pbuf to parse
1313:Middlewares/Third_Party/LwIP/src/core/pbuf.c ****  * @param offset offset into p of the byte to return
1314:Middlewares/Third_Party/LwIP/src/core/pbuf.c ****  * @return byte at an offset into p [0..0xFF] OR negative if 'offset' >= p->tot_len
1315:Middlewares/Third_Party/LwIP/src/core/pbuf.c ****  */
1316:Middlewares/Third_Party/LwIP/src/core/pbuf.c **** int
1317:Middlewares/Third_Party/LwIP/src/core/pbuf.c **** pbuf_try_get_at(const struct pbuf* p, u16_t offset)
1318:Middlewares/Third_Party/LwIP/src/core/pbuf.c **** {
 2934              		.loc 1 1318 1 is_stmt 1 view -0
 2935              		.cfi_startproc
 2936              		@ args = 0, pretend = 0, frame = 8
 2937              		@ frame_needed = 0, uses_anonymous_args = 0
 2938              		.loc 1 1318 1 is_stmt 0 view .LVU901
 2939 0000 00B5     		push	{lr}
 2940              	.LCFI22:
 2941              		.cfi_def_cfa_offset 4
 2942              		.cfi_offset 14, -4
 2943 0002 83B0     		sub	sp, sp, #12
 2944              	.LCFI23:
 2945              		.cfi_def_cfa_offset 16
1319:Middlewares/Third_Party/LwIP/src/core/pbuf.c ****   u16_t q_idx;
 2946              		.loc 1 1319 3 is_stmt 1 view .LVU902
1320:Middlewares/Third_Party/LwIP/src/core/pbuf.c ****   const struct pbuf* q = pbuf_skip_const(p, offset, &q_idx);
 2947              		.loc 1 1320 3 view .LVU903
 2948              		.loc 1 1320 26 is_stmt 0 view .LVU904
 2949 0004 0DF10602 		add	r2, sp, #6
 2950 0008 FFF7FEFF 		bl	pbuf_skip_const
 2951              	.LVL325:
1321:Middlewares/Third_Party/LwIP/src/core/pbuf.c **** 
1322:Middlewares/Third_Party/LwIP/src/core/pbuf.c ****   /* return requested data if pbuf is OK */
ARM GAS  /tmp/ccvTpBVd.s 			page 89


1323:Middlewares/Third_Party/LwIP/src/core/pbuf.c ****   if ((q != NULL) && (q->len > q_idx)) {
 2952              		.loc 1 1323 3 is_stmt 1 view .LVU905
 2953              		.loc 1 1323 6 is_stmt 0 view .LVU906
 2954 000c 48B1     		cbz	r0, .L244
 2955              		.loc 1 1323 24 discriminator 1 view .LVU907
 2956 000e 4189     		ldrh	r1, [r0, #10]
 2957              		.loc 1 1323 30 discriminator 1 view .LVU908
 2958 0010 BDF80620 		ldrh	r2, [sp, #6]
 2959              		.loc 1 1323 19 discriminator 1 view .LVU909
 2960 0014 9142     		cmp	r1, r2
 2961 0016 07D9     		bls	.L245
1324:Middlewares/Third_Party/LwIP/src/core/pbuf.c ****     return ((u8_t*)q->payload)[q_idx];
 2962              		.loc 1 1324 5 is_stmt 1 view .LVU910
 2963              		.loc 1 1324 21 is_stmt 0 view .LVU911
 2964 0018 4368     		ldr	r3, [r0, #4]
 2965              		.loc 1 1324 31 view .LVU912
 2966 001a 985C     		ldrb	r0, [r3, r2]	@ zero_extendqisi2
 2967              	.LVL326:
 2968              	.L242:
1325:Middlewares/Third_Party/LwIP/src/core/pbuf.c ****   }
1326:Middlewares/Third_Party/LwIP/src/core/pbuf.c ****   return -1;
1327:Middlewares/Third_Party/LwIP/src/core/pbuf.c **** }
 2969              		.loc 1 1327 1 view .LVU913
 2970 001c 03B0     		add	sp, sp, #12
 2971              	.LCFI24:
 2972              		.cfi_remember_state
 2973              		.cfi_def_cfa_offset 4
 2974              		@ sp needed
 2975 001e 5DF804FB 		ldr	pc, [sp], #4
 2976              	.LVL327:
 2977              	.L244:
 2978              	.LCFI25:
 2979              		.cfi_restore_state
1326:Middlewares/Third_Party/LwIP/src/core/pbuf.c **** }
 2980              		.loc 1 1326 10 view .LVU914
 2981 0022 4FF0FF30 		mov	r0, #-1
 2982              	.LVL328:
1326:Middlewares/Third_Party/LwIP/src/core/pbuf.c **** }
 2983              		.loc 1 1326 10 view .LVU915
 2984 0026 F9E7     		b	.L242
 2985              	.LVL329:
 2986              	.L245:
1326:Middlewares/Third_Party/LwIP/src/core/pbuf.c **** }
 2987              		.loc 1 1326 10 view .LVU916
 2988 0028 4FF0FF30 		mov	r0, #-1
 2989              	.LVL330:
1326:Middlewares/Third_Party/LwIP/src/core/pbuf.c **** }
 2990              		.loc 1 1326 10 view .LVU917
 2991 002c F6E7     		b	.L242
 2992              		.cfi_endproc
 2993              	.LFE182:
 2995              		.section	.text.pbuf_get_at,"ax",%progbits
 2996              		.align	1
 2997              		.global	pbuf_get_at
 2998              		.syntax unified
 2999              		.thumb
 3000              		.thumb_func
ARM GAS  /tmp/ccvTpBVd.s 			page 90


 3001              		.fpu fpv5-sp-d16
 3003              	pbuf_get_at:
 3004              	.LVL331:
 3005              	.LFB181:
1300:Middlewares/Third_Party/LwIP/src/core/pbuf.c ****   int ret = pbuf_try_get_at(p, offset);
 3006              		.loc 1 1300 1 is_stmt 1 view -0
 3007              		.cfi_startproc
 3008              		@ args = 0, pretend = 0, frame = 0
 3009              		@ frame_needed = 0, uses_anonymous_args = 0
1300:Middlewares/Third_Party/LwIP/src/core/pbuf.c ****   int ret = pbuf_try_get_at(p, offset);
 3010              		.loc 1 1300 1 is_stmt 0 view .LVU919
 3011 0000 08B5     		push	{r3, lr}
 3012              	.LCFI26:
 3013              		.cfi_def_cfa_offset 8
 3014              		.cfi_offset 3, -8
 3015              		.cfi_offset 14, -4
1301:Middlewares/Third_Party/LwIP/src/core/pbuf.c ****   if (ret >= 0) {
 3016              		.loc 1 1301 3 is_stmt 1 view .LVU920
1301:Middlewares/Third_Party/LwIP/src/core/pbuf.c ****   if (ret >= 0) {
 3017              		.loc 1 1301 13 is_stmt 0 view .LVU921
 3018 0002 FFF7FEFF 		bl	pbuf_try_get_at
 3019              	.LVL332:
1302:Middlewares/Third_Party/LwIP/src/core/pbuf.c ****     return (u8_t)ret;
 3020              		.loc 1 1302 3 is_stmt 1 view .LVU922
1302:Middlewares/Third_Party/LwIP/src/core/pbuf.c ****     return (u8_t)ret;
 3021              		.loc 1 1302 6 is_stmt 0 view .LVU923
 3022 0006 0028     		cmp	r0, #0
1302:Middlewares/Third_Party/LwIP/src/core/pbuf.c ****     return (u8_t)ret;
 3023              		.loc 1 1302 6 view .LVU924
 3024 0008 01DA     		bge	.L251
1305:Middlewares/Third_Party/LwIP/src/core/pbuf.c **** }
 3025              		.loc 1 1305 10 view .LVU925
 3026 000a 0020     		movs	r0, #0
 3027              	.LVL333:
 3028              	.L248:
1306:Middlewares/Third_Party/LwIP/src/core/pbuf.c **** 
 3029              		.loc 1 1306 1 view .LVU926
 3030 000c 08BD     		pop	{r3, pc}
 3031              	.LVL334:
 3032              	.L251:
1303:Middlewares/Third_Party/LwIP/src/core/pbuf.c ****   }
 3033              		.loc 1 1303 5 is_stmt 1 view .LVU927
1303:Middlewares/Third_Party/LwIP/src/core/pbuf.c ****   }
 3034              		.loc 1 1303 12 is_stmt 0 view .LVU928
 3035 000e C0B2     		uxtb	r0, r0
 3036              	.LVL335:
1303:Middlewares/Third_Party/LwIP/src/core/pbuf.c ****   }
 3037              		.loc 1 1303 12 view .LVU929
 3038 0010 FCE7     		b	.L248
 3039              		.cfi_endproc
 3040              	.LFE181:
 3042              		.section	.text.pbuf_put_at,"ax",%progbits
 3043              		.align	1
 3044              		.global	pbuf_put_at
 3045              		.syntax unified
 3046              		.thumb
 3047              		.thumb_func
ARM GAS  /tmp/ccvTpBVd.s 			page 91


 3048              		.fpu fpv5-sp-d16
 3050              	pbuf_put_at:
 3051              	.LVL336:
 3052              	.LFB183:
1328:Middlewares/Third_Party/LwIP/src/core/pbuf.c **** 
1329:Middlewares/Third_Party/LwIP/src/core/pbuf.c **** /**
1330:Middlewares/Third_Party/LwIP/src/core/pbuf.c ****  * @ingroup pbuf
1331:Middlewares/Third_Party/LwIP/src/core/pbuf.c ****  * Put one byte to the specified position in a pbuf
1332:Middlewares/Third_Party/LwIP/src/core/pbuf.c ****  * WARNING: silently ignores offset >= p->tot_len
1333:Middlewares/Third_Party/LwIP/src/core/pbuf.c ****  *
1334:Middlewares/Third_Party/LwIP/src/core/pbuf.c ****  * @param p pbuf to fill
1335:Middlewares/Third_Party/LwIP/src/core/pbuf.c ****  * @param offset offset into p of the byte to write
1336:Middlewares/Third_Party/LwIP/src/core/pbuf.c ****  * @param data byte to write at an offset into p
1337:Middlewares/Third_Party/LwIP/src/core/pbuf.c ****  */
1338:Middlewares/Third_Party/LwIP/src/core/pbuf.c **** void
1339:Middlewares/Third_Party/LwIP/src/core/pbuf.c **** pbuf_put_at(struct pbuf* p, u16_t offset, u8_t data)
1340:Middlewares/Third_Party/LwIP/src/core/pbuf.c **** {
 3053              		.loc 1 1340 1 is_stmt 1 view -0
 3054              		.cfi_startproc
 3055              		@ args = 0, pretend = 0, frame = 8
 3056              		@ frame_needed = 0, uses_anonymous_args = 0
 3057              		.loc 1 1340 1 is_stmt 0 view .LVU931
 3058 0000 10B5     		push	{r4, lr}
 3059              	.LCFI27:
 3060              		.cfi_def_cfa_offset 8
 3061              		.cfi_offset 4, -8
 3062              		.cfi_offset 14, -4
 3063 0002 82B0     		sub	sp, sp, #8
 3064              	.LCFI28:
 3065              		.cfi_def_cfa_offset 16
 3066 0004 1446     		mov	r4, r2
1341:Middlewares/Third_Party/LwIP/src/core/pbuf.c ****   u16_t q_idx;
 3067              		.loc 1 1341 3 is_stmt 1 view .LVU932
1342:Middlewares/Third_Party/LwIP/src/core/pbuf.c ****   struct pbuf* q = pbuf_skip(p, offset, &q_idx);
 3068              		.loc 1 1342 3 view .LVU933
 3069              		.loc 1 1342 20 is_stmt 0 view .LVU934
 3070 0006 0DF10602 		add	r2, sp, #6
 3071              	.LVL337:
 3072              		.loc 1 1342 20 view .LVU935
 3073 000a FFF7FEFF 		bl	pbuf_skip
 3074              	.LVL338:
1343:Middlewares/Third_Party/LwIP/src/core/pbuf.c **** 
1344:Middlewares/Third_Party/LwIP/src/core/pbuf.c ****   /* write requested data if pbuf is OK */
1345:Middlewares/Third_Party/LwIP/src/core/pbuf.c ****   if ((q != NULL) && (q->len > q_idx)) {
 3075              		.loc 1 1345 3 is_stmt 1 view .LVU936
 3076              		.loc 1 1345 6 is_stmt 0 view .LVU937
 3077 000e 30B1     		cbz	r0, .L252
 3078              		.loc 1 1345 24 discriminator 1 view .LVU938
 3079 0010 4189     		ldrh	r1, [r0, #10]
 3080              		.loc 1 1345 30 discriminator 1 view .LVU939
 3081 0012 BDF80620 		ldrh	r2, [sp, #6]
 3082              		.loc 1 1345 19 discriminator 1 view .LVU940
 3083 0016 9142     		cmp	r1, r2
 3084 0018 01D9     		bls	.L252
1346:Middlewares/Third_Party/LwIP/src/core/pbuf.c ****     ((u8_t*)q->payload)[q_idx] = data;
 3085              		.loc 1 1346 5 is_stmt 1 view .LVU941
 3086              		.loc 1 1346 14 is_stmt 0 view .LVU942
ARM GAS  /tmp/ccvTpBVd.s 			page 92


 3087 001a 4368     		ldr	r3, [r0, #4]
 3088              		.loc 1 1346 32 view .LVU943
 3089 001c 9C54     		strb	r4, [r3, r2]
 3090              	.L252:
1347:Middlewares/Third_Party/LwIP/src/core/pbuf.c ****   }
1348:Middlewares/Third_Party/LwIP/src/core/pbuf.c **** }
 3091              		.loc 1 1348 1 view .LVU944
 3092 001e 02B0     		add	sp, sp, #8
 3093              	.LCFI29:
 3094              		.cfi_def_cfa_offset 8
 3095              		@ sp needed
 3096 0020 10BD     		pop	{r4, pc}
 3097              		.cfi_endproc
 3098              	.LFE183:
 3100              		.section	.text.pbuf_memcmp,"ax",%progbits
 3101              		.align	1
 3102              		.global	pbuf_memcmp
 3103              		.syntax unified
 3104              		.thumb
 3105              		.thumb_func
 3106              		.fpu fpv5-sp-d16
 3108              	pbuf_memcmp:
 3109              	.LVL339:
 3110              	.LFB184:
1349:Middlewares/Third_Party/LwIP/src/core/pbuf.c **** 
1350:Middlewares/Third_Party/LwIP/src/core/pbuf.c **** /**
1351:Middlewares/Third_Party/LwIP/src/core/pbuf.c ****  * @ingroup pbuf
1352:Middlewares/Third_Party/LwIP/src/core/pbuf.c ****  * Compare pbuf contents at specified offset with memory s2, both of length n
1353:Middlewares/Third_Party/LwIP/src/core/pbuf.c ****  *
1354:Middlewares/Third_Party/LwIP/src/core/pbuf.c ****  * @param p pbuf to compare
1355:Middlewares/Third_Party/LwIP/src/core/pbuf.c ****  * @param offset offset into p at which to start comparing
1356:Middlewares/Third_Party/LwIP/src/core/pbuf.c ****  * @param s2 buffer to compare
1357:Middlewares/Third_Party/LwIP/src/core/pbuf.c ****  * @param n length of buffer to compare
1358:Middlewares/Third_Party/LwIP/src/core/pbuf.c ****  * @return zero if equal, nonzero otherwise
1359:Middlewares/Third_Party/LwIP/src/core/pbuf.c ****  *         (0xffff if p is too short, diffoffset+1 otherwise)
1360:Middlewares/Third_Party/LwIP/src/core/pbuf.c ****  */
1361:Middlewares/Third_Party/LwIP/src/core/pbuf.c **** u16_t
1362:Middlewares/Third_Party/LwIP/src/core/pbuf.c **** pbuf_memcmp(const struct pbuf* p, u16_t offset, const void* s2, u16_t n)
1363:Middlewares/Third_Party/LwIP/src/core/pbuf.c **** {
 3111              		.loc 1 1363 1 is_stmt 1 view -0
 3112              		.cfi_startproc
 3113              		@ args = 0, pretend = 0, frame = 0
 3114              		@ frame_needed = 0, uses_anonymous_args = 0
 3115              		.loc 1 1363 1 is_stmt 0 view .LVU946
 3116 0000 2DE9F041 		push	{r4, r5, r6, r7, r8, lr}
 3117              	.LCFI30:
 3118              		.cfi_def_cfa_offset 24
 3119              		.cfi_offset 4, -24
 3120              		.cfi_offset 5, -20
 3121              		.cfi_offset 6, -16
 3122              		.cfi_offset 7, -12
 3123              		.cfi_offset 8, -8
 3124              		.cfi_offset 14, -4
 3125 0004 0546     		mov	r5, r0
 3126 0006 0E46     		mov	r6, r1
 3127 0008 9046     		mov	r8, r2
 3128 000a 1F46     		mov	r7, r3
ARM GAS  /tmp/ccvTpBVd.s 			page 93


1364:Middlewares/Third_Party/LwIP/src/core/pbuf.c ****   u16_t start = offset;
 3129              		.loc 1 1364 3 is_stmt 1 view .LVU947
 3130              	.LVL340:
1365:Middlewares/Third_Party/LwIP/src/core/pbuf.c ****   const struct pbuf* q = p;
 3131              		.loc 1 1365 3 view .LVU948
1366:Middlewares/Third_Party/LwIP/src/core/pbuf.c ****   u16_t i;
 3132              		.loc 1 1366 3 view .LVU949
1367:Middlewares/Third_Party/LwIP/src/core/pbuf.c ****  
1368:Middlewares/Third_Party/LwIP/src/core/pbuf.c ****   /* pbuf long enough to perform check? */
1369:Middlewares/Third_Party/LwIP/src/core/pbuf.c ****   if(p->tot_len < (offset + n)) {
 3133              		.loc 1 1369 3 view .LVU950
 3134              		.loc 1 1369 7 is_stmt 0 view .LVU951
 3135 000c 0289     		ldrh	r2, [r0, #8]
 3136              	.LVL341:
 3137              		.loc 1 1369 27 view .LVU952
 3138 000e CB18     		adds	r3, r1, r3
 3139              	.LVL342:
 3140              		.loc 1 1369 5 view .LVU953
 3141 0010 9A42     		cmp	r2, r3
 3142 0012 1EDB     		blt	.L266
 3143              	.LVL343:
 3144              	.L257:
1370:Middlewares/Third_Party/LwIP/src/core/pbuf.c ****     return 0xffff;
1371:Middlewares/Third_Party/LwIP/src/core/pbuf.c ****   }
1372:Middlewares/Third_Party/LwIP/src/core/pbuf.c ****  
1373:Middlewares/Third_Party/LwIP/src/core/pbuf.c ****   /* get the correct pbuf from chain. We know it succeeds because of p->tot_len check above. */
1374:Middlewares/Third_Party/LwIP/src/core/pbuf.c ****   while ((q != NULL) && (q->len <= start)) {
 3145              		.loc 1 1374 9 view .LVU954
 3146 0014 5DB1     		cbz	r5, .L264
 3147              		.loc 1 1374 27 discriminator 1 view .LVU955
 3148 0016 6989     		ldrh	r1, [r5, #10]
 3149              		.loc 1 1374 22 discriminator 1 view .LVU956
 3150 0018 B142     		cmp	r1, r6
 3151 001a 03D8     		bhi	.L267
1375:Middlewares/Third_Party/LwIP/src/core/pbuf.c ****     start -= q->len;
 3152              		.loc 1 1375 5 is_stmt 1 view .LVU957
 3153              		.loc 1 1375 11 is_stmt 0 view .LVU958
 3154 001c 711A     		subs	r1, r6, r1
 3155 001e 8EB2     		uxth	r6, r1
 3156              	.LVL344:
1376:Middlewares/Third_Party/LwIP/src/core/pbuf.c ****     q = q->next;
 3157              		.loc 1 1376 5 is_stmt 1 view .LVU959
 3158              		.loc 1 1376 7 is_stmt 0 view .LVU960
 3159 0020 2D68     		ldr	r5, [r5]
 3160              	.LVL345:
 3161              		.loc 1 1376 7 view .LVU961
 3162 0022 F7E7     		b	.L257
 3163              	.L267:
 3164              		.loc 1 1376 7 view .LVU962
 3165 0024 0024     		movs	r4, #0
 3166 0026 03E0     		b	.L261
 3167              	.LVL346:
 3168              	.L269:
 3169              	.LBB10:
1377:Middlewares/Third_Party/LwIP/src/core/pbuf.c ****   }
1378:Middlewares/Third_Party/LwIP/src/core/pbuf.c ****  
1379:Middlewares/Third_Party/LwIP/src/core/pbuf.c ****   /* return requested data if pbuf is OK */
ARM GAS  /tmp/ccvTpBVd.s 			page 94


1380:Middlewares/Third_Party/LwIP/src/core/pbuf.c ****   for (i = 0; i < n; i++) {
1381:Middlewares/Third_Party/LwIP/src/core/pbuf.c ****     /* We know pbuf_get_at() succeeds because of p->tot_len check above. */
1382:Middlewares/Third_Party/LwIP/src/core/pbuf.c ****     u8_t a = pbuf_get_at(q, start + i);
1383:Middlewares/Third_Party/LwIP/src/core/pbuf.c ****     u8_t b = ((const u8_t*)s2)[i];
1384:Middlewares/Third_Party/LwIP/src/core/pbuf.c ****     if (a != b) {
1385:Middlewares/Third_Party/LwIP/src/core/pbuf.c ****       return i+1;
 3170              		.loc 1 1385 7 is_stmt 1 view .LVU963
 3171              		.loc 1 1385 15 is_stmt 0 view .LVU964
 3172 0028 601C     		adds	r0, r4, #1
 3173              	.LVL347:
 3174              		.loc 1 1385 15 view .LVU965
 3175 002a 80B2     		uxth	r0, r0
 3176 002c 0FE0     		b	.L256
 3177              	.LVL348:
 3178              	.L264:
 3179              		.loc 1 1385 15 view .LVU966
 3180              	.LBE10:
 3181 002e 0024     		movs	r4, #0
 3182              	.LVL349:
 3183              	.L261:
1380:Middlewares/Third_Party/LwIP/src/core/pbuf.c ****     /* We know pbuf_get_at() succeeds because of p->tot_len check above. */
 3184              		.loc 1 1380 3 discriminator 1 view .LVU967
 3185 0030 BC42     		cmp	r4, r7
 3186 0032 0BD2     		bcs	.L268
 3187              	.LBB11:
1382:Middlewares/Third_Party/LwIP/src/core/pbuf.c ****     u8_t b = ((const u8_t*)s2)[i];
 3188              		.loc 1 1382 5 is_stmt 1 view .LVU968
1382:Middlewares/Third_Party/LwIP/src/core/pbuf.c ****     u8_t b = ((const u8_t*)s2)[i];
 3189              		.loc 1 1382 14 is_stmt 0 view .LVU969
 3190 0034 3119     		adds	r1, r6, r4
 3191 0036 89B2     		uxth	r1, r1
 3192 0038 2846     		mov	r0, r5
 3193 003a FFF7FEFF 		bl	pbuf_get_at
 3194              	.LVL350:
1383:Middlewares/Third_Party/LwIP/src/core/pbuf.c ****     if (a != b) {
 3195              		.loc 1 1383 5 is_stmt 1 view .LVU970
1383:Middlewares/Third_Party/LwIP/src/core/pbuf.c ****     if (a != b) {
 3196              		.loc 1 1383 10 is_stmt 0 view .LVU971
 3197 003e 18F80430 		ldrb	r3, [r8, r4]	@ zero_extendqisi2
 3198              	.LVL351:
1384:Middlewares/Third_Party/LwIP/src/core/pbuf.c ****       return i+1;
 3199              		.loc 1 1384 5 is_stmt 1 view .LVU972
1384:Middlewares/Third_Party/LwIP/src/core/pbuf.c ****       return i+1;
 3200              		.loc 1 1384 8 is_stmt 0 view .LVU973
 3201 0042 9842     		cmp	r0, r3
 3202 0044 F0D1     		bne	.L269
 3203              	.LBE11:
1380:Middlewares/Third_Party/LwIP/src/core/pbuf.c ****     /* We know pbuf_get_at() succeeds because of p->tot_len check above. */
 3204              		.loc 1 1380 23 discriminator 2 view .LVU974
 3205 0046 0134     		adds	r4, r4, #1
 3206              	.LVL352:
1380:Middlewares/Third_Party/LwIP/src/core/pbuf.c ****     /* We know pbuf_get_at() succeeds because of p->tot_len check above. */
 3207              		.loc 1 1380 23 discriminator 2 view .LVU975
 3208 0048 A4B2     		uxth	r4, r4
 3209              	.LVL353:
1380:Middlewares/Third_Party/LwIP/src/core/pbuf.c ****     /* We know pbuf_get_at() succeeds because of p->tot_len check above. */
 3210              		.loc 1 1380 23 discriminator 2 view .LVU976
ARM GAS  /tmp/ccvTpBVd.s 			page 95


 3211 004a F1E7     		b	.L261
 3212              	.LVL354:
 3213              	.L268:
1386:Middlewares/Third_Party/LwIP/src/core/pbuf.c ****     }
1387:Middlewares/Third_Party/LwIP/src/core/pbuf.c ****   }
1388:Middlewares/Third_Party/LwIP/src/core/pbuf.c ****   return 0;
 3214              		.loc 1 1388 10 view .LVU977
 3215 004c 0020     		movs	r0, #0
 3216              	.LVL355:
 3217              	.L256:
1389:Middlewares/Third_Party/LwIP/src/core/pbuf.c **** }
 3218              		.loc 1 1389 1 view .LVU978
 3219 004e BDE8F081 		pop	{r4, r5, r6, r7, r8, pc}
 3220              	.LVL356:
 3221              	.L266:
1370:Middlewares/Third_Party/LwIP/src/core/pbuf.c ****   }
 3222              		.loc 1 1370 12 view .LVU979
 3223 0052 4FF6FF70 		movw	r0, #65535
 3224              	.LVL357:
1370:Middlewares/Third_Party/LwIP/src/core/pbuf.c ****   }
 3225              		.loc 1 1370 12 view .LVU980
 3226 0056 FAE7     		b	.L256
 3227              		.cfi_endproc
 3228              	.LFE184:
 3230              		.section	.text.pbuf_memfind,"ax",%progbits
 3231              		.align	1
 3232              		.global	pbuf_memfind
 3233              		.syntax unified
 3234              		.thumb
 3235              		.thumb_func
 3236              		.fpu fpv5-sp-d16
 3238              	pbuf_memfind:
 3239              	.LVL358:
 3240              	.LFB185:
1390:Middlewares/Third_Party/LwIP/src/core/pbuf.c **** 
1391:Middlewares/Third_Party/LwIP/src/core/pbuf.c **** /**
1392:Middlewares/Third_Party/LwIP/src/core/pbuf.c ****  * @ingroup pbuf
1393:Middlewares/Third_Party/LwIP/src/core/pbuf.c ****  * Find occurrence of mem (with length mem_len) in pbuf p, starting at offset
1394:Middlewares/Third_Party/LwIP/src/core/pbuf.c ****  * start_offset.
1395:Middlewares/Third_Party/LwIP/src/core/pbuf.c ****  *
1396:Middlewares/Third_Party/LwIP/src/core/pbuf.c ****  * @param p pbuf to search, maximum length is 0xFFFE since 0xFFFF is used as
1397:Middlewares/Third_Party/LwIP/src/core/pbuf.c ****  *        return value 'not found'
1398:Middlewares/Third_Party/LwIP/src/core/pbuf.c ****  * @param mem search for the contents of this buffer
1399:Middlewares/Third_Party/LwIP/src/core/pbuf.c ****  * @param mem_len length of 'mem'
1400:Middlewares/Third_Party/LwIP/src/core/pbuf.c ****  * @param start_offset offset into p at which to start searching
1401:Middlewares/Third_Party/LwIP/src/core/pbuf.c ****  * @return 0xFFFF if substr was not found in p or the index where it was found
1402:Middlewares/Third_Party/LwIP/src/core/pbuf.c ****  */
1403:Middlewares/Third_Party/LwIP/src/core/pbuf.c **** u16_t
1404:Middlewares/Third_Party/LwIP/src/core/pbuf.c **** pbuf_memfind(const struct pbuf* p, const void* mem, u16_t mem_len, u16_t start_offset)
1405:Middlewares/Third_Party/LwIP/src/core/pbuf.c **** {
 3241              		.loc 1 1405 1 is_stmt 1 view -0
 3242              		.cfi_startproc
 3243              		@ args = 0, pretend = 0, frame = 0
 3244              		@ frame_needed = 0, uses_anonymous_args = 0
 3245              		.loc 1 1405 1 is_stmt 0 view .LVU982
 3246 0000 2DE9F041 		push	{r4, r5, r6, r7, r8, lr}
 3247              	.LCFI31:
ARM GAS  /tmp/ccvTpBVd.s 			page 96


 3248              		.cfi_def_cfa_offset 24
 3249              		.cfi_offset 4, -24
 3250              		.cfi_offset 5, -20
 3251              		.cfi_offset 6, -16
 3252              		.cfi_offset 7, -12
 3253              		.cfi_offset 8, -8
 3254              		.cfi_offset 14, -4
 3255 0004 0746     		mov	r7, r0
 3256 0006 8846     		mov	r8, r1
 3257 0008 1646     		mov	r6, r2
 3258 000a 1C46     		mov	r4, r3
1406:Middlewares/Third_Party/LwIP/src/core/pbuf.c ****   u16_t i;
 3259              		.loc 1 1406 3 is_stmt 1 view .LVU983
1407:Middlewares/Third_Party/LwIP/src/core/pbuf.c ****   u16_t max = p->tot_len - mem_len;
 3260              		.loc 1 1407 3 view .LVU984
 3261              		.loc 1 1407 16 is_stmt 0 view .LVU985
 3262 000c 0389     		ldrh	r3, [r0, #8]
 3263              	.LVL359:
 3264              		.loc 1 1407 9 view .LVU986
 3265 000e 9D1A     		subs	r5, r3, r2
 3266 0010 ADB2     		uxth	r5, r5
 3267              	.LVL360:
1408:Middlewares/Third_Party/LwIP/src/core/pbuf.c ****   if (p->tot_len >= mem_len + start_offset) {
 3268              		.loc 1 1408 3 is_stmt 1 view .LVU987
 3269              		.loc 1 1408 29 is_stmt 0 view .LVU988
 3270 0012 2244     		add	r2, r2, r4
 3271              	.LVL361:
 3272              		.loc 1 1408 6 view .LVU989
 3273 0014 9342     		cmp	r3, r2
 3274 0016 0BDB     		blt	.L276
 3275              	.LVL362:
 3276              	.L271:
1409:Middlewares/Third_Party/LwIP/src/core/pbuf.c ****     for (i = start_offset; i <= max; i++) {
 3277              		.loc 1 1409 5 discriminator 1 view .LVU990
 3278 0018 AC42     		cmp	r4, r5
 3279 001a 0DD8     		bhi	.L277
 3280              	.LBB12:
1410:Middlewares/Third_Party/LwIP/src/core/pbuf.c ****       u16_t plus = pbuf_memcmp(p, i, mem, mem_len);
 3281              		.loc 1 1410 7 is_stmt 1 view .LVU991
 3282              		.loc 1 1410 20 is_stmt 0 view .LVU992
 3283 001c 3346     		mov	r3, r6
 3284 001e 4246     		mov	r2, r8
 3285 0020 2146     		mov	r1, r4
 3286 0022 3846     		mov	r0, r7
 3287 0024 FFF7FEFF 		bl	pbuf_memcmp
 3288              	.LVL363:
1411:Middlewares/Third_Party/LwIP/src/core/pbuf.c ****       if (plus == 0) {
 3289              		.loc 1 1411 7 is_stmt 1 view .LVU993
 3290              		.loc 1 1411 10 is_stmt 0 view .LVU994
 3291 0028 48B1     		cbz	r0, .L274
 3292              	.LBE12:
1409:Middlewares/Third_Party/LwIP/src/core/pbuf.c ****     for (i = start_offset; i <= max; i++) {
 3293              		.loc 1 1409 39 discriminator 2 view .LVU995
 3294 002a 0134     		adds	r4, r4, #1
 3295              	.LVL364:
1409:Middlewares/Third_Party/LwIP/src/core/pbuf.c ****     for (i = start_offset; i <= max; i++) {
 3296              		.loc 1 1409 39 discriminator 2 view .LVU996
ARM GAS  /tmp/ccvTpBVd.s 			page 97


 3297 002c A4B2     		uxth	r4, r4
 3298              	.LVL365:
1409:Middlewares/Third_Party/LwIP/src/core/pbuf.c ****     for (i = start_offset; i <= max; i++) {
 3299              		.loc 1 1409 39 discriminator 2 view .LVU997
 3300 002e F3E7     		b	.L271
 3301              	.LVL366:
 3302              	.L276:
1412:Middlewares/Third_Party/LwIP/src/core/pbuf.c ****         return i;
1413:Middlewares/Third_Party/LwIP/src/core/pbuf.c ****       }
1414:Middlewares/Third_Party/LwIP/src/core/pbuf.c ****     }
1415:Middlewares/Third_Party/LwIP/src/core/pbuf.c ****   }
1416:Middlewares/Third_Party/LwIP/src/core/pbuf.c ****   return 0xFFFF;
 3303              		.loc 1 1416 10 view .LVU998
 3304 0030 4FF6FF70 		movw	r0, #65535
 3305              	.LVL367:
 3306              	.L272:
1417:Middlewares/Third_Party/LwIP/src/core/pbuf.c **** }
 3307              		.loc 1 1417 1 view .LVU999
 3308 0034 BDE8F081 		pop	{r4, r5, r6, r7, r8, pc}
 3309              	.LVL368:
 3310              	.L277:
1416:Middlewares/Third_Party/LwIP/src/core/pbuf.c **** }
 3311              		.loc 1 1416 10 view .LVU1000
 3312 0038 4FF6FF70 		movw	r0, #65535
 3313 003c FAE7     		b	.L272
 3314              	.LVL369:
 3315              	.L274:
 3316              	.LBB13:
1412:Middlewares/Third_Party/LwIP/src/core/pbuf.c ****         return i;
 3317              		.loc 1 1412 16 view .LVU1001
 3318 003e 2046     		mov	r0, r4
 3319              	.LVL370:
1412:Middlewares/Third_Party/LwIP/src/core/pbuf.c ****         return i;
 3320              		.loc 1 1412 16 view .LVU1002
 3321 0040 F8E7     		b	.L272
 3322              	.LBE13:
 3323              		.cfi_endproc
 3324              	.LFE185:
 3326              		.section	.text.pbuf_strstr,"ax",%progbits
 3327              		.align	1
 3328              		.global	pbuf_strstr
 3329              		.syntax unified
 3330              		.thumb
 3331              		.thumb_func
 3332              		.fpu fpv5-sp-d16
 3334              	pbuf_strstr:
 3335              	.LVL371:
 3336              	.LFB186:
1418:Middlewares/Third_Party/LwIP/src/core/pbuf.c **** 
1419:Middlewares/Third_Party/LwIP/src/core/pbuf.c **** /**
1420:Middlewares/Third_Party/LwIP/src/core/pbuf.c ****  * Find occurrence of substr with length substr_len in pbuf p, start at offset
1421:Middlewares/Third_Party/LwIP/src/core/pbuf.c ****  * start_offset
1422:Middlewares/Third_Party/LwIP/src/core/pbuf.c ****  * WARNING: in contrast to strstr(), this one does not stop at the first \0 in
1423:Middlewares/Third_Party/LwIP/src/core/pbuf.c ****  * the pbuf/source string!
1424:Middlewares/Third_Party/LwIP/src/core/pbuf.c ****  *
1425:Middlewares/Third_Party/LwIP/src/core/pbuf.c ****  * @param p pbuf to search, maximum length is 0xFFFE since 0xFFFF is used as
1426:Middlewares/Third_Party/LwIP/src/core/pbuf.c ****  *        return value 'not found'
ARM GAS  /tmp/ccvTpBVd.s 			page 98


1427:Middlewares/Third_Party/LwIP/src/core/pbuf.c ****  * @param substr string to search for in p, maximum length is 0xFFFE
1428:Middlewares/Third_Party/LwIP/src/core/pbuf.c ****  * @return 0xFFFF if substr was not found in p or the index where it was found
1429:Middlewares/Third_Party/LwIP/src/core/pbuf.c ****  */
1430:Middlewares/Third_Party/LwIP/src/core/pbuf.c **** u16_t
1431:Middlewares/Third_Party/LwIP/src/core/pbuf.c **** pbuf_strstr(const struct pbuf* p, const char* substr)
1432:Middlewares/Third_Party/LwIP/src/core/pbuf.c **** {
 3337              		.loc 1 1432 1 is_stmt 1 view -0
 3338              		.cfi_startproc
 3339              		@ args = 0, pretend = 0, frame = 0
 3340              		@ frame_needed = 0, uses_anonymous_args = 0
1433:Middlewares/Third_Party/LwIP/src/core/pbuf.c ****   size_t substr_len;
 3341              		.loc 1 1433 3 view .LVU1004
1434:Middlewares/Third_Party/LwIP/src/core/pbuf.c ****   if ((substr == NULL) || (substr[0] == 0) || (p->tot_len == 0xFFFF)) {
 3342              		.loc 1 1434 3 view .LVU1005
 3343              		.loc 1 1434 6 is_stmt 0 view .LVU1006
 3344 0000 B9B1     		cbz	r1, .L280
1432:Middlewares/Third_Party/LwIP/src/core/pbuf.c ****   size_t substr_len;
 3345              		.loc 1 1432 1 discriminator 1 view .LVU1007
 3346 0002 38B5     		push	{r3, r4, r5, lr}
 3347              	.LCFI32:
 3348              		.cfi_def_cfa_offset 16
 3349              		.cfi_offset 3, -16
 3350              		.cfi_offset 4, -12
 3351              		.cfi_offset 5, -8
 3352              		.cfi_offset 14, -4
 3353 0004 0546     		mov	r5, r0
 3354 0006 0C46     		mov	r4, r1
 3355              		.loc 1 1434 34 discriminator 1 view .LVU1008
 3356 0008 0978     		ldrb	r1, [r1]	@ zero_extendqisi2
 3357              	.LVL372:
 3358              		.loc 1 1434 24 discriminator 1 view .LVU1009
 3359 000a A9B1     		cbz	r1, .L281
 3360              		.loc 1 1434 49 discriminator 2 view .LVU1010
 3361 000c 0089     		ldrh	r0, [r0, #8]
 3362              	.LVL373:
 3363              		.loc 1 1434 44 discriminator 2 view .LVU1011
 3364 000e 4FF6FF71 		movw	r1, #65535
 3365 0012 8842     		cmp	r0, r1
 3366 0014 0CD0     		beq	.L279
1435:Middlewares/Third_Party/LwIP/src/core/pbuf.c ****     return 0xFFFF;
1436:Middlewares/Third_Party/LwIP/src/core/pbuf.c ****   }
1437:Middlewares/Third_Party/LwIP/src/core/pbuf.c ****   substr_len = strlen(substr);
 3367              		.loc 1 1437 3 is_stmt 1 view .LVU1012
 3368              		.loc 1 1437 16 is_stmt 0 view .LVU1013
 3369 0016 2046     		mov	r0, r4
 3370 0018 FFF7FEFF 		bl	strlen
 3371              	.LVL374:
1438:Middlewares/Third_Party/LwIP/src/core/pbuf.c ****   if (substr_len >= 0xFFFF) {
 3372              		.loc 1 1438 3 is_stmt 1 view .LVU1014
 3373              		.loc 1 1438 6 is_stmt 0 view .LVU1015
 3374 001c 4FF6FE73 		movw	r3, #65534
 3375 0020 9842     		cmp	r0, r3
 3376 0022 0CD8     		bhi	.L282
1439:Middlewares/Third_Party/LwIP/src/core/pbuf.c ****     return 0xFFFF;
1440:Middlewares/Third_Party/LwIP/src/core/pbuf.c ****   }
1441:Middlewares/Third_Party/LwIP/src/core/pbuf.c ****   return pbuf_memfind(p, substr, (u16_t)substr_len, 0);
 3377              		.loc 1 1441 3 is_stmt 1 view .LVU1016
ARM GAS  /tmp/ccvTpBVd.s 			page 99


 3378              		.loc 1 1441 10 is_stmt 0 view .LVU1017
 3379 0024 0023     		movs	r3, #0
 3380 0026 82B2     		uxth	r2, r0
 3381 0028 2146     		mov	r1, r4
 3382 002a 2846     		mov	r0, r5
 3383              	.LVL375:
 3384              		.loc 1 1441 10 view .LVU1018
 3385 002c FFF7FEFF 		bl	pbuf_memfind
 3386              	.LVL376:
 3387              	.L279:
1442:Middlewares/Third_Party/LwIP/src/core/pbuf.c **** }
 3388              		.loc 1 1442 1 view .LVU1019
 3389 0030 38BD     		pop	{r3, r4, r5, pc}
 3390              	.LVL377:
 3391              	.L280:
 3392              	.LCFI33:
 3393              		.cfi_def_cfa_offset 0
 3394              		.cfi_restore 3
 3395              		.cfi_restore 4
 3396              		.cfi_restore 5
 3397              		.cfi_restore 14
1435:Middlewares/Third_Party/LwIP/src/core/pbuf.c ****   }
 3398              		.loc 1 1435 12 view .LVU1020
 3399 0032 4FF6FF70 		movw	r0, #65535
 3400              	.LVL378:
 3401              		.loc 1 1442 1 view .LVU1021
 3402 0036 7047     		bx	lr
 3403              	.LVL379:
 3404              	.L281:
 3405              	.LCFI34:
 3406              		.cfi_def_cfa_offset 16
 3407              		.cfi_offset 3, -16
 3408              		.cfi_offset 4, -12
 3409              		.cfi_offset 5, -8
 3410              		.cfi_offset 14, -4
1435:Middlewares/Third_Party/LwIP/src/core/pbuf.c ****   }
 3411              		.loc 1 1435 12 view .LVU1022
 3412 0038 4FF6FF70 		movw	r0, #65535
 3413              	.LVL380:
1435:Middlewares/Third_Party/LwIP/src/core/pbuf.c ****   }
 3414              		.loc 1 1435 12 view .LVU1023
 3415 003c F8E7     		b	.L279
 3416              	.LVL381:
 3417              	.L282:
1439:Middlewares/Third_Party/LwIP/src/core/pbuf.c ****     return 0xFFFF;
 3418              		.loc 1 1439 12 view .LVU1024
 3419 003e 4FF6FF70 		movw	r0, #65535
 3420              	.LVL382:
1439:Middlewares/Third_Party/LwIP/src/core/pbuf.c ****     return 0xFFFF;
 3421              		.loc 1 1439 12 view .LVU1025
 3422 0042 F5E7     		b	.L279
 3423              		.cfi_endproc
 3424              	.LFE186:
 3426              		.comm	pbuf_free_ooseq_pending,1,1
 3427              		.section	.rodata.pbuf_alloc.str1.4,"aMS",%progbits,1
 3428              		.align	2
 3429              	.LC9:
ARM GAS  /tmp/ccvTpBVd.s 			page 100


 3430 0000 70627566 		.ascii	"pbuf_alloc: bad pbuf layer\000"
 3430      5F616C6C 
 3430      6F633A20 
 3430      62616420 
 3430      70627566 
 3431 001b 00       		.space	1
 3432              	.LC10:
 3433 001c 63686563 		.ascii	"check p->payload + p->len does not overflow pbuf\000"
 3433      6B20702D 
 3433      3E706179 
 3433      6C6F6164 
 3433      202B2070 
 3434 004d 000000   		.space	3
 3435              	.LC11:
 3436 0050 72656D5F 		.ascii	"rem_len < max_u16_t\000"
 3436      6C656E20 
 3436      3C206D61 
 3436      785F7531 
 3436      365F7400 
 3437              	.LC12:
 3438 0064 70627566 		.ascii	"pbuf_alloc: pbuf q->payload properly aligned\000"
 3438      5F616C6C 
 3438      6F633A20 
 3438      70627566 
 3438      20712D3E 
 3439 0091 000000   		.space	3
 3440              	.LC13:
 3441 0094 70627566 		.ascii	"pbuf_alloc: erroneous type\000"
 3441      5F616C6C 
 3441      6F633A20 
 3441      6572726F 
 3441      6E656F75 
 3442              		.section	.rodata.pbuf_alloced_custom.str1.4,"aMS",%progbits,1
 3443              		.align	2
 3444              	.LC5:
 3445 0000 70627566 		.ascii	"pbuf_alloced_custom: bad pbuf layer\000"
 3445      5F616C6C 
 3445      6F636564 
 3445      5F637573 
 3445      746F6D3A 
 3446              		.section	.rodata.pbuf_cat.str1.4,"aMS",%progbits,1
 3447              		.align	2
 3448              	.LC20:
 3449 0000 28682021 		.ascii	"(h != NULL) && (t != NULL) (programmer violates API"
 3449      3D204E55 
 3449      4C4C2920 
 3449      26262028 
 3449      7420213D 
 3450 0033 2900     		.ascii	")\000"
 3451 0035 000000   		.space	3
 3452              	.LC21:
 3453 0038 702D3E74 		.ascii	"p->tot_len == p->len (of last pbuf in chain)\000"
 3453      6F745F6C 
 3453      656E203D 
 3453      3D20702D 
 3453      3E6C656E 
 3454 0065 000000   		.space	3
ARM GAS  /tmp/ccvTpBVd.s 			page 101


 3455              	.LC22:
 3456 0068 702D3E6E 		.ascii	"p->next == NULL\000"
 3456      65787420 
 3456      3D3D204E 
 3456      554C4C00 
 3457              		.section	.rodata.pbuf_coalesce.str1.4,"aMS",%progbits,1
 3458              		.align	2
 3459              	.LC37:
 3460 0000 70627566 		.ascii	"pbuf_copy failed\000"
 3460      5F636F70 
 3460      79206661 
 3460      696C6564 
 3460      00
 3461              		.section	.rodata.pbuf_copy.str1.4,"aMS",%progbits,1
 3462              		.align	2
 3463              	.LC25:
 3464 0000 70627566 		.ascii	"pbuf_copy: target not big enough to hold source\000"
 3464      5F636F70 
 3464      793A2074 
 3464      61726765 
 3464      74206E6F 
 3465              	.LC26:
 3466 0030 6F666673 		.ascii	"offset_to <= p_to->len\000"
 3466      65745F74 
 3466      6F203C3D 
 3466      20705F74 
 3466      6F2D3E6C 
 3467 0047 00       		.space	1
 3468              	.LC27:
 3469 0048 6F666673 		.ascii	"offset_from <= p_from->len\000"
 3469      65745F66 
 3469      726F6D20 
 3469      3C3D2070 
 3469      5F66726F 
 3470 0063 00       		.space	1
 3471              	.LC28:
 3472 0064 705F746F 		.ascii	"p_to != NULL\000"
 3472      20213D20 
 3472      4E554C4C 
 3472      00
 3473 0071 000000   		.space	3
 3474              	.LC29:
 3475 0074 70627566 		.ascii	"pbuf_copy() does not allow packet queues!\000"
 3475      5F636F70 
 3475      79282920 
 3475      646F6573 
 3475      206E6F74 
 3476              		.section	.rodata.pbuf_copy_partial.str1.4,"aMS",%progbits,1
 3477              		.align	2
 3478              	.LC30:
 3479 0000 70627566 		.ascii	"pbuf_copy_partial: invalid buf\000"
 3479      5F636F70 
 3479      795F7061 
 3479      72746961 
 3479      6C3A2069 
 3480 001f 00       		.space	1
 3481              	.LC31:
ARM GAS  /tmp/ccvTpBVd.s 			page 102


 3482 0020 70627566 		.ascii	"pbuf_copy_partial: invalid dataptr\000"
 3482      5F636F70 
 3482      795F7061 
 3482      72746961 
 3482      6C3A2069 
 3483              		.section	.rodata.pbuf_dechain.str1.4,"aMS",%progbits,1
 3484              		.align	2
 3485              	.LC23:
 3486 0000 702D3E74 		.ascii	"p->tot_len == p->len + q->tot_len\000"
 3486      6F745F6C 
 3486      656E203D 
 3486      3D20702D 
 3486      3E6C656E 
 3487 0022 0000     		.space	2
 3488              	.LC24:
 3489 0024 702D3E74 		.ascii	"p->tot_len == p->len\000"
 3489      6F745F6C 
 3489      656E203D 
 3489      3D20702D 
 3489      3E6C656E 
 3490              		.section	.rodata.pbuf_free.str1.4,"aMS",%progbits,1
 3491              		.align	2
 3492              	.LC6:
 3493 0000 70627566 		.ascii	"pbuf_free: sane type\000"
 3493      5F667265 
 3493      653A2073 
 3493      616E6520 
 3493      74797065 
 3494 0015 000000   		.space	3
 3495              	.LC7:
 3496 0018 70627566 		.ascii	"pbuf_free: p->ref > 0\000"
 3496      5F667265 
 3496      653A2070 
 3496      2D3E7265 
 3496      66203E20 
 3497 002e 0000     		.space	2
 3498              	.LC8:
 3499 0030 70632D3E 		.ascii	"pc->custom_free_function != NULL\000"
 3499      63757374 
 3499      6F6D5F66 
 3499      7265655F 
 3499      66756E63 
 3500              		.section	.rodata.pbuf_header_impl.str1.4,"aMS",%progbits,1
 3501              		.align	2
 3502              	.LC0:
 3503 0000 4D696464 		.ascii	"Middlewares/Third_Party/LwIP/src/core/pbuf.c\000"
 3503      6C657761 
 3503      7265732F 
 3503      54686972 
 3503      645F5061 
 3504 002d 000000   		.space	3
 3505              	.LC1:
 3506 0030 7020213D 		.ascii	"p != NULL\000"
 3506      204E554C 
 3506      4C00
 3507 003a 0000     		.space	2
 3508              	.LC2:
ARM GAS  /tmp/ccvTpBVd.s 			page 103


 3509 003c 41737365 		.ascii	"Assertion \"%s\" failed at line %d in %s\012\000"
 3509      7274696F 
 3509      6E202225 
 3509      73222066 
 3509      61696C65 
 3510              	.LC3:
 3511 0064 696E6372 		.ascii	"increment_magnitude <= p->len\000"
 3511      656D656E 
 3511      745F6D61 
 3511      676E6974 
 3511      75646520 
 3512 0082 0000     		.space	2
 3513              	.LC4:
 3514 0084 62616420 		.ascii	"bad pbuf type\000"
 3514      70627566 
 3514      20747970 
 3514      6500
 3515              		.section	.rodata.pbuf_realloc.str1.4,"aMS",%progbits,1
 3516              		.align	2
 3517              	.LC14:
 3518 0000 70627566 		.ascii	"pbuf_realloc: p != NULL\000"
 3518      5F726561 
 3518      6C6C6F63 
 3518      3A207020 
 3518      213D204E 
 3519              	.LC15:
 3520 0018 70627566 		.ascii	"pbuf_realloc: sane p->type\000"
 3520      5F726561 
 3520      6C6C6F63 
 3520      3A207361 
 3520      6E652070 
 3521 0033 00       		.space	1
 3522              	.LC16:
 3523 0034 67726F77 		.ascii	"grow < max_u16_t\000"
 3523      203C206D 
 3523      61785F75 
 3523      31365F74 
 3523      00
 3524 0045 000000   		.space	3
 3525              	.LC17:
 3526 0048 70627566 		.ascii	"pbuf_realloc: q != NULL\000"
 3526      5F726561 
 3526      6C6C6F63 
 3526      3A207120 
 3526      213D204E 
 3527              	.LC18:
 3528 0060 6D656D5F 		.ascii	"mem_trim returned q == NULL\000"
 3528      7472696D 
 3528      20726574 
 3528      75726E65 
 3528      64207120 
 3529              		.section	.rodata.pbuf_ref.str1.4,"aMS",%progbits,1
 3530              		.align	2
 3531              	.LC19:
 3532 0000 70627566 		.ascii	"pbuf ref overflow\000"
 3532      20726566 
 3532      206F7665 
ARM GAS  /tmp/ccvTpBVd.s 			page 104


 3532      72666C6F 
 3532      7700
 3533              		.section	.rodata.pbuf_take.str1.4,"aMS",%progbits,1
 3534              		.align	2
 3535              	.LC32:
 3536 0000 70627566 		.ascii	"pbuf_take: invalid buf\000"
 3536      5F74616B 
 3536      653A2069 
 3536      6E76616C 
 3536      69642062 
 3537 0017 00       		.space	1
 3538              	.LC33:
 3539 0018 70627566 		.ascii	"pbuf_take: invalid dataptr\000"
 3539      5F74616B 
 3539      653A2069 
 3539      6E76616C 
 3539      69642064 
 3540 0033 00       		.space	1
 3541              	.LC34:
 3542 0034 70627566 		.ascii	"pbuf_take: buf not large enough\000"
 3542      5F74616B 
 3542      653A2062 
 3542      7566206E 
 3542      6F74206C 
 3543              	.LC35:
 3544 0054 70627566 		.ascii	"pbuf_take: invalid pbuf\000"
 3544      5F74616B 
 3544      653A2069 
 3544      6E76616C 
 3544      69642070 
 3545              	.LC36:
 3546 006c 64696420 		.ascii	"did not copy all data\000"
 3546      6E6F7420 
 3546      636F7079 
 3546      20616C6C 
 3546      20646174 
 3547              		.text
 3548              	.Letext0:
 3549              		.file 2 "/usr/arm-none-eabi/include/machine/_default_types.h"
 3550              		.file 3 "/usr/arm-none-eabi/include/sys/_stdint.h"
 3551              		.file 4 "Drivers/CMSIS/Include/core_cm7.h"
 3552              		.file 5 "Drivers/CMSIS/Device/ST/STM32F7xx/Include/system_stm32f7xx.h"
 3553              		.file 6 "/usr/lib/gcc/arm-none-eabi/8.3.0/include/stddef.h"
 3554              		.file 7 "/usr/arm-none-eabi/include/sys/lock.h"
 3555              		.file 8 "/usr/arm-none-eabi/include/sys/_types.h"
 3556              		.file 9 "/usr/arm-none-eabi/include/sys/reent.h"
 3557              		.file 10 "/usr/arm-none-eabi/include/stdlib.h"
 3558              		.file 11 "/usr/arm-none-eabi/include/time.h"
 3559              		.file 12 "Middlewares/Third_Party/LwIP/src/include/lwip/arch.h"
 3560              		.file 13 "Middlewares/Third_Party/LwIP/src/include/lwip/mem.h"
 3561              		.file 14 "Middlewares/Third_Party/LwIP/src/include/lwip/priv/memp_priv.h"
 3562              		.file 15 "Middlewares/Third_Party/LwIP/src/include/lwip/memp.h"
 3563              		.file 16 "Middlewares/Third_Party/LwIP/src/include/lwip/err.h"
 3564              		.file 17 "Middlewares/Third_Party/LwIP/src/include/lwip/pbuf.h"
 3565              		.file 18 "Middlewares/Third_Party/LwIP/src/include/lwip/ip4_addr.h"
 3566              		.file 19 "Middlewares/Third_Party/LwIP/src/include/lwip/ip_addr.h"
 3567              		.file 20 "Middlewares/Third_Party/LwIP/src/include/lwip/netif.h"
ARM GAS  /tmp/ccvTpBVd.s 			page 105


 3568              		.file 21 "Middlewares/Third_Party/LwIP/src/include/lwip/prot/ip4.h"
 3569              		.file 22 "Middlewares/Third_Party/LwIP/src/include/lwip/ip.h"
 3570              		.file 23 "Middlewares/Third_Party/LwIP/src/include/lwip/tcp.h"
 3571              		.file 24 "Middlewares/Third_Party/LwIP/src/include/lwip/priv/tcp_priv.h"
 3572              		.file 25 "Middlewares/Third_Party/LwIP/src/include/lwip/prot/tcp.h"
 3573              		.file 26 "/usr/arm-none-eabi/include/string.h"
 3574              		.file 27 "/usr/arm-none-eabi/include/stdio.h"
 3575              		.file 28 "<built-in>"
ARM GAS  /tmp/ccvTpBVd.s 			page 106


DEFINED SYMBOLS
                            *ABS*:0000000000000000 pbuf.c
     /tmp/ccvTpBVd.s:18     .text.pbuf_pool_is_empty:0000000000000000 $t
     /tmp/ccvTpBVd.s:25     .text.pbuf_pool_is_empty:0000000000000000 pbuf_pool_is_empty
     /tmp/ccvTpBVd.s:46     .text.pbuf_pool_is_empty:0000000000000008 $d
                            *COM*:0000000000000001 pbuf_free_ooseq_pending
     /tmp/ccvTpBVd.s:51     .text.pbuf_skip_const:0000000000000000 $t
     /tmp/ccvTpBVd.s:57     .text.pbuf_skip_const:0000000000000000 pbuf_skip_const
     /tmp/ccvTpBVd.s:104    .text.pbuf_header_impl:0000000000000000 $t
     /tmp/ccvTpBVd.s:110    .text.pbuf_header_impl:0000000000000000 pbuf_header_impl
     /tmp/ccvTpBVd.s:346    .text.pbuf_header_impl:00000000000000c8 $d
     /tmp/ccvTpBVd.s:355    .text.pbuf_free_ooseq:0000000000000000 $t
     /tmp/ccvTpBVd.s:362    .text.pbuf_free_ooseq:0000000000000000 pbuf_free_ooseq
     /tmp/ccvTpBVd.s:418    .text.pbuf_free_ooseq:0000000000000020 $d
     /tmp/ccvTpBVd.s:424    .text.pbuf_alloced_custom:0000000000000000 $t
     /tmp/ccvTpBVd.s:431    .text.pbuf_alloced_custom:0000000000000000 pbuf_alloced_custom
     /tmp/ccvTpBVd.s:454    .text.pbuf_alloced_custom:000000000000000c $d
     /tmp/ccvTpBVd.s:588    .text.pbuf_alloced_custom:000000000000006c $d
     /tmp/ccvTpBVd.s:595    .text.pbuf_header:0000000000000000 $t
     /tmp/ccvTpBVd.s:602    .text.pbuf_header:0000000000000000 pbuf_header
     /tmp/ccvTpBVd.s:626    .text.pbuf_header_force:0000000000000000 $t
     /tmp/ccvTpBVd.s:633    .text.pbuf_header_force:0000000000000000 pbuf_header_force
     /tmp/ccvTpBVd.s:657    .text.pbuf_free:0000000000000000 $t
     /tmp/ccvTpBVd.s:664    .text.pbuf_free:0000000000000000 pbuf_free
     /tmp/ccvTpBVd.s:880    .text.pbuf_free:00000000000000b0 $d
     /tmp/ccvTpBVd.s:891    .text.pbuf_alloc:0000000000000000 $t
     /tmp/ccvTpBVd.s:898    .text.pbuf_alloc:0000000000000000 pbuf_alloc
     /tmp/ccvTpBVd.s:928    .text.pbuf_alloc:0000000000000010 $d
     /tmp/ccvTpBVd.s:995    .text.pbuf_alloc:0000000000000044 $d
     /tmp/ccvTpBVd.s:999    .text.pbuf_alloc:0000000000000048 $t
     /tmp/ccvTpBVd.s:1354   .text.pbuf_alloc:00000000000001b4 $d
     /tmp/ccvTpBVd.s:1366   .text.pbuf_realloc:0000000000000000 $t
     /tmp/ccvTpBVd.s:1373   .text.pbuf_realloc:0000000000000000 pbuf_realloc
     /tmp/ccvTpBVd.s:1580   .text.pbuf_realloc:00000000000000d4 $d
     /tmp/ccvTpBVd.s:1591   .text.pbuf_clen:0000000000000000 $t
     /tmp/ccvTpBVd.s:1598   .text.pbuf_clen:0000000000000000 pbuf_clen
     /tmp/ccvTpBVd.s:1638   .text.pbuf_ref:0000000000000000 $t
     /tmp/ccvTpBVd.s:1645   .text.pbuf_ref:0000000000000000 pbuf_ref
     /tmp/ccvTpBVd.s:1702   .text.pbuf_ref:0000000000000024 $d
     /tmp/ccvTpBVd.s:1709   .text.pbuf_cat:0000000000000000 $t
     /tmp/ccvTpBVd.s:1716   .text.pbuf_cat:0000000000000000 pbuf_cat
     /tmp/ccvTpBVd.s:1828   .text.pbuf_cat:000000000000006c $d
     /tmp/ccvTpBVd.s:1837   .text.pbuf_chain:0000000000000000 $t
     /tmp/ccvTpBVd.s:1844   .text.pbuf_chain:0000000000000000 pbuf_chain
     /tmp/ccvTpBVd.s:1873   .text.pbuf_dechain:0000000000000000 $t
     /tmp/ccvTpBVd.s:1880   .text.pbuf_dechain:0000000000000000 pbuf_dechain
     /tmp/ccvTpBVd.s:1998   .text.pbuf_dechain:0000000000000064 $d
     /tmp/ccvTpBVd.s:2006   .text.pbuf_copy:0000000000000000 $t
     /tmp/ccvTpBVd.s:2013   .text.pbuf_copy:0000000000000000 pbuf_copy
     /tmp/ccvTpBVd.s:2284   .text.pbuf_copy:0000000000000124 $d
     /tmp/ccvTpBVd.s:2295   .text.pbuf_copy_partial:0000000000000000 $t
     /tmp/ccvTpBVd.s:2302   .text.pbuf_copy_partial:0000000000000000 pbuf_copy_partial
     /tmp/ccvTpBVd.s:2462   .text.pbuf_copy_partial:0000000000000084 $d
     /tmp/ccvTpBVd.s:2470   .text.pbuf_skip:0000000000000000 $t
     /tmp/ccvTpBVd.s:2477   .text.pbuf_skip:0000000000000000 pbuf_skip
     /tmp/ccvTpBVd.s:2501   .text.pbuf_take:0000000000000000 $t
     /tmp/ccvTpBVd.s:2508   .text.pbuf_take:0000000000000000 pbuf_take
ARM GAS  /tmp/ccvTpBVd.s 			page 107


     /tmp/ccvTpBVd.s:2692   .text.pbuf_take:00000000000000a8 $d
     /tmp/ccvTpBVd.s:2703   .text.pbuf_take_at:0000000000000000 $t
     /tmp/ccvTpBVd.s:2710   .text.pbuf_take_at:0000000000000000 pbuf_take_at
     /tmp/ccvTpBVd.s:2834   .text.pbuf_coalesce:0000000000000000 $t
     /tmp/ccvTpBVd.s:2841   .text.pbuf_coalesce:0000000000000000 pbuf_coalesce
     /tmp/ccvTpBVd.s:2917   .text.pbuf_coalesce:000000000000003c $d
     /tmp/ccvTpBVd.s:2924   .text.pbuf_try_get_at:0000000000000000 $t
     /tmp/ccvTpBVd.s:2931   .text.pbuf_try_get_at:0000000000000000 pbuf_try_get_at
     /tmp/ccvTpBVd.s:2996   .text.pbuf_get_at:0000000000000000 $t
     /tmp/ccvTpBVd.s:3003   .text.pbuf_get_at:0000000000000000 pbuf_get_at
     /tmp/ccvTpBVd.s:3043   .text.pbuf_put_at:0000000000000000 $t
     /tmp/ccvTpBVd.s:3050   .text.pbuf_put_at:0000000000000000 pbuf_put_at
     /tmp/ccvTpBVd.s:3101   .text.pbuf_memcmp:0000000000000000 $t
     /tmp/ccvTpBVd.s:3108   .text.pbuf_memcmp:0000000000000000 pbuf_memcmp
     /tmp/ccvTpBVd.s:3231   .text.pbuf_memfind:0000000000000000 $t
     /tmp/ccvTpBVd.s:3238   .text.pbuf_memfind:0000000000000000 pbuf_memfind
     /tmp/ccvTpBVd.s:3327   .text.pbuf_strstr:0000000000000000 $t
     /tmp/ccvTpBVd.s:3334   .text.pbuf_strstr:0000000000000000 pbuf_strstr
     /tmp/ccvTpBVd.s:3428   .rodata.pbuf_alloc.str1.4:0000000000000000 $d
     /tmp/ccvTpBVd.s:3443   .rodata.pbuf_alloced_custom.str1.4:0000000000000000 $d
     /tmp/ccvTpBVd.s:3447   .rodata.pbuf_cat.str1.4:0000000000000000 $d
     /tmp/ccvTpBVd.s:3458   .rodata.pbuf_coalesce.str1.4:0000000000000000 $d
     /tmp/ccvTpBVd.s:3462   .rodata.pbuf_copy.str1.4:0000000000000000 $d
     /tmp/ccvTpBVd.s:3477   .rodata.pbuf_copy_partial.str1.4:0000000000000000 $d
     /tmp/ccvTpBVd.s:3484   .rodata.pbuf_dechain.str1.4:0000000000000000 $d
     /tmp/ccvTpBVd.s:3491   .rodata.pbuf_free.str1.4:0000000000000000 $d
     /tmp/ccvTpBVd.s:3501   .rodata.pbuf_header_impl.str1.4:0000000000000000 $d
     /tmp/ccvTpBVd.s:3516   .rodata.pbuf_realloc.str1.4:0000000000000000 $d
     /tmp/ccvTpBVd.s:3530   .rodata.pbuf_ref.str1.4:0000000000000000 $d
     /tmp/ccvTpBVd.s:3534   .rodata.pbuf_take.str1.4:0000000000000000 $d
     /tmp/ccvTpBVd.s:459    .text.pbuf_alloced_custom:0000000000000011 $d
     /tmp/ccvTpBVd.s:459    .text.pbuf_alloced_custom:0000000000000012 $t
     /tmp/ccvTpBVd.s:933    .text.pbuf_alloc:0000000000000015 $d
     /tmp/ccvTpBVd.s:933    .text.pbuf_alloc:0000000000000016 $t

UNDEFINED SYMBOLS
printf
tcp_segs_free
tcp_active_pcbs
mem_free
memp_free
memp_malloc
mem_malloc
mem_trim
memcpy
strlen
