ARM GAS  /tmp/ccNE9tpB.s 			page 1


   1              		.cpu cortex-m7
   2              		.eabi_attribute 27, 1
   3              		.eabi_attribute 28, 1
   4              		.eabi_attribute 20, 1
   5              		.eabi_attribute 21, 1
   6              		.eabi_attribute 23, 3
   7              		.eabi_attribute 24, 1
   8              		.eabi_attribute 25, 1
   9              		.eabi_attribute 26, 1
  10              		.eabi_attribute 30, 1
  11              		.eabi_attribute 34, 1
  12              		.eabi_attribute 18, 4
  13              		.file	"stm32f7xx_hal_rcc.c"
  14              		.text
  15              	.Ltext0:
  16              		.cfi_sections	.debug_frame
  17              		.section	.text.HAL_RCC_DeInit,"ax",%progbits
  18              		.align	1
  19              		.global	HAL_RCC_DeInit
  20              		.arch armv7e-m
  21              		.syntax unified
  22              		.thumb
  23              		.thumb_func
  24              		.fpu fpv5-sp-d16
  26              	HAL_RCC_DeInit:
  27              	.LFB138:
  28              		.file 1 "Drivers/STM32F7xx_HAL_Driver/Src/stm32f7xx_hal_rcc.c"
   1:Drivers/STM32F7xx_HAL_Driver/Src/stm32f7xx_hal_rcc.c **** /**
   2:Drivers/STM32F7xx_HAL_Driver/Src/stm32f7xx_hal_rcc.c ****   ******************************************************************************
   3:Drivers/STM32F7xx_HAL_Driver/Src/stm32f7xx_hal_rcc.c ****   * @file    stm32f7xx_hal_rcc.c
   4:Drivers/STM32F7xx_HAL_Driver/Src/stm32f7xx_hal_rcc.c ****   * @author  MCD Application Team
   5:Drivers/STM32F7xx_HAL_Driver/Src/stm32f7xx_hal_rcc.c ****   * @brief   RCC HAL module driver.
   6:Drivers/STM32F7xx_HAL_Driver/Src/stm32f7xx_hal_rcc.c ****   *          This file provides firmware functions to manage the following
   7:Drivers/STM32F7xx_HAL_Driver/Src/stm32f7xx_hal_rcc.c ****   *          functionalities of the Reset and Clock Control (RCC) peripheral:
   8:Drivers/STM32F7xx_HAL_Driver/Src/stm32f7xx_hal_rcc.c ****   *           + Initialization and de-initialization functions
   9:Drivers/STM32F7xx_HAL_Driver/Src/stm32f7xx_hal_rcc.c ****   *           + Peripheral Control functions
  10:Drivers/STM32F7xx_HAL_Driver/Src/stm32f7xx_hal_rcc.c ****   *
  11:Drivers/STM32F7xx_HAL_Driver/Src/stm32f7xx_hal_rcc.c ****   @verbatim
  12:Drivers/STM32F7xx_HAL_Driver/Src/stm32f7xx_hal_rcc.c ****   ==============================================================================
  13:Drivers/STM32F7xx_HAL_Driver/Src/stm32f7xx_hal_rcc.c ****                       ##### RCC specific features #####
  14:Drivers/STM32F7xx_HAL_Driver/Src/stm32f7xx_hal_rcc.c ****   ==============================================================================
  15:Drivers/STM32F7xx_HAL_Driver/Src/stm32f7xx_hal_rcc.c ****     [..]
  16:Drivers/STM32F7xx_HAL_Driver/Src/stm32f7xx_hal_rcc.c ****       After reset the device is running from Internal High Speed oscillator
  17:Drivers/STM32F7xx_HAL_Driver/Src/stm32f7xx_hal_rcc.c ****       (HSI 16MHz) with Flash 0 wait state, Flash prefetch buffer, D-Cache
  18:Drivers/STM32F7xx_HAL_Driver/Src/stm32f7xx_hal_rcc.c ****       and I-Cache are disabled, and all peripherals are off except internal
  19:Drivers/STM32F7xx_HAL_Driver/Src/stm32f7xx_hal_rcc.c ****       SRAM, Flash and JTAG.
  20:Drivers/STM32F7xx_HAL_Driver/Src/stm32f7xx_hal_rcc.c ****       (+) There is no prescaler on High speed (AHB) and Low speed (APB) busses;
  21:Drivers/STM32F7xx_HAL_Driver/Src/stm32f7xx_hal_rcc.c ****           all peripherals mapped on these busses are running at HSI speed.
  22:Drivers/STM32F7xx_HAL_Driver/Src/stm32f7xx_hal_rcc.c ****       (+) The clock for all peripherals is switched off, except the SRAM and FLASH.
  23:Drivers/STM32F7xx_HAL_Driver/Src/stm32f7xx_hal_rcc.c ****       (+) All GPIOs are in input floating state, except the JTAG pins which
  24:Drivers/STM32F7xx_HAL_Driver/Src/stm32f7xx_hal_rcc.c ****           are assigned to be used for debug purpose.
  25:Drivers/STM32F7xx_HAL_Driver/Src/stm32f7xx_hal_rcc.c **** 
  26:Drivers/STM32F7xx_HAL_Driver/Src/stm32f7xx_hal_rcc.c ****     [..]
  27:Drivers/STM32F7xx_HAL_Driver/Src/stm32f7xx_hal_rcc.c ****       Once the device started from reset, the user application has to:
  28:Drivers/STM32F7xx_HAL_Driver/Src/stm32f7xx_hal_rcc.c ****       (+) Configure the clock source to be used to drive the System clock
  29:Drivers/STM32F7xx_HAL_Driver/Src/stm32f7xx_hal_rcc.c ****           (if the application needs higher frequency/performance)
  30:Drivers/STM32F7xx_HAL_Driver/Src/stm32f7xx_hal_rcc.c ****       (+) Configure the System clock frequency and Flash settings
ARM GAS  /tmp/ccNE9tpB.s 			page 2


  31:Drivers/STM32F7xx_HAL_Driver/Src/stm32f7xx_hal_rcc.c ****       (+) Configure the AHB and APB busses prescalers
  32:Drivers/STM32F7xx_HAL_Driver/Src/stm32f7xx_hal_rcc.c ****       (+) Enable the clock for the peripheral(s) to be used
  33:Drivers/STM32F7xx_HAL_Driver/Src/stm32f7xx_hal_rcc.c ****       (+) Configure the clock source(s) for peripherals which clocks are not
  34:Drivers/STM32F7xx_HAL_Driver/Src/stm32f7xx_hal_rcc.c ****           derived from the System clock (I2S, RTC, ADC, USB OTG FS/SDIO/RNG)
  35:Drivers/STM32F7xx_HAL_Driver/Src/stm32f7xx_hal_rcc.c **** 
  36:Drivers/STM32F7xx_HAL_Driver/Src/stm32f7xx_hal_rcc.c ****                       ##### RCC Limitations #####
  37:Drivers/STM32F7xx_HAL_Driver/Src/stm32f7xx_hal_rcc.c ****   ==============================================================================
  38:Drivers/STM32F7xx_HAL_Driver/Src/stm32f7xx_hal_rcc.c ****     [..]
  39:Drivers/STM32F7xx_HAL_Driver/Src/stm32f7xx_hal_rcc.c ****       A delay between an RCC peripheral clock enable and the effective peripheral
  40:Drivers/STM32F7xx_HAL_Driver/Src/stm32f7xx_hal_rcc.c ****       enabling should be taken into account in order to manage the peripheral read/write
  41:Drivers/STM32F7xx_HAL_Driver/Src/stm32f7xx_hal_rcc.c ****       from/to registers.
  42:Drivers/STM32F7xx_HAL_Driver/Src/stm32f7xx_hal_rcc.c ****       (+) This delay depends on the peripheral mapping.
  43:Drivers/STM32F7xx_HAL_Driver/Src/stm32f7xx_hal_rcc.c ****       (+) If peripheral is mapped on AHB: the delay is 2 AHB clock cycle
  44:Drivers/STM32F7xx_HAL_Driver/Src/stm32f7xx_hal_rcc.c ****           after the clock enable bit is set on the hardware register
  45:Drivers/STM32F7xx_HAL_Driver/Src/stm32f7xx_hal_rcc.c ****       (+) If peripheral is mapped on APB: the delay is 2 APB clock cycle
  46:Drivers/STM32F7xx_HAL_Driver/Src/stm32f7xx_hal_rcc.c ****           after the clock enable bit is set on the hardware register
  47:Drivers/STM32F7xx_HAL_Driver/Src/stm32f7xx_hal_rcc.c **** 
  48:Drivers/STM32F7xx_HAL_Driver/Src/stm32f7xx_hal_rcc.c ****     [..]
  49:Drivers/STM32F7xx_HAL_Driver/Src/stm32f7xx_hal_rcc.c ****       Implemented Workaround:
  50:Drivers/STM32F7xx_HAL_Driver/Src/stm32f7xx_hal_rcc.c ****       (+) For AHB & APB peripherals, a dummy read to the peripheral register has been
  51:Drivers/STM32F7xx_HAL_Driver/Src/stm32f7xx_hal_rcc.c ****           inserted in each __HAL_RCC_PPP_CLK_ENABLE() macro.
  52:Drivers/STM32F7xx_HAL_Driver/Src/stm32f7xx_hal_rcc.c **** 
  53:Drivers/STM32F7xx_HAL_Driver/Src/stm32f7xx_hal_rcc.c ****   @endverbatim
  54:Drivers/STM32F7xx_HAL_Driver/Src/stm32f7xx_hal_rcc.c ****   ******************************************************************************
  55:Drivers/STM32F7xx_HAL_Driver/Src/stm32f7xx_hal_rcc.c ****   * @attention
  56:Drivers/STM32F7xx_HAL_Driver/Src/stm32f7xx_hal_rcc.c ****   *
  57:Drivers/STM32F7xx_HAL_Driver/Src/stm32f7xx_hal_rcc.c ****   * <h2><center>&copy; COPYRIGHT(c) 2017 STMicroelectronics</center></h2>
  58:Drivers/STM32F7xx_HAL_Driver/Src/stm32f7xx_hal_rcc.c ****   *
  59:Drivers/STM32F7xx_HAL_Driver/Src/stm32f7xx_hal_rcc.c ****   * Redistribution and use in source and binary forms, with or without modification,
  60:Drivers/STM32F7xx_HAL_Driver/Src/stm32f7xx_hal_rcc.c ****   * are permitted provided that the following conditions are met:
  61:Drivers/STM32F7xx_HAL_Driver/Src/stm32f7xx_hal_rcc.c ****   *   1. Redistributions of source code must retain the above copyright notice,
  62:Drivers/STM32F7xx_HAL_Driver/Src/stm32f7xx_hal_rcc.c ****   *      this list of conditions and the following disclaimer.
  63:Drivers/STM32F7xx_HAL_Driver/Src/stm32f7xx_hal_rcc.c ****   *   2. Redistributions in binary form must reproduce the above copyright notice,
  64:Drivers/STM32F7xx_HAL_Driver/Src/stm32f7xx_hal_rcc.c ****   *      this list of conditions and the following disclaimer in the documentation
  65:Drivers/STM32F7xx_HAL_Driver/Src/stm32f7xx_hal_rcc.c ****   *      and/or other materials provided with the distribution.
  66:Drivers/STM32F7xx_HAL_Driver/Src/stm32f7xx_hal_rcc.c ****   *   3. Neither the name of STMicroelectronics nor the names of its contributors
  67:Drivers/STM32F7xx_HAL_Driver/Src/stm32f7xx_hal_rcc.c ****   *      may be used to endorse or promote products derived from this software
  68:Drivers/STM32F7xx_HAL_Driver/Src/stm32f7xx_hal_rcc.c ****   *      without specific prior written permission.
  69:Drivers/STM32F7xx_HAL_Driver/Src/stm32f7xx_hal_rcc.c ****   *
  70:Drivers/STM32F7xx_HAL_Driver/Src/stm32f7xx_hal_rcc.c ****   * THIS SOFTWARE IS PROVIDED BY THE COPYRIGHT HOLDERS AND CONTRIBUTORS "AS IS"
  71:Drivers/STM32F7xx_HAL_Driver/Src/stm32f7xx_hal_rcc.c ****   * AND ANY EXPRESS OR IMPLIED WARRANTIES, INCLUDING, BUT NOT LIMITED TO, THE
  72:Drivers/STM32F7xx_HAL_Driver/Src/stm32f7xx_hal_rcc.c ****   * IMPLIED WARRANTIES OF MERCHANTABILITY AND FITNESS FOR A PARTICULAR PURPOSE ARE
  73:Drivers/STM32F7xx_HAL_Driver/Src/stm32f7xx_hal_rcc.c ****   * DISCLAIMED. IN NO EVENT SHALL THE COPYRIGHT HOLDER OR CONTRIBUTORS BE LIABLE
  74:Drivers/STM32F7xx_HAL_Driver/Src/stm32f7xx_hal_rcc.c ****   * FOR ANY DIRECT, INDIRECT, INCIDENTAL, SPECIAL, EXEMPLARY, OR CONSEQUENTIAL
  75:Drivers/STM32F7xx_HAL_Driver/Src/stm32f7xx_hal_rcc.c ****   * DAMAGES (INCLUDING, BUT NOT LIMITED TO, PROCUREMENT OF SUBSTITUTE GOODS OR
  76:Drivers/STM32F7xx_HAL_Driver/Src/stm32f7xx_hal_rcc.c ****   * SERVICES; LOSS OF USE, DATA, OR PROFITS; OR BUSINESS INTERRUPTION) HOWEVER
  77:Drivers/STM32F7xx_HAL_Driver/Src/stm32f7xx_hal_rcc.c ****   * CAUSED AND ON ANY THEORY OF LIABILITY, WHETHER IN CONTRACT, STRICT LIABILITY,
  78:Drivers/STM32F7xx_HAL_Driver/Src/stm32f7xx_hal_rcc.c ****   * OR TORT (INCLUDING NEGLIGENCE OR OTHERWISE) ARISING IN ANY WAY OUT OF THE USE
  79:Drivers/STM32F7xx_HAL_Driver/Src/stm32f7xx_hal_rcc.c ****   * OF THIS SOFTWARE, EVEN IF ADVISED OF THE POSSIBILITY OF SUCH DAMAGE.
  80:Drivers/STM32F7xx_HAL_Driver/Src/stm32f7xx_hal_rcc.c ****   *
  81:Drivers/STM32F7xx_HAL_Driver/Src/stm32f7xx_hal_rcc.c ****   ******************************************************************************
  82:Drivers/STM32F7xx_HAL_Driver/Src/stm32f7xx_hal_rcc.c ****   */
  83:Drivers/STM32F7xx_HAL_Driver/Src/stm32f7xx_hal_rcc.c **** 
  84:Drivers/STM32F7xx_HAL_Driver/Src/stm32f7xx_hal_rcc.c **** /* Includes ------------------------------------------------------------------*/
  85:Drivers/STM32F7xx_HAL_Driver/Src/stm32f7xx_hal_rcc.c **** #include "stm32f7xx_hal.h"
  86:Drivers/STM32F7xx_HAL_Driver/Src/stm32f7xx_hal_rcc.c **** 
  87:Drivers/STM32F7xx_HAL_Driver/Src/stm32f7xx_hal_rcc.c **** /** @addtogroup STM32F7xx_HAL_Driver
ARM GAS  /tmp/ccNE9tpB.s 			page 3


  88:Drivers/STM32F7xx_HAL_Driver/Src/stm32f7xx_hal_rcc.c ****   * @{
  89:Drivers/STM32F7xx_HAL_Driver/Src/stm32f7xx_hal_rcc.c ****   */
  90:Drivers/STM32F7xx_HAL_Driver/Src/stm32f7xx_hal_rcc.c **** 
  91:Drivers/STM32F7xx_HAL_Driver/Src/stm32f7xx_hal_rcc.c **** /** @defgroup RCC RCC
  92:Drivers/STM32F7xx_HAL_Driver/Src/stm32f7xx_hal_rcc.c ****   * @brief RCC HAL module driver
  93:Drivers/STM32F7xx_HAL_Driver/Src/stm32f7xx_hal_rcc.c ****   * @{
  94:Drivers/STM32F7xx_HAL_Driver/Src/stm32f7xx_hal_rcc.c ****   */
  95:Drivers/STM32F7xx_HAL_Driver/Src/stm32f7xx_hal_rcc.c **** 
  96:Drivers/STM32F7xx_HAL_Driver/Src/stm32f7xx_hal_rcc.c **** #ifdef HAL_RCC_MODULE_ENABLED
  97:Drivers/STM32F7xx_HAL_Driver/Src/stm32f7xx_hal_rcc.c **** 
  98:Drivers/STM32F7xx_HAL_Driver/Src/stm32f7xx_hal_rcc.c **** /* Private typedef -----------------------------------------------------------*/
  99:Drivers/STM32F7xx_HAL_Driver/Src/stm32f7xx_hal_rcc.c **** /* Private define ------------------------------------------------------------*/
 100:Drivers/STM32F7xx_HAL_Driver/Src/stm32f7xx_hal_rcc.c **** /* Private macro -------------------------------------------------------------*/
 101:Drivers/STM32F7xx_HAL_Driver/Src/stm32f7xx_hal_rcc.c **** /** @defgroup RCC_Private_Macros RCC Private Macros
 102:Drivers/STM32F7xx_HAL_Driver/Src/stm32f7xx_hal_rcc.c ****   * @{
 103:Drivers/STM32F7xx_HAL_Driver/Src/stm32f7xx_hal_rcc.c ****   */
 104:Drivers/STM32F7xx_HAL_Driver/Src/stm32f7xx_hal_rcc.c **** 
 105:Drivers/STM32F7xx_HAL_Driver/Src/stm32f7xx_hal_rcc.c **** #define MCO1_CLK_ENABLE()   __HAL_RCC_GPIOA_CLK_ENABLE()
 106:Drivers/STM32F7xx_HAL_Driver/Src/stm32f7xx_hal_rcc.c **** #define MCO1_GPIO_PORT        GPIOA
 107:Drivers/STM32F7xx_HAL_Driver/Src/stm32f7xx_hal_rcc.c **** #define MCO1_PIN              GPIO_PIN_8
 108:Drivers/STM32F7xx_HAL_Driver/Src/stm32f7xx_hal_rcc.c **** 
 109:Drivers/STM32F7xx_HAL_Driver/Src/stm32f7xx_hal_rcc.c **** #define MCO2_CLK_ENABLE()   __HAL_RCC_GPIOC_CLK_ENABLE()
 110:Drivers/STM32F7xx_HAL_Driver/Src/stm32f7xx_hal_rcc.c **** #define MCO2_GPIO_PORT         GPIOC
 111:Drivers/STM32F7xx_HAL_Driver/Src/stm32f7xx_hal_rcc.c **** #define MCO2_PIN               GPIO_PIN_9
 112:Drivers/STM32F7xx_HAL_Driver/Src/stm32f7xx_hal_rcc.c **** 
 113:Drivers/STM32F7xx_HAL_Driver/Src/stm32f7xx_hal_rcc.c **** /**
 114:Drivers/STM32F7xx_HAL_Driver/Src/stm32f7xx_hal_rcc.c ****   * @}
 115:Drivers/STM32F7xx_HAL_Driver/Src/stm32f7xx_hal_rcc.c ****   */
 116:Drivers/STM32F7xx_HAL_Driver/Src/stm32f7xx_hal_rcc.c **** /* Private variables ---------------------------------------------------------*/
 117:Drivers/STM32F7xx_HAL_Driver/Src/stm32f7xx_hal_rcc.c **** /** @defgroup RCC_Private_Variables RCC Private Variables
 118:Drivers/STM32F7xx_HAL_Driver/Src/stm32f7xx_hal_rcc.c ****   * @{
 119:Drivers/STM32F7xx_HAL_Driver/Src/stm32f7xx_hal_rcc.c ****   */
 120:Drivers/STM32F7xx_HAL_Driver/Src/stm32f7xx_hal_rcc.c **** 
 121:Drivers/STM32F7xx_HAL_Driver/Src/stm32f7xx_hal_rcc.c **** /**
 122:Drivers/STM32F7xx_HAL_Driver/Src/stm32f7xx_hal_rcc.c ****   * @}
 123:Drivers/STM32F7xx_HAL_Driver/Src/stm32f7xx_hal_rcc.c ****   */
 124:Drivers/STM32F7xx_HAL_Driver/Src/stm32f7xx_hal_rcc.c **** 
 125:Drivers/STM32F7xx_HAL_Driver/Src/stm32f7xx_hal_rcc.c **** /* Private function prototypes -----------------------------------------------*/
 126:Drivers/STM32F7xx_HAL_Driver/Src/stm32f7xx_hal_rcc.c **** /* Exported functions ---------------------------------------------------------*/
 127:Drivers/STM32F7xx_HAL_Driver/Src/stm32f7xx_hal_rcc.c **** 
 128:Drivers/STM32F7xx_HAL_Driver/Src/stm32f7xx_hal_rcc.c **** /** @defgroup RCC_Exported_Functions RCC Exported Functions
 129:Drivers/STM32F7xx_HAL_Driver/Src/stm32f7xx_hal_rcc.c ****   * @{
 130:Drivers/STM32F7xx_HAL_Driver/Src/stm32f7xx_hal_rcc.c ****   */
 131:Drivers/STM32F7xx_HAL_Driver/Src/stm32f7xx_hal_rcc.c **** 
 132:Drivers/STM32F7xx_HAL_Driver/Src/stm32f7xx_hal_rcc.c **** /** @defgroup RCC_Exported_Functions_Group1 Initialization and de-initialization functions
 133:Drivers/STM32F7xx_HAL_Driver/Src/stm32f7xx_hal_rcc.c ****   *  @brief    Initialization and Configuration functions
 134:Drivers/STM32F7xx_HAL_Driver/Src/stm32f7xx_hal_rcc.c ****   *
 135:Drivers/STM32F7xx_HAL_Driver/Src/stm32f7xx_hal_rcc.c ****   @verbatim
 136:Drivers/STM32F7xx_HAL_Driver/Src/stm32f7xx_hal_rcc.c ****   ===============================================================================
 137:Drivers/STM32F7xx_HAL_Driver/Src/stm32f7xx_hal_rcc.c **** ##### Initialization and de-initialization functions #####
 138:Drivers/STM32F7xx_HAL_Driver/Src/stm32f7xx_hal_rcc.c ****   ===============================================================================
 139:Drivers/STM32F7xx_HAL_Driver/Src/stm32f7xx_hal_rcc.c ****     [..]
 140:Drivers/STM32F7xx_HAL_Driver/Src/stm32f7xx_hal_rcc.c ****       This section provides functions allowing to configure the internal/external oscillators
 141:Drivers/STM32F7xx_HAL_Driver/Src/stm32f7xx_hal_rcc.c ****       (HSE, HSI, LSE, LSI, PLL, CSS and MCO) and the System buses clocks (SYSCLK, AHB, APB1
 142:Drivers/STM32F7xx_HAL_Driver/Src/stm32f7xx_hal_rcc.c ****       and APB2).
 143:Drivers/STM32F7xx_HAL_Driver/Src/stm32f7xx_hal_rcc.c **** 
 144:Drivers/STM32F7xx_HAL_Driver/Src/stm32f7xx_hal_rcc.c ****     [..] Internal/external clock and PLL configuration
ARM GAS  /tmp/ccNE9tpB.s 			page 4


 145:Drivers/STM32F7xx_HAL_Driver/Src/stm32f7xx_hal_rcc.c ****       (#) HSI (high-speed internal), 16 MHz factory-trimmed RC used directly or through
 146:Drivers/STM32F7xx_HAL_Driver/Src/stm32f7xx_hal_rcc.c ****           the PLL as System clock source.
 147:Drivers/STM32F7xx_HAL_Driver/Src/stm32f7xx_hal_rcc.c **** 
 148:Drivers/STM32F7xx_HAL_Driver/Src/stm32f7xx_hal_rcc.c ****       (#) LSI (low-speed internal), 32 KHz low consumption RC used as IWDG and/or RTC
 149:Drivers/STM32F7xx_HAL_Driver/Src/stm32f7xx_hal_rcc.c ****           clock source.
 150:Drivers/STM32F7xx_HAL_Driver/Src/stm32f7xx_hal_rcc.c **** 
 151:Drivers/STM32F7xx_HAL_Driver/Src/stm32f7xx_hal_rcc.c ****       (#) HSE (high-speed external), 4 to 26 MHz crystal oscillator used directly or
 152:Drivers/STM32F7xx_HAL_Driver/Src/stm32f7xx_hal_rcc.c ****           through the PLL as System clock source. Can be used also as RTC clock source.
 153:Drivers/STM32F7xx_HAL_Driver/Src/stm32f7xx_hal_rcc.c **** 
 154:Drivers/STM32F7xx_HAL_Driver/Src/stm32f7xx_hal_rcc.c ****       (#) LSE (low-speed external), 32 KHz oscillator used as RTC clock source.
 155:Drivers/STM32F7xx_HAL_Driver/Src/stm32f7xx_hal_rcc.c **** 
 156:Drivers/STM32F7xx_HAL_Driver/Src/stm32f7xx_hal_rcc.c ****       (#) PLL (clocked by HSI or HSE), featuring two different output clocks:
 157:Drivers/STM32F7xx_HAL_Driver/Src/stm32f7xx_hal_rcc.c ****         (++) The first output is used to generate the high speed system clock (up to 216 MHz)
 158:Drivers/STM32F7xx_HAL_Driver/Src/stm32f7xx_hal_rcc.c ****         (++) The second output is used to generate the clock for the USB OTG FS (48 MHz),
 159:Drivers/STM32F7xx_HAL_Driver/Src/stm32f7xx_hal_rcc.c ****              the random analog generator (<=48 MHz) and the SDIO (<= 48 MHz).
 160:Drivers/STM32F7xx_HAL_Driver/Src/stm32f7xx_hal_rcc.c **** 
 161:Drivers/STM32F7xx_HAL_Driver/Src/stm32f7xx_hal_rcc.c ****       (#) CSS (Clock security system), once enable using the function HAL_RCC_EnableCSS()
 162:Drivers/STM32F7xx_HAL_Driver/Src/stm32f7xx_hal_rcc.c ****           and if a HSE clock failure occurs(HSE used directly or through PLL as System
 163:Drivers/STM32F7xx_HAL_Driver/Src/stm32f7xx_hal_rcc.c ****           clock source), the System clock is automatically switched to HSI and an interrupt
 164:Drivers/STM32F7xx_HAL_Driver/Src/stm32f7xx_hal_rcc.c ****           is generated if enabled. The interrupt is linked to the Cortex-M7 NMI
 165:Drivers/STM32F7xx_HAL_Driver/Src/stm32f7xx_hal_rcc.c ****           (Non-Maskable Interrupt) exception vector.
 166:Drivers/STM32F7xx_HAL_Driver/Src/stm32f7xx_hal_rcc.c **** 
 167:Drivers/STM32F7xx_HAL_Driver/Src/stm32f7xx_hal_rcc.c ****       (#) MCO1 (microcontroller clock output), used to output HSI, LSE, HSE or PLL
 168:Drivers/STM32F7xx_HAL_Driver/Src/stm32f7xx_hal_rcc.c ****           clock (through a configurable prescaler) on PA8 pin.
 169:Drivers/STM32F7xx_HAL_Driver/Src/stm32f7xx_hal_rcc.c **** 
 170:Drivers/STM32F7xx_HAL_Driver/Src/stm32f7xx_hal_rcc.c ****       (#) MCO2 (microcontroller clock output), used to output HSE, PLL, SYSCLK or PLLI2S
 171:Drivers/STM32F7xx_HAL_Driver/Src/stm32f7xx_hal_rcc.c ****           clock (through a configurable prescaler) on PC9 pin.
 172:Drivers/STM32F7xx_HAL_Driver/Src/stm32f7xx_hal_rcc.c **** 
 173:Drivers/STM32F7xx_HAL_Driver/Src/stm32f7xx_hal_rcc.c ****     [..] System, AHB and APB busses clocks configuration
 174:Drivers/STM32F7xx_HAL_Driver/Src/stm32f7xx_hal_rcc.c ****       (#) Several clock sources can be used to drive the System clock (SYSCLK): HSI,
 175:Drivers/STM32F7xx_HAL_Driver/Src/stm32f7xx_hal_rcc.c ****           HSE and PLL.
 176:Drivers/STM32F7xx_HAL_Driver/Src/stm32f7xx_hal_rcc.c ****           The AHB clock (HCLK) is derived from System clock through configurable
 177:Drivers/STM32F7xx_HAL_Driver/Src/stm32f7xx_hal_rcc.c ****           prescaler and used to clock the CPU, memory and peripherals mapped
 178:Drivers/STM32F7xx_HAL_Driver/Src/stm32f7xx_hal_rcc.c ****           on AHB bus (DMA, GPIO...). APB1 (PCLK1) and APB2 (PCLK2) clocks are derived
 179:Drivers/STM32F7xx_HAL_Driver/Src/stm32f7xx_hal_rcc.c ****           from AHB clock through configurable prescalers and used to clock
 180:Drivers/STM32F7xx_HAL_Driver/Src/stm32f7xx_hal_rcc.c ****           the peripherals mapped on these busses. You can use
 181:Drivers/STM32F7xx_HAL_Driver/Src/stm32f7xx_hal_rcc.c ****           "HAL_RCC_GetSysClockFreq()" function to retrieve the frequencies of these clocks.
 182:Drivers/STM32F7xx_HAL_Driver/Src/stm32f7xx_hal_rcc.c **** 
 183:Drivers/STM32F7xx_HAL_Driver/Src/stm32f7xx_hal_rcc.c ****       -@- All the peripheral clocks are derived from the System clock (SYSCLK) except:
 184:Drivers/STM32F7xx_HAL_Driver/Src/stm32f7xx_hal_rcc.c ****           (+@) I2S: the I2S clock can be derived either from a specific PLL (PLLI2S) or
 185:Drivers/STM32F7xx_HAL_Driver/Src/stm32f7xx_hal_rcc.c ****               from an external clock mapped on the I2S_CKIN pin.
 186:Drivers/STM32F7xx_HAL_Driver/Src/stm32f7xx_hal_rcc.c ****               You have to use __HAL_RCC_PLLI2S_CONFIG() macro to configure this clock.
 187:Drivers/STM32F7xx_HAL_Driver/Src/stm32f7xx_hal_rcc.c ****           (+@)  SAI: the SAI clock can be derived either from a specific PLL (PLLI2S) or (PLLSAI) o
 188:Drivers/STM32F7xx_HAL_Driver/Src/stm32f7xx_hal_rcc.c ****               from an external clock mapped on the I2S_CKIN pin.
 189:Drivers/STM32F7xx_HAL_Driver/Src/stm32f7xx_hal_rcc.c ****                You have to use __HAL_RCC_PLLI2S_CONFIG() macro to configure this clock.
 190:Drivers/STM32F7xx_HAL_Driver/Src/stm32f7xx_hal_rcc.c ****           (+@) RTC: the RTC clock can be derived either from the LSI, LSE or HSE clock
 191:Drivers/STM32F7xx_HAL_Driver/Src/stm32f7xx_hal_rcc.c ****               divided by 2 to 31. You have to use __HAL_RCC_RTC_CONFIG() and __HAL_RCC_RTC_ENABLE()
 192:Drivers/STM32F7xx_HAL_Driver/Src/stm32f7xx_hal_rcc.c ****               macros to configure this clock.
 193:Drivers/STM32F7xx_HAL_Driver/Src/stm32f7xx_hal_rcc.c ****           (+@) USB OTG FS, SDIO and RTC: USB OTG FS require a frequency equal to 48 MHz
 194:Drivers/STM32F7xx_HAL_Driver/Src/stm32f7xx_hal_rcc.c ****               to work correctly, while the SDIO require a frequency equal or lower than
 195:Drivers/STM32F7xx_HAL_Driver/Src/stm32f7xx_hal_rcc.c ****               to 48. This clock is derived of the main PLL through PLLQ divider.
 196:Drivers/STM32F7xx_HAL_Driver/Src/stm32f7xx_hal_rcc.c ****           (+@) IWDG clock which is always the LSI clock.
 197:Drivers/STM32F7xx_HAL_Driver/Src/stm32f7xx_hal_rcc.c **** @endverbatim
 198:Drivers/STM32F7xx_HAL_Driver/Src/stm32f7xx_hal_rcc.c ****   * @{
 199:Drivers/STM32F7xx_HAL_Driver/Src/stm32f7xx_hal_rcc.c ****   */
 200:Drivers/STM32F7xx_HAL_Driver/Src/stm32f7xx_hal_rcc.c **** 
 201:Drivers/STM32F7xx_HAL_Driver/Src/stm32f7xx_hal_rcc.c **** /**
ARM GAS  /tmp/ccNE9tpB.s 			page 5


 202:Drivers/STM32F7xx_HAL_Driver/Src/stm32f7xx_hal_rcc.c ****   * @brief  Resets the RCC clock configuration to the default reset state.
 203:Drivers/STM32F7xx_HAL_Driver/Src/stm32f7xx_hal_rcc.c ****   * @note   The default reset state of the clock configuration is given below:
 204:Drivers/STM32F7xx_HAL_Driver/Src/stm32f7xx_hal_rcc.c ****   *            - HSI ON and used as system clock source
 205:Drivers/STM32F7xx_HAL_Driver/Src/stm32f7xx_hal_rcc.c ****   *            - HSE, PLL, PLLI2S and PLLSAI OFF
 206:Drivers/STM32F7xx_HAL_Driver/Src/stm32f7xx_hal_rcc.c ****   *            - AHB, APB1 and APB2 prescaler set to 1.
 207:Drivers/STM32F7xx_HAL_Driver/Src/stm32f7xx_hal_rcc.c ****   *            - CSS, MCO1 and MCO2 OFF
 208:Drivers/STM32F7xx_HAL_Driver/Src/stm32f7xx_hal_rcc.c ****   *            - All interrupts disabled
 209:Drivers/STM32F7xx_HAL_Driver/Src/stm32f7xx_hal_rcc.c ****   * @note   This function doesn't modify the configuration of the
 210:Drivers/STM32F7xx_HAL_Driver/Src/stm32f7xx_hal_rcc.c ****   *            - Peripheral clocks
 211:Drivers/STM32F7xx_HAL_Driver/Src/stm32f7xx_hal_rcc.c ****   *            - LSI, LSE and RTC clocks
 212:Drivers/STM32F7xx_HAL_Driver/Src/stm32f7xx_hal_rcc.c ****   * @retval None
 213:Drivers/STM32F7xx_HAL_Driver/Src/stm32f7xx_hal_rcc.c ****   */
 214:Drivers/STM32F7xx_HAL_Driver/Src/stm32f7xx_hal_rcc.c **** HAL_StatusTypeDef HAL_RCC_DeInit(void)
 215:Drivers/STM32F7xx_HAL_Driver/Src/stm32f7xx_hal_rcc.c **** {
  29              		.loc 1 215 1 view -0
  30              		.cfi_startproc
  31              		@ args = 0, pretend = 0, frame = 0
  32              		@ frame_needed = 0, uses_anonymous_args = 0
  33 0000 38B5     		push	{r3, r4, r5, lr}
  34              	.LCFI0:
  35              		.cfi_def_cfa_offset 16
  36              		.cfi_offset 3, -16
  37              		.cfi_offset 4, -12
  38              		.cfi_offset 5, -8
  39              		.cfi_offset 14, -4
 216:Drivers/STM32F7xx_HAL_Driver/Src/stm32f7xx_hal_rcc.c ****   uint32_t tickstart;
  40              		.loc 1 216 3 view .LVU1
 217:Drivers/STM32F7xx_HAL_Driver/Src/stm32f7xx_hal_rcc.c **** 
 218:Drivers/STM32F7xx_HAL_Driver/Src/stm32f7xx_hal_rcc.c ****   /* Get Start Tick */
 219:Drivers/STM32F7xx_HAL_Driver/Src/stm32f7xx_hal_rcc.c ****   tickstart = HAL_GetTick();
  41              		.loc 1 219 3 view .LVU2
  42              		.loc 1 219 15 is_stmt 0 view .LVU3
  43 0002 FFF7FEFF 		bl	HAL_GetTick
  44              	.LVL0:
  45 0006 0446     		mov	r4, r0
  46              	.LVL1:
 220:Drivers/STM32F7xx_HAL_Driver/Src/stm32f7xx_hal_rcc.c **** 
 221:Drivers/STM32F7xx_HAL_Driver/Src/stm32f7xx_hal_rcc.c ****   /* Set HSION bit to the reset value */
 222:Drivers/STM32F7xx_HAL_Driver/Src/stm32f7xx_hal_rcc.c ****   SET_BIT(RCC->CR, RCC_CR_HSION);
  47              		.loc 1 222 3 is_stmt 1 view .LVU4
  48 0008 4E4A     		ldr	r2, .L28
  49 000a 1368     		ldr	r3, [r2]
  50 000c 43F00103 		orr	r3, r3, #1
  51 0010 1360     		str	r3, [r2]
 223:Drivers/STM32F7xx_HAL_Driver/Src/stm32f7xx_hal_rcc.c **** 
 224:Drivers/STM32F7xx_HAL_Driver/Src/stm32f7xx_hal_rcc.c ****   /* Wait till HSI is ready */
 225:Drivers/STM32F7xx_HAL_Driver/Src/stm32f7xx_hal_rcc.c ****   while (READ_BIT(RCC->CR, RCC_CR_HSIRDY) == RESET)
  52              		.loc 1 225 3 view .LVU5
  53              	.LVL2:
  54              	.L2:
  55              		.loc 1 225 10 is_stmt 0 view .LVU6
  56 0012 4C4B     		ldr	r3, .L28
  57 0014 1B68     		ldr	r3, [r3]
  58              		.loc 1 225 9 view .LVU7
  59 0016 13F0020F 		tst	r3, #2
  60 001a 07D1     		bne	.L22
 226:Drivers/STM32F7xx_HAL_Driver/Src/stm32f7xx_hal_rcc.c ****   {
ARM GAS  /tmp/ccNE9tpB.s 			page 6


 227:Drivers/STM32F7xx_HAL_Driver/Src/stm32f7xx_hal_rcc.c ****     if ((HAL_GetTick() - tickstart) > HSI_TIMEOUT_VALUE)
  61              		.loc 1 227 5 is_stmt 1 view .LVU8
  62              		.loc 1 227 10 is_stmt 0 view .LVU9
  63 001c FFF7FEFF 		bl	HAL_GetTick
  64              	.LVL3:
  65              		.loc 1 227 24 view .LVU10
  66 0020 001B     		subs	r0, r0, r4
  67              		.loc 1 227 8 view .LVU11
  68 0022 0228     		cmp	r0, #2
  69 0024 F5D9     		bls	.L2
 228:Drivers/STM32F7xx_HAL_Driver/Src/stm32f7xx_hal_rcc.c ****     {
 229:Drivers/STM32F7xx_HAL_Driver/Src/stm32f7xx_hal_rcc.c ****       return HAL_TIMEOUT;
  70              		.loc 1 229 14 view .LVU12
  71 0026 0323     		movs	r3, #3
  72              	.L3:
 230:Drivers/STM32F7xx_HAL_Driver/Src/stm32f7xx_hal_rcc.c ****     }
 231:Drivers/STM32F7xx_HAL_Driver/Src/stm32f7xx_hal_rcc.c ****   }
 232:Drivers/STM32F7xx_HAL_Driver/Src/stm32f7xx_hal_rcc.c **** 
 233:Drivers/STM32F7xx_HAL_Driver/Src/stm32f7xx_hal_rcc.c ****   /* Set HSITRIM[4:0] bits to the reset value */
 234:Drivers/STM32F7xx_HAL_Driver/Src/stm32f7xx_hal_rcc.c ****   SET_BIT(RCC->CR, RCC_CR_HSITRIM_4);
 235:Drivers/STM32F7xx_HAL_Driver/Src/stm32f7xx_hal_rcc.c **** 
 236:Drivers/STM32F7xx_HAL_Driver/Src/stm32f7xx_hal_rcc.c ****   /* Get Start Tick */
 237:Drivers/STM32F7xx_HAL_Driver/Src/stm32f7xx_hal_rcc.c ****   tickstart = HAL_GetTick();
 238:Drivers/STM32F7xx_HAL_Driver/Src/stm32f7xx_hal_rcc.c **** 
 239:Drivers/STM32F7xx_HAL_Driver/Src/stm32f7xx_hal_rcc.c ****   /* Reset CFGR register */
 240:Drivers/STM32F7xx_HAL_Driver/Src/stm32f7xx_hal_rcc.c ****   CLEAR_REG(RCC->CFGR);
 241:Drivers/STM32F7xx_HAL_Driver/Src/stm32f7xx_hal_rcc.c **** 
 242:Drivers/STM32F7xx_HAL_Driver/Src/stm32f7xx_hal_rcc.c ****   /* Wait till clock switch is ready */
 243:Drivers/STM32F7xx_HAL_Driver/Src/stm32f7xx_hal_rcc.c ****   while (READ_BIT(RCC->CFGR, RCC_CFGR_SWS) != RESET)
 244:Drivers/STM32F7xx_HAL_Driver/Src/stm32f7xx_hal_rcc.c ****   {
 245:Drivers/STM32F7xx_HAL_Driver/Src/stm32f7xx_hal_rcc.c ****     if ((HAL_GetTick() - tickstart) > CLOCKSWITCH_TIMEOUT_VALUE)
 246:Drivers/STM32F7xx_HAL_Driver/Src/stm32f7xx_hal_rcc.c ****     {
 247:Drivers/STM32F7xx_HAL_Driver/Src/stm32f7xx_hal_rcc.c ****       return HAL_TIMEOUT;
 248:Drivers/STM32F7xx_HAL_Driver/Src/stm32f7xx_hal_rcc.c ****     }
 249:Drivers/STM32F7xx_HAL_Driver/Src/stm32f7xx_hal_rcc.c ****   }
 250:Drivers/STM32F7xx_HAL_Driver/Src/stm32f7xx_hal_rcc.c **** 
 251:Drivers/STM32F7xx_HAL_Driver/Src/stm32f7xx_hal_rcc.c ****   /* Get Start Tick */
 252:Drivers/STM32F7xx_HAL_Driver/Src/stm32f7xx_hal_rcc.c ****   tickstart = HAL_GetTick();
 253:Drivers/STM32F7xx_HAL_Driver/Src/stm32f7xx_hal_rcc.c **** 
 254:Drivers/STM32F7xx_HAL_Driver/Src/stm32f7xx_hal_rcc.c ****   /* Clear HSEON, HSEBYP and CSSON bits */
 255:Drivers/STM32F7xx_HAL_Driver/Src/stm32f7xx_hal_rcc.c ****   CLEAR_BIT(RCC->CR, RCC_CR_HSEON | RCC_CR_HSEBYP | RCC_CR_CSSON);
 256:Drivers/STM32F7xx_HAL_Driver/Src/stm32f7xx_hal_rcc.c **** 
 257:Drivers/STM32F7xx_HAL_Driver/Src/stm32f7xx_hal_rcc.c ****   /* Wait till HSE is disabled */
 258:Drivers/STM32F7xx_HAL_Driver/Src/stm32f7xx_hal_rcc.c ****   while (READ_BIT(RCC->CR, RCC_CR_HSERDY) != RESET)
 259:Drivers/STM32F7xx_HAL_Driver/Src/stm32f7xx_hal_rcc.c ****   {
 260:Drivers/STM32F7xx_HAL_Driver/Src/stm32f7xx_hal_rcc.c ****     if ((HAL_GetTick() - tickstart) > HSE_TIMEOUT_VALUE)
 261:Drivers/STM32F7xx_HAL_Driver/Src/stm32f7xx_hal_rcc.c ****     {
 262:Drivers/STM32F7xx_HAL_Driver/Src/stm32f7xx_hal_rcc.c ****       return HAL_TIMEOUT;
 263:Drivers/STM32F7xx_HAL_Driver/Src/stm32f7xx_hal_rcc.c ****     }
 264:Drivers/STM32F7xx_HAL_Driver/Src/stm32f7xx_hal_rcc.c ****   }
 265:Drivers/STM32F7xx_HAL_Driver/Src/stm32f7xx_hal_rcc.c **** 
 266:Drivers/STM32F7xx_HAL_Driver/Src/stm32f7xx_hal_rcc.c ****   /* Get Start Tick */
 267:Drivers/STM32F7xx_HAL_Driver/Src/stm32f7xx_hal_rcc.c ****   tickstart = HAL_GetTick();
 268:Drivers/STM32F7xx_HAL_Driver/Src/stm32f7xx_hal_rcc.c **** 
 269:Drivers/STM32F7xx_HAL_Driver/Src/stm32f7xx_hal_rcc.c ****   /* Clear PLLON bit */
 270:Drivers/STM32F7xx_HAL_Driver/Src/stm32f7xx_hal_rcc.c ****   CLEAR_BIT(RCC->CR, RCC_CR_PLLON);
 271:Drivers/STM32F7xx_HAL_Driver/Src/stm32f7xx_hal_rcc.c **** 
ARM GAS  /tmp/ccNE9tpB.s 			page 7


 272:Drivers/STM32F7xx_HAL_Driver/Src/stm32f7xx_hal_rcc.c ****   /* Wait till PLL is disabled */
 273:Drivers/STM32F7xx_HAL_Driver/Src/stm32f7xx_hal_rcc.c ****   while (READ_BIT(RCC->CR, RCC_CR_PLLRDY) != RESET)
 274:Drivers/STM32F7xx_HAL_Driver/Src/stm32f7xx_hal_rcc.c ****   {
 275:Drivers/STM32F7xx_HAL_Driver/Src/stm32f7xx_hal_rcc.c ****     if ((HAL_GetTick() - tickstart) > PLL_TIMEOUT_VALUE)
 276:Drivers/STM32F7xx_HAL_Driver/Src/stm32f7xx_hal_rcc.c ****     {
 277:Drivers/STM32F7xx_HAL_Driver/Src/stm32f7xx_hal_rcc.c ****       return HAL_TIMEOUT;
 278:Drivers/STM32F7xx_HAL_Driver/Src/stm32f7xx_hal_rcc.c ****     }
 279:Drivers/STM32F7xx_HAL_Driver/Src/stm32f7xx_hal_rcc.c ****   }
 280:Drivers/STM32F7xx_HAL_Driver/Src/stm32f7xx_hal_rcc.c **** 
 281:Drivers/STM32F7xx_HAL_Driver/Src/stm32f7xx_hal_rcc.c ****   /* Get Start Tick */
 282:Drivers/STM32F7xx_HAL_Driver/Src/stm32f7xx_hal_rcc.c ****   tickstart = HAL_GetTick();
 283:Drivers/STM32F7xx_HAL_Driver/Src/stm32f7xx_hal_rcc.c **** 
 284:Drivers/STM32F7xx_HAL_Driver/Src/stm32f7xx_hal_rcc.c ****   /* Reset PLLI2SON bit */
 285:Drivers/STM32F7xx_HAL_Driver/Src/stm32f7xx_hal_rcc.c ****   CLEAR_BIT(RCC->CR, RCC_CR_PLLI2SON);
 286:Drivers/STM32F7xx_HAL_Driver/Src/stm32f7xx_hal_rcc.c **** 
 287:Drivers/STM32F7xx_HAL_Driver/Src/stm32f7xx_hal_rcc.c ****   /* Wait till PLLI2S is disabled */
 288:Drivers/STM32F7xx_HAL_Driver/Src/stm32f7xx_hal_rcc.c ****   while (READ_BIT(RCC->CR, RCC_CR_PLLI2SRDY) != RESET)
 289:Drivers/STM32F7xx_HAL_Driver/Src/stm32f7xx_hal_rcc.c ****   {
 290:Drivers/STM32F7xx_HAL_Driver/Src/stm32f7xx_hal_rcc.c ****     if ((HAL_GetTick() - tickstart) > PLLI2S_TIMEOUT_VALUE)
 291:Drivers/STM32F7xx_HAL_Driver/Src/stm32f7xx_hal_rcc.c ****     {
 292:Drivers/STM32F7xx_HAL_Driver/Src/stm32f7xx_hal_rcc.c ****       return HAL_TIMEOUT;
 293:Drivers/STM32F7xx_HAL_Driver/Src/stm32f7xx_hal_rcc.c ****     }
 294:Drivers/STM32F7xx_HAL_Driver/Src/stm32f7xx_hal_rcc.c ****   }
 295:Drivers/STM32F7xx_HAL_Driver/Src/stm32f7xx_hal_rcc.c **** 
 296:Drivers/STM32F7xx_HAL_Driver/Src/stm32f7xx_hal_rcc.c ****   /* Get Start Tick */
 297:Drivers/STM32F7xx_HAL_Driver/Src/stm32f7xx_hal_rcc.c ****   tickstart = HAL_GetTick();
 298:Drivers/STM32F7xx_HAL_Driver/Src/stm32f7xx_hal_rcc.c **** 
 299:Drivers/STM32F7xx_HAL_Driver/Src/stm32f7xx_hal_rcc.c ****   /* Reset PLLSAI bit */
 300:Drivers/STM32F7xx_HAL_Driver/Src/stm32f7xx_hal_rcc.c ****   CLEAR_BIT(RCC->CR, RCC_CR_PLLSAION);
 301:Drivers/STM32F7xx_HAL_Driver/Src/stm32f7xx_hal_rcc.c **** 
 302:Drivers/STM32F7xx_HAL_Driver/Src/stm32f7xx_hal_rcc.c ****   /* Wait till PLLSAI is disabled */
 303:Drivers/STM32F7xx_HAL_Driver/Src/stm32f7xx_hal_rcc.c ****   while (READ_BIT(RCC->CR, RCC_CR_PLLSAIRDY) != RESET)
 304:Drivers/STM32F7xx_HAL_Driver/Src/stm32f7xx_hal_rcc.c ****   {
 305:Drivers/STM32F7xx_HAL_Driver/Src/stm32f7xx_hal_rcc.c ****     if ((HAL_GetTick() - tickstart) > PLLSAI_TIMEOUT_VALUE)
 306:Drivers/STM32F7xx_HAL_Driver/Src/stm32f7xx_hal_rcc.c ****     {
 307:Drivers/STM32F7xx_HAL_Driver/Src/stm32f7xx_hal_rcc.c ****       return HAL_TIMEOUT;
 308:Drivers/STM32F7xx_HAL_Driver/Src/stm32f7xx_hal_rcc.c ****     }
 309:Drivers/STM32F7xx_HAL_Driver/Src/stm32f7xx_hal_rcc.c ****   }
 310:Drivers/STM32F7xx_HAL_Driver/Src/stm32f7xx_hal_rcc.c **** 
 311:Drivers/STM32F7xx_HAL_Driver/Src/stm32f7xx_hal_rcc.c ****   /* Once PLL, PLLI2S and PLLSAI are OFF, reset PLLCFGR register to default value */
 312:Drivers/STM32F7xx_HAL_Driver/Src/stm32f7xx_hal_rcc.c ****   RCC->PLLCFGR = RCC_PLLCFGR_PLLM_4 | RCC_PLLCFGR_PLLN_6 | RCC_PLLCFGR_PLLN_7 | RCC_PLLCFGR_PLLQ_2 
 313:Drivers/STM32F7xx_HAL_Driver/Src/stm32f7xx_hal_rcc.c **** 
 314:Drivers/STM32F7xx_HAL_Driver/Src/stm32f7xx_hal_rcc.c ****   /* Reset PLLI2SCFGR register to default value */
 315:Drivers/STM32F7xx_HAL_Driver/Src/stm32f7xx_hal_rcc.c ****   RCC->PLLI2SCFGR = RCC_PLLI2SCFGR_PLLI2SN_6 | RCC_PLLI2SCFGR_PLLI2SN_7 | RCC_PLLI2SCFGR_PLLI2SQ_2 
 316:Drivers/STM32F7xx_HAL_Driver/Src/stm32f7xx_hal_rcc.c **** 
 317:Drivers/STM32F7xx_HAL_Driver/Src/stm32f7xx_hal_rcc.c ****   /* Reset PLLSAICFGR register to default value */
 318:Drivers/STM32F7xx_HAL_Driver/Src/stm32f7xx_hal_rcc.c ****   RCC->PLLSAICFGR = RCC_PLLSAICFGR_PLLSAIN_6 | RCC_PLLSAICFGR_PLLSAIN_7 | RCC_PLLSAICFGR_PLLSAIQ_2 
 319:Drivers/STM32F7xx_HAL_Driver/Src/stm32f7xx_hal_rcc.c **** 
 320:Drivers/STM32F7xx_HAL_Driver/Src/stm32f7xx_hal_rcc.c ****   /* Disable all interrupts */
 321:Drivers/STM32F7xx_HAL_Driver/Src/stm32f7xx_hal_rcc.c ****   CLEAR_BIT(RCC->CIR, RCC_CIR_LSIRDYIE | RCC_CIR_LSERDYIE | RCC_CIR_HSIRDYIE | RCC_CIR_HSERDYIE | R
 322:Drivers/STM32F7xx_HAL_Driver/Src/stm32f7xx_hal_rcc.c **** 
 323:Drivers/STM32F7xx_HAL_Driver/Src/stm32f7xx_hal_rcc.c ****   /* Clear all interrupt flags */
 324:Drivers/STM32F7xx_HAL_Driver/Src/stm32f7xx_hal_rcc.c ****   SET_BIT(RCC->CIR, RCC_CIR_LSIRDYC | RCC_CIR_LSERDYC | RCC_CIR_HSIRDYC | RCC_CIR_HSERDYC | RCC_CIR
 325:Drivers/STM32F7xx_HAL_Driver/Src/stm32f7xx_hal_rcc.c **** 
 326:Drivers/STM32F7xx_HAL_Driver/Src/stm32f7xx_hal_rcc.c ****   /* Clear LSION bit */
 327:Drivers/STM32F7xx_HAL_Driver/Src/stm32f7xx_hal_rcc.c ****   CLEAR_BIT(RCC->CSR, RCC_CSR_LSION);
 328:Drivers/STM32F7xx_HAL_Driver/Src/stm32f7xx_hal_rcc.c **** 
ARM GAS  /tmp/ccNE9tpB.s 			page 8


 329:Drivers/STM32F7xx_HAL_Driver/Src/stm32f7xx_hal_rcc.c ****   /* Reset all CSR flags */
 330:Drivers/STM32F7xx_HAL_Driver/Src/stm32f7xx_hal_rcc.c ****   SET_BIT(RCC->CSR, RCC_CSR_RMVF);
 331:Drivers/STM32F7xx_HAL_Driver/Src/stm32f7xx_hal_rcc.c **** 
 332:Drivers/STM32F7xx_HAL_Driver/Src/stm32f7xx_hal_rcc.c ****   /* Update the SystemCoreClock global variable */
 333:Drivers/STM32F7xx_HAL_Driver/Src/stm32f7xx_hal_rcc.c ****   SystemCoreClock = HSI_VALUE;
 334:Drivers/STM32F7xx_HAL_Driver/Src/stm32f7xx_hal_rcc.c **** 
 335:Drivers/STM32F7xx_HAL_Driver/Src/stm32f7xx_hal_rcc.c ****   /* Adapt Systick interrupt period */
 336:Drivers/STM32F7xx_HAL_Driver/Src/stm32f7xx_hal_rcc.c ****   if(HAL_InitTick(TICK_INT_PRIORITY) != HAL_OK)
 337:Drivers/STM32F7xx_HAL_Driver/Src/stm32f7xx_hal_rcc.c ****   {
 338:Drivers/STM32F7xx_HAL_Driver/Src/stm32f7xx_hal_rcc.c ****     return HAL_ERROR;
 339:Drivers/STM32F7xx_HAL_Driver/Src/stm32f7xx_hal_rcc.c ****   }
 340:Drivers/STM32F7xx_HAL_Driver/Src/stm32f7xx_hal_rcc.c ****   else
 341:Drivers/STM32F7xx_HAL_Driver/Src/stm32f7xx_hal_rcc.c ****   {
 342:Drivers/STM32F7xx_HAL_Driver/Src/stm32f7xx_hal_rcc.c ****     return HAL_OK;
 343:Drivers/STM32F7xx_HAL_Driver/Src/stm32f7xx_hal_rcc.c ****   }
 344:Drivers/STM32F7xx_HAL_Driver/Src/stm32f7xx_hal_rcc.c **** }
  73              		.loc 1 344 1 view .LVU13
  74 0028 1846     		mov	r0, r3
  75 002a 38BD     		pop	{r3, r4, r5, pc}
  76              	.LVL4:
  77              	.L22:
 234:Drivers/STM32F7xx_HAL_Driver/Src/stm32f7xx_hal_rcc.c **** 
  78              		.loc 1 234 3 is_stmt 1 view .LVU14
  79 002c 454D     		ldr	r5, .L28
  80 002e 2B68     		ldr	r3, [r5]
  81 0030 43F08003 		orr	r3, r3, #128
  82 0034 2B60     		str	r3, [r5]
 237:Drivers/STM32F7xx_HAL_Driver/Src/stm32f7xx_hal_rcc.c **** 
  83              		.loc 1 237 3 view .LVU15
 237:Drivers/STM32F7xx_HAL_Driver/Src/stm32f7xx_hal_rcc.c **** 
  84              		.loc 1 237 15 is_stmt 0 view .LVU16
  85 0036 FFF7FEFF 		bl	HAL_GetTick
  86              	.LVL5:
  87 003a 0446     		mov	r4, r0
  88              	.LVL6:
 240:Drivers/STM32F7xx_HAL_Driver/Src/stm32f7xx_hal_rcc.c **** 
  89              		.loc 1 240 3 is_stmt 1 view .LVU17
  90 003c 0023     		movs	r3, #0
  91 003e AB60     		str	r3, [r5, #8]
 243:Drivers/STM32F7xx_HAL_Driver/Src/stm32f7xx_hal_rcc.c ****   {
  92              		.loc 1 243 3 view .LVU18
  93              	.LVL7:
  94              	.L5:
 243:Drivers/STM32F7xx_HAL_Driver/Src/stm32f7xx_hal_rcc.c ****   {
  95              		.loc 1 243 10 is_stmt 0 view .LVU19
  96 0040 404B     		ldr	r3, .L28
  97 0042 9B68     		ldr	r3, [r3, #8]
 243:Drivers/STM32F7xx_HAL_Driver/Src/stm32f7xx_hal_rcc.c ****   {
  98              		.loc 1 243 9 view .LVU20
  99 0044 13F00C0F 		tst	r3, #12
 100 0048 08D0     		beq	.L23
 245:Drivers/STM32F7xx_HAL_Driver/Src/stm32f7xx_hal_rcc.c ****     {
 101              		.loc 1 245 5 is_stmt 1 view .LVU21
 245:Drivers/STM32F7xx_HAL_Driver/Src/stm32f7xx_hal_rcc.c ****     {
 102              		.loc 1 245 10 is_stmt 0 view .LVU22
 103 004a FFF7FEFF 		bl	HAL_GetTick
 104              	.LVL8:
ARM GAS  /tmp/ccNE9tpB.s 			page 9


 245:Drivers/STM32F7xx_HAL_Driver/Src/stm32f7xx_hal_rcc.c ****     {
 105              		.loc 1 245 24 view .LVU23
 106 004e 001B     		subs	r0, r0, r4
 245:Drivers/STM32F7xx_HAL_Driver/Src/stm32f7xx_hal_rcc.c ****     {
 107              		.loc 1 245 8 view .LVU24
 108 0050 41F28833 		movw	r3, #5000
 109 0054 9842     		cmp	r0, r3
 110 0056 F3D9     		bls	.L5
 247:Drivers/STM32F7xx_HAL_Driver/Src/stm32f7xx_hal_rcc.c ****     }
 111              		.loc 1 247 14 view .LVU25
 112 0058 0323     		movs	r3, #3
 113 005a E5E7     		b	.L3
 114              	.L23:
 252:Drivers/STM32F7xx_HAL_Driver/Src/stm32f7xx_hal_rcc.c **** 
 115              		.loc 1 252 3 is_stmt 1 view .LVU26
 252:Drivers/STM32F7xx_HAL_Driver/Src/stm32f7xx_hal_rcc.c **** 
 116              		.loc 1 252 15 is_stmt 0 view .LVU27
 117 005c FFF7FEFF 		bl	HAL_GetTick
 118              	.LVL9:
 119 0060 0446     		mov	r4, r0
 120              	.LVL10:
 255:Drivers/STM32F7xx_HAL_Driver/Src/stm32f7xx_hal_rcc.c **** 
 121              		.loc 1 255 3 is_stmt 1 view .LVU28
 122 0062 384A     		ldr	r2, .L28
 123 0064 1368     		ldr	r3, [r2]
 124 0066 23F45023 		bic	r3, r3, #851968
 125 006a 1360     		str	r3, [r2]
 258:Drivers/STM32F7xx_HAL_Driver/Src/stm32f7xx_hal_rcc.c ****   {
 126              		.loc 1 258 3 view .LVU29
 127              	.LVL11:
 128              	.L7:
 258:Drivers/STM32F7xx_HAL_Driver/Src/stm32f7xx_hal_rcc.c ****   {
 129              		.loc 1 258 10 is_stmt 0 view .LVU30
 130 006c 354B     		ldr	r3, .L28
 131 006e 1B68     		ldr	r3, [r3]
 258:Drivers/STM32F7xx_HAL_Driver/Src/stm32f7xx_hal_rcc.c ****   {
 132              		.loc 1 258 9 view .LVU31
 133 0070 13F4003F 		tst	r3, #131072
 134 0074 06D0     		beq	.L24
 260:Drivers/STM32F7xx_HAL_Driver/Src/stm32f7xx_hal_rcc.c ****     {
 135              		.loc 1 260 5 is_stmt 1 view .LVU32
 260:Drivers/STM32F7xx_HAL_Driver/Src/stm32f7xx_hal_rcc.c ****     {
 136              		.loc 1 260 10 is_stmt 0 view .LVU33
 137 0076 FFF7FEFF 		bl	HAL_GetTick
 138              	.LVL12:
 260:Drivers/STM32F7xx_HAL_Driver/Src/stm32f7xx_hal_rcc.c ****     {
 139              		.loc 1 260 24 view .LVU34
 140 007a 001B     		subs	r0, r0, r4
 260:Drivers/STM32F7xx_HAL_Driver/Src/stm32f7xx_hal_rcc.c ****     {
 141              		.loc 1 260 8 view .LVU35
 142 007c 6428     		cmp	r0, #100
 143 007e F5D9     		bls	.L7
 262:Drivers/STM32F7xx_HAL_Driver/Src/stm32f7xx_hal_rcc.c ****     }
 144              		.loc 1 262 14 view .LVU36
 145 0080 0323     		movs	r3, #3
 146 0082 D1E7     		b	.L3
 147              	.L24:
ARM GAS  /tmp/ccNE9tpB.s 			page 10


 267:Drivers/STM32F7xx_HAL_Driver/Src/stm32f7xx_hal_rcc.c **** 
 148              		.loc 1 267 3 is_stmt 1 view .LVU37
 267:Drivers/STM32F7xx_HAL_Driver/Src/stm32f7xx_hal_rcc.c **** 
 149              		.loc 1 267 15 is_stmt 0 view .LVU38
 150 0084 FFF7FEFF 		bl	HAL_GetTick
 151              	.LVL13:
 152 0088 0446     		mov	r4, r0
 153              	.LVL14:
 270:Drivers/STM32F7xx_HAL_Driver/Src/stm32f7xx_hal_rcc.c **** 
 154              		.loc 1 270 3 is_stmt 1 view .LVU39
 155 008a 2E4A     		ldr	r2, .L28
 156 008c 1368     		ldr	r3, [r2]
 157 008e 23F08073 		bic	r3, r3, #16777216
 158 0092 1360     		str	r3, [r2]
 273:Drivers/STM32F7xx_HAL_Driver/Src/stm32f7xx_hal_rcc.c ****   {
 159              		.loc 1 273 3 view .LVU40
 160              	.LVL15:
 161              	.L9:
 273:Drivers/STM32F7xx_HAL_Driver/Src/stm32f7xx_hal_rcc.c ****   {
 162              		.loc 1 273 10 is_stmt 0 view .LVU41
 163 0094 2B4B     		ldr	r3, .L28
 164 0096 1B68     		ldr	r3, [r3]
 273:Drivers/STM32F7xx_HAL_Driver/Src/stm32f7xx_hal_rcc.c ****   {
 165              		.loc 1 273 9 view .LVU42
 166 0098 13F0007F 		tst	r3, #33554432
 167 009c 06D0     		beq	.L25
 275:Drivers/STM32F7xx_HAL_Driver/Src/stm32f7xx_hal_rcc.c ****     {
 168              		.loc 1 275 5 is_stmt 1 view .LVU43
 275:Drivers/STM32F7xx_HAL_Driver/Src/stm32f7xx_hal_rcc.c ****     {
 169              		.loc 1 275 10 is_stmt 0 view .LVU44
 170 009e FFF7FEFF 		bl	HAL_GetTick
 171              	.LVL16:
 275:Drivers/STM32F7xx_HAL_Driver/Src/stm32f7xx_hal_rcc.c ****     {
 172              		.loc 1 275 24 view .LVU45
 173 00a2 001B     		subs	r0, r0, r4
 275:Drivers/STM32F7xx_HAL_Driver/Src/stm32f7xx_hal_rcc.c ****     {
 174              		.loc 1 275 8 view .LVU46
 175 00a4 0228     		cmp	r0, #2
 176 00a6 F5D9     		bls	.L9
 277:Drivers/STM32F7xx_HAL_Driver/Src/stm32f7xx_hal_rcc.c ****     }
 177              		.loc 1 277 14 view .LVU47
 178 00a8 0323     		movs	r3, #3
 179 00aa BDE7     		b	.L3
 180              	.L25:
 282:Drivers/STM32F7xx_HAL_Driver/Src/stm32f7xx_hal_rcc.c **** 
 181              		.loc 1 282 3 is_stmt 1 view .LVU48
 282:Drivers/STM32F7xx_HAL_Driver/Src/stm32f7xx_hal_rcc.c **** 
 182              		.loc 1 282 15 is_stmt 0 view .LVU49
 183 00ac FFF7FEFF 		bl	HAL_GetTick
 184              	.LVL17:
 185 00b0 0446     		mov	r4, r0
 186              	.LVL18:
 285:Drivers/STM32F7xx_HAL_Driver/Src/stm32f7xx_hal_rcc.c **** 
 187              		.loc 1 285 3 is_stmt 1 view .LVU50
 188 00b2 244A     		ldr	r2, .L28
 189 00b4 1368     		ldr	r3, [r2]
 190 00b6 23F08063 		bic	r3, r3, #67108864
ARM GAS  /tmp/ccNE9tpB.s 			page 11


 191 00ba 1360     		str	r3, [r2]
 288:Drivers/STM32F7xx_HAL_Driver/Src/stm32f7xx_hal_rcc.c ****   {
 192              		.loc 1 288 3 view .LVU51
 193              	.LVL19:
 194              	.L11:
 288:Drivers/STM32F7xx_HAL_Driver/Src/stm32f7xx_hal_rcc.c ****   {
 195              		.loc 1 288 10 is_stmt 0 view .LVU52
 196 00bc 214B     		ldr	r3, .L28
 197 00be 1B68     		ldr	r3, [r3]
 288:Drivers/STM32F7xx_HAL_Driver/Src/stm32f7xx_hal_rcc.c ****   {
 198              		.loc 1 288 9 view .LVU53
 199 00c0 13F0006F 		tst	r3, #134217728
 200 00c4 06D0     		beq	.L26
 290:Drivers/STM32F7xx_HAL_Driver/Src/stm32f7xx_hal_rcc.c ****     {
 201              		.loc 1 290 5 is_stmt 1 view .LVU54
 290:Drivers/STM32F7xx_HAL_Driver/Src/stm32f7xx_hal_rcc.c ****     {
 202              		.loc 1 290 10 is_stmt 0 view .LVU55
 203 00c6 FFF7FEFF 		bl	HAL_GetTick
 204              	.LVL20:
 290:Drivers/STM32F7xx_HAL_Driver/Src/stm32f7xx_hal_rcc.c ****     {
 205              		.loc 1 290 24 view .LVU56
 206 00ca 001B     		subs	r0, r0, r4
 290:Drivers/STM32F7xx_HAL_Driver/Src/stm32f7xx_hal_rcc.c ****     {
 207              		.loc 1 290 8 view .LVU57
 208 00cc 6428     		cmp	r0, #100
 209 00ce F5D9     		bls	.L11
 292:Drivers/STM32F7xx_HAL_Driver/Src/stm32f7xx_hal_rcc.c ****     }
 210              		.loc 1 292 14 view .LVU58
 211 00d0 0323     		movs	r3, #3
 212 00d2 A9E7     		b	.L3
 213              	.L26:
 297:Drivers/STM32F7xx_HAL_Driver/Src/stm32f7xx_hal_rcc.c **** 
 214              		.loc 1 297 3 is_stmt 1 view .LVU59
 297:Drivers/STM32F7xx_HAL_Driver/Src/stm32f7xx_hal_rcc.c **** 
 215              		.loc 1 297 15 is_stmt 0 view .LVU60
 216 00d4 FFF7FEFF 		bl	HAL_GetTick
 217              	.LVL21:
 218 00d8 0446     		mov	r4, r0
 219              	.LVL22:
 300:Drivers/STM32F7xx_HAL_Driver/Src/stm32f7xx_hal_rcc.c **** 
 220              		.loc 1 300 3 is_stmt 1 view .LVU61
 221 00da 1A4A     		ldr	r2, .L28
 222 00dc 1368     		ldr	r3, [r2]
 223 00de 23F08053 		bic	r3, r3, #268435456
 224 00e2 1360     		str	r3, [r2]
 303:Drivers/STM32F7xx_HAL_Driver/Src/stm32f7xx_hal_rcc.c ****   {
 225              		.loc 1 303 3 view .LVU62
 226              	.LVL23:
 227              	.L13:
 303:Drivers/STM32F7xx_HAL_Driver/Src/stm32f7xx_hal_rcc.c ****   {
 228              		.loc 1 303 10 is_stmt 0 view .LVU63
 229 00e4 174B     		ldr	r3, .L28
 230 00e6 1B68     		ldr	r3, [r3]
 303:Drivers/STM32F7xx_HAL_Driver/Src/stm32f7xx_hal_rcc.c ****   {
 231              		.loc 1 303 9 view .LVU64
 232 00e8 13F0005F 		tst	r3, #536870912
 233 00ec 06D0     		beq	.L27
ARM GAS  /tmp/ccNE9tpB.s 			page 12


 305:Drivers/STM32F7xx_HAL_Driver/Src/stm32f7xx_hal_rcc.c ****     {
 234              		.loc 1 305 5 is_stmt 1 view .LVU65
 305:Drivers/STM32F7xx_HAL_Driver/Src/stm32f7xx_hal_rcc.c ****     {
 235              		.loc 1 305 10 is_stmt 0 view .LVU66
 236 00ee FFF7FEFF 		bl	HAL_GetTick
 237              	.LVL24:
 305:Drivers/STM32F7xx_HAL_Driver/Src/stm32f7xx_hal_rcc.c ****     {
 238              		.loc 1 305 24 view .LVU67
 239 00f2 001B     		subs	r0, r0, r4
 305:Drivers/STM32F7xx_HAL_Driver/Src/stm32f7xx_hal_rcc.c ****     {
 240              		.loc 1 305 8 view .LVU68
 241 00f4 6428     		cmp	r0, #100
 242 00f6 F5D9     		bls	.L13
 307:Drivers/STM32F7xx_HAL_Driver/Src/stm32f7xx_hal_rcc.c ****     }
 243              		.loc 1 307 14 view .LVU69
 244 00f8 0323     		movs	r3, #3
 245 00fa 95E7     		b	.L3
 246              	.L27:
 312:Drivers/STM32F7xx_HAL_Driver/Src/stm32f7xx_hal_rcc.c **** 
 247              		.loc 1 312 3 is_stmt 1 view .LVU70
 312:Drivers/STM32F7xx_HAL_Driver/Src/stm32f7xx_hal_rcc.c **** 
 248              		.loc 1 312 16 is_stmt 0 view .LVU71
 249 00fc 114B     		ldr	r3, .L28
 250 00fe 124A     		ldr	r2, .L28+4
 251 0100 5A60     		str	r2, [r3, #4]
 315:Drivers/STM32F7xx_HAL_Driver/Src/stm32f7xx_hal_rcc.c **** 
 252              		.loc 1 315 3 is_stmt 1 view .LVU72
 315:Drivers/STM32F7xx_HAL_Driver/Src/stm32f7xx_hal_rcc.c **** 
 253              		.loc 1 315 19 is_stmt 0 view .LVU73
 254 0102 103A     		subs	r2, r2, #16
 255 0104 C3F88420 		str	r2, [r3, #132]
 318:Drivers/STM32F7xx_HAL_Driver/Src/stm32f7xx_hal_rcc.c **** 
 256              		.loc 1 318 3 is_stmt 1 view .LVU74
 318:Drivers/STM32F7xx_HAL_Driver/Src/stm32f7xx_hal_rcc.c **** 
 257              		.loc 1 318 19 is_stmt 0 view .LVU75
 258 0108 C3F88820 		str	r2, [r3, #136]
 321:Drivers/STM32F7xx_HAL_Driver/Src/stm32f7xx_hal_rcc.c **** 
 259              		.loc 1 321 3 is_stmt 1 view .LVU76
 260 010c DA68     		ldr	r2, [r3, #12]
 261 010e 22F4FE42 		bic	r2, r2, #32512
 262 0112 DA60     		str	r2, [r3, #12]
 324:Drivers/STM32F7xx_HAL_Driver/Src/stm32f7xx_hal_rcc.c **** 
 263              		.loc 1 324 3 view .LVU77
 264 0114 DA68     		ldr	r2, [r3, #12]
 265 0116 42F47F02 		orr	r2, r2, #16711680
 266 011a DA60     		str	r2, [r3, #12]
 327:Drivers/STM32F7xx_HAL_Driver/Src/stm32f7xx_hal_rcc.c **** 
 267              		.loc 1 327 3 view .LVU78
 268 011c 5A6F     		ldr	r2, [r3, #116]
 269 011e 22F00102 		bic	r2, r2, #1
 270 0122 5A67     		str	r2, [r3, #116]
 330:Drivers/STM32F7xx_HAL_Driver/Src/stm32f7xx_hal_rcc.c **** 
 271              		.loc 1 330 3 view .LVU79
 272 0124 5A6F     		ldr	r2, [r3, #116]
 273 0126 42F08072 		orr	r2, r2, #16777216
 274 012a 5A67     		str	r2, [r3, #116]
 333:Drivers/STM32F7xx_HAL_Driver/Src/stm32f7xx_hal_rcc.c **** 
ARM GAS  /tmp/ccNE9tpB.s 			page 13


 275              		.loc 1 333 3 view .LVU80
 333:Drivers/STM32F7xx_HAL_Driver/Src/stm32f7xx_hal_rcc.c **** 
 276              		.loc 1 333 19 is_stmt 0 view .LVU81
 277 012c 074B     		ldr	r3, .L28+8
 278 012e 084A     		ldr	r2, .L28+12
 279 0130 1A60     		str	r2, [r3]
 336:Drivers/STM32F7xx_HAL_Driver/Src/stm32f7xx_hal_rcc.c ****   {
 280              		.loc 1 336 3 is_stmt 1 view .LVU82
 336:Drivers/STM32F7xx_HAL_Driver/Src/stm32f7xx_hal_rcc.c ****   {
 281              		.loc 1 336 6 is_stmt 0 view .LVU83
 282 0132 0020     		movs	r0, #0
 283 0134 FFF7FEFF 		bl	HAL_InitTick
 284              	.LVL25:
 336:Drivers/STM32F7xx_HAL_Driver/Src/stm32f7xx_hal_rcc.c ****   {
 285              		.loc 1 336 5 view .LVU84
 286 0138 0346     		mov	r3, r0
 287 013a 0028     		cmp	r0, #0
 288 013c 3FF474AF 		beq	.L3
 338:Drivers/STM32F7xx_HAL_Driver/Src/stm32f7xx_hal_rcc.c ****   }
 289              		.loc 1 338 12 view .LVU85
 290 0140 0123     		movs	r3, #1
 291 0142 71E7     		b	.L3
 292              	.L29:
 293              		.align	2
 294              	.L28:
 295 0144 00380240 		.word	1073887232
 296 0148 10300024 		.word	603992080
 297 014c 00000000 		.word	SystemCoreClock
 298 0150 0024F400 		.word	16000000
 299              		.cfi_endproc
 300              	.LFE138:
 302              		.section	.text.HAL_RCC_OscConfig,"ax",%progbits
 303              		.align	1
 304              		.global	HAL_RCC_OscConfig
 305              		.syntax unified
 306              		.thumb
 307              		.thumb_func
 308              		.fpu fpv5-sp-d16
 310              	HAL_RCC_OscConfig:
 311              	.LVL26:
 312              	.LFB139:
 345:Drivers/STM32F7xx_HAL_Driver/Src/stm32f7xx_hal_rcc.c **** 
 346:Drivers/STM32F7xx_HAL_Driver/Src/stm32f7xx_hal_rcc.c **** /**
 347:Drivers/STM32F7xx_HAL_Driver/Src/stm32f7xx_hal_rcc.c ****   * @brief  Initializes the RCC Oscillators according to the specified parameters in the
 348:Drivers/STM32F7xx_HAL_Driver/Src/stm32f7xx_hal_rcc.c ****   *         RCC_OscInitTypeDef.
 349:Drivers/STM32F7xx_HAL_Driver/Src/stm32f7xx_hal_rcc.c ****   * @param  RCC_OscInitStruct pointer to an RCC_OscInitTypeDef structure that
 350:Drivers/STM32F7xx_HAL_Driver/Src/stm32f7xx_hal_rcc.c ****   *         contains the configuration information for the RCC Oscillators.
 351:Drivers/STM32F7xx_HAL_Driver/Src/stm32f7xx_hal_rcc.c ****   * @note   The PLL is not disabled when used as system clock.
 352:Drivers/STM32F7xx_HAL_Driver/Src/stm32f7xx_hal_rcc.c ****   * @note   Transitions LSE Bypass to LSE On and LSE On to LSE Bypass are not
 353:Drivers/STM32F7xx_HAL_Driver/Src/stm32f7xx_hal_rcc.c ****   *         supported by this function. User should request a transition to LSE Off
 354:Drivers/STM32F7xx_HAL_Driver/Src/stm32f7xx_hal_rcc.c ****   *         first and then LSE On or LSE Bypass.
 355:Drivers/STM32F7xx_HAL_Driver/Src/stm32f7xx_hal_rcc.c ****   * @note   Transition HSE Bypass to HSE On and HSE On to HSE Bypass are not
 356:Drivers/STM32F7xx_HAL_Driver/Src/stm32f7xx_hal_rcc.c ****   *         supported by this function. User should request a transition to HSE Off
 357:Drivers/STM32F7xx_HAL_Driver/Src/stm32f7xx_hal_rcc.c ****   *         first and then HSE On or HSE Bypass.
 358:Drivers/STM32F7xx_HAL_Driver/Src/stm32f7xx_hal_rcc.c ****   * @retval HAL status
 359:Drivers/STM32F7xx_HAL_Driver/Src/stm32f7xx_hal_rcc.c ****   */
 360:Drivers/STM32F7xx_HAL_Driver/Src/stm32f7xx_hal_rcc.c **** HAL_StatusTypeDef HAL_RCC_OscConfig(RCC_OscInitTypeDef  *RCC_OscInitStruct)
ARM GAS  /tmp/ccNE9tpB.s 			page 14


 361:Drivers/STM32F7xx_HAL_Driver/Src/stm32f7xx_hal_rcc.c **** {
 313              		.loc 1 361 1 is_stmt 1 view -0
 314              		.cfi_startproc
 315              		@ args = 0, pretend = 0, frame = 8
 316              		@ frame_needed = 0, uses_anonymous_args = 0
 362:Drivers/STM32F7xx_HAL_Driver/Src/stm32f7xx_hal_rcc.c ****   uint32_t tickstart;
 317              		.loc 1 362 3 view .LVU87
 363:Drivers/STM32F7xx_HAL_Driver/Src/stm32f7xx_hal_rcc.c ****   FlagStatus pwrclkchanged = RESET;
 318              		.loc 1 363 3 view .LVU88
 364:Drivers/STM32F7xx_HAL_Driver/Src/stm32f7xx_hal_rcc.c **** 
 365:Drivers/STM32F7xx_HAL_Driver/Src/stm32f7xx_hal_rcc.c ****   /* Check Null pointer */
 366:Drivers/STM32F7xx_HAL_Driver/Src/stm32f7xx_hal_rcc.c ****   if(RCC_OscInitStruct == NULL)
 319              		.loc 1 366 3 view .LVU89
 320              		.loc 1 366 5 is_stmt 0 view .LVU90
 321 0000 0028     		cmp	r0, #0
 322 0002 00F0D981 		beq	.L81
 361:Drivers/STM32F7xx_HAL_Driver/Src/stm32f7xx_hal_rcc.c ****   uint32_t tickstart;
 323              		.loc 1 361 1 view .LVU91
 324 0006 70B5     		push	{r4, r5, r6, lr}
 325              	.LCFI1:
 326              		.cfi_def_cfa_offset 16
 327              		.cfi_offset 4, -16
 328              		.cfi_offset 5, -12
 329              		.cfi_offset 6, -8
 330              		.cfi_offset 14, -4
 331 0008 82B0     		sub	sp, sp, #8
 332              	.LCFI2:
 333              		.cfi_def_cfa_offset 24
 334 000a 0446     		mov	r4, r0
 367:Drivers/STM32F7xx_HAL_Driver/Src/stm32f7xx_hal_rcc.c ****   {
 368:Drivers/STM32F7xx_HAL_Driver/Src/stm32f7xx_hal_rcc.c ****     return HAL_ERROR;
 369:Drivers/STM32F7xx_HAL_Driver/Src/stm32f7xx_hal_rcc.c ****   }
 370:Drivers/STM32F7xx_HAL_Driver/Src/stm32f7xx_hal_rcc.c **** 
 371:Drivers/STM32F7xx_HAL_Driver/Src/stm32f7xx_hal_rcc.c ****   /* Check the parameters */
 372:Drivers/STM32F7xx_HAL_Driver/Src/stm32f7xx_hal_rcc.c ****   assert_param(IS_RCC_OSCILLATORTYPE(RCC_OscInitStruct->OscillatorType));
 335              		.loc 1 372 3 is_stmt 1 view .LVU92
 373:Drivers/STM32F7xx_HAL_Driver/Src/stm32f7xx_hal_rcc.c **** 
 374:Drivers/STM32F7xx_HAL_Driver/Src/stm32f7xx_hal_rcc.c ****   /*------------------------------- HSE Configuration ------------------------*/
 375:Drivers/STM32F7xx_HAL_Driver/Src/stm32f7xx_hal_rcc.c ****   if(((RCC_OscInitStruct->OscillatorType) & RCC_OSCILLATORTYPE_HSE) == RCC_OSCILLATORTYPE_HSE)
 336              		.loc 1 375 3 view .LVU93
 337              		.loc 1 375 25 is_stmt 0 view .LVU94
 338 000c 0368     		ldr	r3, [r0]
 339              		.loc 1 375 5 view .LVU95
 340 000e 13F0010F 		tst	r3, #1
 341 0012 29D0     		beq	.L32
 376:Drivers/STM32F7xx_HAL_Driver/Src/stm32f7xx_hal_rcc.c ****   {
 377:Drivers/STM32F7xx_HAL_Driver/Src/stm32f7xx_hal_rcc.c ****     /* Check the parameters */
 378:Drivers/STM32F7xx_HAL_Driver/Src/stm32f7xx_hal_rcc.c ****     assert_param(IS_RCC_HSE(RCC_OscInitStruct->HSEState));
 342              		.loc 1 378 5 is_stmt 1 view .LVU96
 379:Drivers/STM32F7xx_HAL_Driver/Src/stm32f7xx_hal_rcc.c ****     /* When the HSE is used as system clock or clock source for PLL, It can not be disabled */
 380:Drivers/STM32F7xx_HAL_Driver/Src/stm32f7xx_hal_rcc.c ****     if((__HAL_RCC_GET_SYSCLK_SOURCE() == RCC_SYSCLKSOURCE_STATUS_HSE)
 343              		.loc 1 380 5 view .LVU97
 344              		.loc 1 380 9 is_stmt 0 view .LVU98
 345 0014 A74B     		ldr	r3, .L117
 346 0016 9B68     		ldr	r3, [r3, #8]
 347 0018 03F00C03 		and	r3, r3, #12
 348              		.loc 1 380 7 view .LVU99
ARM GAS  /tmp/ccNE9tpB.s 			page 15


 349 001c 042B     		cmp	r3, #4
 350 001e 1AD0     		beq	.L33
 381:Drivers/STM32F7xx_HAL_Driver/Src/stm32f7xx_hal_rcc.c ****        || ((__HAL_RCC_GET_SYSCLK_SOURCE() == RCC_SYSCLKSOURCE_STATUS_PLLCLK) && ((RCC->PLLCFGR & RC
 351              		.loc 1 381 13 view .LVU100
 352 0020 A44B     		ldr	r3, .L117
 353 0022 9B68     		ldr	r3, [r3, #8]
 354 0024 03F00C03 		and	r3, r3, #12
 355              		.loc 1 381 8 view .LVU101
 356 0028 082B     		cmp	r3, #8
 357 002a 0FD0     		beq	.L103
 358              	.L34:
 382:Drivers/STM32F7xx_HAL_Driver/Src/stm32f7xx_hal_rcc.c ****     {
 383:Drivers/STM32F7xx_HAL_Driver/Src/stm32f7xx_hal_rcc.c ****       if((__HAL_RCC_GET_FLAG(RCC_FLAG_HSERDY) != RESET) && (RCC_OscInitStruct->HSEState == RCC_HSE_
 384:Drivers/STM32F7xx_HAL_Driver/Src/stm32f7xx_hal_rcc.c ****       {
 385:Drivers/STM32F7xx_HAL_Driver/Src/stm32f7xx_hal_rcc.c ****         return HAL_ERROR;
 386:Drivers/STM32F7xx_HAL_Driver/Src/stm32f7xx_hal_rcc.c ****       }
 387:Drivers/STM32F7xx_HAL_Driver/Src/stm32f7xx_hal_rcc.c ****     }
 388:Drivers/STM32F7xx_HAL_Driver/Src/stm32f7xx_hal_rcc.c ****     else
 389:Drivers/STM32F7xx_HAL_Driver/Src/stm32f7xx_hal_rcc.c ****     {
 390:Drivers/STM32F7xx_HAL_Driver/Src/stm32f7xx_hal_rcc.c ****       /* Set the new HSE configuration ---------------------------------------*/
 391:Drivers/STM32F7xx_HAL_Driver/Src/stm32f7xx_hal_rcc.c ****       __HAL_RCC_HSE_CONFIG(RCC_OscInitStruct->HSEState);
 359              		.loc 1 391 7 is_stmt 1 view .LVU102
 360              		.loc 1 391 7 view .LVU103
 361 002c 6368     		ldr	r3, [r4, #4]
 362 002e B3F5803F 		cmp	r3, #65536
 363 0032 40D0     		beq	.L104
 364              		.loc 1 391 7 discriminator 2 view .LVU104
 365 0034 002B     		cmp	r3, #0
 366 0036 54D1     		bne	.L37
 367              		.loc 1 391 7 discriminator 3 view .LVU105
 368 0038 9E4B     		ldr	r3, .L117
 369 003a 1A68     		ldr	r2, [r3]
 370 003c 22F48032 		bic	r2, r2, #65536
 371 0040 1A60     		str	r2, [r3]
 372              		.loc 1 391 7 discriminator 3 view .LVU106
 373 0042 1A68     		ldr	r2, [r3]
 374 0044 22F48022 		bic	r2, r2, #262144
 375 0048 1A60     		str	r2, [r3]
 376 004a 39E0     		b	.L36
 377              	.L103:
 381:Drivers/STM32F7xx_HAL_Driver/Src/stm32f7xx_hal_rcc.c ****        || ((__HAL_RCC_GET_SYSCLK_SOURCE() == RCC_SYSCLKSOURCE_STATUS_PLLCLK) && ((RCC->PLLCFGR & RC
 378              		.loc 1 381 86 is_stmt 0 discriminator 1 view .LVU107
 379 004c 994B     		ldr	r3, .L117
 380 004e 5B68     		ldr	r3, [r3, #4]
 381:Drivers/STM32F7xx_HAL_Driver/Src/stm32f7xx_hal_rcc.c ****        || ((__HAL_RCC_GET_SYSCLK_SOURCE() == RCC_SYSCLKSOURCE_STATUS_PLLCLK) && ((RCC->PLLCFGR & RC
 381              		.loc 1 381 78 discriminator 1 view .LVU108
 382 0050 13F4800F 		tst	r3, #4194304
 383 0054 EAD0     		beq	.L34
 384              	.L33:
 383:Drivers/STM32F7xx_HAL_Driver/Src/stm32f7xx_hal_rcc.c ****       {
 385              		.loc 1 383 7 is_stmt 1 view .LVU109
 383:Drivers/STM32F7xx_HAL_Driver/Src/stm32f7xx_hal_rcc.c ****       {
 386              		.loc 1 383 11 is_stmt 0 view .LVU110
 387 0056 974B     		ldr	r3, .L117
 388 0058 1B68     		ldr	r3, [r3]
 383:Drivers/STM32F7xx_HAL_Driver/Src/stm32f7xx_hal_rcc.c ****       {
 389              		.loc 1 383 9 view .LVU111
ARM GAS  /tmp/ccNE9tpB.s 			page 16


 390 005a 13F4003F 		tst	r3, #131072
 391 005e 03D0     		beq	.L32
 383:Drivers/STM32F7xx_HAL_Driver/Src/stm32f7xx_hal_rcc.c ****       {
 392              		.loc 1 383 78 discriminator 1 view .LVU112
 393 0060 6368     		ldr	r3, [r4, #4]
 383:Drivers/STM32F7xx_HAL_Driver/Src/stm32f7xx_hal_rcc.c ****       {
 394              		.loc 1 383 57 discriminator 1 view .LVU113
 395 0062 002B     		cmp	r3, #0
 396 0064 00F0AA81 		beq	.L105
 397              	.LVL27:
 398              	.L32:
 392:Drivers/STM32F7xx_HAL_Driver/Src/stm32f7xx_hal_rcc.c **** 
 393:Drivers/STM32F7xx_HAL_Driver/Src/stm32f7xx_hal_rcc.c ****       /* Check the HSE State */
 394:Drivers/STM32F7xx_HAL_Driver/Src/stm32f7xx_hal_rcc.c ****       if(RCC_OscInitStruct->HSEState != RCC_HSE_OFF)
 395:Drivers/STM32F7xx_HAL_Driver/Src/stm32f7xx_hal_rcc.c ****       {
 396:Drivers/STM32F7xx_HAL_Driver/Src/stm32f7xx_hal_rcc.c ****         /* Get Start Tick*/
 397:Drivers/STM32F7xx_HAL_Driver/Src/stm32f7xx_hal_rcc.c ****         tickstart = HAL_GetTick();
 398:Drivers/STM32F7xx_HAL_Driver/Src/stm32f7xx_hal_rcc.c **** 
 399:Drivers/STM32F7xx_HAL_Driver/Src/stm32f7xx_hal_rcc.c ****         /* Wait till HSE is ready */
 400:Drivers/STM32F7xx_HAL_Driver/Src/stm32f7xx_hal_rcc.c ****         while(__HAL_RCC_GET_FLAG(RCC_FLAG_HSERDY) == RESET)
 401:Drivers/STM32F7xx_HAL_Driver/Src/stm32f7xx_hal_rcc.c ****         {
 402:Drivers/STM32F7xx_HAL_Driver/Src/stm32f7xx_hal_rcc.c ****           if((HAL_GetTick() - tickstart ) > HSE_TIMEOUT_VALUE)
 403:Drivers/STM32F7xx_HAL_Driver/Src/stm32f7xx_hal_rcc.c ****           {
 404:Drivers/STM32F7xx_HAL_Driver/Src/stm32f7xx_hal_rcc.c ****             return HAL_TIMEOUT;
 405:Drivers/STM32F7xx_HAL_Driver/Src/stm32f7xx_hal_rcc.c ****           }
 406:Drivers/STM32F7xx_HAL_Driver/Src/stm32f7xx_hal_rcc.c ****         }
 407:Drivers/STM32F7xx_HAL_Driver/Src/stm32f7xx_hal_rcc.c ****       }
 408:Drivers/STM32F7xx_HAL_Driver/Src/stm32f7xx_hal_rcc.c ****       else
 409:Drivers/STM32F7xx_HAL_Driver/Src/stm32f7xx_hal_rcc.c ****       {
 410:Drivers/STM32F7xx_HAL_Driver/Src/stm32f7xx_hal_rcc.c ****         /* Get Start Tick*/
 411:Drivers/STM32F7xx_HAL_Driver/Src/stm32f7xx_hal_rcc.c ****         tickstart = HAL_GetTick();
 412:Drivers/STM32F7xx_HAL_Driver/Src/stm32f7xx_hal_rcc.c **** 
 413:Drivers/STM32F7xx_HAL_Driver/Src/stm32f7xx_hal_rcc.c ****         /* Wait till HSE is bypassed or disabled */
 414:Drivers/STM32F7xx_HAL_Driver/Src/stm32f7xx_hal_rcc.c ****         while(__HAL_RCC_GET_FLAG(RCC_FLAG_HSERDY) != RESET)
 415:Drivers/STM32F7xx_HAL_Driver/Src/stm32f7xx_hal_rcc.c ****         {
 416:Drivers/STM32F7xx_HAL_Driver/Src/stm32f7xx_hal_rcc.c ****            if((HAL_GetTick() - tickstart ) > HSE_TIMEOUT_VALUE)
 417:Drivers/STM32F7xx_HAL_Driver/Src/stm32f7xx_hal_rcc.c ****           {
 418:Drivers/STM32F7xx_HAL_Driver/Src/stm32f7xx_hal_rcc.c ****             return HAL_TIMEOUT;
 419:Drivers/STM32F7xx_HAL_Driver/Src/stm32f7xx_hal_rcc.c ****           }
 420:Drivers/STM32F7xx_HAL_Driver/Src/stm32f7xx_hal_rcc.c ****         }
 421:Drivers/STM32F7xx_HAL_Driver/Src/stm32f7xx_hal_rcc.c ****       }
 422:Drivers/STM32F7xx_HAL_Driver/Src/stm32f7xx_hal_rcc.c ****     }
 423:Drivers/STM32F7xx_HAL_Driver/Src/stm32f7xx_hal_rcc.c ****   }
 424:Drivers/STM32F7xx_HAL_Driver/Src/stm32f7xx_hal_rcc.c ****   /*----------------------------- HSI Configuration --------------------------*/
 425:Drivers/STM32F7xx_HAL_Driver/Src/stm32f7xx_hal_rcc.c ****   if(((RCC_OscInitStruct->OscillatorType) & RCC_OSCILLATORTYPE_HSI) == RCC_OSCILLATORTYPE_HSI)
 399              		.loc 1 425 3 is_stmt 1 view .LVU114
 400              		.loc 1 425 25 is_stmt 0 view .LVU115
 401 0068 2368     		ldr	r3, [r4]
 402              		.loc 1 425 5 view .LVU116
 403 006a 13F0020F 		tst	r3, #2
 404 006e 74D0     		beq	.L44
 426:Drivers/STM32F7xx_HAL_Driver/Src/stm32f7xx_hal_rcc.c ****   {
 427:Drivers/STM32F7xx_HAL_Driver/Src/stm32f7xx_hal_rcc.c ****     /* Check the parameters */
 428:Drivers/STM32F7xx_HAL_Driver/Src/stm32f7xx_hal_rcc.c ****     assert_param(IS_RCC_HSI(RCC_OscInitStruct->HSIState));
 405              		.loc 1 428 5 is_stmt 1 view .LVU117
 429:Drivers/STM32F7xx_HAL_Driver/Src/stm32f7xx_hal_rcc.c ****     assert_param(IS_RCC_CALIBRATION_VALUE(RCC_OscInitStruct->HSICalibrationValue));
 406              		.loc 1 429 5 view .LVU118
ARM GAS  /tmp/ccNE9tpB.s 			page 17


 430:Drivers/STM32F7xx_HAL_Driver/Src/stm32f7xx_hal_rcc.c **** 
 431:Drivers/STM32F7xx_HAL_Driver/Src/stm32f7xx_hal_rcc.c ****     /* Check if HSI is used as system clock or as PLL source when PLL is selected as system clock *
 432:Drivers/STM32F7xx_HAL_Driver/Src/stm32f7xx_hal_rcc.c ****     if((__HAL_RCC_GET_SYSCLK_SOURCE() == RCC_SYSCLKSOURCE_STATUS_HSI)
 407              		.loc 1 432 5 view .LVU119
 408              		.loc 1 432 9 is_stmt 0 view .LVU120
 409 0070 904B     		ldr	r3, .L117
 410 0072 9B68     		ldr	r3, [r3, #8]
 411              		.loc 1 432 7 view .LVU121
 412 0074 13F00C0F 		tst	r3, #12
 413 0078 5ED0     		beq	.L45
 433:Drivers/STM32F7xx_HAL_Driver/Src/stm32f7xx_hal_rcc.c ****        || ((__HAL_RCC_GET_SYSCLK_SOURCE() == RCC_SYSCLKSOURCE_STATUS_PLLCLK) && ((RCC->PLLCFGR & RC
 414              		.loc 1 433 13 view .LVU122
 415 007a 8E4B     		ldr	r3, .L117
 416 007c 9B68     		ldr	r3, [r3, #8]
 417 007e 03F00C03 		and	r3, r3, #12
 418              		.loc 1 433 8 view .LVU123
 419 0082 082B     		cmp	r3, #8
 420 0084 53D0     		beq	.L106
 421              	.L46:
 434:Drivers/STM32F7xx_HAL_Driver/Src/stm32f7xx_hal_rcc.c ****     {
 435:Drivers/STM32F7xx_HAL_Driver/Src/stm32f7xx_hal_rcc.c ****       /* When HSI is used as system clock it will not disabled */
 436:Drivers/STM32F7xx_HAL_Driver/Src/stm32f7xx_hal_rcc.c ****       if((__HAL_RCC_GET_FLAG(RCC_FLAG_HSIRDY) != RESET) && (RCC_OscInitStruct->HSIState != RCC_HSI_
 437:Drivers/STM32F7xx_HAL_Driver/Src/stm32f7xx_hal_rcc.c ****       {
 438:Drivers/STM32F7xx_HAL_Driver/Src/stm32f7xx_hal_rcc.c ****         return HAL_ERROR;
 439:Drivers/STM32F7xx_HAL_Driver/Src/stm32f7xx_hal_rcc.c ****       }
 440:Drivers/STM32F7xx_HAL_Driver/Src/stm32f7xx_hal_rcc.c ****       /* Otherwise, just the calibration is allowed */
 441:Drivers/STM32F7xx_HAL_Driver/Src/stm32f7xx_hal_rcc.c ****       else
 442:Drivers/STM32F7xx_HAL_Driver/Src/stm32f7xx_hal_rcc.c ****       {
 443:Drivers/STM32F7xx_HAL_Driver/Src/stm32f7xx_hal_rcc.c ****         /* Adjusts the Internal High Speed oscillator (HSI) calibration value.*/
 444:Drivers/STM32F7xx_HAL_Driver/Src/stm32f7xx_hal_rcc.c ****         __HAL_RCC_HSI_CALIBRATIONVALUE_ADJUST(RCC_OscInitStruct->HSICalibrationValue);
 445:Drivers/STM32F7xx_HAL_Driver/Src/stm32f7xx_hal_rcc.c ****       }
 446:Drivers/STM32F7xx_HAL_Driver/Src/stm32f7xx_hal_rcc.c ****     }
 447:Drivers/STM32F7xx_HAL_Driver/Src/stm32f7xx_hal_rcc.c ****     else
 448:Drivers/STM32F7xx_HAL_Driver/Src/stm32f7xx_hal_rcc.c ****     {
 449:Drivers/STM32F7xx_HAL_Driver/Src/stm32f7xx_hal_rcc.c ****       /* Check the HSI State */
 450:Drivers/STM32F7xx_HAL_Driver/Src/stm32f7xx_hal_rcc.c ****       if((RCC_OscInitStruct->HSIState)!= RCC_HSI_OFF)
 422              		.loc 1 450 7 is_stmt 1 view .LVU124
 423              		.loc 1 450 28 is_stmt 0 view .LVU125
 424 0086 E368     		ldr	r3, [r4, #12]
 425              		.loc 1 450 9 view .LVU126
 426 0088 002B     		cmp	r3, #0
 427 008a 00F08980 		beq	.L48
 451:Drivers/STM32F7xx_HAL_Driver/Src/stm32f7xx_hal_rcc.c ****       {
 452:Drivers/STM32F7xx_HAL_Driver/Src/stm32f7xx_hal_rcc.c ****         /* Enable the Internal High Speed oscillator (HSI). */
 453:Drivers/STM32F7xx_HAL_Driver/Src/stm32f7xx_hal_rcc.c ****         __HAL_RCC_HSI_ENABLE();
 428              		.loc 1 453 9 is_stmt 1 view .LVU127
 429 008e 894A     		ldr	r2, .L117
 430 0090 1368     		ldr	r3, [r2]
 431 0092 43F00103 		orr	r3, r3, #1
 432 0096 1360     		str	r3, [r2]
 454:Drivers/STM32F7xx_HAL_Driver/Src/stm32f7xx_hal_rcc.c **** 
 455:Drivers/STM32F7xx_HAL_Driver/Src/stm32f7xx_hal_rcc.c ****         /* Get Start Tick*/
 456:Drivers/STM32F7xx_HAL_Driver/Src/stm32f7xx_hal_rcc.c ****         tickstart = HAL_GetTick();
 433              		.loc 1 456 9 view .LVU128
 434              		.loc 1 456 21 is_stmt 0 view .LVU129
 435 0098 FFF7FEFF 		bl	HAL_GetTick
 436              	.LVL28:
ARM GAS  /tmp/ccNE9tpB.s 			page 18


 437 009c 0546     		mov	r5, r0
 438              	.LVL29:
 457:Drivers/STM32F7xx_HAL_Driver/Src/stm32f7xx_hal_rcc.c **** 
 458:Drivers/STM32F7xx_HAL_Driver/Src/stm32f7xx_hal_rcc.c ****         /* Wait till HSI is ready */
 459:Drivers/STM32F7xx_HAL_Driver/Src/stm32f7xx_hal_rcc.c ****         while(__HAL_RCC_GET_FLAG(RCC_FLAG_HSIRDY) == RESET)
 439              		.loc 1 459 9 is_stmt 1 view .LVU130
 440              	.L49:
 441              		.loc 1 459 15 is_stmt 0 view .LVU131
 442 009e 854B     		ldr	r3, .L117
 443 00a0 1B68     		ldr	r3, [r3]
 444              		.loc 1 459 14 view .LVU132
 445 00a2 13F0020F 		tst	r3, #2
 446 00a6 72D1     		bne	.L107
 460:Drivers/STM32F7xx_HAL_Driver/Src/stm32f7xx_hal_rcc.c ****         {
 461:Drivers/STM32F7xx_HAL_Driver/Src/stm32f7xx_hal_rcc.c ****           if((HAL_GetTick() - tickstart ) > HSI_TIMEOUT_VALUE)
 447              		.loc 1 461 11 is_stmt 1 view .LVU133
 448              		.loc 1 461 15 is_stmt 0 view .LVU134
 449 00a8 FFF7FEFF 		bl	HAL_GetTick
 450              	.LVL30:
 451              		.loc 1 461 29 view .LVU135
 452 00ac 401B     		subs	r0, r0, r5
 453              		.loc 1 461 13 view .LVU136
 454 00ae 0228     		cmp	r0, #2
 455 00b0 F5D9     		bls	.L49
 462:Drivers/STM32F7xx_HAL_Driver/Src/stm32f7xx_hal_rcc.c ****           {
 463:Drivers/STM32F7xx_HAL_Driver/Src/stm32f7xx_hal_rcc.c ****             return HAL_TIMEOUT;
 456              		.loc 1 463 20 view .LVU137
 457 00b2 0320     		movs	r0, #3
 458 00b4 87E1     		b	.L31
 459              	.LVL31:
 460              	.L104:
 391:Drivers/STM32F7xx_HAL_Driver/Src/stm32f7xx_hal_rcc.c **** 
 461              		.loc 1 391 7 is_stmt 1 discriminator 1 view .LVU138
 462 00b6 7F4A     		ldr	r2, .L117
 463 00b8 1368     		ldr	r3, [r2]
 464 00ba 43F48033 		orr	r3, r3, #65536
 465 00be 1360     		str	r3, [r2]
 466              	.L36:
 394:Drivers/STM32F7xx_HAL_Driver/Src/stm32f7xx_hal_rcc.c ****       {
 467              		.loc 1 394 7 view .LVU139
 394:Drivers/STM32F7xx_HAL_Driver/Src/stm32f7xx_hal_rcc.c ****       {
 468              		.loc 1 394 27 is_stmt 0 view .LVU140
 469 00c0 6368     		ldr	r3, [r4, #4]
 394:Drivers/STM32F7xx_HAL_Driver/Src/stm32f7xx_hal_rcc.c ****       {
 470              		.loc 1 394 9 view .LVU141
 471 00c2 2BB3     		cbz	r3, .L39
 397:Drivers/STM32F7xx_HAL_Driver/Src/stm32f7xx_hal_rcc.c **** 
 472              		.loc 1 397 9 is_stmt 1 view .LVU142
 397:Drivers/STM32F7xx_HAL_Driver/Src/stm32f7xx_hal_rcc.c **** 
 473              		.loc 1 397 21 is_stmt 0 view .LVU143
 474 00c4 FFF7FEFF 		bl	HAL_GetTick
 475              	.LVL32:
 397:Drivers/STM32F7xx_HAL_Driver/Src/stm32f7xx_hal_rcc.c **** 
 476              		.loc 1 397 21 view .LVU144
 477 00c8 0546     		mov	r5, r0
 478              	.LVL33:
 400:Drivers/STM32F7xx_HAL_Driver/Src/stm32f7xx_hal_rcc.c ****         {
ARM GAS  /tmp/ccNE9tpB.s 			page 19


 479              		.loc 1 400 9 is_stmt 1 view .LVU145
 480              	.L40:
 400:Drivers/STM32F7xx_HAL_Driver/Src/stm32f7xx_hal_rcc.c ****         {
 481              		.loc 1 400 15 is_stmt 0 view .LVU146
 482 00ca 7A4B     		ldr	r3, .L117
 483 00cc 1B68     		ldr	r3, [r3]
 400:Drivers/STM32F7xx_HAL_Driver/Src/stm32f7xx_hal_rcc.c ****         {
 484              		.loc 1 400 14 view .LVU147
 485 00ce 13F4003F 		tst	r3, #131072
 486 00d2 C9D1     		bne	.L32
 402:Drivers/STM32F7xx_HAL_Driver/Src/stm32f7xx_hal_rcc.c ****           {
 487              		.loc 1 402 11 is_stmt 1 view .LVU148
 402:Drivers/STM32F7xx_HAL_Driver/Src/stm32f7xx_hal_rcc.c ****           {
 488              		.loc 1 402 15 is_stmt 0 view .LVU149
 489 00d4 FFF7FEFF 		bl	HAL_GetTick
 490              	.LVL34:
 402:Drivers/STM32F7xx_HAL_Driver/Src/stm32f7xx_hal_rcc.c ****           {
 491              		.loc 1 402 29 view .LVU150
 492 00d8 401B     		subs	r0, r0, r5
 402:Drivers/STM32F7xx_HAL_Driver/Src/stm32f7xx_hal_rcc.c ****           {
 493              		.loc 1 402 13 view .LVU151
 494 00da 6428     		cmp	r0, #100
 495 00dc F5D9     		bls	.L40
 404:Drivers/STM32F7xx_HAL_Driver/Src/stm32f7xx_hal_rcc.c ****           }
 496              		.loc 1 404 20 view .LVU152
 497 00de 0320     		movs	r0, #3
 498 00e0 71E1     		b	.L31
 499              	.LVL35:
 500              	.L37:
 391:Drivers/STM32F7xx_HAL_Driver/Src/stm32f7xx_hal_rcc.c **** 
 501              		.loc 1 391 7 is_stmt 1 discriminator 4 view .LVU153
 502 00e2 B3F5A02F 		cmp	r3, #327680
 503 00e6 09D0     		beq	.L108
 391:Drivers/STM32F7xx_HAL_Driver/Src/stm32f7xx_hal_rcc.c **** 
 504              		.loc 1 391 7 discriminator 6 view .LVU154
 505 00e8 724B     		ldr	r3, .L117
 506 00ea 1A68     		ldr	r2, [r3]
 507 00ec 22F48032 		bic	r2, r2, #65536
 508 00f0 1A60     		str	r2, [r3]
 391:Drivers/STM32F7xx_HAL_Driver/Src/stm32f7xx_hal_rcc.c **** 
 509              		.loc 1 391 7 discriminator 6 view .LVU155
 510 00f2 1A68     		ldr	r2, [r3]
 511 00f4 22F48022 		bic	r2, r2, #262144
 512 00f8 1A60     		str	r2, [r3]
 513 00fa E1E7     		b	.L36
 514              	.L108:
 391:Drivers/STM32F7xx_HAL_Driver/Src/stm32f7xx_hal_rcc.c **** 
 515              		.loc 1 391 7 discriminator 5 view .LVU156
 516 00fc 6D4B     		ldr	r3, .L117
 517 00fe 1A68     		ldr	r2, [r3]
 518 0100 42F48022 		orr	r2, r2, #262144
 519 0104 1A60     		str	r2, [r3]
 391:Drivers/STM32F7xx_HAL_Driver/Src/stm32f7xx_hal_rcc.c **** 
 520              		.loc 1 391 7 discriminator 5 view .LVU157
 521 0106 1A68     		ldr	r2, [r3]
 522 0108 42F48032 		orr	r2, r2, #65536
 523 010c 1A60     		str	r2, [r3]
ARM GAS  /tmp/ccNE9tpB.s 			page 20


 524 010e D7E7     		b	.L36
 525              	.L39:
 411:Drivers/STM32F7xx_HAL_Driver/Src/stm32f7xx_hal_rcc.c **** 
 526              		.loc 1 411 9 view .LVU158
 411:Drivers/STM32F7xx_HAL_Driver/Src/stm32f7xx_hal_rcc.c **** 
 527              		.loc 1 411 21 is_stmt 0 view .LVU159
 528 0110 FFF7FEFF 		bl	HAL_GetTick
 529              	.LVL36:
 411:Drivers/STM32F7xx_HAL_Driver/Src/stm32f7xx_hal_rcc.c **** 
 530              		.loc 1 411 21 view .LVU160
 531 0114 0546     		mov	r5, r0
 532              	.LVL37:
 414:Drivers/STM32F7xx_HAL_Driver/Src/stm32f7xx_hal_rcc.c ****         {
 533              		.loc 1 414 9 is_stmt 1 view .LVU161
 534              	.L42:
 414:Drivers/STM32F7xx_HAL_Driver/Src/stm32f7xx_hal_rcc.c ****         {
 535              		.loc 1 414 15 is_stmt 0 view .LVU162
 536 0116 674B     		ldr	r3, .L117
 537 0118 1B68     		ldr	r3, [r3]
 414:Drivers/STM32F7xx_HAL_Driver/Src/stm32f7xx_hal_rcc.c ****         {
 538              		.loc 1 414 14 view .LVU163
 539 011a 13F4003F 		tst	r3, #131072
 540 011e A3D0     		beq	.L32
 416:Drivers/STM32F7xx_HAL_Driver/Src/stm32f7xx_hal_rcc.c ****           {
 541              		.loc 1 416 12 is_stmt 1 view .LVU164
 416:Drivers/STM32F7xx_HAL_Driver/Src/stm32f7xx_hal_rcc.c ****           {
 542              		.loc 1 416 16 is_stmt 0 view .LVU165
 543 0120 FFF7FEFF 		bl	HAL_GetTick
 544              	.LVL38:
 416:Drivers/STM32F7xx_HAL_Driver/Src/stm32f7xx_hal_rcc.c ****           {
 545              		.loc 1 416 30 view .LVU166
 546 0124 401B     		subs	r0, r0, r5
 416:Drivers/STM32F7xx_HAL_Driver/Src/stm32f7xx_hal_rcc.c ****           {
 547              		.loc 1 416 14 view .LVU167
 548 0126 6428     		cmp	r0, #100
 549 0128 F5D9     		bls	.L42
 418:Drivers/STM32F7xx_HAL_Driver/Src/stm32f7xx_hal_rcc.c ****           }
 550              		.loc 1 418 20 view .LVU168
 551 012a 0320     		movs	r0, #3
 552 012c 4BE1     		b	.L31
 553              	.LVL39:
 554              	.L106:
 433:Drivers/STM32F7xx_HAL_Driver/Src/stm32f7xx_hal_rcc.c ****     {
 555              		.loc 1 433 86 discriminator 1 view .LVU169
 556 012e 614B     		ldr	r3, .L117
 557 0130 5B68     		ldr	r3, [r3, #4]
 433:Drivers/STM32F7xx_HAL_Driver/Src/stm32f7xx_hal_rcc.c ****     {
 558              		.loc 1 433 78 discriminator 1 view .LVU170
 559 0132 13F4800F 		tst	r3, #4194304
 560 0136 A6D1     		bne	.L46
 561              	.L45:
 436:Drivers/STM32F7xx_HAL_Driver/Src/stm32f7xx_hal_rcc.c ****       {
 562              		.loc 1 436 7 is_stmt 1 view .LVU171
 436:Drivers/STM32F7xx_HAL_Driver/Src/stm32f7xx_hal_rcc.c ****       {
 563              		.loc 1 436 11 is_stmt 0 view .LVU172
 564 0138 5E4B     		ldr	r3, .L117
 565 013a 1B68     		ldr	r3, [r3]
ARM GAS  /tmp/ccNE9tpB.s 			page 21


 436:Drivers/STM32F7xx_HAL_Driver/Src/stm32f7xx_hal_rcc.c ****       {
 566              		.loc 1 436 9 view .LVU173
 567 013c 13F0020F 		tst	r3, #2
 568 0140 03D0     		beq	.L47
 436:Drivers/STM32F7xx_HAL_Driver/Src/stm32f7xx_hal_rcc.c ****       {
 569              		.loc 1 436 78 discriminator 1 view .LVU174
 570 0142 E368     		ldr	r3, [r4, #12]
 436:Drivers/STM32F7xx_HAL_Driver/Src/stm32f7xx_hal_rcc.c ****       {
 571              		.loc 1 436 57 discriminator 1 view .LVU175
 572 0144 012B     		cmp	r3, #1
 573 0146 40F03B81 		bne	.L85
 574              	.L47:
 444:Drivers/STM32F7xx_HAL_Driver/Src/stm32f7xx_hal_rcc.c ****       }
 575              		.loc 1 444 9 is_stmt 1 view .LVU176
 576 014a 5A4A     		ldr	r2, .L117
 577 014c 1368     		ldr	r3, [r2]
 578 014e 23F0F803 		bic	r3, r3, #248
 579 0152 2169     		ldr	r1, [r4, #16]
 580 0154 43EAC103 		orr	r3, r3, r1, lsl #3
 581 0158 1360     		str	r3, [r2]
 582              	.L44:
 464:Drivers/STM32F7xx_HAL_Driver/Src/stm32f7xx_hal_rcc.c ****           }
 465:Drivers/STM32F7xx_HAL_Driver/Src/stm32f7xx_hal_rcc.c ****         }
 466:Drivers/STM32F7xx_HAL_Driver/Src/stm32f7xx_hal_rcc.c **** 
 467:Drivers/STM32F7xx_HAL_Driver/Src/stm32f7xx_hal_rcc.c ****         /* Adjusts the Internal High Speed oscillator (HSI) calibration value.*/
 468:Drivers/STM32F7xx_HAL_Driver/Src/stm32f7xx_hal_rcc.c ****         __HAL_RCC_HSI_CALIBRATIONVALUE_ADJUST(RCC_OscInitStruct->HSICalibrationValue);
 469:Drivers/STM32F7xx_HAL_Driver/Src/stm32f7xx_hal_rcc.c ****       }
 470:Drivers/STM32F7xx_HAL_Driver/Src/stm32f7xx_hal_rcc.c ****       else
 471:Drivers/STM32F7xx_HAL_Driver/Src/stm32f7xx_hal_rcc.c ****       {
 472:Drivers/STM32F7xx_HAL_Driver/Src/stm32f7xx_hal_rcc.c ****         /* Disable the Internal High Speed oscillator (HSI). */
 473:Drivers/STM32F7xx_HAL_Driver/Src/stm32f7xx_hal_rcc.c ****         __HAL_RCC_HSI_DISABLE();
 474:Drivers/STM32F7xx_HAL_Driver/Src/stm32f7xx_hal_rcc.c **** 
 475:Drivers/STM32F7xx_HAL_Driver/Src/stm32f7xx_hal_rcc.c ****         /* Get Start Tick*/
 476:Drivers/STM32F7xx_HAL_Driver/Src/stm32f7xx_hal_rcc.c ****         tickstart = HAL_GetTick();
 477:Drivers/STM32F7xx_HAL_Driver/Src/stm32f7xx_hal_rcc.c **** 
 478:Drivers/STM32F7xx_HAL_Driver/Src/stm32f7xx_hal_rcc.c ****         /* Wait till HSI is ready */
 479:Drivers/STM32F7xx_HAL_Driver/Src/stm32f7xx_hal_rcc.c ****         while(__HAL_RCC_GET_FLAG(RCC_FLAG_HSIRDY) != RESET)
 480:Drivers/STM32F7xx_HAL_Driver/Src/stm32f7xx_hal_rcc.c ****         {
 481:Drivers/STM32F7xx_HAL_Driver/Src/stm32f7xx_hal_rcc.c ****           if((HAL_GetTick() - tickstart ) > HSI_TIMEOUT_VALUE)
 482:Drivers/STM32F7xx_HAL_Driver/Src/stm32f7xx_hal_rcc.c ****           {
 483:Drivers/STM32F7xx_HAL_Driver/Src/stm32f7xx_hal_rcc.c ****             return HAL_TIMEOUT;
 484:Drivers/STM32F7xx_HAL_Driver/Src/stm32f7xx_hal_rcc.c ****           }
 485:Drivers/STM32F7xx_HAL_Driver/Src/stm32f7xx_hal_rcc.c ****         }
 486:Drivers/STM32F7xx_HAL_Driver/Src/stm32f7xx_hal_rcc.c ****       }
 487:Drivers/STM32F7xx_HAL_Driver/Src/stm32f7xx_hal_rcc.c ****     }
 488:Drivers/STM32F7xx_HAL_Driver/Src/stm32f7xx_hal_rcc.c ****   }
 489:Drivers/STM32F7xx_HAL_Driver/Src/stm32f7xx_hal_rcc.c ****   /*------------------------------ LSI Configuration -------------------------*/
 490:Drivers/STM32F7xx_HAL_Driver/Src/stm32f7xx_hal_rcc.c ****   if(((RCC_OscInitStruct->OscillatorType) & RCC_OSCILLATORTYPE_LSI) == RCC_OSCILLATORTYPE_LSI)
 583              		.loc 1 490 3 view .LVU177
 584              		.loc 1 490 25 is_stmt 0 view .LVU178
 585 015a 2368     		ldr	r3, [r4]
 586              		.loc 1 490 5 view .LVU179
 587 015c 13F0080F 		tst	r3, #8
 588 0160 46D0     		beq	.L53
 491:Drivers/STM32F7xx_HAL_Driver/Src/stm32f7xx_hal_rcc.c ****   {
 492:Drivers/STM32F7xx_HAL_Driver/Src/stm32f7xx_hal_rcc.c ****     /* Check the parameters */
 493:Drivers/STM32F7xx_HAL_Driver/Src/stm32f7xx_hal_rcc.c ****     assert_param(IS_RCC_LSI(RCC_OscInitStruct->LSIState));
ARM GAS  /tmp/ccNE9tpB.s 			page 22


 589              		.loc 1 493 5 is_stmt 1 view .LVU180
 494:Drivers/STM32F7xx_HAL_Driver/Src/stm32f7xx_hal_rcc.c **** 
 495:Drivers/STM32F7xx_HAL_Driver/Src/stm32f7xx_hal_rcc.c ****     /* Check the LSI State */
 496:Drivers/STM32F7xx_HAL_Driver/Src/stm32f7xx_hal_rcc.c ****     if((RCC_OscInitStruct->LSIState)!= RCC_LSI_OFF)
 590              		.loc 1 496 5 view .LVU181
 591              		.loc 1 496 26 is_stmt 0 view .LVU182
 592 0162 6369     		ldr	r3, [r4, #20]
 593              		.loc 1 496 7 view .LVU183
 594 0164 83B3     		cbz	r3, .L54
 497:Drivers/STM32F7xx_HAL_Driver/Src/stm32f7xx_hal_rcc.c ****     {
 498:Drivers/STM32F7xx_HAL_Driver/Src/stm32f7xx_hal_rcc.c ****       /* Enable the Internal Low Speed oscillator (LSI). */
 499:Drivers/STM32F7xx_HAL_Driver/Src/stm32f7xx_hal_rcc.c ****       __HAL_RCC_LSI_ENABLE();
 595              		.loc 1 499 7 is_stmt 1 view .LVU184
 596 0166 534A     		ldr	r2, .L117
 597 0168 536F     		ldr	r3, [r2, #116]
 598 016a 43F00103 		orr	r3, r3, #1
 599 016e 5367     		str	r3, [r2, #116]
 500:Drivers/STM32F7xx_HAL_Driver/Src/stm32f7xx_hal_rcc.c **** 
 501:Drivers/STM32F7xx_HAL_Driver/Src/stm32f7xx_hal_rcc.c ****       /* Get Start Tick*/
 502:Drivers/STM32F7xx_HAL_Driver/Src/stm32f7xx_hal_rcc.c ****       tickstart = HAL_GetTick();
 600              		.loc 1 502 7 view .LVU185
 601              		.loc 1 502 19 is_stmt 0 view .LVU186
 602 0170 FFF7FEFF 		bl	HAL_GetTick
 603              	.LVL40:
 604 0174 0546     		mov	r5, r0
 605              	.LVL41:
 503:Drivers/STM32F7xx_HAL_Driver/Src/stm32f7xx_hal_rcc.c **** 
 504:Drivers/STM32F7xx_HAL_Driver/Src/stm32f7xx_hal_rcc.c ****       /* Wait till LSI is ready */
 505:Drivers/STM32F7xx_HAL_Driver/Src/stm32f7xx_hal_rcc.c ****       while(__HAL_RCC_GET_FLAG(RCC_FLAG_LSIRDY) == RESET)
 606              		.loc 1 505 7 is_stmt 1 view .LVU187
 607              	.L55:
 608              		.loc 1 505 13 is_stmt 0 view .LVU188
 609 0176 4F4B     		ldr	r3, .L117
 610 0178 5B6F     		ldr	r3, [r3, #116]
 611              		.loc 1 505 12 view .LVU189
 612 017a 13F0020F 		tst	r3, #2
 613 017e 37D1     		bne	.L53
 506:Drivers/STM32F7xx_HAL_Driver/Src/stm32f7xx_hal_rcc.c ****       {
 507:Drivers/STM32F7xx_HAL_Driver/Src/stm32f7xx_hal_rcc.c ****         if((HAL_GetTick() - tickstart ) > LSI_TIMEOUT_VALUE)
 614              		.loc 1 507 9 is_stmt 1 view .LVU190
 615              		.loc 1 507 13 is_stmt 0 view .LVU191
 616 0180 FFF7FEFF 		bl	HAL_GetTick
 617              	.LVL42:
 618              		.loc 1 507 27 view .LVU192
 619 0184 401B     		subs	r0, r0, r5
 620              		.loc 1 507 11 view .LVU193
 621 0186 0228     		cmp	r0, #2
 622 0188 F5D9     		bls	.L55
 508:Drivers/STM32F7xx_HAL_Driver/Src/stm32f7xx_hal_rcc.c ****         {
 509:Drivers/STM32F7xx_HAL_Driver/Src/stm32f7xx_hal_rcc.c ****           return HAL_TIMEOUT;
 623              		.loc 1 509 18 view .LVU194
 624 018a 0320     		movs	r0, #3
 625 018c 1BE1     		b	.L31
 626              	.L107:
 468:Drivers/STM32F7xx_HAL_Driver/Src/stm32f7xx_hal_rcc.c ****       }
 627              		.loc 1 468 9 is_stmt 1 view .LVU195
 628 018e 494A     		ldr	r2, .L117
ARM GAS  /tmp/ccNE9tpB.s 			page 23


 629 0190 1368     		ldr	r3, [r2]
 630 0192 23F0F803 		bic	r3, r3, #248
 631 0196 2169     		ldr	r1, [r4, #16]
 632 0198 43EAC103 		orr	r3, r3, r1, lsl #3
 633 019c 1360     		str	r3, [r2]
 634 019e DCE7     		b	.L44
 635              	.LVL43:
 636              	.L48:
 473:Drivers/STM32F7xx_HAL_Driver/Src/stm32f7xx_hal_rcc.c **** 
 637              		.loc 1 473 9 view .LVU196
 638 01a0 444A     		ldr	r2, .L117
 639 01a2 1368     		ldr	r3, [r2]
 640 01a4 23F00103 		bic	r3, r3, #1
 641 01a8 1360     		str	r3, [r2]
 476:Drivers/STM32F7xx_HAL_Driver/Src/stm32f7xx_hal_rcc.c **** 
 642              		.loc 1 476 9 view .LVU197
 476:Drivers/STM32F7xx_HAL_Driver/Src/stm32f7xx_hal_rcc.c **** 
 643              		.loc 1 476 21 is_stmt 0 view .LVU198
 644 01aa FFF7FEFF 		bl	HAL_GetTick
 645              	.LVL44:
 646 01ae 0546     		mov	r5, r0
 647              	.LVL45:
 479:Drivers/STM32F7xx_HAL_Driver/Src/stm32f7xx_hal_rcc.c ****         {
 648              		.loc 1 479 9 is_stmt 1 view .LVU199
 649              	.L51:
 479:Drivers/STM32F7xx_HAL_Driver/Src/stm32f7xx_hal_rcc.c ****         {
 650              		.loc 1 479 15 is_stmt 0 view .LVU200
 651 01b0 404B     		ldr	r3, .L117
 652 01b2 1B68     		ldr	r3, [r3]
 479:Drivers/STM32F7xx_HAL_Driver/Src/stm32f7xx_hal_rcc.c ****         {
 653              		.loc 1 479 14 view .LVU201
 654 01b4 13F0020F 		tst	r3, #2
 655 01b8 CFD0     		beq	.L44
 481:Drivers/STM32F7xx_HAL_Driver/Src/stm32f7xx_hal_rcc.c ****           {
 656              		.loc 1 481 11 is_stmt 1 view .LVU202
 481:Drivers/STM32F7xx_HAL_Driver/Src/stm32f7xx_hal_rcc.c ****           {
 657              		.loc 1 481 15 is_stmt 0 view .LVU203
 658 01ba FFF7FEFF 		bl	HAL_GetTick
 659              	.LVL46:
 481:Drivers/STM32F7xx_HAL_Driver/Src/stm32f7xx_hal_rcc.c ****           {
 660              		.loc 1 481 29 view .LVU204
 661 01be 401B     		subs	r0, r0, r5
 481:Drivers/STM32F7xx_HAL_Driver/Src/stm32f7xx_hal_rcc.c ****           {
 662              		.loc 1 481 13 view .LVU205
 663 01c0 0228     		cmp	r0, #2
 664 01c2 F5D9     		bls	.L51
 483:Drivers/STM32F7xx_HAL_Driver/Src/stm32f7xx_hal_rcc.c ****           }
 665              		.loc 1 483 20 view .LVU206
 666 01c4 0320     		movs	r0, #3
 667 01c6 FEE0     		b	.L31
 668              	.LVL47:
 669              	.L54:
 510:Drivers/STM32F7xx_HAL_Driver/Src/stm32f7xx_hal_rcc.c ****         }
 511:Drivers/STM32F7xx_HAL_Driver/Src/stm32f7xx_hal_rcc.c ****       }
 512:Drivers/STM32F7xx_HAL_Driver/Src/stm32f7xx_hal_rcc.c ****     }
 513:Drivers/STM32F7xx_HAL_Driver/Src/stm32f7xx_hal_rcc.c ****     else
 514:Drivers/STM32F7xx_HAL_Driver/Src/stm32f7xx_hal_rcc.c ****     {
ARM GAS  /tmp/ccNE9tpB.s 			page 24


 515:Drivers/STM32F7xx_HAL_Driver/Src/stm32f7xx_hal_rcc.c ****       /* Disable the Internal Low Speed oscillator (LSI). */
 516:Drivers/STM32F7xx_HAL_Driver/Src/stm32f7xx_hal_rcc.c ****       __HAL_RCC_LSI_DISABLE();
 670              		.loc 1 516 7 is_stmt 1 view .LVU207
 671 01c8 3A4A     		ldr	r2, .L117
 672 01ca 536F     		ldr	r3, [r2, #116]
 673 01cc 23F00103 		bic	r3, r3, #1
 674 01d0 5367     		str	r3, [r2, #116]
 517:Drivers/STM32F7xx_HAL_Driver/Src/stm32f7xx_hal_rcc.c **** 
 518:Drivers/STM32F7xx_HAL_Driver/Src/stm32f7xx_hal_rcc.c ****       /* Get Start Tick*/
 519:Drivers/STM32F7xx_HAL_Driver/Src/stm32f7xx_hal_rcc.c ****       tickstart = HAL_GetTick();
 675              		.loc 1 519 7 view .LVU208
 676              		.loc 1 519 19 is_stmt 0 view .LVU209
 677 01d2 FFF7FEFF 		bl	HAL_GetTick
 678              	.LVL48:
 679 01d6 0546     		mov	r5, r0
 680              	.LVL49:
 520:Drivers/STM32F7xx_HAL_Driver/Src/stm32f7xx_hal_rcc.c **** 
 521:Drivers/STM32F7xx_HAL_Driver/Src/stm32f7xx_hal_rcc.c ****       /* Wait till LSI is ready */
 522:Drivers/STM32F7xx_HAL_Driver/Src/stm32f7xx_hal_rcc.c ****       while(__HAL_RCC_GET_FLAG(RCC_FLAG_LSIRDY) != RESET)
 681              		.loc 1 522 7 is_stmt 1 view .LVU210
 682              	.L57:
 683              		.loc 1 522 13 is_stmt 0 view .LVU211
 684 01d8 364B     		ldr	r3, .L117
 685 01da 5B6F     		ldr	r3, [r3, #116]
 686              		.loc 1 522 12 view .LVU212
 687 01dc 13F0020F 		tst	r3, #2
 688 01e0 06D0     		beq	.L53
 523:Drivers/STM32F7xx_HAL_Driver/Src/stm32f7xx_hal_rcc.c ****       {
 524:Drivers/STM32F7xx_HAL_Driver/Src/stm32f7xx_hal_rcc.c ****         if((HAL_GetTick() - tickstart ) > LSI_TIMEOUT_VALUE)
 689              		.loc 1 524 9 is_stmt 1 view .LVU213
 690              		.loc 1 524 13 is_stmt 0 view .LVU214
 691 01e2 FFF7FEFF 		bl	HAL_GetTick
 692              	.LVL50:
 693              		.loc 1 524 27 view .LVU215
 694 01e6 401B     		subs	r0, r0, r5
 695              		.loc 1 524 11 view .LVU216
 696 01e8 0228     		cmp	r0, #2
 697 01ea F5D9     		bls	.L57
 525:Drivers/STM32F7xx_HAL_Driver/Src/stm32f7xx_hal_rcc.c ****         {
 526:Drivers/STM32F7xx_HAL_Driver/Src/stm32f7xx_hal_rcc.c ****           return HAL_TIMEOUT;
 698              		.loc 1 526 18 view .LVU217
 699 01ec 0320     		movs	r0, #3
 700 01ee EAE0     		b	.L31
 701              	.LVL51:
 702              	.L53:
 527:Drivers/STM32F7xx_HAL_Driver/Src/stm32f7xx_hal_rcc.c ****         }
 528:Drivers/STM32F7xx_HAL_Driver/Src/stm32f7xx_hal_rcc.c ****       }
 529:Drivers/STM32F7xx_HAL_Driver/Src/stm32f7xx_hal_rcc.c ****     }
 530:Drivers/STM32F7xx_HAL_Driver/Src/stm32f7xx_hal_rcc.c ****   }
 531:Drivers/STM32F7xx_HAL_Driver/Src/stm32f7xx_hal_rcc.c ****   /*------------------------------ LSE Configuration -------------------------*/
 532:Drivers/STM32F7xx_HAL_Driver/Src/stm32f7xx_hal_rcc.c ****   if(((RCC_OscInitStruct->OscillatorType) & RCC_OSCILLATORTYPE_LSE) == RCC_OSCILLATORTYPE_LSE)
 703              		.loc 1 532 3 is_stmt 1 view .LVU218
 704              		.loc 1 532 25 is_stmt 0 view .LVU219
 705 01f0 2368     		ldr	r3, [r4]
 706              		.loc 1 532 5 view .LVU220
 707 01f2 13F0040F 		tst	r3, #4
 708 01f6 7DD0     		beq	.L59
ARM GAS  /tmp/ccNE9tpB.s 			page 25


 533:Drivers/STM32F7xx_HAL_Driver/Src/stm32f7xx_hal_rcc.c ****   {
 534:Drivers/STM32F7xx_HAL_Driver/Src/stm32f7xx_hal_rcc.c ****     /* Check the parameters */
 535:Drivers/STM32F7xx_HAL_Driver/Src/stm32f7xx_hal_rcc.c ****     assert_param(IS_RCC_LSE(RCC_OscInitStruct->LSEState));
 709              		.loc 1 535 5 is_stmt 1 view .LVU221
 536:Drivers/STM32F7xx_HAL_Driver/Src/stm32f7xx_hal_rcc.c **** 
 537:Drivers/STM32F7xx_HAL_Driver/Src/stm32f7xx_hal_rcc.c ****     /* Update LSE configuration in Backup Domain control register    */
 538:Drivers/STM32F7xx_HAL_Driver/Src/stm32f7xx_hal_rcc.c ****     /* Requires to enable write access to Backup Domain of necessary */
 539:Drivers/STM32F7xx_HAL_Driver/Src/stm32f7xx_hal_rcc.c ****     if(__HAL_RCC_PWR_IS_CLK_DISABLED())
 710              		.loc 1 539 5 view .LVU222
 711              		.loc 1 539 8 is_stmt 0 view .LVU223
 712 01f8 2E4B     		ldr	r3, .L117
 713 01fa 1B6C     		ldr	r3, [r3, #64]
 714              		.loc 1 539 7 view .LVU224
 715 01fc 13F0805F 		tst	r3, #268435456
 716 0200 1ED1     		bne	.L90
 540:Drivers/STM32F7xx_HAL_Driver/Src/stm32f7xx_hal_rcc.c ****     {
 541:Drivers/STM32F7xx_HAL_Driver/Src/stm32f7xx_hal_rcc.c ****       /* Enable Power Clock*/
 542:Drivers/STM32F7xx_HAL_Driver/Src/stm32f7xx_hal_rcc.c ****       __HAL_RCC_PWR_CLK_ENABLE();
 717              		.loc 1 542 7 is_stmt 1 view .LVU225
 718              	.LBB2:
 719              		.loc 1 542 7 view .LVU226
 720              		.loc 1 542 7 view .LVU227
 721 0202 2C4B     		ldr	r3, .L117
 722 0204 1A6C     		ldr	r2, [r3, #64]
 723 0206 42F08052 		orr	r2, r2, #268435456
 724 020a 1A64     		str	r2, [r3, #64]
 725              		.loc 1 542 7 view .LVU228
 726 020c 1B6C     		ldr	r3, [r3, #64]
 727 020e 03F08053 		and	r3, r3, #268435456
 728 0212 0193     		str	r3, [sp, #4]
 729              		.loc 1 542 7 view .LVU229
 730 0214 019B     		ldr	r3, [sp, #4]
 731              	.LBE2:
 543:Drivers/STM32F7xx_HAL_Driver/Src/stm32f7xx_hal_rcc.c ****       pwrclkchanged = SET;
 732              		.loc 1 543 7 view .LVU230
 733              	.LVL52:
 734              		.loc 1 543 21 is_stmt 0 view .LVU231
 735 0216 0125     		movs	r5, #1
 736              	.LVL53:
 737              	.L60:
 544:Drivers/STM32F7xx_HAL_Driver/Src/stm32f7xx_hal_rcc.c ****     }
 545:Drivers/STM32F7xx_HAL_Driver/Src/stm32f7xx_hal_rcc.c **** 
 546:Drivers/STM32F7xx_HAL_Driver/Src/stm32f7xx_hal_rcc.c ****     if(HAL_IS_BIT_CLR(PWR->CR1, PWR_CR1_DBP))
 738              		.loc 1 546 5 is_stmt 1 view .LVU232
 739              		.loc 1 546 8 is_stmt 0 view .LVU233
 740 0218 274B     		ldr	r3, .L117+4
 741 021a 1B68     		ldr	r3, [r3]
 742              		.loc 1 546 7 view .LVU234
 743 021c 13F4807F 		tst	r3, #256
 744 0220 10D0     		beq	.L109
 745              	.L61:
 547:Drivers/STM32F7xx_HAL_Driver/Src/stm32f7xx_hal_rcc.c ****     {
 548:Drivers/STM32F7xx_HAL_Driver/Src/stm32f7xx_hal_rcc.c ****       /* Enable write access to Backup domain */
 549:Drivers/STM32F7xx_HAL_Driver/Src/stm32f7xx_hal_rcc.c ****       PWR->CR1 |= PWR_CR1_DBP;
 550:Drivers/STM32F7xx_HAL_Driver/Src/stm32f7xx_hal_rcc.c **** 
 551:Drivers/STM32F7xx_HAL_Driver/Src/stm32f7xx_hal_rcc.c ****       /* Wait for Backup domain Write protection disable */
 552:Drivers/STM32F7xx_HAL_Driver/Src/stm32f7xx_hal_rcc.c ****       tickstart = HAL_GetTick();
ARM GAS  /tmp/ccNE9tpB.s 			page 26


 553:Drivers/STM32F7xx_HAL_Driver/Src/stm32f7xx_hal_rcc.c **** 
 554:Drivers/STM32F7xx_HAL_Driver/Src/stm32f7xx_hal_rcc.c ****       while(HAL_IS_BIT_CLR(PWR->CR1, PWR_CR1_DBP))
 555:Drivers/STM32F7xx_HAL_Driver/Src/stm32f7xx_hal_rcc.c ****       {
 556:Drivers/STM32F7xx_HAL_Driver/Src/stm32f7xx_hal_rcc.c ****         if((HAL_GetTick() - tickstart ) > RCC_DBP_TIMEOUT_VALUE)
 557:Drivers/STM32F7xx_HAL_Driver/Src/stm32f7xx_hal_rcc.c ****         {
 558:Drivers/STM32F7xx_HAL_Driver/Src/stm32f7xx_hal_rcc.c ****           return HAL_TIMEOUT;
 559:Drivers/STM32F7xx_HAL_Driver/Src/stm32f7xx_hal_rcc.c ****         }
 560:Drivers/STM32F7xx_HAL_Driver/Src/stm32f7xx_hal_rcc.c ****       }
 561:Drivers/STM32F7xx_HAL_Driver/Src/stm32f7xx_hal_rcc.c ****     }
 562:Drivers/STM32F7xx_HAL_Driver/Src/stm32f7xx_hal_rcc.c **** 
 563:Drivers/STM32F7xx_HAL_Driver/Src/stm32f7xx_hal_rcc.c ****     /* Set the new LSE configuration -----------------------------------------*/
 564:Drivers/STM32F7xx_HAL_Driver/Src/stm32f7xx_hal_rcc.c ****     __HAL_RCC_LSE_CONFIG(RCC_OscInitStruct->LSEState);
 746              		.loc 1 564 5 is_stmt 1 view .LVU235
 747              		.loc 1 564 5 view .LVU236
 748 0222 A368     		ldr	r3, [r4, #8]
 749 0224 012B     		cmp	r3, #1
 750 0226 21D0     		beq	.L110
 751              		.loc 1 564 5 discriminator 2 view .LVU237
 752 0228 002B     		cmp	r3, #0
 753 022a 37D1     		bne	.L66
 754              		.loc 1 564 5 discriminator 3 view .LVU238
 755 022c 214B     		ldr	r3, .L117
 756 022e 1A6F     		ldr	r2, [r3, #112]
 757 0230 22F00102 		bic	r2, r2, #1
 758 0234 1A67     		str	r2, [r3, #112]
 759              		.loc 1 564 5 discriminator 3 view .LVU239
 760 0236 1A6F     		ldr	r2, [r3, #112]
 761 0238 22F00402 		bic	r2, r2, #4
 762 023c 1A67     		str	r2, [r3, #112]
 763 023e 1AE0     		b	.L65
 764              	.LVL54:
 765              	.L90:
 363:Drivers/STM32F7xx_HAL_Driver/Src/stm32f7xx_hal_rcc.c **** 
 766              		.loc 1 363 14 is_stmt 0 view .LVU240
 767 0240 0025     		movs	r5, #0
 768 0242 E9E7     		b	.L60
 769              	.LVL55:
 770              	.L109:
 549:Drivers/STM32F7xx_HAL_Driver/Src/stm32f7xx_hal_rcc.c **** 
 771              		.loc 1 549 7 is_stmt 1 view .LVU241
 549:Drivers/STM32F7xx_HAL_Driver/Src/stm32f7xx_hal_rcc.c **** 
 772              		.loc 1 549 16 is_stmt 0 view .LVU242
 773 0244 1C4A     		ldr	r2, .L117+4
 774 0246 1368     		ldr	r3, [r2]
 775 0248 43F48073 		orr	r3, r3, #256
 776 024c 1360     		str	r3, [r2]
 552:Drivers/STM32F7xx_HAL_Driver/Src/stm32f7xx_hal_rcc.c **** 
 777              		.loc 1 552 7 is_stmt 1 view .LVU243
 552:Drivers/STM32F7xx_HAL_Driver/Src/stm32f7xx_hal_rcc.c **** 
 778              		.loc 1 552 19 is_stmt 0 view .LVU244
 779 024e FFF7FEFF 		bl	HAL_GetTick
 780              	.LVL56:
 781 0252 0646     		mov	r6, r0
 782              	.LVL57:
 554:Drivers/STM32F7xx_HAL_Driver/Src/stm32f7xx_hal_rcc.c ****       {
 783              		.loc 1 554 7 is_stmt 1 view .LVU245
 784              	.L62:
ARM GAS  /tmp/ccNE9tpB.s 			page 27


 554:Drivers/STM32F7xx_HAL_Driver/Src/stm32f7xx_hal_rcc.c ****       {
 785              		.loc 1 554 13 is_stmt 0 view .LVU246
 786 0254 184B     		ldr	r3, .L117+4
 787 0256 1B68     		ldr	r3, [r3]
 554:Drivers/STM32F7xx_HAL_Driver/Src/stm32f7xx_hal_rcc.c ****       {
 788              		.loc 1 554 12 view .LVU247
 789 0258 13F4807F 		tst	r3, #256
 790 025c E1D1     		bne	.L61
 556:Drivers/STM32F7xx_HAL_Driver/Src/stm32f7xx_hal_rcc.c ****         {
 791              		.loc 1 556 9 is_stmt 1 view .LVU248
 556:Drivers/STM32F7xx_HAL_Driver/Src/stm32f7xx_hal_rcc.c ****         {
 792              		.loc 1 556 13 is_stmt 0 view .LVU249
 793 025e FFF7FEFF 		bl	HAL_GetTick
 794              	.LVL58:
 556:Drivers/STM32F7xx_HAL_Driver/Src/stm32f7xx_hal_rcc.c ****         {
 795              		.loc 1 556 27 view .LVU250
 796 0262 801B     		subs	r0, r0, r6
 556:Drivers/STM32F7xx_HAL_Driver/Src/stm32f7xx_hal_rcc.c ****         {
 797              		.loc 1 556 11 view .LVU251
 798 0264 6428     		cmp	r0, #100
 799 0266 F5D9     		bls	.L62
 558:Drivers/STM32F7xx_HAL_Driver/Src/stm32f7xx_hal_rcc.c ****         }
 800              		.loc 1 558 18 view .LVU252
 801 0268 0320     		movs	r0, #3
 802 026a ACE0     		b	.L31
 803              	.LVL59:
 804              	.L110:
 805              		.loc 1 564 5 is_stmt 1 discriminator 1 view .LVU253
 806 026c 114A     		ldr	r2, .L117
 807 026e 136F     		ldr	r3, [r2, #112]
 808 0270 43F00103 		orr	r3, r3, #1
 809 0274 1367     		str	r3, [r2, #112]
 810              	.L65:
 565:Drivers/STM32F7xx_HAL_Driver/Src/stm32f7xx_hal_rcc.c ****     /* Check the LSE State */
 566:Drivers/STM32F7xx_HAL_Driver/Src/stm32f7xx_hal_rcc.c ****     if((RCC_OscInitStruct->LSEState) != RCC_LSE_OFF)
 811              		.loc 1 566 5 view .LVU254
 812              		.loc 1 566 26 is_stmt 0 view .LVU255
 813 0276 A368     		ldr	r3, [r4, #8]
 814              		.loc 1 566 7 view .LVU256
 815 0278 53B3     		cbz	r3, .L68
 567:Drivers/STM32F7xx_HAL_Driver/Src/stm32f7xx_hal_rcc.c ****     {
 568:Drivers/STM32F7xx_HAL_Driver/Src/stm32f7xx_hal_rcc.c ****       /* Get Start Tick*/
 569:Drivers/STM32F7xx_HAL_Driver/Src/stm32f7xx_hal_rcc.c ****       tickstart = HAL_GetTick();
 816              		.loc 1 569 7 is_stmt 1 view .LVU257
 817              		.loc 1 569 19 is_stmt 0 view .LVU258
 818 027a FFF7FEFF 		bl	HAL_GetTick
 819              	.LVL60:
 820 027e 0646     		mov	r6, r0
 821              	.LVL61:
 570:Drivers/STM32F7xx_HAL_Driver/Src/stm32f7xx_hal_rcc.c **** 
 571:Drivers/STM32F7xx_HAL_Driver/Src/stm32f7xx_hal_rcc.c ****       /* Wait till LSE is ready */
 572:Drivers/STM32F7xx_HAL_Driver/Src/stm32f7xx_hal_rcc.c ****       while(__HAL_RCC_GET_FLAG(RCC_FLAG_LSERDY) == RESET)
 822              		.loc 1 572 7 is_stmt 1 view .LVU259
 823              	.L69:
 824              		.loc 1 572 13 is_stmt 0 view .LVU260
 825 0280 0C4B     		ldr	r3, .L117
 826 0282 1B6F     		ldr	r3, [r3, #112]
ARM GAS  /tmp/ccNE9tpB.s 			page 28


 827              		.loc 1 572 12 view .LVU261
 828 0284 13F0020F 		tst	r3, #2
 829 0288 33D1     		bne	.L71
 573:Drivers/STM32F7xx_HAL_Driver/Src/stm32f7xx_hal_rcc.c ****       {
 574:Drivers/STM32F7xx_HAL_Driver/Src/stm32f7xx_hal_rcc.c ****         if((HAL_GetTick() - tickstart ) > RCC_LSE_TIMEOUT_VALUE)
 830              		.loc 1 574 9 is_stmt 1 view .LVU262
 831              		.loc 1 574 13 is_stmt 0 view .LVU263
 832 028a FFF7FEFF 		bl	HAL_GetTick
 833              	.LVL62:
 834              		.loc 1 574 27 view .LVU264
 835 028e 801B     		subs	r0, r0, r6
 836              		.loc 1 574 11 view .LVU265
 837 0290 41F28833 		movw	r3, #5000
 838 0294 9842     		cmp	r0, r3
 839 0296 F3D9     		bls	.L69
 575:Drivers/STM32F7xx_HAL_Driver/Src/stm32f7xx_hal_rcc.c ****         {
 576:Drivers/STM32F7xx_HAL_Driver/Src/stm32f7xx_hal_rcc.c ****           return HAL_TIMEOUT;
 840              		.loc 1 576 18 view .LVU266
 841 0298 0320     		movs	r0, #3
 842 029a 94E0     		b	.L31
 843              	.LVL63:
 844              	.L66:
 564:Drivers/STM32F7xx_HAL_Driver/Src/stm32f7xx_hal_rcc.c ****     /* Check the LSE State */
 845              		.loc 1 564 5 is_stmt 1 discriminator 4 view .LVU267
 846 029c 052B     		cmp	r3, #5
 847 029e 0DD0     		beq	.L111
 564:Drivers/STM32F7xx_HAL_Driver/Src/stm32f7xx_hal_rcc.c ****     /* Check the LSE State */
 848              		.loc 1 564 5 discriminator 6 view .LVU268
 849 02a0 044B     		ldr	r3, .L117
 850 02a2 1A6F     		ldr	r2, [r3, #112]
 851 02a4 22F00102 		bic	r2, r2, #1
 852 02a8 1A67     		str	r2, [r3, #112]
 564:Drivers/STM32F7xx_HAL_Driver/Src/stm32f7xx_hal_rcc.c ****     /* Check the LSE State */
 853              		.loc 1 564 5 discriminator 6 view .LVU269
 854 02aa 1A6F     		ldr	r2, [r3, #112]
 855 02ac 22F00402 		bic	r2, r2, #4
 856 02b0 1A67     		str	r2, [r3, #112]
 857 02b2 E0E7     		b	.L65
 858              	.L118:
 859              		.align	2
 860              	.L117:
 861 02b4 00380240 		.word	1073887232
 862 02b8 00700040 		.word	1073770496
 863              	.L111:
 564:Drivers/STM32F7xx_HAL_Driver/Src/stm32f7xx_hal_rcc.c ****     /* Check the LSE State */
 864              		.loc 1 564 5 discriminator 5 view .LVU270
 865 02bc 444B     		ldr	r3, .L119
 866 02be 1A6F     		ldr	r2, [r3, #112]
 867 02c0 42F00402 		orr	r2, r2, #4
 868 02c4 1A67     		str	r2, [r3, #112]
 564:Drivers/STM32F7xx_HAL_Driver/Src/stm32f7xx_hal_rcc.c ****     /* Check the LSE State */
 869              		.loc 1 564 5 discriminator 5 view .LVU271
 870 02c6 1A6F     		ldr	r2, [r3, #112]
 871 02c8 42F00102 		orr	r2, r2, #1
 872 02cc 1A67     		str	r2, [r3, #112]
 873 02ce D2E7     		b	.L65
 874              	.L68:
ARM GAS  /tmp/ccNE9tpB.s 			page 29


 577:Drivers/STM32F7xx_HAL_Driver/Src/stm32f7xx_hal_rcc.c ****         }
 578:Drivers/STM32F7xx_HAL_Driver/Src/stm32f7xx_hal_rcc.c ****       }
 579:Drivers/STM32F7xx_HAL_Driver/Src/stm32f7xx_hal_rcc.c ****     }
 580:Drivers/STM32F7xx_HAL_Driver/Src/stm32f7xx_hal_rcc.c ****     else
 581:Drivers/STM32F7xx_HAL_Driver/Src/stm32f7xx_hal_rcc.c ****     {
 582:Drivers/STM32F7xx_HAL_Driver/Src/stm32f7xx_hal_rcc.c ****       /* Get Start Tick*/
 583:Drivers/STM32F7xx_HAL_Driver/Src/stm32f7xx_hal_rcc.c ****       tickstart = HAL_GetTick();
 875              		.loc 1 583 7 view .LVU272
 876              		.loc 1 583 19 is_stmt 0 view .LVU273
 877 02d0 FFF7FEFF 		bl	HAL_GetTick
 878              	.LVL64:
 879 02d4 0646     		mov	r6, r0
 880              	.LVL65:
 584:Drivers/STM32F7xx_HAL_Driver/Src/stm32f7xx_hal_rcc.c **** 
 585:Drivers/STM32F7xx_HAL_Driver/Src/stm32f7xx_hal_rcc.c ****       /* Wait till LSE is ready */
 586:Drivers/STM32F7xx_HAL_Driver/Src/stm32f7xx_hal_rcc.c ****       while(__HAL_RCC_GET_FLAG(RCC_FLAG_LSERDY) != RESET)
 881              		.loc 1 586 7 is_stmt 1 view .LVU274
 882              	.L72:
 883              		.loc 1 586 13 is_stmt 0 view .LVU275
 884 02d6 3E4B     		ldr	r3, .L119
 885 02d8 1B6F     		ldr	r3, [r3, #112]
 886              		.loc 1 586 12 view .LVU276
 887 02da 13F0020F 		tst	r3, #2
 888 02de 08D0     		beq	.L71
 587:Drivers/STM32F7xx_HAL_Driver/Src/stm32f7xx_hal_rcc.c ****       {
 588:Drivers/STM32F7xx_HAL_Driver/Src/stm32f7xx_hal_rcc.c ****         if((HAL_GetTick() - tickstart ) > RCC_LSE_TIMEOUT_VALUE)
 889              		.loc 1 588 9 is_stmt 1 view .LVU277
 890              		.loc 1 588 13 is_stmt 0 view .LVU278
 891 02e0 FFF7FEFF 		bl	HAL_GetTick
 892              	.LVL66:
 893              		.loc 1 588 27 view .LVU279
 894 02e4 801B     		subs	r0, r0, r6
 895              		.loc 1 588 11 view .LVU280
 896 02e6 41F28833 		movw	r3, #5000
 897 02ea 9842     		cmp	r0, r3
 898 02ec F3D9     		bls	.L72
 589:Drivers/STM32F7xx_HAL_Driver/Src/stm32f7xx_hal_rcc.c ****         {
 590:Drivers/STM32F7xx_HAL_Driver/Src/stm32f7xx_hal_rcc.c ****           return HAL_TIMEOUT;
 899              		.loc 1 590 18 view .LVU281
 900 02ee 0320     		movs	r0, #3
 901 02f0 69E0     		b	.L31
 902              	.L71:
 591:Drivers/STM32F7xx_HAL_Driver/Src/stm32f7xx_hal_rcc.c ****         }
 592:Drivers/STM32F7xx_HAL_Driver/Src/stm32f7xx_hal_rcc.c ****       }
 593:Drivers/STM32F7xx_HAL_Driver/Src/stm32f7xx_hal_rcc.c ****     }
 594:Drivers/STM32F7xx_HAL_Driver/Src/stm32f7xx_hal_rcc.c **** 
 595:Drivers/STM32F7xx_HAL_Driver/Src/stm32f7xx_hal_rcc.c ****     /* Restore clock configuration if changed */
 596:Drivers/STM32F7xx_HAL_Driver/Src/stm32f7xx_hal_rcc.c ****     if(pwrclkchanged == SET)
 903              		.loc 1 596 5 is_stmt 1 view .LVU282
 904              		.loc 1 596 7 is_stmt 0 view .LVU283
 905 02f2 F5B9     		cbnz	r5, .L112
 906              	.LVL67:
 907              	.L59:
 597:Drivers/STM32F7xx_HAL_Driver/Src/stm32f7xx_hal_rcc.c ****     {
 598:Drivers/STM32F7xx_HAL_Driver/Src/stm32f7xx_hal_rcc.c ****       __HAL_RCC_PWR_CLK_DISABLE();
 599:Drivers/STM32F7xx_HAL_Driver/Src/stm32f7xx_hal_rcc.c ****     }
 600:Drivers/STM32F7xx_HAL_Driver/Src/stm32f7xx_hal_rcc.c ****   }
ARM GAS  /tmp/ccNE9tpB.s 			page 30


 601:Drivers/STM32F7xx_HAL_Driver/Src/stm32f7xx_hal_rcc.c ****   /*-------------------------------- PLL Configuration -----------------------*/
 602:Drivers/STM32F7xx_HAL_Driver/Src/stm32f7xx_hal_rcc.c ****   /* Check the parameters */
 603:Drivers/STM32F7xx_HAL_Driver/Src/stm32f7xx_hal_rcc.c ****   assert_param(IS_RCC_PLL(RCC_OscInitStruct->PLL.PLLState));
 908              		.loc 1 603 3 is_stmt 1 view .LVU284
 604:Drivers/STM32F7xx_HAL_Driver/Src/stm32f7xx_hal_rcc.c ****   if ((RCC_OscInitStruct->PLL.PLLState) != RCC_PLL_NONE)
 909              		.loc 1 604 3 view .LVU285
 910              		.loc 1 604 30 is_stmt 0 view .LVU286
 911 02f4 A369     		ldr	r3, [r4, #24]
 912              		.loc 1 604 6 view .LVU287
 913 02f6 002B     		cmp	r3, #0
 914 02f8 64D0     		beq	.L94
 605:Drivers/STM32F7xx_HAL_Driver/Src/stm32f7xx_hal_rcc.c ****   {
 606:Drivers/STM32F7xx_HAL_Driver/Src/stm32f7xx_hal_rcc.c ****     /* Check if the PLL is used as system clock or not */
 607:Drivers/STM32F7xx_HAL_Driver/Src/stm32f7xx_hal_rcc.c ****     if(__HAL_RCC_GET_SYSCLK_SOURCE() != RCC_SYSCLKSOURCE_STATUS_PLLCLK)
 915              		.loc 1 607 5 is_stmt 1 view .LVU288
 916              		.loc 1 607 8 is_stmt 0 view .LVU289
 917 02fa 354A     		ldr	r2, .L119
 918 02fc 9268     		ldr	r2, [r2, #8]
 919 02fe 02F00C02 		and	r2, r2, #12
 920              		.loc 1 607 7 view .LVU290
 921 0302 082A     		cmp	r2, #8
 922 0304 61D0     		beq	.L95
 608:Drivers/STM32F7xx_HAL_Driver/Src/stm32f7xx_hal_rcc.c ****     {
 609:Drivers/STM32F7xx_HAL_Driver/Src/stm32f7xx_hal_rcc.c ****       if((RCC_OscInitStruct->PLL.PLLState) == RCC_PLL_ON)
 923              		.loc 1 609 7 is_stmt 1 view .LVU291
 924              		.loc 1 609 9 is_stmt 0 view .LVU292
 925 0306 022B     		cmp	r3, #2
 926 0308 19D0     		beq	.L113
 610:Drivers/STM32F7xx_HAL_Driver/Src/stm32f7xx_hal_rcc.c ****       {
 611:Drivers/STM32F7xx_HAL_Driver/Src/stm32f7xx_hal_rcc.c ****         /* Check the parameters */
 612:Drivers/STM32F7xx_HAL_Driver/Src/stm32f7xx_hal_rcc.c ****         assert_param(IS_RCC_PLLSOURCE(RCC_OscInitStruct->PLL.PLLSource));
 613:Drivers/STM32F7xx_HAL_Driver/Src/stm32f7xx_hal_rcc.c ****         assert_param(IS_RCC_PLLM_VALUE(RCC_OscInitStruct->PLL.PLLM));
 614:Drivers/STM32F7xx_HAL_Driver/Src/stm32f7xx_hal_rcc.c ****         assert_param(IS_RCC_PLLN_VALUE(RCC_OscInitStruct->PLL.PLLN));
 615:Drivers/STM32F7xx_HAL_Driver/Src/stm32f7xx_hal_rcc.c ****         assert_param(IS_RCC_PLLP_VALUE(RCC_OscInitStruct->PLL.PLLP));
 616:Drivers/STM32F7xx_HAL_Driver/Src/stm32f7xx_hal_rcc.c ****         assert_param(IS_RCC_PLLQ_VALUE(RCC_OscInitStruct->PLL.PLLQ));
 617:Drivers/STM32F7xx_HAL_Driver/Src/stm32f7xx_hal_rcc.c **** #if defined (RCC_PLLCFGR_PLLR)
 618:Drivers/STM32F7xx_HAL_Driver/Src/stm32f7xx_hal_rcc.c ****         assert_param(IS_RCC_PLLR_VALUE(RCC_OscInitStruct->PLL.PLLR));
 619:Drivers/STM32F7xx_HAL_Driver/Src/stm32f7xx_hal_rcc.c **** #endif
 620:Drivers/STM32F7xx_HAL_Driver/Src/stm32f7xx_hal_rcc.c **** 
 621:Drivers/STM32F7xx_HAL_Driver/Src/stm32f7xx_hal_rcc.c ****         /* Disable the main PLL. */
 622:Drivers/STM32F7xx_HAL_Driver/Src/stm32f7xx_hal_rcc.c ****         __HAL_RCC_PLL_DISABLE();
 623:Drivers/STM32F7xx_HAL_Driver/Src/stm32f7xx_hal_rcc.c **** 
 624:Drivers/STM32F7xx_HAL_Driver/Src/stm32f7xx_hal_rcc.c ****         /* Get Start Tick*/
 625:Drivers/STM32F7xx_HAL_Driver/Src/stm32f7xx_hal_rcc.c ****         tickstart = HAL_GetTick();
 626:Drivers/STM32F7xx_HAL_Driver/Src/stm32f7xx_hal_rcc.c **** 
 627:Drivers/STM32F7xx_HAL_Driver/Src/stm32f7xx_hal_rcc.c ****         /* Wait till PLL is ready */
 628:Drivers/STM32F7xx_HAL_Driver/Src/stm32f7xx_hal_rcc.c ****         while(__HAL_RCC_GET_FLAG(RCC_FLAG_PLLRDY) != RESET)
 629:Drivers/STM32F7xx_HAL_Driver/Src/stm32f7xx_hal_rcc.c ****         {
 630:Drivers/STM32F7xx_HAL_Driver/Src/stm32f7xx_hal_rcc.c ****           if((HAL_GetTick() - tickstart ) > PLL_TIMEOUT_VALUE)
 631:Drivers/STM32F7xx_HAL_Driver/Src/stm32f7xx_hal_rcc.c ****           {
 632:Drivers/STM32F7xx_HAL_Driver/Src/stm32f7xx_hal_rcc.c ****             return HAL_TIMEOUT;
 633:Drivers/STM32F7xx_HAL_Driver/Src/stm32f7xx_hal_rcc.c ****           }
 634:Drivers/STM32F7xx_HAL_Driver/Src/stm32f7xx_hal_rcc.c ****         }
 635:Drivers/STM32F7xx_HAL_Driver/Src/stm32f7xx_hal_rcc.c **** 
 636:Drivers/STM32F7xx_HAL_Driver/Src/stm32f7xx_hal_rcc.c ****         /* Configure the main PLL clock source, multiplication and division factors. */
 637:Drivers/STM32F7xx_HAL_Driver/Src/stm32f7xx_hal_rcc.c **** #if defined (RCC_PLLCFGR_PLLR)
 638:Drivers/STM32F7xx_HAL_Driver/Src/stm32f7xx_hal_rcc.c ****         __HAL_RCC_PLL_CONFIG(RCC_OscInitStruct->PLL.PLLSource,
ARM GAS  /tmp/ccNE9tpB.s 			page 31


 639:Drivers/STM32F7xx_HAL_Driver/Src/stm32f7xx_hal_rcc.c ****                              RCC_OscInitStruct->PLL.PLLM,
 640:Drivers/STM32F7xx_HAL_Driver/Src/stm32f7xx_hal_rcc.c ****                              RCC_OscInitStruct->PLL.PLLN,
 641:Drivers/STM32F7xx_HAL_Driver/Src/stm32f7xx_hal_rcc.c ****                              RCC_OscInitStruct->PLL.PLLP,
 642:Drivers/STM32F7xx_HAL_Driver/Src/stm32f7xx_hal_rcc.c ****                              RCC_OscInitStruct->PLL.PLLQ,
 643:Drivers/STM32F7xx_HAL_Driver/Src/stm32f7xx_hal_rcc.c ****                              RCC_OscInitStruct->PLL.PLLR);
 644:Drivers/STM32F7xx_HAL_Driver/Src/stm32f7xx_hal_rcc.c **** #else
 645:Drivers/STM32F7xx_HAL_Driver/Src/stm32f7xx_hal_rcc.c ****         __HAL_RCC_PLL_CONFIG(RCC_OscInitStruct->PLL.PLLSource,
 646:Drivers/STM32F7xx_HAL_Driver/Src/stm32f7xx_hal_rcc.c ****                              RCC_OscInitStruct->PLL.PLLM,
 647:Drivers/STM32F7xx_HAL_Driver/Src/stm32f7xx_hal_rcc.c ****                              RCC_OscInitStruct->PLL.PLLN,
 648:Drivers/STM32F7xx_HAL_Driver/Src/stm32f7xx_hal_rcc.c ****                              RCC_OscInitStruct->PLL.PLLP,
 649:Drivers/STM32F7xx_HAL_Driver/Src/stm32f7xx_hal_rcc.c ****                              RCC_OscInitStruct->PLL.PLLQ);
 650:Drivers/STM32F7xx_HAL_Driver/Src/stm32f7xx_hal_rcc.c **** #endif
 651:Drivers/STM32F7xx_HAL_Driver/Src/stm32f7xx_hal_rcc.c **** 
 652:Drivers/STM32F7xx_HAL_Driver/Src/stm32f7xx_hal_rcc.c ****         /* Enable the main PLL. */
 653:Drivers/STM32F7xx_HAL_Driver/Src/stm32f7xx_hal_rcc.c ****         __HAL_RCC_PLL_ENABLE();
 654:Drivers/STM32F7xx_HAL_Driver/Src/stm32f7xx_hal_rcc.c **** 
 655:Drivers/STM32F7xx_HAL_Driver/Src/stm32f7xx_hal_rcc.c ****         /* Get Start Tick*/
 656:Drivers/STM32F7xx_HAL_Driver/Src/stm32f7xx_hal_rcc.c ****         tickstart = HAL_GetTick();
 657:Drivers/STM32F7xx_HAL_Driver/Src/stm32f7xx_hal_rcc.c **** 
 658:Drivers/STM32F7xx_HAL_Driver/Src/stm32f7xx_hal_rcc.c ****         /* Wait till PLL is ready */
 659:Drivers/STM32F7xx_HAL_Driver/Src/stm32f7xx_hal_rcc.c ****         while(__HAL_RCC_GET_FLAG(RCC_FLAG_PLLRDY) == RESET)
 660:Drivers/STM32F7xx_HAL_Driver/Src/stm32f7xx_hal_rcc.c ****         {
 661:Drivers/STM32F7xx_HAL_Driver/Src/stm32f7xx_hal_rcc.c ****           if((HAL_GetTick() - tickstart ) > PLL_TIMEOUT_VALUE)
 662:Drivers/STM32F7xx_HAL_Driver/Src/stm32f7xx_hal_rcc.c ****           {
 663:Drivers/STM32F7xx_HAL_Driver/Src/stm32f7xx_hal_rcc.c ****             return HAL_TIMEOUT;
 664:Drivers/STM32F7xx_HAL_Driver/Src/stm32f7xx_hal_rcc.c ****           }
 665:Drivers/STM32F7xx_HAL_Driver/Src/stm32f7xx_hal_rcc.c ****         }
 666:Drivers/STM32F7xx_HAL_Driver/Src/stm32f7xx_hal_rcc.c ****       }
 667:Drivers/STM32F7xx_HAL_Driver/Src/stm32f7xx_hal_rcc.c ****       else
 668:Drivers/STM32F7xx_HAL_Driver/Src/stm32f7xx_hal_rcc.c ****       {
 669:Drivers/STM32F7xx_HAL_Driver/Src/stm32f7xx_hal_rcc.c ****         /* Disable the main PLL. */
 670:Drivers/STM32F7xx_HAL_Driver/Src/stm32f7xx_hal_rcc.c ****         __HAL_RCC_PLL_DISABLE();
 927              		.loc 1 670 9 is_stmt 1 view .LVU293
 928 030a 314A     		ldr	r2, .L119
 929 030c 1368     		ldr	r3, [r2]
 930 030e 23F08073 		bic	r3, r3, #16777216
 931 0312 1360     		str	r3, [r2]
 671:Drivers/STM32F7xx_HAL_Driver/Src/stm32f7xx_hal_rcc.c **** 
 672:Drivers/STM32F7xx_HAL_Driver/Src/stm32f7xx_hal_rcc.c ****         /* Get Start Tick*/
 673:Drivers/STM32F7xx_HAL_Driver/Src/stm32f7xx_hal_rcc.c ****         tickstart = HAL_GetTick();
 932              		.loc 1 673 9 view .LVU294
 933              		.loc 1 673 21 is_stmt 0 view .LVU295
 934 0314 FFF7FEFF 		bl	HAL_GetTick
 935              	.LVL68:
 936 0318 0446     		mov	r4, r0
 937              	.LVL69:
 674:Drivers/STM32F7xx_HAL_Driver/Src/stm32f7xx_hal_rcc.c **** 
 675:Drivers/STM32F7xx_HAL_Driver/Src/stm32f7xx_hal_rcc.c ****         /* Wait till PLL is ready */
 676:Drivers/STM32F7xx_HAL_Driver/Src/stm32f7xx_hal_rcc.c ****         while(__HAL_RCC_GET_FLAG(RCC_FLAG_PLLRDY) != RESET)
 938              		.loc 1 676 9 is_stmt 1 view .LVU296
 939              	.L79:
 940              		.loc 1 676 15 is_stmt 0 view .LVU297
 941 031a 2D4B     		ldr	r3, .L119
 942 031c 1B68     		ldr	r3, [r3]
 943              		.loc 1 676 14 view .LVU298
 944 031e 13F0007F 		tst	r3, #33554432
 945 0322 47D0     		beq	.L114
ARM GAS  /tmp/ccNE9tpB.s 			page 32


 677:Drivers/STM32F7xx_HAL_Driver/Src/stm32f7xx_hal_rcc.c ****         {
 678:Drivers/STM32F7xx_HAL_Driver/Src/stm32f7xx_hal_rcc.c ****           if((HAL_GetTick() - tickstart ) > PLL_TIMEOUT_VALUE)
 946              		.loc 1 678 11 is_stmt 1 view .LVU299
 947              		.loc 1 678 15 is_stmt 0 view .LVU300
 948 0324 FFF7FEFF 		bl	HAL_GetTick
 949              	.LVL70:
 950              		.loc 1 678 29 view .LVU301
 951 0328 001B     		subs	r0, r0, r4
 952              		.loc 1 678 13 view .LVU302
 953 032a 0228     		cmp	r0, #2
 954 032c F5D9     		bls	.L79
 679:Drivers/STM32F7xx_HAL_Driver/Src/stm32f7xx_hal_rcc.c ****           {
 680:Drivers/STM32F7xx_HAL_Driver/Src/stm32f7xx_hal_rcc.c ****             return HAL_TIMEOUT;
 955              		.loc 1 680 20 view .LVU303
 956 032e 0320     		movs	r0, #3
 957 0330 49E0     		b	.L31
 958              	.LVL71:
 959              	.L112:
 598:Drivers/STM32F7xx_HAL_Driver/Src/stm32f7xx_hal_rcc.c ****     }
 960              		.loc 1 598 7 is_stmt 1 view .LVU304
 961 0332 274A     		ldr	r2, .L119
 962 0334 136C     		ldr	r3, [r2, #64]
 963 0336 23F08053 		bic	r3, r3, #268435456
 964 033a 1364     		str	r3, [r2, #64]
 965 033c DAE7     		b	.L59
 966              	.LVL72:
 967              	.L113:
 612:Drivers/STM32F7xx_HAL_Driver/Src/stm32f7xx_hal_rcc.c ****         assert_param(IS_RCC_PLLM_VALUE(RCC_OscInitStruct->PLL.PLLM));
 968              		.loc 1 612 9 view .LVU305
 613:Drivers/STM32F7xx_HAL_Driver/Src/stm32f7xx_hal_rcc.c ****         assert_param(IS_RCC_PLLN_VALUE(RCC_OscInitStruct->PLL.PLLN));
 969              		.loc 1 613 9 view .LVU306
 614:Drivers/STM32F7xx_HAL_Driver/Src/stm32f7xx_hal_rcc.c ****         assert_param(IS_RCC_PLLP_VALUE(RCC_OscInitStruct->PLL.PLLP));
 970              		.loc 1 614 9 view .LVU307
 615:Drivers/STM32F7xx_HAL_Driver/Src/stm32f7xx_hal_rcc.c ****         assert_param(IS_RCC_PLLQ_VALUE(RCC_OscInitStruct->PLL.PLLQ));
 971              		.loc 1 615 9 view .LVU308
 616:Drivers/STM32F7xx_HAL_Driver/Src/stm32f7xx_hal_rcc.c **** #if defined (RCC_PLLCFGR_PLLR)
 972              		.loc 1 616 9 view .LVU309
 622:Drivers/STM32F7xx_HAL_Driver/Src/stm32f7xx_hal_rcc.c **** 
 973              		.loc 1 622 9 view .LVU310
 974 033e 244A     		ldr	r2, .L119
 975 0340 1368     		ldr	r3, [r2]
 976 0342 23F08073 		bic	r3, r3, #16777216
 977 0346 1360     		str	r3, [r2]
 625:Drivers/STM32F7xx_HAL_Driver/Src/stm32f7xx_hal_rcc.c **** 
 978              		.loc 1 625 9 view .LVU311
 625:Drivers/STM32F7xx_HAL_Driver/Src/stm32f7xx_hal_rcc.c **** 
 979              		.loc 1 625 21 is_stmt 0 view .LVU312
 980 0348 FFF7FEFF 		bl	HAL_GetTick
 981              	.LVL73:
 982 034c 0546     		mov	r5, r0
 983              	.LVL74:
 628:Drivers/STM32F7xx_HAL_Driver/Src/stm32f7xx_hal_rcc.c ****         {
 984              		.loc 1 628 9 is_stmt 1 view .LVU313
 985              	.L75:
 628:Drivers/STM32F7xx_HAL_Driver/Src/stm32f7xx_hal_rcc.c ****         {
 986              		.loc 1 628 15 is_stmt 0 view .LVU314
 987 034e 204B     		ldr	r3, .L119
ARM GAS  /tmp/ccNE9tpB.s 			page 33


 988 0350 1B68     		ldr	r3, [r3]
 628:Drivers/STM32F7xx_HAL_Driver/Src/stm32f7xx_hal_rcc.c ****         {
 989              		.loc 1 628 14 view .LVU315
 990 0352 13F0007F 		tst	r3, #33554432
 991 0356 06D0     		beq	.L115
 630:Drivers/STM32F7xx_HAL_Driver/Src/stm32f7xx_hal_rcc.c ****           {
 992              		.loc 1 630 11 is_stmt 1 view .LVU316
 630:Drivers/STM32F7xx_HAL_Driver/Src/stm32f7xx_hal_rcc.c ****           {
 993              		.loc 1 630 15 is_stmt 0 view .LVU317
 994 0358 FFF7FEFF 		bl	HAL_GetTick
 995              	.LVL75:
 630:Drivers/STM32F7xx_HAL_Driver/Src/stm32f7xx_hal_rcc.c ****           {
 996              		.loc 1 630 29 view .LVU318
 997 035c 401B     		subs	r0, r0, r5
 630:Drivers/STM32F7xx_HAL_Driver/Src/stm32f7xx_hal_rcc.c ****           {
 998              		.loc 1 630 13 view .LVU319
 999 035e 0228     		cmp	r0, #2
 1000 0360 F5D9     		bls	.L75
 632:Drivers/STM32F7xx_HAL_Driver/Src/stm32f7xx_hal_rcc.c ****           }
 1001              		.loc 1 632 20 view .LVU320
 1002 0362 0320     		movs	r0, #3
 1003 0364 2FE0     		b	.L31
 1004              	.L115:
 645:Drivers/STM32F7xx_HAL_Driver/Src/stm32f7xx_hal_rcc.c ****                              RCC_OscInitStruct->PLL.PLLM,
 1005              		.loc 1 645 9 is_stmt 1 view .LVU321
 1006 0366 E369     		ldr	r3, [r4, #28]
 1007 0368 226A     		ldr	r2, [r4, #32]
 1008 036a 1343     		orrs	r3, r3, r2
 1009 036c 626A     		ldr	r2, [r4, #36]
 1010 036e 43EA8213 		orr	r3, r3, r2, lsl #6
 1011 0372 A26A     		ldr	r2, [r4, #40]
 1012 0374 5208     		lsrs	r2, r2, #1
 1013 0376 013A     		subs	r2, r2, #1
 1014 0378 43EA0243 		orr	r3, r3, r2, lsl #16
 1015 037c E26A     		ldr	r2, [r4, #44]
 1016 037e 43EA0263 		orr	r3, r3, r2, lsl #24
 1017 0382 43F00053 		orr	r3, r3, #536870912
 1018 0386 124A     		ldr	r2, .L119
 1019 0388 5360     		str	r3, [r2, #4]
 653:Drivers/STM32F7xx_HAL_Driver/Src/stm32f7xx_hal_rcc.c **** 
 1020              		.loc 1 653 9 view .LVU322
 1021 038a 1368     		ldr	r3, [r2]
 1022 038c 43F08073 		orr	r3, r3, #16777216
 1023 0390 1360     		str	r3, [r2]
 656:Drivers/STM32F7xx_HAL_Driver/Src/stm32f7xx_hal_rcc.c **** 
 1024              		.loc 1 656 9 view .LVU323
 656:Drivers/STM32F7xx_HAL_Driver/Src/stm32f7xx_hal_rcc.c **** 
 1025              		.loc 1 656 21 is_stmt 0 view .LVU324
 1026 0392 FFF7FEFF 		bl	HAL_GetTick
 1027              	.LVL76:
 1028 0396 0446     		mov	r4, r0
 1029              	.LVL77:
 659:Drivers/STM32F7xx_HAL_Driver/Src/stm32f7xx_hal_rcc.c ****         {
 1030              		.loc 1 659 9 is_stmt 1 view .LVU325
 1031              	.L77:
 659:Drivers/STM32F7xx_HAL_Driver/Src/stm32f7xx_hal_rcc.c ****         {
 1032              		.loc 1 659 15 is_stmt 0 view .LVU326
ARM GAS  /tmp/ccNE9tpB.s 			page 34


 1033 0398 0D4B     		ldr	r3, .L119
 1034 039a 1B68     		ldr	r3, [r3]
 659:Drivers/STM32F7xx_HAL_Driver/Src/stm32f7xx_hal_rcc.c ****         {
 1035              		.loc 1 659 14 view .LVU327
 1036 039c 13F0007F 		tst	r3, #33554432
 1037 03a0 06D1     		bne	.L116
 661:Drivers/STM32F7xx_HAL_Driver/Src/stm32f7xx_hal_rcc.c ****           {
 1038              		.loc 1 661 11 is_stmt 1 view .LVU328
 661:Drivers/STM32F7xx_HAL_Driver/Src/stm32f7xx_hal_rcc.c ****           {
 1039              		.loc 1 661 15 is_stmt 0 view .LVU329
 1040 03a2 FFF7FEFF 		bl	HAL_GetTick
 1041              	.LVL78:
 661:Drivers/STM32F7xx_HAL_Driver/Src/stm32f7xx_hal_rcc.c ****           {
 1042              		.loc 1 661 29 view .LVU330
 1043 03a6 001B     		subs	r0, r0, r4
 661:Drivers/STM32F7xx_HAL_Driver/Src/stm32f7xx_hal_rcc.c ****           {
 1044              		.loc 1 661 13 view .LVU331
 1045 03a8 0228     		cmp	r0, #2
 1046 03aa F5D9     		bls	.L77
 663:Drivers/STM32F7xx_HAL_Driver/Src/stm32f7xx_hal_rcc.c ****           }
 1047              		.loc 1 663 20 view .LVU332
 1048 03ac 0320     		movs	r0, #3
 1049 03ae 0AE0     		b	.L31
 1050              	.L116:
 681:Drivers/STM32F7xx_HAL_Driver/Src/stm32f7xx_hal_rcc.c ****           }
 682:Drivers/STM32F7xx_HAL_Driver/Src/stm32f7xx_hal_rcc.c ****         }
 683:Drivers/STM32F7xx_HAL_Driver/Src/stm32f7xx_hal_rcc.c ****       }
 684:Drivers/STM32F7xx_HAL_Driver/Src/stm32f7xx_hal_rcc.c ****     }
 685:Drivers/STM32F7xx_HAL_Driver/Src/stm32f7xx_hal_rcc.c ****     else
 686:Drivers/STM32F7xx_HAL_Driver/Src/stm32f7xx_hal_rcc.c ****     {
 687:Drivers/STM32F7xx_HAL_Driver/Src/stm32f7xx_hal_rcc.c ****       return HAL_ERROR;
 688:Drivers/STM32F7xx_HAL_Driver/Src/stm32f7xx_hal_rcc.c ****     }
 689:Drivers/STM32F7xx_HAL_Driver/Src/stm32f7xx_hal_rcc.c ****   }
 690:Drivers/STM32F7xx_HAL_Driver/Src/stm32f7xx_hal_rcc.c ****   return HAL_OK;
 1051              		.loc 1 690 10 view .LVU333
 1052 03b0 0020     		movs	r0, #0
 1053 03b2 08E0     		b	.L31
 1054              	.L114:
 1055              		.loc 1 690 10 view .LVU334
 1056 03b4 0020     		movs	r0, #0
 1057 03b6 06E0     		b	.L31
 1058              	.LVL79:
 1059              	.L81:
 1060              	.LCFI3:
 1061              		.cfi_def_cfa_offset 0
 1062              		.cfi_restore 4
 1063              		.cfi_restore 5
 1064              		.cfi_restore 6
 1065              		.cfi_restore 14
 368:Drivers/STM32F7xx_HAL_Driver/Src/stm32f7xx_hal_rcc.c ****   }
 1066              		.loc 1 368 12 view .LVU335
 1067 03b8 0120     		movs	r0, #1
 1068              	.LVL80:
 691:Drivers/STM32F7xx_HAL_Driver/Src/stm32f7xx_hal_rcc.c **** }
 1069              		.loc 1 691 1 view .LVU336
 1070 03ba 7047     		bx	lr
 1071              	.LVL81:
ARM GAS  /tmp/ccNE9tpB.s 			page 35


 1072              	.L105:
 1073              	.LCFI4:
 1074              		.cfi_def_cfa_offset 24
 1075              		.cfi_offset 4, -16
 1076              		.cfi_offset 5, -12
 1077              		.cfi_offset 6, -8
 1078              		.cfi_offset 14, -4
 385:Drivers/STM32F7xx_HAL_Driver/Src/stm32f7xx_hal_rcc.c ****       }
 1079              		.loc 1 385 16 view .LVU337
 1080 03bc 0120     		movs	r0, #1
 1081              	.LVL82:
 385:Drivers/STM32F7xx_HAL_Driver/Src/stm32f7xx_hal_rcc.c ****       }
 1082              		.loc 1 385 16 view .LVU338
 1083 03be 02E0     		b	.L31
 1084              	.L85:
 438:Drivers/STM32F7xx_HAL_Driver/Src/stm32f7xx_hal_rcc.c ****       }
 1085              		.loc 1 438 16 view .LVU339
 1086 03c0 0120     		movs	r0, #1
 1087 03c2 00E0     		b	.L31
 1088              	.LVL83:
 1089              	.L94:
 690:Drivers/STM32F7xx_HAL_Driver/Src/stm32f7xx_hal_rcc.c **** }
 1090              		.loc 1 690 10 view .LVU340
 1091 03c4 0020     		movs	r0, #0
 1092              	.LVL84:
 1093              	.L31:
 1094              		.loc 1 691 1 view .LVU341
 1095 03c6 02B0     		add	sp, sp, #8
 1096              	.LCFI5:
 1097              		.cfi_remember_state
 1098              		.cfi_def_cfa_offset 16
 1099              		@ sp needed
 1100 03c8 70BD     		pop	{r4, r5, r6, pc}
 1101              	.LVL85:
 1102              	.L95:
 1103              	.LCFI6:
 1104              		.cfi_restore_state
 687:Drivers/STM32F7xx_HAL_Driver/Src/stm32f7xx_hal_rcc.c ****     }
 1105              		.loc 1 687 14 view .LVU342
 1106 03ca 0120     		movs	r0, #1
 1107 03cc FBE7     		b	.L31
 1108              	.L120:
 1109 03ce 00BF     		.align	2
 1110              	.L119:
 1111 03d0 00380240 		.word	1073887232
 1112              		.cfi_endproc
 1113              	.LFE139:
 1115              		.section	.text.HAL_RCC_MCOConfig,"ax",%progbits
 1116              		.align	1
 1117              		.global	HAL_RCC_MCOConfig
 1118              		.syntax unified
 1119              		.thumb
 1120              		.thumb_func
 1121              		.fpu fpv5-sp-d16
 1123              	HAL_RCC_MCOConfig:
 1124              	.LVL86:
 1125              	.LFB141:
ARM GAS  /tmp/ccNE9tpB.s 			page 36


 692:Drivers/STM32F7xx_HAL_Driver/Src/stm32f7xx_hal_rcc.c **** 
 693:Drivers/STM32F7xx_HAL_Driver/Src/stm32f7xx_hal_rcc.c **** /**
 694:Drivers/STM32F7xx_HAL_Driver/Src/stm32f7xx_hal_rcc.c ****   * @brief  Initializes the CPU, AHB and APB busses clocks according to the specified
 695:Drivers/STM32F7xx_HAL_Driver/Src/stm32f7xx_hal_rcc.c ****   *         parameters in the RCC_ClkInitStruct.
 696:Drivers/STM32F7xx_HAL_Driver/Src/stm32f7xx_hal_rcc.c ****   * @param  RCC_ClkInitStruct pointer to an RCC_OscInitTypeDef structure that
 697:Drivers/STM32F7xx_HAL_Driver/Src/stm32f7xx_hal_rcc.c ****   *         contains the configuration information for the RCC peripheral.
 698:Drivers/STM32F7xx_HAL_Driver/Src/stm32f7xx_hal_rcc.c ****   * @param  FLatency FLASH Latency, this parameter depend on device selected
 699:Drivers/STM32F7xx_HAL_Driver/Src/stm32f7xx_hal_rcc.c ****   *
 700:Drivers/STM32F7xx_HAL_Driver/Src/stm32f7xx_hal_rcc.c ****   * @note   The SystemCoreClock CMSIS variable is used to store System Clock Frequency
 701:Drivers/STM32F7xx_HAL_Driver/Src/stm32f7xx_hal_rcc.c ****   *         and updated by HAL_RCC_GetHCLKFreq() function called within this function
 702:Drivers/STM32F7xx_HAL_Driver/Src/stm32f7xx_hal_rcc.c ****   *
 703:Drivers/STM32F7xx_HAL_Driver/Src/stm32f7xx_hal_rcc.c ****   * @note   The HSI is used (enabled by hardware) as system clock source after
 704:Drivers/STM32F7xx_HAL_Driver/Src/stm32f7xx_hal_rcc.c ****   *         startup from Reset, wake-up from STOP and STANDBY mode, or in case
 705:Drivers/STM32F7xx_HAL_Driver/Src/stm32f7xx_hal_rcc.c ****   *         of failure of the HSE used directly or indirectly as system clock
 706:Drivers/STM32F7xx_HAL_Driver/Src/stm32f7xx_hal_rcc.c ****   *         (if the Clock Security System CSS is enabled).
 707:Drivers/STM32F7xx_HAL_Driver/Src/stm32f7xx_hal_rcc.c ****   *
 708:Drivers/STM32F7xx_HAL_Driver/Src/stm32f7xx_hal_rcc.c ****   * @note   A switch from one clock source to another occurs only if the target
 709:Drivers/STM32F7xx_HAL_Driver/Src/stm32f7xx_hal_rcc.c ****   *         clock source is ready (clock stable after startup delay or PLL locked).
 710:Drivers/STM32F7xx_HAL_Driver/Src/stm32f7xx_hal_rcc.c ****   *         If a clock source which is not yet ready is selected, the switch will
 711:Drivers/STM32F7xx_HAL_Driver/Src/stm32f7xx_hal_rcc.c ****   *         occur when the clock source will be ready.
 712:Drivers/STM32F7xx_HAL_Driver/Src/stm32f7xx_hal_rcc.c ****   *         You can use HAL_RCC_GetClockConfig() function to know which clock is
 713:Drivers/STM32F7xx_HAL_Driver/Src/stm32f7xx_hal_rcc.c ****   *         currently used as system clock source.
 714:Drivers/STM32F7xx_HAL_Driver/Src/stm32f7xx_hal_rcc.c ****   * @note   Depending on the device voltage range, the software has to set correctly
 715:Drivers/STM32F7xx_HAL_Driver/Src/stm32f7xx_hal_rcc.c ****   *         HPRE[3:0] bits to ensure that HCLK not exceed the maximum allowed frequency
 716:Drivers/STM32F7xx_HAL_Driver/Src/stm32f7xx_hal_rcc.c ****   *         (for more details refer to section above "Initialization/de-initialization functions")
 717:Drivers/STM32F7xx_HAL_Driver/Src/stm32f7xx_hal_rcc.c ****   * @retval None
 718:Drivers/STM32F7xx_HAL_Driver/Src/stm32f7xx_hal_rcc.c ****   */
 719:Drivers/STM32F7xx_HAL_Driver/Src/stm32f7xx_hal_rcc.c **** HAL_StatusTypeDef HAL_RCC_ClockConfig(RCC_ClkInitTypeDef  *RCC_ClkInitStruct, uint32_t FLatency)
 720:Drivers/STM32F7xx_HAL_Driver/Src/stm32f7xx_hal_rcc.c **** {
 721:Drivers/STM32F7xx_HAL_Driver/Src/stm32f7xx_hal_rcc.c ****   uint32_t tickstart = 0;
 722:Drivers/STM32F7xx_HAL_Driver/Src/stm32f7xx_hal_rcc.c **** 
 723:Drivers/STM32F7xx_HAL_Driver/Src/stm32f7xx_hal_rcc.c ****   /* Check Null pointer */
 724:Drivers/STM32F7xx_HAL_Driver/Src/stm32f7xx_hal_rcc.c ****   if(RCC_ClkInitStruct == NULL)
 725:Drivers/STM32F7xx_HAL_Driver/Src/stm32f7xx_hal_rcc.c ****   {
 726:Drivers/STM32F7xx_HAL_Driver/Src/stm32f7xx_hal_rcc.c ****     return HAL_ERROR;
 727:Drivers/STM32F7xx_HAL_Driver/Src/stm32f7xx_hal_rcc.c ****   }
 728:Drivers/STM32F7xx_HAL_Driver/Src/stm32f7xx_hal_rcc.c **** 
 729:Drivers/STM32F7xx_HAL_Driver/Src/stm32f7xx_hal_rcc.c ****   /* Check the parameters */
 730:Drivers/STM32F7xx_HAL_Driver/Src/stm32f7xx_hal_rcc.c ****   assert_param(IS_RCC_CLOCKTYPE(RCC_ClkInitStruct->ClockType));
 731:Drivers/STM32F7xx_HAL_Driver/Src/stm32f7xx_hal_rcc.c ****   assert_param(IS_FLASH_LATENCY(FLatency));
 732:Drivers/STM32F7xx_HAL_Driver/Src/stm32f7xx_hal_rcc.c **** 
 733:Drivers/STM32F7xx_HAL_Driver/Src/stm32f7xx_hal_rcc.c ****   /* To correctly read data from FLASH memory, the number of wait states (LATENCY)
 734:Drivers/STM32F7xx_HAL_Driver/Src/stm32f7xx_hal_rcc.c ****      must be correctly programmed according to the frequency of the CPU clock
 735:Drivers/STM32F7xx_HAL_Driver/Src/stm32f7xx_hal_rcc.c ****      (HCLK) and the supply voltage of the device. */
 736:Drivers/STM32F7xx_HAL_Driver/Src/stm32f7xx_hal_rcc.c **** 
 737:Drivers/STM32F7xx_HAL_Driver/Src/stm32f7xx_hal_rcc.c ****   /* Increasing the CPU frequency */
 738:Drivers/STM32F7xx_HAL_Driver/Src/stm32f7xx_hal_rcc.c ****   if(FLatency > __HAL_FLASH_GET_LATENCY())
 739:Drivers/STM32F7xx_HAL_Driver/Src/stm32f7xx_hal_rcc.c ****   {
 740:Drivers/STM32F7xx_HAL_Driver/Src/stm32f7xx_hal_rcc.c ****     /* Program the new number of wait states to the LATENCY bits in the FLASH_ACR register */
 741:Drivers/STM32F7xx_HAL_Driver/Src/stm32f7xx_hal_rcc.c ****     __HAL_FLASH_SET_LATENCY(FLatency);
 742:Drivers/STM32F7xx_HAL_Driver/Src/stm32f7xx_hal_rcc.c **** 
 743:Drivers/STM32F7xx_HAL_Driver/Src/stm32f7xx_hal_rcc.c ****     /* Check that the new number of wait states is taken into account to access the Flash
 744:Drivers/STM32F7xx_HAL_Driver/Src/stm32f7xx_hal_rcc.c ****     memory by reading the FLASH_ACR register */
 745:Drivers/STM32F7xx_HAL_Driver/Src/stm32f7xx_hal_rcc.c ****     if(__HAL_FLASH_GET_LATENCY() != FLatency)
 746:Drivers/STM32F7xx_HAL_Driver/Src/stm32f7xx_hal_rcc.c ****     {
 747:Drivers/STM32F7xx_HAL_Driver/Src/stm32f7xx_hal_rcc.c ****       return HAL_ERROR;
 748:Drivers/STM32F7xx_HAL_Driver/Src/stm32f7xx_hal_rcc.c ****     }
ARM GAS  /tmp/ccNE9tpB.s 			page 37


 749:Drivers/STM32F7xx_HAL_Driver/Src/stm32f7xx_hal_rcc.c ****   }
 750:Drivers/STM32F7xx_HAL_Driver/Src/stm32f7xx_hal_rcc.c **** 
 751:Drivers/STM32F7xx_HAL_Driver/Src/stm32f7xx_hal_rcc.c ****   /*-------------------------- HCLK Configuration --------------------------*/
 752:Drivers/STM32F7xx_HAL_Driver/Src/stm32f7xx_hal_rcc.c ****   if(((RCC_ClkInitStruct->ClockType) & RCC_CLOCKTYPE_HCLK) == RCC_CLOCKTYPE_HCLK)
 753:Drivers/STM32F7xx_HAL_Driver/Src/stm32f7xx_hal_rcc.c ****   {
 754:Drivers/STM32F7xx_HAL_Driver/Src/stm32f7xx_hal_rcc.c ****     /* Set the highest APBx dividers in order to ensure that we do not go through
 755:Drivers/STM32F7xx_HAL_Driver/Src/stm32f7xx_hal_rcc.c ****        a non-spec phase whatever we decrease or increase HCLK. */
 756:Drivers/STM32F7xx_HAL_Driver/Src/stm32f7xx_hal_rcc.c ****     if(((RCC_ClkInitStruct->ClockType) & RCC_CLOCKTYPE_PCLK1) == RCC_CLOCKTYPE_PCLK1)
 757:Drivers/STM32F7xx_HAL_Driver/Src/stm32f7xx_hal_rcc.c ****     {
 758:Drivers/STM32F7xx_HAL_Driver/Src/stm32f7xx_hal_rcc.c ****       MODIFY_REG(RCC->CFGR, RCC_CFGR_PPRE1, RCC_HCLK_DIV16);
 759:Drivers/STM32F7xx_HAL_Driver/Src/stm32f7xx_hal_rcc.c ****     }
 760:Drivers/STM32F7xx_HAL_Driver/Src/stm32f7xx_hal_rcc.c **** 
 761:Drivers/STM32F7xx_HAL_Driver/Src/stm32f7xx_hal_rcc.c ****     if(((RCC_ClkInitStruct->ClockType) & RCC_CLOCKTYPE_PCLK2) == RCC_CLOCKTYPE_PCLK2)
 762:Drivers/STM32F7xx_HAL_Driver/Src/stm32f7xx_hal_rcc.c ****     {
 763:Drivers/STM32F7xx_HAL_Driver/Src/stm32f7xx_hal_rcc.c ****       MODIFY_REG(RCC->CFGR, RCC_CFGR_PPRE2, (RCC_HCLK_DIV16 << 3));
 764:Drivers/STM32F7xx_HAL_Driver/Src/stm32f7xx_hal_rcc.c ****     }
 765:Drivers/STM32F7xx_HAL_Driver/Src/stm32f7xx_hal_rcc.c **** 
 766:Drivers/STM32F7xx_HAL_Driver/Src/stm32f7xx_hal_rcc.c ****     /* Set the new HCLK clock divider */
 767:Drivers/STM32F7xx_HAL_Driver/Src/stm32f7xx_hal_rcc.c ****     assert_param(IS_RCC_HCLK(RCC_ClkInitStruct->AHBCLKDivider));
 768:Drivers/STM32F7xx_HAL_Driver/Src/stm32f7xx_hal_rcc.c ****     MODIFY_REG(RCC->CFGR, RCC_CFGR_HPRE, RCC_ClkInitStruct->AHBCLKDivider);
 769:Drivers/STM32F7xx_HAL_Driver/Src/stm32f7xx_hal_rcc.c ****   }
 770:Drivers/STM32F7xx_HAL_Driver/Src/stm32f7xx_hal_rcc.c **** 
 771:Drivers/STM32F7xx_HAL_Driver/Src/stm32f7xx_hal_rcc.c ****   /*------------------------- SYSCLK Configuration ---------------------------*/
 772:Drivers/STM32F7xx_HAL_Driver/Src/stm32f7xx_hal_rcc.c ****   if(((RCC_ClkInitStruct->ClockType) & RCC_CLOCKTYPE_SYSCLK) == RCC_CLOCKTYPE_SYSCLK)
 773:Drivers/STM32F7xx_HAL_Driver/Src/stm32f7xx_hal_rcc.c ****   {
 774:Drivers/STM32F7xx_HAL_Driver/Src/stm32f7xx_hal_rcc.c ****     assert_param(IS_RCC_SYSCLKSOURCE(RCC_ClkInitStruct->SYSCLKSource));
 775:Drivers/STM32F7xx_HAL_Driver/Src/stm32f7xx_hal_rcc.c **** 
 776:Drivers/STM32F7xx_HAL_Driver/Src/stm32f7xx_hal_rcc.c ****     /* HSE is selected as System Clock Source */
 777:Drivers/STM32F7xx_HAL_Driver/Src/stm32f7xx_hal_rcc.c ****     if(RCC_ClkInitStruct->SYSCLKSource == RCC_SYSCLKSOURCE_HSE)
 778:Drivers/STM32F7xx_HAL_Driver/Src/stm32f7xx_hal_rcc.c ****     {
 779:Drivers/STM32F7xx_HAL_Driver/Src/stm32f7xx_hal_rcc.c ****       /* Check the HSE ready flag */
 780:Drivers/STM32F7xx_HAL_Driver/Src/stm32f7xx_hal_rcc.c ****       if(__HAL_RCC_GET_FLAG(RCC_FLAG_HSERDY) == RESET)
 781:Drivers/STM32F7xx_HAL_Driver/Src/stm32f7xx_hal_rcc.c ****       {
 782:Drivers/STM32F7xx_HAL_Driver/Src/stm32f7xx_hal_rcc.c ****         return HAL_ERROR;
 783:Drivers/STM32F7xx_HAL_Driver/Src/stm32f7xx_hal_rcc.c ****       }
 784:Drivers/STM32F7xx_HAL_Driver/Src/stm32f7xx_hal_rcc.c ****     }
 785:Drivers/STM32F7xx_HAL_Driver/Src/stm32f7xx_hal_rcc.c ****     /* PLL is selected as System Clock Source */
 786:Drivers/STM32F7xx_HAL_Driver/Src/stm32f7xx_hal_rcc.c ****     else if(RCC_ClkInitStruct->SYSCLKSource == RCC_SYSCLKSOURCE_PLLCLK)
 787:Drivers/STM32F7xx_HAL_Driver/Src/stm32f7xx_hal_rcc.c ****     {
 788:Drivers/STM32F7xx_HAL_Driver/Src/stm32f7xx_hal_rcc.c ****       /* Check the PLL ready flag */
 789:Drivers/STM32F7xx_HAL_Driver/Src/stm32f7xx_hal_rcc.c ****       if(__HAL_RCC_GET_FLAG(RCC_FLAG_PLLRDY) == RESET)
 790:Drivers/STM32F7xx_HAL_Driver/Src/stm32f7xx_hal_rcc.c ****       {
 791:Drivers/STM32F7xx_HAL_Driver/Src/stm32f7xx_hal_rcc.c ****         return HAL_ERROR;
 792:Drivers/STM32F7xx_HAL_Driver/Src/stm32f7xx_hal_rcc.c ****       }
 793:Drivers/STM32F7xx_HAL_Driver/Src/stm32f7xx_hal_rcc.c ****     }
 794:Drivers/STM32F7xx_HAL_Driver/Src/stm32f7xx_hal_rcc.c ****     /* HSI is selected as System Clock Source */
 795:Drivers/STM32F7xx_HAL_Driver/Src/stm32f7xx_hal_rcc.c ****     else
 796:Drivers/STM32F7xx_HAL_Driver/Src/stm32f7xx_hal_rcc.c ****     {
 797:Drivers/STM32F7xx_HAL_Driver/Src/stm32f7xx_hal_rcc.c ****       /* Check the HSI ready flag */
 798:Drivers/STM32F7xx_HAL_Driver/Src/stm32f7xx_hal_rcc.c ****       if(__HAL_RCC_GET_FLAG(RCC_FLAG_HSIRDY) == RESET)
 799:Drivers/STM32F7xx_HAL_Driver/Src/stm32f7xx_hal_rcc.c ****       {
 800:Drivers/STM32F7xx_HAL_Driver/Src/stm32f7xx_hal_rcc.c ****         return HAL_ERROR;
 801:Drivers/STM32F7xx_HAL_Driver/Src/stm32f7xx_hal_rcc.c ****       }
 802:Drivers/STM32F7xx_HAL_Driver/Src/stm32f7xx_hal_rcc.c ****     }
 803:Drivers/STM32F7xx_HAL_Driver/Src/stm32f7xx_hal_rcc.c **** 
 804:Drivers/STM32F7xx_HAL_Driver/Src/stm32f7xx_hal_rcc.c ****     __HAL_RCC_SYSCLK_CONFIG(RCC_ClkInitStruct->SYSCLKSource);
 805:Drivers/STM32F7xx_HAL_Driver/Src/stm32f7xx_hal_rcc.c **** 
ARM GAS  /tmp/ccNE9tpB.s 			page 38


 806:Drivers/STM32F7xx_HAL_Driver/Src/stm32f7xx_hal_rcc.c ****     /* Get Start Tick*/
 807:Drivers/STM32F7xx_HAL_Driver/Src/stm32f7xx_hal_rcc.c ****     tickstart = HAL_GetTick();
 808:Drivers/STM32F7xx_HAL_Driver/Src/stm32f7xx_hal_rcc.c **** 
 809:Drivers/STM32F7xx_HAL_Driver/Src/stm32f7xx_hal_rcc.c ****     while (__HAL_RCC_GET_SYSCLK_SOURCE() != (RCC_ClkInitStruct->SYSCLKSource << RCC_CFGR_SWS_Pos))
 810:Drivers/STM32F7xx_HAL_Driver/Src/stm32f7xx_hal_rcc.c ****     {
 811:Drivers/STM32F7xx_HAL_Driver/Src/stm32f7xx_hal_rcc.c ****       if ((HAL_GetTick() - tickstart) > CLOCKSWITCH_TIMEOUT_VALUE)
 812:Drivers/STM32F7xx_HAL_Driver/Src/stm32f7xx_hal_rcc.c ****       {
 813:Drivers/STM32F7xx_HAL_Driver/Src/stm32f7xx_hal_rcc.c ****         return HAL_TIMEOUT;
 814:Drivers/STM32F7xx_HAL_Driver/Src/stm32f7xx_hal_rcc.c ****       }
 815:Drivers/STM32F7xx_HAL_Driver/Src/stm32f7xx_hal_rcc.c ****     }
 816:Drivers/STM32F7xx_HAL_Driver/Src/stm32f7xx_hal_rcc.c ****   }
 817:Drivers/STM32F7xx_HAL_Driver/Src/stm32f7xx_hal_rcc.c **** 
 818:Drivers/STM32F7xx_HAL_Driver/Src/stm32f7xx_hal_rcc.c ****   /* Decreasing the number of wait states because of lower CPU frequency */
 819:Drivers/STM32F7xx_HAL_Driver/Src/stm32f7xx_hal_rcc.c ****   if(FLatency < __HAL_FLASH_GET_LATENCY())
 820:Drivers/STM32F7xx_HAL_Driver/Src/stm32f7xx_hal_rcc.c ****   {
 821:Drivers/STM32F7xx_HAL_Driver/Src/stm32f7xx_hal_rcc.c ****     /* Program the new number of wait states to the LATENCY bits in the FLASH_ACR register */
 822:Drivers/STM32F7xx_HAL_Driver/Src/stm32f7xx_hal_rcc.c ****     __HAL_FLASH_SET_LATENCY(FLatency);
 823:Drivers/STM32F7xx_HAL_Driver/Src/stm32f7xx_hal_rcc.c **** 
 824:Drivers/STM32F7xx_HAL_Driver/Src/stm32f7xx_hal_rcc.c ****     /* Check that the new number of wait states is taken into account to access the Flash
 825:Drivers/STM32F7xx_HAL_Driver/Src/stm32f7xx_hal_rcc.c ****     memory by reading the FLASH_ACR register */
 826:Drivers/STM32F7xx_HAL_Driver/Src/stm32f7xx_hal_rcc.c ****     if(__HAL_FLASH_GET_LATENCY() != FLatency)
 827:Drivers/STM32F7xx_HAL_Driver/Src/stm32f7xx_hal_rcc.c ****     {
 828:Drivers/STM32F7xx_HAL_Driver/Src/stm32f7xx_hal_rcc.c ****       return HAL_ERROR;
 829:Drivers/STM32F7xx_HAL_Driver/Src/stm32f7xx_hal_rcc.c ****     }
 830:Drivers/STM32F7xx_HAL_Driver/Src/stm32f7xx_hal_rcc.c ****   }
 831:Drivers/STM32F7xx_HAL_Driver/Src/stm32f7xx_hal_rcc.c **** 
 832:Drivers/STM32F7xx_HAL_Driver/Src/stm32f7xx_hal_rcc.c ****   /*-------------------------- PCLK1 Configuration ---------------------------*/
 833:Drivers/STM32F7xx_HAL_Driver/Src/stm32f7xx_hal_rcc.c ****   if(((RCC_ClkInitStruct->ClockType) & RCC_CLOCKTYPE_PCLK1) == RCC_CLOCKTYPE_PCLK1)
 834:Drivers/STM32F7xx_HAL_Driver/Src/stm32f7xx_hal_rcc.c ****   {
 835:Drivers/STM32F7xx_HAL_Driver/Src/stm32f7xx_hal_rcc.c ****     assert_param(IS_RCC_PCLK(RCC_ClkInitStruct->APB1CLKDivider));
 836:Drivers/STM32F7xx_HAL_Driver/Src/stm32f7xx_hal_rcc.c ****     MODIFY_REG(RCC->CFGR, RCC_CFGR_PPRE1, RCC_ClkInitStruct->APB1CLKDivider);
 837:Drivers/STM32F7xx_HAL_Driver/Src/stm32f7xx_hal_rcc.c ****   }
 838:Drivers/STM32F7xx_HAL_Driver/Src/stm32f7xx_hal_rcc.c **** 
 839:Drivers/STM32F7xx_HAL_Driver/Src/stm32f7xx_hal_rcc.c ****   /*-------------------------- PCLK2 Configuration ---------------------------*/
 840:Drivers/STM32F7xx_HAL_Driver/Src/stm32f7xx_hal_rcc.c ****   if(((RCC_ClkInitStruct->ClockType) & RCC_CLOCKTYPE_PCLK2) == RCC_CLOCKTYPE_PCLK2)
 841:Drivers/STM32F7xx_HAL_Driver/Src/stm32f7xx_hal_rcc.c ****   {
 842:Drivers/STM32F7xx_HAL_Driver/Src/stm32f7xx_hal_rcc.c ****     assert_param(IS_RCC_PCLK(RCC_ClkInitStruct->APB2CLKDivider));
 843:Drivers/STM32F7xx_HAL_Driver/Src/stm32f7xx_hal_rcc.c ****     MODIFY_REG(RCC->CFGR, RCC_CFGR_PPRE2, ((RCC_ClkInitStruct->APB2CLKDivider) << 3));
 844:Drivers/STM32F7xx_HAL_Driver/Src/stm32f7xx_hal_rcc.c ****   }
 845:Drivers/STM32F7xx_HAL_Driver/Src/stm32f7xx_hal_rcc.c **** 
 846:Drivers/STM32F7xx_HAL_Driver/Src/stm32f7xx_hal_rcc.c ****   /* Update the SystemCoreClock global variable */
 847:Drivers/STM32F7xx_HAL_Driver/Src/stm32f7xx_hal_rcc.c ****   SystemCoreClock = HAL_RCC_GetSysClockFreq() >> AHBPrescTable[(RCC->CFGR & RCC_CFGR_HPRE)>> RCC_CF
 848:Drivers/STM32F7xx_HAL_Driver/Src/stm32f7xx_hal_rcc.c **** 
 849:Drivers/STM32F7xx_HAL_Driver/Src/stm32f7xx_hal_rcc.c ****   /* Configure the source of time base considering new system clocks settings*/
 850:Drivers/STM32F7xx_HAL_Driver/Src/stm32f7xx_hal_rcc.c ****   HAL_InitTick (TICK_INT_PRIORITY);
 851:Drivers/STM32F7xx_HAL_Driver/Src/stm32f7xx_hal_rcc.c **** 
 852:Drivers/STM32F7xx_HAL_Driver/Src/stm32f7xx_hal_rcc.c ****   return HAL_OK;
 853:Drivers/STM32F7xx_HAL_Driver/Src/stm32f7xx_hal_rcc.c **** }
 854:Drivers/STM32F7xx_HAL_Driver/Src/stm32f7xx_hal_rcc.c **** 
 855:Drivers/STM32F7xx_HAL_Driver/Src/stm32f7xx_hal_rcc.c **** /**
 856:Drivers/STM32F7xx_HAL_Driver/Src/stm32f7xx_hal_rcc.c ****   * @}
 857:Drivers/STM32F7xx_HAL_Driver/Src/stm32f7xx_hal_rcc.c ****   */
 858:Drivers/STM32F7xx_HAL_Driver/Src/stm32f7xx_hal_rcc.c **** 
 859:Drivers/STM32F7xx_HAL_Driver/Src/stm32f7xx_hal_rcc.c **** /** @defgroup RCC_Exported_Functions_Group2 Peripheral Control functions
 860:Drivers/STM32F7xx_HAL_Driver/Src/stm32f7xx_hal_rcc.c ****   *  @brief   RCC clocks control functions
 861:Drivers/STM32F7xx_HAL_Driver/Src/stm32f7xx_hal_rcc.c ****   *
 862:Drivers/STM32F7xx_HAL_Driver/Src/stm32f7xx_hal_rcc.c ****   @verbatim
ARM GAS  /tmp/ccNE9tpB.s 			page 39


 863:Drivers/STM32F7xx_HAL_Driver/Src/stm32f7xx_hal_rcc.c ****   ===============================================================================
 864:Drivers/STM32F7xx_HAL_Driver/Src/stm32f7xx_hal_rcc.c ****                   ##### Peripheral Control functions #####
 865:Drivers/STM32F7xx_HAL_Driver/Src/stm32f7xx_hal_rcc.c ****   ===============================================================================
 866:Drivers/STM32F7xx_HAL_Driver/Src/stm32f7xx_hal_rcc.c ****     [..]
 867:Drivers/STM32F7xx_HAL_Driver/Src/stm32f7xx_hal_rcc.c ****     This subsection provides a set of functions allowing to control the RCC Clocks
 868:Drivers/STM32F7xx_HAL_Driver/Src/stm32f7xx_hal_rcc.c ****     frequencies.
 869:Drivers/STM32F7xx_HAL_Driver/Src/stm32f7xx_hal_rcc.c **** 
 870:Drivers/STM32F7xx_HAL_Driver/Src/stm32f7xx_hal_rcc.c **** @endverbatim
 871:Drivers/STM32F7xx_HAL_Driver/Src/stm32f7xx_hal_rcc.c ****   * @{
 872:Drivers/STM32F7xx_HAL_Driver/Src/stm32f7xx_hal_rcc.c ****   */
 873:Drivers/STM32F7xx_HAL_Driver/Src/stm32f7xx_hal_rcc.c **** 
 874:Drivers/STM32F7xx_HAL_Driver/Src/stm32f7xx_hal_rcc.c **** /**
 875:Drivers/STM32F7xx_HAL_Driver/Src/stm32f7xx_hal_rcc.c ****   * @brief  Selects the clock source to output on MCO1 pin(PA8) or on MCO2 pin(PC9).
 876:Drivers/STM32F7xx_HAL_Driver/Src/stm32f7xx_hal_rcc.c ****   * @note   PA8/PC9 should be configured in alternate function mode.
 877:Drivers/STM32F7xx_HAL_Driver/Src/stm32f7xx_hal_rcc.c ****   * @param  RCC_MCOx specifies the output direction for the clock source.
 878:Drivers/STM32F7xx_HAL_Driver/Src/stm32f7xx_hal_rcc.c ****   *          This parameter can be one of the following values:
 879:Drivers/STM32F7xx_HAL_Driver/Src/stm32f7xx_hal_rcc.c ****   *            @arg RCC_MCO1: Clock source to output on MCO1 pin(PA8).
 880:Drivers/STM32F7xx_HAL_Driver/Src/stm32f7xx_hal_rcc.c ****   *            @arg RCC_MCO2: Clock source to output on MCO2 pin(PC9).
 881:Drivers/STM32F7xx_HAL_Driver/Src/stm32f7xx_hal_rcc.c ****   * @param  RCC_MCOSource specifies the clock source to output.
 882:Drivers/STM32F7xx_HAL_Driver/Src/stm32f7xx_hal_rcc.c ****   *          This parameter can be one of the following values:
 883:Drivers/STM32F7xx_HAL_Driver/Src/stm32f7xx_hal_rcc.c ****   *            @arg RCC_MCO1SOURCE_HSI: HSI clock selected as MCO1 source
 884:Drivers/STM32F7xx_HAL_Driver/Src/stm32f7xx_hal_rcc.c ****   *            @arg RCC_MCO1SOURCE_LSE: LSE clock selected as MCO1 source
 885:Drivers/STM32F7xx_HAL_Driver/Src/stm32f7xx_hal_rcc.c ****   *            @arg RCC_MCO1SOURCE_HSE: HSE clock selected as MCO1 source
 886:Drivers/STM32F7xx_HAL_Driver/Src/stm32f7xx_hal_rcc.c ****   *            @arg RCC_MCO1SOURCE_PLLCLK: main PLL clock selected as MCO1 source
 887:Drivers/STM32F7xx_HAL_Driver/Src/stm32f7xx_hal_rcc.c ****   *            @arg RCC_MCO2SOURCE_SYSCLK: System clock (SYSCLK) selected as MCO2 source
 888:Drivers/STM32F7xx_HAL_Driver/Src/stm32f7xx_hal_rcc.c ****   *            @arg RCC_MCO2SOURCE_PLLI2SCLK: PLLI2S clock selected as MCO2 source
 889:Drivers/STM32F7xx_HAL_Driver/Src/stm32f7xx_hal_rcc.c ****   *            @arg RCC_MCO2SOURCE_HSE: HSE clock selected as MCO2 source
 890:Drivers/STM32F7xx_HAL_Driver/Src/stm32f7xx_hal_rcc.c ****   *            @arg RCC_MCO2SOURCE_PLLCLK: main PLL clock selected as MCO2 source
 891:Drivers/STM32F7xx_HAL_Driver/Src/stm32f7xx_hal_rcc.c ****   * @param  RCC_MCODiv specifies the MCOx prescaler.
 892:Drivers/STM32F7xx_HAL_Driver/Src/stm32f7xx_hal_rcc.c ****   *          This parameter can be one of the following values:
 893:Drivers/STM32F7xx_HAL_Driver/Src/stm32f7xx_hal_rcc.c ****   *            @arg RCC_MCODIV_1: no division applied to MCOx clock
 894:Drivers/STM32F7xx_HAL_Driver/Src/stm32f7xx_hal_rcc.c ****   *            @arg RCC_MCODIV_2: division by 2 applied to MCOx clock
 895:Drivers/STM32F7xx_HAL_Driver/Src/stm32f7xx_hal_rcc.c ****   *            @arg RCC_MCODIV_3: division by 3 applied to MCOx clock
 896:Drivers/STM32F7xx_HAL_Driver/Src/stm32f7xx_hal_rcc.c ****   *            @arg RCC_MCODIV_4: division by 4 applied to MCOx clock
 897:Drivers/STM32F7xx_HAL_Driver/Src/stm32f7xx_hal_rcc.c ****   *            @arg RCC_MCODIV_5: division by 5 applied to MCOx clock
 898:Drivers/STM32F7xx_HAL_Driver/Src/stm32f7xx_hal_rcc.c ****   * @retval None
 899:Drivers/STM32F7xx_HAL_Driver/Src/stm32f7xx_hal_rcc.c ****   */
 900:Drivers/STM32F7xx_HAL_Driver/Src/stm32f7xx_hal_rcc.c **** void HAL_RCC_MCOConfig(uint32_t RCC_MCOx, uint32_t RCC_MCOSource, uint32_t RCC_MCODiv)
 901:Drivers/STM32F7xx_HAL_Driver/Src/stm32f7xx_hal_rcc.c **** {
 1126              		.loc 1 901 1 is_stmt 1 view -0
 1127              		.cfi_startproc
 1128              		@ args = 0, pretend = 0, frame = 32
 1129              		@ frame_needed = 0, uses_anonymous_args = 0
 1130              		.loc 1 901 1 is_stmt 0 view .LVU344
 1131 0000 70B5     		push	{r4, r5, r6, lr}
 1132              	.LCFI7:
 1133              		.cfi_def_cfa_offset 16
 1134              		.cfi_offset 4, -16
 1135              		.cfi_offset 5, -12
 1136              		.cfi_offset 6, -8
 1137              		.cfi_offset 14, -4
 1138 0002 88B0     		sub	sp, sp, #32
 1139              	.LCFI8:
 1140              		.cfi_def_cfa_offset 48
 1141 0004 0C46     		mov	r4, r1
 1142 0006 1646     		mov	r6, r2
 902:Drivers/STM32F7xx_HAL_Driver/Src/stm32f7xx_hal_rcc.c ****   GPIO_InitTypeDef GPIO_InitStruct;
ARM GAS  /tmp/ccNE9tpB.s 			page 40


 1143              		.loc 1 902 3 is_stmt 1 view .LVU345
 903:Drivers/STM32F7xx_HAL_Driver/Src/stm32f7xx_hal_rcc.c ****   /* Check the parameters */
 904:Drivers/STM32F7xx_HAL_Driver/Src/stm32f7xx_hal_rcc.c ****   assert_param(IS_RCC_MCO(RCC_MCOx));
 1144              		.loc 1 904 3 view .LVU346
 905:Drivers/STM32F7xx_HAL_Driver/Src/stm32f7xx_hal_rcc.c ****   assert_param(IS_RCC_MCODIV(RCC_MCODiv));
 1145              		.loc 1 905 3 view .LVU347
 906:Drivers/STM32F7xx_HAL_Driver/Src/stm32f7xx_hal_rcc.c ****   /* RCC_MCO1 */
 907:Drivers/STM32F7xx_HAL_Driver/Src/stm32f7xx_hal_rcc.c ****   if(RCC_MCOx == RCC_MCO1)
 1146              		.loc 1 907 3 view .LVU348
 1147              		.loc 1 907 5 is_stmt 0 view .LVU349
 1148 0008 F8B9     		cbnz	r0, .L122
 908:Drivers/STM32F7xx_HAL_Driver/Src/stm32f7xx_hal_rcc.c ****   {
 909:Drivers/STM32F7xx_HAL_Driver/Src/stm32f7xx_hal_rcc.c ****     assert_param(IS_RCC_MCO1SOURCE(RCC_MCOSource));
 1149              		.loc 1 909 5 is_stmt 1 view .LVU350
 910:Drivers/STM32F7xx_HAL_Driver/Src/stm32f7xx_hal_rcc.c **** 
 911:Drivers/STM32F7xx_HAL_Driver/Src/stm32f7xx_hal_rcc.c ****     /* MCO1 Clock Enable */
 912:Drivers/STM32F7xx_HAL_Driver/Src/stm32f7xx_hal_rcc.c ****     MCO1_CLK_ENABLE();
 1150              		.loc 1 912 5 view .LVU351
 1151              	.LBB3:
 1152              		.loc 1 912 5 view .LVU352
 1153              		.loc 1 912 5 view .LVU353
 1154 000a 204D     		ldr	r5, .L125
 1155 000c 2B6B     		ldr	r3, [r5, #48]
 1156 000e 43F00103 		orr	r3, r3, #1
 1157 0012 2B63     		str	r3, [r5, #48]
 1158              		.loc 1 912 5 view .LVU354
 1159 0014 2B6B     		ldr	r3, [r5, #48]
 1160 0016 03F00103 		and	r3, r3, #1
 1161 001a 0193     		str	r3, [sp, #4]
 1162              		.loc 1 912 5 view .LVU355
 1163 001c 019B     		ldr	r3, [sp, #4]
 1164              	.LBE3:
 913:Drivers/STM32F7xx_HAL_Driver/Src/stm32f7xx_hal_rcc.c **** 
 914:Drivers/STM32F7xx_HAL_Driver/Src/stm32f7xx_hal_rcc.c ****     /* Configure the MCO1 pin in alternate function mode */
 915:Drivers/STM32F7xx_HAL_Driver/Src/stm32f7xx_hal_rcc.c ****     GPIO_InitStruct.Pin = MCO1_PIN;
 1165              		.loc 1 915 5 view .LVU356
 1166              		.loc 1 915 25 is_stmt 0 view .LVU357
 1167 001e 4FF48073 		mov	r3, #256
 1168 0022 0393     		str	r3, [sp, #12]
 916:Drivers/STM32F7xx_HAL_Driver/Src/stm32f7xx_hal_rcc.c ****     GPIO_InitStruct.Mode = GPIO_MODE_AF_PP;
 1169              		.loc 1 916 5 is_stmt 1 view .LVU358
 1170              		.loc 1 916 26 is_stmt 0 view .LVU359
 1171 0024 0223     		movs	r3, #2
 1172 0026 0493     		str	r3, [sp, #16]
 917:Drivers/STM32F7xx_HAL_Driver/Src/stm32f7xx_hal_rcc.c ****     GPIO_InitStruct.Speed = GPIO_SPEED_HIGH;
 1173              		.loc 1 917 5 is_stmt 1 view .LVU360
 1174              		.loc 1 917 27 is_stmt 0 view .LVU361
 1175 0028 0323     		movs	r3, #3
 1176 002a 0693     		str	r3, [sp, #24]
 918:Drivers/STM32F7xx_HAL_Driver/Src/stm32f7xx_hal_rcc.c ****     GPIO_InitStruct.Pull = GPIO_NOPULL;
 1177              		.loc 1 918 5 is_stmt 1 view .LVU362
 1178              		.loc 1 918 26 is_stmt 0 view .LVU363
 1179 002c 0023     		movs	r3, #0
 1180 002e 0593     		str	r3, [sp, #20]
 919:Drivers/STM32F7xx_HAL_Driver/Src/stm32f7xx_hal_rcc.c ****     GPIO_InitStruct.Alternate = GPIO_AF0_MCO;
 1181              		.loc 1 919 5 is_stmt 1 view .LVU364
 1182              		.loc 1 919 31 is_stmt 0 view .LVU365
ARM GAS  /tmp/ccNE9tpB.s 			page 41


 1183 0030 0793     		str	r3, [sp, #28]
 920:Drivers/STM32F7xx_HAL_Driver/Src/stm32f7xx_hal_rcc.c ****     HAL_GPIO_Init(MCO1_GPIO_PORT, &GPIO_InitStruct);
 1184              		.loc 1 920 5 is_stmt 1 view .LVU366
 1185 0032 03A9     		add	r1, sp, #12
 1186              	.LVL87:
 1187              		.loc 1 920 5 is_stmt 0 view .LVU367
 1188 0034 1648     		ldr	r0, .L125+4
 1189              	.LVL88:
 1190              		.loc 1 920 5 view .LVU368
 1191 0036 FFF7FEFF 		bl	HAL_GPIO_Init
 1192              	.LVL89:
 921:Drivers/STM32F7xx_HAL_Driver/Src/stm32f7xx_hal_rcc.c **** 
 922:Drivers/STM32F7xx_HAL_Driver/Src/stm32f7xx_hal_rcc.c ****     /* Mask MCO1 and MCO1PRE[2:0] bits then Select MCO1 clock source and prescaler */
 923:Drivers/STM32F7xx_HAL_Driver/Src/stm32f7xx_hal_rcc.c ****     MODIFY_REG(RCC->CFGR, (RCC_CFGR_MCO1 | RCC_CFGR_MCO1PRE), (RCC_MCOSource | RCC_MCODiv));
 1193              		.loc 1 923 5 is_stmt 1 view .LVU369
 1194 003a AB68     		ldr	r3, [r5, #8]
 1195 003c 23F0EC63 		bic	r3, r3, #123731968
 1196 0040 3443     		orrs	r4, r4, r6
 1197              	.LVL90:
 1198              		.loc 1 923 5 is_stmt 0 view .LVU370
 1199 0042 1C43     		orrs	r4, r4, r3
 1200 0044 AC60     		str	r4, [r5, #8]
 1201              	.L121:
 924:Drivers/STM32F7xx_HAL_Driver/Src/stm32f7xx_hal_rcc.c ****   }
 925:Drivers/STM32F7xx_HAL_Driver/Src/stm32f7xx_hal_rcc.c ****   else
 926:Drivers/STM32F7xx_HAL_Driver/Src/stm32f7xx_hal_rcc.c ****   {
 927:Drivers/STM32F7xx_HAL_Driver/Src/stm32f7xx_hal_rcc.c ****     assert_param(IS_RCC_MCO2SOURCE(RCC_MCOSource));
 928:Drivers/STM32F7xx_HAL_Driver/Src/stm32f7xx_hal_rcc.c **** 
 929:Drivers/STM32F7xx_HAL_Driver/Src/stm32f7xx_hal_rcc.c ****     /* MCO2 Clock Enable */
 930:Drivers/STM32F7xx_HAL_Driver/Src/stm32f7xx_hal_rcc.c ****     MCO2_CLK_ENABLE();
 931:Drivers/STM32F7xx_HAL_Driver/Src/stm32f7xx_hal_rcc.c **** 
 932:Drivers/STM32F7xx_HAL_Driver/Src/stm32f7xx_hal_rcc.c ****     /* Configure the MCO2 pin in alternate function mode */
 933:Drivers/STM32F7xx_HAL_Driver/Src/stm32f7xx_hal_rcc.c ****     GPIO_InitStruct.Pin = MCO2_PIN;
 934:Drivers/STM32F7xx_HAL_Driver/Src/stm32f7xx_hal_rcc.c ****     GPIO_InitStruct.Mode = GPIO_MODE_AF_PP;
 935:Drivers/STM32F7xx_HAL_Driver/Src/stm32f7xx_hal_rcc.c ****     GPIO_InitStruct.Speed = GPIO_SPEED_HIGH;
 936:Drivers/STM32F7xx_HAL_Driver/Src/stm32f7xx_hal_rcc.c ****     GPIO_InitStruct.Pull = GPIO_NOPULL;
 937:Drivers/STM32F7xx_HAL_Driver/Src/stm32f7xx_hal_rcc.c ****     GPIO_InitStruct.Alternate = GPIO_AF0_MCO;
 938:Drivers/STM32F7xx_HAL_Driver/Src/stm32f7xx_hal_rcc.c ****     HAL_GPIO_Init(MCO2_GPIO_PORT, &GPIO_InitStruct);
 939:Drivers/STM32F7xx_HAL_Driver/Src/stm32f7xx_hal_rcc.c **** 
 940:Drivers/STM32F7xx_HAL_Driver/Src/stm32f7xx_hal_rcc.c ****     /* Mask MCO2 and MCO2PRE[2:0] bits then Select MCO2 clock source and prescaler */
 941:Drivers/STM32F7xx_HAL_Driver/Src/stm32f7xx_hal_rcc.c ****     MODIFY_REG(RCC->CFGR, (RCC_CFGR_MCO2 | RCC_CFGR_MCO2PRE), (RCC_MCOSource | (RCC_MCODiv << 3)));
 942:Drivers/STM32F7xx_HAL_Driver/Src/stm32f7xx_hal_rcc.c ****   }
 943:Drivers/STM32F7xx_HAL_Driver/Src/stm32f7xx_hal_rcc.c **** }
 1202              		.loc 1 943 1 view .LVU371
 1203 0046 08B0     		add	sp, sp, #32
 1204              	.LCFI9:
 1205              		.cfi_remember_state
 1206              		.cfi_def_cfa_offset 16
 1207              		@ sp needed
 1208 0048 70BD     		pop	{r4, r5, r6, pc}
 1209              	.LVL91:
 1210              	.L122:
 1211              	.LCFI10:
 1212              		.cfi_restore_state
 927:Drivers/STM32F7xx_HAL_Driver/Src/stm32f7xx_hal_rcc.c **** 
 1213              		.loc 1 927 5 is_stmt 1 view .LVU372
 930:Drivers/STM32F7xx_HAL_Driver/Src/stm32f7xx_hal_rcc.c **** 
ARM GAS  /tmp/ccNE9tpB.s 			page 42


 1214              		.loc 1 930 5 view .LVU373
 1215              	.LBB4:
 930:Drivers/STM32F7xx_HAL_Driver/Src/stm32f7xx_hal_rcc.c **** 
 1216              		.loc 1 930 5 view .LVU374
 930:Drivers/STM32F7xx_HAL_Driver/Src/stm32f7xx_hal_rcc.c **** 
 1217              		.loc 1 930 5 view .LVU375
 1218 004a 104D     		ldr	r5, .L125
 1219 004c 2B6B     		ldr	r3, [r5, #48]
 1220 004e 43F00403 		orr	r3, r3, #4
 1221 0052 2B63     		str	r3, [r5, #48]
 930:Drivers/STM32F7xx_HAL_Driver/Src/stm32f7xx_hal_rcc.c **** 
 1222              		.loc 1 930 5 view .LVU376
 1223 0054 2B6B     		ldr	r3, [r5, #48]
 1224 0056 03F00403 		and	r3, r3, #4
 1225 005a 0293     		str	r3, [sp, #8]
 930:Drivers/STM32F7xx_HAL_Driver/Src/stm32f7xx_hal_rcc.c **** 
 1226              		.loc 1 930 5 view .LVU377
 1227 005c 029B     		ldr	r3, [sp, #8]
 1228              	.LBE4:
 933:Drivers/STM32F7xx_HAL_Driver/Src/stm32f7xx_hal_rcc.c ****     GPIO_InitStruct.Mode = GPIO_MODE_AF_PP;
 1229              		.loc 1 933 5 view .LVU378
 933:Drivers/STM32F7xx_HAL_Driver/Src/stm32f7xx_hal_rcc.c ****     GPIO_InitStruct.Mode = GPIO_MODE_AF_PP;
 1230              		.loc 1 933 25 is_stmt 0 view .LVU379
 1231 005e 4FF40073 		mov	r3, #512
 1232 0062 0393     		str	r3, [sp, #12]
 934:Drivers/STM32F7xx_HAL_Driver/Src/stm32f7xx_hal_rcc.c ****     GPIO_InitStruct.Speed = GPIO_SPEED_HIGH;
 1233              		.loc 1 934 5 is_stmt 1 view .LVU380
 934:Drivers/STM32F7xx_HAL_Driver/Src/stm32f7xx_hal_rcc.c ****     GPIO_InitStruct.Speed = GPIO_SPEED_HIGH;
 1234              		.loc 1 934 26 is_stmt 0 view .LVU381
 1235 0064 0223     		movs	r3, #2
 1236 0066 0493     		str	r3, [sp, #16]
 935:Drivers/STM32F7xx_HAL_Driver/Src/stm32f7xx_hal_rcc.c ****     GPIO_InitStruct.Pull = GPIO_NOPULL;
 1237              		.loc 1 935 5 is_stmt 1 view .LVU382
 935:Drivers/STM32F7xx_HAL_Driver/Src/stm32f7xx_hal_rcc.c ****     GPIO_InitStruct.Pull = GPIO_NOPULL;
 1238              		.loc 1 935 27 is_stmt 0 view .LVU383
 1239 0068 0323     		movs	r3, #3
 1240 006a 0693     		str	r3, [sp, #24]
 936:Drivers/STM32F7xx_HAL_Driver/Src/stm32f7xx_hal_rcc.c ****     GPIO_InitStruct.Alternate = GPIO_AF0_MCO;
 1241              		.loc 1 936 5 is_stmt 1 view .LVU384
 936:Drivers/STM32F7xx_HAL_Driver/Src/stm32f7xx_hal_rcc.c ****     GPIO_InitStruct.Alternate = GPIO_AF0_MCO;
 1242              		.loc 1 936 26 is_stmt 0 view .LVU385
 1243 006c 0023     		movs	r3, #0
 1244 006e 0593     		str	r3, [sp, #20]
 937:Drivers/STM32F7xx_HAL_Driver/Src/stm32f7xx_hal_rcc.c ****     HAL_GPIO_Init(MCO2_GPIO_PORT, &GPIO_InitStruct);
 1245              		.loc 1 937 5 is_stmt 1 view .LVU386
 937:Drivers/STM32F7xx_HAL_Driver/Src/stm32f7xx_hal_rcc.c ****     HAL_GPIO_Init(MCO2_GPIO_PORT, &GPIO_InitStruct);
 1246              		.loc 1 937 31 is_stmt 0 view .LVU387
 1247 0070 0793     		str	r3, [sp, #28]
 938:Drivers/STM32F7xx_HAL_Driver/Src/stm32f7xx_hal_rcc.c **** 
 1248              		.loc 1 938 5 is_stmt 1 view .LVU388
 1249 0072 03A9     		add	r1, sp, #12
 1250              	.LVL92:
 938:Drivers/STM32F7xx_HAL_Driver/Src/stm32f7xx_hal_rcc.c **** 
 1251              		.loc 1 938 5 is_stmt 0 view .LVU389
 1252 0074 0748     		ldr	r0, .L125+8
 1253              	.LVL93:
 938:Drivers/STM32F7xx_HAL_Driver/Src/stm32f7xx_hal_rcc.c **** 
ARM GAS  /tmp/ccNE9tpB.s 			page 43


 1254              		.loc 1 938 5 view .LVU390
 1255 0076 FFF7FEFF 		bl	HAL_GPIO_Init
 1256              	.LVL94:
 941:Drivers/STM32F7xx_HAL_Driver/Src/stm32f7xx_hal_rcc.c ****   }
 1257              		.loc 1 941 5 is_stmt 1 view .LVU391
 1258 007a AB68     		ldr	r3, [r5, #8]
 1259 007c 23F07843 		bic	r3, r3, #-134217728
 1260 0080 44EAC604 		orr	r4, r4, r6, lsl #3
 1261              	.LVL95:
 941:Drivers/STM32F7xx_HAL_Driver/Src/stm32f7xx_hal_rcc.c ****   }
 1262              		.loc 1 941 5 is_stmt 0 view .LVU392
 1263 0084 1C43     		orrs	r4, r4, r3
 1264 0086 AC60     		str	r4, [r5, #8]
 1265              		.loc 1 943 1 view .LVU393
 1266 0088 DDE7     		b	.L121
 1267              	.L126:
 1268 008a 00BF     		.align	2
 1269              	.L125:
 1270 008c 00380240 		.word	1073887232
 1271 0090 00000240 		.word	1073872896
 1272 0094 00080240 		.word	1073874944
 1273              		.cfi_endproc
 1274              	.LFE141:
 1276              		.section	.text.HAL_RCC_EnableCSS,"ax",%progbits
 1277              		.align	1
 1278              		.global	HAL_RCC_EnableCSS
 1279              		.syntax unified
 1280              		.thumb
 1281              		.thumb_func
 1282              		.fpu fpv5-sp-d16
 1284              	HAL_RCC_EnableCSS:
 1285              	.LFB142:
 944:Drivers/STM32F7xx_HAL_Driver/Src/stm32f7xx_hal_rcc.c **** 
 945:Drivers/STM32F7xx_HAL_Driver/Src/stm32f7xx_hal_rcc.c **** /**
 946:Drivers/STM32F7xx_HAL_Driver/Src/stm32f7xx_hal_rcc.c ****   * @brief  Enables the Clock Security System.
 947:Drivers/STM32F7xx_HAL_Driver/Src/stm32f7xx_hal_rcc.c ****   * @note   If a failure is detected on the HSE oscillator clock, this oscillator
 948:Drivers/STM32F7xx_HAL_Driver/Src/stm32f7xx_hal_rcc.c ****   *         is automatically disabled and an interrupt is generated to inform the
 949:Drivers/STM32F7xx_HAL_Driver/Src/stm32f7xx_hal_rcc.c ****   *         software about the failure (Clock Security System Interrupt, CSSI),
 950:Drivers/STM32F7xx_HAL_Driver/Src/stm32f7xx_hal_rcc.c ****   *         allowing the MCU to perform rescue operations. The CSSI is linked to
 951:Drivers/STM32F7xx_HAL_Driver/Src/stm32f7xx_hal_rcc.c ****   *         the Cortex-M7 NMI (Non-Maskable Interrupt) exception vector.
 952:Drivers/STM32F7xx_HAL_Driver/Src/stm32f7xx_hal_rcc.c ****   * @retval None
 953:Drivers/STM32F7xx_HAL_Driver/Src/stm32f7xx_hal_rcc.c ****   */
 954:Drivers/STM32F7xx_HAL_Driver/Src/stm32f7xx_hal_rcc.c **** void HAL_RCC_EnableCSS(void)
 955:Drivers/STM32F7xx_HAL_Driver/Src/stm32f7xx_hal_rcc.c **** {
 1286              		.loc 1 955 1 is_stmt 1 view -0
 1287              		.cfi_startproc
 1288              		@ args = 0, pretend = 0, frame = 0
 1289              		@ frame_needed = 0, uses_anonymous_args = 0
 1290              		@ link register save eliminated.
 956:Drivers/STM32F7xx_HAL_Driver/Src/stm32f7xx_hal_rcc.c ****   SET_BIT(RCC->CR, RCC_CR_CSSON);
 1291              		.loc 1 956 3 view .LVU395
 1292 0000 024A     		ldr	r2, .L128
 1293 0002 1368     		ldr	r3, [r2]
 1294 0004 43F40023 		orr	r3, r3, #524288
 1295 0008 1360     		str	r3, [r2]
 957:Drivers/STM32F7xx_HAL_Driver/Src/stm32f7xx_hal_rcc.c **** }
 1296              		.loc 1 957 1 is_stmt 0 view .LVU396
ARM GAS  /tmp/ccNE9tpB.s 			page 44


 1297 000a 7047     		bx	lr
 1298              	.L129:
 1299              		.align	2
 1300              	.L128:
 1301 000c 00380240 		.word	1073887232
 1302              		.cfi_endproc
 1303              	.LFE142:
 1305              		.section	.text.HAL_RCC_DisableCSS,"ax",%progbits
 1306              		.align	1
 1307              		.global	HAL_RCC_DisableCSS
 1308              		.syntax unified
 1309              		.thumb
 1310              		.thumb_func
 1311              		.fpu fpv5-sp-d16
 1313              	HAL_RCC_DisableCSS:
 1314              	.LFB143:
 958:Drivers/STM32F7xx_HAL_Driver/Src/stm32f7xx_hal_rcc.c **** 
 959:Drivers/STM32F7xx_HAL_Driver/Src/stm32f7xx_hal_rcc.c **** /**
 960:Drivers/STM32F7xx_HAL_Driver/Src/stm32f7xx_hal_rcc.c ****   * @brief  Disables the Clock Security System.
 961:Drivers/STM32F7xx_HAL_Driver/Src/stm32f7xx_hal_rcc.c ****   * @retval None
 962:Drivers/STM32F7xx_HAL_Driver/Src/stm32f7xx_hal_rcc.c ****   */
 963:Drivers/STM32F7xx_HAL_Driver/Src/stm32f7xx_hal_rcc.c **** void HAL_RCC_DisableCSS(void)
 964:Drivers/STM32F7xx_HAL_Driver/Src/stm32f7xx_hal_rcc.c **** {
 1315              		.loc 1 964 1 is_stmt 1 view -0
 1316              		.cfi_startproc
 1317              		@ args = 0, pretend = 0, frame = 0
 1318              		@ frame_needed = 0, uses_anonymous_args = 0
 1319              		@ link register save eliminated.
 965:Drivers/STM32F7xx_HAL_Driver/Src/stm32f7xx_hal_rcc.c ****   CLEAR_BIT(RCC->CR, RCC_CR_CSSON);
 1320              		.loc 1 965 3 view .LVU398
 1321 0000 024A     		ldr	r2, .L131
 1322 0002 1368     		ldr	r3, [r2]
 1323 0004 23F40023 		bic	r3, r3, #524288
 1324 0008 1360     		str	r3, [r2]
 966:Drivers/STM32F7xx_HAL_Driver/Src/stm32f7xx_hal_rcc.c **** }
 1325              		.loc 1 966 1 is_stmt 0 view .LVU399
 1326 000a 7047     		bx	lr
 1327              	.L132:
 1328              		.align	2
 1329              	.L131:
 1330 000c 00380240 		.word	1073887232
 1331              		.cfi_endproc
 1332              	.LFE143:
 1334              		.global	__aeabi_uldivmod
 1335              		.section	.text.HAL_RCC_GetSysClockFreq,"ax",%progbits
 1336              		.align	1
 1337              		.global	HAL_RCC_GetSysClockFreq
 1338              		.syntax unified
 1339              		.thumb
 1340              		.thumb_func
 1341              		.fpu fpv5-sp-d16
 1343              	HAL_RCC_GetSysClockFreq:
 1344              	.LFB144:
 967:Drivers/STM32F7xx_HAL_Driver/Src/stm32f7xx_hal_rcc.c **** 
 968:Drivers/STM32F7xx_HAL_Driver/Src/stm32f7xx_hal_rcc.c **** /**
 969:Drivers/STM32F7xx_HAL_Driver/Src/stm32f7xx_hal_rcc.c ****   * @brief  Returns the SYSCLK frequency
 970:Drivers/STM32F7xx_HAL_Driver/Src/stm32f7xx_hal_rcc.c ****   *
ARM GAS  /tmp/ccNE9tpB.s 			page 45


 971:Drivers/STM32F7xx_HAL_Driver/Src/stm32f7xx_hal_rcc.c ****   * @note   The system frequency computed by this function is not the real
 972:Drivers/STM32F7xx_HAL_Driver/Src/stm32f7xx_hal_rcc.c ****   *         frequency in the chip. It is calculated based on the predefined
 973:Drivers/STM32F7xx_HAL_Driver/Src/stm32f7xx_hal_rcc.c ****   *         constant and the selected clock source:
 974:Drivers/STM32F7xx_HAL_Driver/Src/stm32f7xx_hal_rcc.c ****   * @note     If SYSCLK source is HSI, function returns values based on HSI_VALUE(*)
 975:Drivers/STM32F7xx_HAL_Driver/Src/stm32f7xx_hal_rcc.c ****   * @note     If SYSCLK source is HSE, function returns values based on HSE_VALUE(**)
 976:Drivers/STM32F7xx_HAL_Driver/Src/stm32f7xx_hal_rcc.c ****   * @note     If SYSCLK source is PLL, function returns values based on HSE_VALUE(**)
 977:Drivers/STM32F7xx_HAL_Driver/Src/stm32f7xx_hal_rcc.c ****   *           or HSI_VALUE(*) multiplied/divided by the PLL factors.
 978:Drivers/STM32F7xx_HAL_Driver/Src/stm32f7xx_hal_rcc.c ****   * @note     (*) HSI_VALUE is a constant defined in stm32f7xx_hal_conf.h file (default value
 979:Drivers/STM32F7xx_HAL_Driver/Src/stm32f7xx_hal_rcc.c ****   *               16 MHz) but the real value may vary depending on the variations
 980:Drivers/STM32F7xx_HAL_Driver/Src/stm32f7xx_hal_rcc.c ****   *               in voltage and temperature.
 981:Drivers/STM32F7xx_HAL_Driver/Src/stm32f7xx_hal_rcc.c ****   * @note     (**) HSE_VALUE is a constant defined in stm32f7xx_hal_conf.h file (default value
 982:Drivers/STM32F7xx_HAL_Driver/Src/stm32f7xx_hal_rcc.c ****   *                25 MHz), user has to ensure that HSE_VALUE is same as the real
 983:Drivers/STM32F7xx_HAL_Driver/Src/stm32f7xx_hal_rcc.c ****   *                frequency of the crystal used. Otherwise, this function may
 984:Drivers/STM32F7xx_HAL_Driver/Src/stm32f7xx_hal_rcc.c ****   *                have wrong result.
 985:Drivers/STM32F7xx_HAL_Driver/Src/stm32f7xx_hal_rcc.c ****   *
 986:Drivers/STM32F7xx_HAL_Driver/Src/stm32f7xx_hal_rcc.c ****   * @note   The result of this function could be not correct when using fractional
 987:Drivers/STM32F7xx_HAL_Driver/Src/stm32f7xx_hal_rcc.c ****   *         value for HSE crystal.
 988:Drivers/STM32F7xx_HAL_Driver/Src/stm32f7xx_hal_rcc.c ****   *
 989:Drivers/STM32F7xx_HAL_Driver/Src/stm32f7xx_hal_rcc.c ****   * @note   This function can be used by the user application to compute the
 990:Drivers/STM32F7xx_HAL_Driver/Src/stm32f7xx_hal_rcc.c ****   *         baudrate for the communication peripherals or configure other parameters.
 991:Drivers/STM32F7xx_HAL_Driver/Src/stm32f7xx_hal_rcc.c ****   *
 992:Drivers/STM32F7xx_HAL_Driver/Src/stm32f7xx_hal_rcc.c ****   * @note   Each time SYSCLK changes, this function must be called to update the
 993:Drivers/STM32F7xx_HAL_Driver/Src/stm32f7xx_hal_rcc.c ****   *         right SYSCLK value. Otherwise, any configuration based on this function will be incorre
 994:Drivers/STM32F7xx_HAL_Driver/Src/stm32f7xx_hal_rcc.c ****   *
 995:Drivers/STM32F7xx_HAL_Driver/Src/stm32f7xx_hal_rcc.c ****   *
 996:Drivers/STM32F7xx_HAL_Driver/Src/stm32f7xx_hal_rcc.c ****   * @retval SYSCLK frequency
 997:Drivers/STM32F7xx_HAL_Driver/Src/stm32f7xx_hal_rcc.c ****   */
 998:Drivers/STM32F7xx_HAL_Driver/Src/stm32f7xx_hal_rcc.c **** uint32_t HAL_RCC_GetSysClockFreq(void)
 999:Drivers/STM32F7xx_HAL_Driver/Src/stm32f7xx_hal_rcc.c **** {
 1345              		.loc 1 999 1 is_stmt 1 view -0
 1346              		.cfi_startproc
 1347              		@ args = 0, pretend = 0, frame = 0
 1348              		@ frame_needed = 0, uses_anonymous_args = 0
1000:Drivers/STM32F7xx_HAL_Driver/Src/stm32f7xx_hal_rcc.c ****   uint32_t pllm = 0, pllvco = 0, pllp = 0;
 1349              		.loc 1 1000 3 view .LVU401
 1350              	.LVL96:
1001:Drivers/STM32F7xx_HAL_Driver/Src/stm32f7xx_hal_rcc.c ****   uint32_t sysclockfreq = 0;
 1351              		.loc 1 1001 3 view .LVU402
1002:Drivers/STM32F7xx_HAL_Driver/Src/stm32f7xx_hal_rcc.c **** 
1003:Drivers/STM32F7xx_HAL_Driver/Src/stm32f7xx_hal_rcc.c ****   /* Get SYSCLK source -------------------------------------------------------*/
1004:Drivers/STM32F7xx_HAL_Driver/Src/stm32f7xx_hal_rcc.c ****   switch (RCC->CFGR & RCC_CFGR_SWS)
 1352              		.loc 1 1004 3 view .LVU403
 1353              		.loc 1 1004 14 is_stmt 0 view .LVU404
 1354 0000 254B     		ldr	r3, .L143
 1355 0002 9B68     		ldr	r3, [r3, #8]
 1356              		.loc 1 1004 21 view .LVU405
 1357 0004 03F00C03 		and	r3, r3, #12
 1358              		.loc 1 1004 3 view .LVU406
 1359 0008 042B     		cmp	r3, #4
 1360 000a 40D0     		beq	.L137
 1361 000c 082B     		cmp	r3, #8
 1362 000e 40D1     		bne	.L138
 999:Drivers/STM32F7xx_HAL_Driver/Src/stm32f7xx_hal_rcc.c ****   uint32_t pllm = 0, pllvco = 0, pllp = 0;
 1363              		.loc 1 999 1 view .LVU407
 1364 0010 70B5     		push	{r4, r5, r6, lr}
 1365              	.LCFI11:
 1366              		.cfi_def_cfa_offset 16
ARM GAS  /tmp/ccNE9tpB.s 			page 46


 1367              		.cfi_offset 4, -16
 1368              		.cfi_offset 5, -12
 1369              		.cfi_offset 6, -8
 1370              		.cfi_offset 14, -4
1005:Drivers/STM32F7xx_HAL_Driver/Src/stm32f7xx_hal_rcc.c ****   {
1006:Drivers/STM32F7xx_HAL_Driver/Src/stm32f7xx_hal_rcc.c ****     case RCC_SYSCLKSOURCE_STATUS_HSI:  /* HSI used as system clock source */
1007:Drivers/STM32F7xx_HAL_Driver/Src/stm32f7xx_hal_rcc.c ****     {
1008:Drivers/STM32F7xx_HAL_Driver/Src/stm32f7xx_hal_rcc.c ****       sysclockfreq = HSI_VALUE;
1009:Drivers/STM32F7xx_HAL_Driver/Src/stm32f7xx_hal_rcc.c ****        break;
1010:Drivers/STM32F7xx_HAL_Driver/Src/stm32f7xx_hal_rcc.c ****     }
1011:Drivers/STM32F7xx_HAL_Driver/Src/stm32f7xx_hal_rcc.c ****     case RCC_SYSCLKSOURCE_STATUS_HSE:  /* HSE used as system clock  source */
1012:Drivers/STM32F7xx_HAL_Driver/Src/stm32f7xx_hal_rcc.c ****     {
1013:Drivers/STM32F7xx_HAL_Driver/Src/stm32f7xx_hal_rcc.c ****       sysclockfreq = HSE_VALUE;
1014:Drivers/STM32F7xx_HAL_Driver/Src/stm32f7xx_hal_rcc.c ****       break;
1015:Drivers/STM32F7xx_HAL_Driver/Src/stm32f7xx_hal_rcc.c ****     }
1016:Drivers/STM32F7xx_HAL_Driver/Src/stm32f7xx_hal_rcc.c ****     case RCC_SYSCLKSOURCE_STATUS_PLLCLK:  /* PLL used as system clock  source */
1017:Drivers/STM32F7xx_HAL_Driver/Src/stm32f7xx_hal_rcc.c ****     {
1018:Drivers/STM32F7xx_HAL_Driver/Src/stm32f7xx_hal_rcc.c ****       /* PLL_VCO = (HSE_VALUE or HSI_VALUE / PLLM) * PLLN
1019:Drivers/STM32F7xx_HAL_Driver/Src/stm32f7xx_hal_rcc.c ****       SYSCLK = PLL_VCO / PLLP */
1020:Drivers/STM32F7xx_HAL_Driver/Src/stm32f7xx_hal_rcc.c ****       pllm = RCC->PLLCFGR & RCC_PLLCFGR_PLLM;
 1371              		.loc 1 1020 7 is_stmt 1 view .LVU408
 1372              		.loc 1 1020 17 is_stmt 0 view .LVU409
 1373 0012 214B     		ldr	r3, .L143
 1374 0014 5A68     		ldr	r2, [r3, #4]
 1375              		.loc 1 1020 12 view .LVU410
 1376 0016 02F03F02 		and	r2, r2, #63
 1377              	.LVL97:
1021:Drivers/STM32F7xx_HAL_Driver/Src/stm32f7xx_hal_rcc.c ****       if (__HAL_RCC_GET_PLL_OSCSOURCE() != RCC_PLLCFGR_PLLSRC_HSI)
 1378              		.loc 1 1021 7 is_stmt 1 view .LVU411
 1379              		.loc 1 1021 11 is_stmt 0 view .LVU412
 1380 001a 5B68     		ldr	r3, [r3, #4]
 1381              		.loc 1 1021 10 view .LVU413
 1382 001c 13F4800F 		tst	r3, #4194304
 1383 0020 12D0     		beq	.L135
1022:Drivers/STM32F7xx_HAL_Driver/Src/stm32f7xx_hal_rcc.c ****       {
1023:Drivers/STM32F7xx_HAL_Driver/Src/stm32f7xx_hal_rcc.c ****         /* HSE used as PLL clock source */
1024:Drivers/STM32F7xx_HAL_Driver/Src/stm32f7xx_hal_rcc.c ****         pllvco = (uint32_t) ((((uint64_t) HSE_VALUE * ((uint64_t) ((RCC->PLLCFGR & RCC_PLLCFGR_PLLN
 1384              		.loc 1 1024 9 is_stmt 1 view .LVU414
 1385              		.loc 1 1024 72 is_stmt 0 view .LVU415
 1386 0022 1D4B     		ldr	r3, .L143
 1387 0024 5968     		ldr	r1, [r3, #4]
 1388              		.loc 1 1024 56 view .LVU416
 1389 0026 C1F38811 		ubfx	r1, r1, #6, #9
 1390              		.loc 1 1024 130 view .LVU417
 1391 002a 0023     		movs	r3, #0
 1392 002c 1B48     		ldr	r0, .L143+4
 1393 002e A1FB0001 		umull	r0, r1, r1, r0
 1394 0032 FFF7FEFF 		bl	__aeabi_uldivmod
 1395              	.LVL98:
 1396              	.L136:
1025:Drivers/STM32F7xx_HAL_Driver/Src/stm32f7xx_hal_rcc.c ****       }
1026:Drivers/STM32F7xx_HAL_Driver/Src/stm32f7xx_hal_rcc.c ****       else
1027:Drivers/STM32F7xx_HAL_Driver/Src/stm32f7xx_hal_rcc.c ****       {
1028:Drivers/STM32F7xx_HAL_Driver/Src/stm32f7xx_hal_rcc.c ****         /* HSI used as PLL clock source */
1029:Drivers/STM32F7xx_HAL_Driver/Src/stm32f7xx_hal_rcc.c ****         pllvco = (uint32_t) ((((uint64_t) HSI_VALUE * ((uint64_t) ((RCC->PLLCFGR & RCC_PLLCFGR_PLLN
1030:Drivers/STM32F7xx_HAL_Driver/Src/stm32f7xx_hal_rcc.c ****       }
1031:Drivers/STM32F7xx_HAL_Driver/Src/stm32f7xx_hal_rcc.c ****       pllp = ((((RCC->PLLCFGR & RCC_PLLCFGR_PLLP) >> RCC_PLLCFGR_PLLP_Pos) + 1 ) *2);
ARM GAS  /tmp/ccNE9tpB.s 			page 47


 1397              		.loc 1 1031 7 is_stmt 1 view .LVU418
 1398              		.loc 1 1031 21 is_stmt 0 view .LVU419
 1399 0036 184B     		ldr	r3, .L143
 1400 0038 5B68     		ldr	r3, [r3, #4]
 1401              		.loc 1 1031 51 view .LVU420
 1402 003a C3F30143 		ubfx	r3, r3, #16, #2
 1403              		.loc 1 1031 82 view .LVU421
 1404 003e 0133     		adds	r3, r3, #1
 1405              		.loc 1 1031 12 view .LVU422
 1406 0040 5B00     		lsls	r3, r3, #1
 1407              	.LVL99:
1032:Drivers/STM32F7xx_HAL_Driver/Src/stm32f7xx_hal_rcc.c **** 
1033:Drivers/STM32F7xx_HAL_Driver/Src/stm32f7xx_hal_rcc.c ****       sysclockfreq = pllvco/pllp;
 1408              		.loc 1 1033 7 is_stmt 1 view .LVU423
 1409              		.loc 1 1033 20 is_stmt 0 view .LVU424
 1410 0042 B0FBF3F0 		udiv	r0, r0, r3
 1411              	.LVL100:
1034:Drivers/STM32F7xx_HAL_Driver/Src/stm32f7xx_hal_rcc.c ****       break;
 1412              		.loc 1 1034 7 is_stmt 1 view .LVU425
1035:Drivers/STM32F7xx_HAL_Driver/Src/stm32f7xx_hal_rcc.c ****     }
1036:Drivers/STM32F7xx_HAL_Driver/Src/stm32f7xx_hal_rcc.c ****     default:
1037:Drivers/STM32F7xx_HAL_Driver/Src/stm32f7xx_hal_rcc.c ****     {
1038:Drivers/STM32F7xx_HAL_Driver/Src/stm32f7xx_hal_rcc.c ****       sysclockfreq = HSI_VALUE;
1039:Drivers/STM32F7xx_HAL_Driver/Src/stm32f7xx_hal_rcc.c ****       break;
1040:Drivers/STM32F7xx_HAL_Driver/Src/stm32f7xx_hal_rcc.c ****     }
1041:Drivers/STM32F7xx_HAL_Driver/Src/stm32f7xx_hal_rcc.c ****   }
1042:Drivers/STM32F7xx_HAL_Driver/Src/stm32f7xx_hal_rcc.c ****   return sysclockfreq;
1043:Drivers/STM32F7xx_HAL_Driver/Src/stm32f7xx_hal_rcc.c **** }
 1413              		.loc 1 1043 1 is_stmt 0 view .LVU426
 1414 0046 70BD     		pop	{r4, r5, r6, pc}
 1415              	.LVL101:
 1416              	.L135:
1029:Drivers/STM32F7xx_HAL_Driver/Src/stm32f7xx_hal_rcc.c ****       }
 1417              		.loc 1 1029 9 is_stmt 1 view .LVU427
1029:Drivers/STM32F7xx_HAL_Driver/Src/stm32f7xx_hal_rcc.c ****       }
 1418              		.loc 1 1029 72 is_stmt 0 view .LVU428
 1419 0048 134B     		ldr	r3, .L143
 1420 004a 5868     		ldr	r0, [r3, #4]
1029:Drivers/STM32F7xx_HAL_Driver/Src/stm32f7xx_hal_rcc.c ****       }
 1421              		.loc 1 1029 56 view .LVU429
 1422 004c C0F38810 		ubfx	r0, r0, #6, #9
 1423 0050 0546     		mov	r5, r0
 1424 0052 0026     		movs	r6, #0
1029:Drivers/STM32F7xx_HAL_Driver/Src/stm32f7xx_hal_rcc.c ****       }
 1425              		.loc 1 1029 53 view .LVU430
 1426 0054 4301     		lsls	r3, r0, #5
 1427 0056 1B1A     		subs	r3, r3, r0
 1428 0058 66EB0604 		sbc	r4, r6, r6
 1429 005c A101     		lsls	r1, r4, #6
 1430 005e 41EA9361 		orr	r1, r1, r3, lsr #26
 1431 0062 9801     		lsls	r0, r3, #6
 1432 0064 C01A     		subs	r0, r0, r3
 1433 0066 61EB0401 		sbc	r1, r1, r4
 1434 006a CB00     		lsls	r3, r1, #3
 1435 006c 43EA5073 		orr	r3, r3, r0, lsr #29
 1436 0070 C400     		lsls	r4, r0, #3
 1437 0072 1946     		mov	r1, r3
ARM GAS  /tmp/ccNE9tpB.s 			page 48


 1438 0074 6019     		adds	r0, r4, r5
 1439 0076 46EB0101 		adc	r1, r6, r1
 1440 007a 8B02     		lsls	r3, r1, #10
 1441 007c 43EA9053 		orr	r3, r3, r0, lsr #22
 1442 0080 8402     		lsls	r4, r0, #10
 1443 0082 2046     		mov	r0, r4
 1444 0084 1946     		mov	r1, r3
1029:Drivers/STM32F7xx_HAL_Driver/Src/stm32f7xx_hal_rcc.c ****       }
 1445              		.loc 1 1029 130 view .LVU431
 1446 0086 3346     		mov	r3, r6
 1447 0088 FFF7FEFF 		bl	__aeabi_uldivmod
 1448              	.LVL102:
1029:Drivers/STM32F7xx_HAL_Driver/Src/stm32f7xx_hal_rcc.c ****       }
 1449              		.loc 1 1029 130 view .LVU432
 1450 008c D3E7     		b	.L136
 1451              	.LVL103:
 1452              	.L137:
 1453              	.LCFI12:
 1454              		.cfi_def_cfa_offset 0
 1455              		.cfi_restore 4
 1456              		.cfi_restore 5
 1457              		.cfi_restore 6
 1458              		.cfi_restore 14
1013:Drivers/STM32F7xx_HAL_Driver/Src/stm32f7xx_hal_rcc.c ****       break;
 1459              		.loc 1 1013 20 view .LVU433
 1460 008e 0348     		ldr	r0, .L143+4
 1461 0090 7047     		bx	lr
 1462              	.L138:
1008:Drivers/STM32F7xx_HAL_Driver/Src/stm32f7xx_hal_rcc.c ****        break;
 1463              		.loc 1 1008 20 view .LVU434
 1464 0092 0348     		ldr	r0, .L143+8
 1465              	.LVL104:
1042:Drivers/STM32F7xx_HAL_Driver/Src/stm32f7xx_hal_rcc.c **** }
 1466              		.loc 1 1042 3 is_stmt 1 view .LVU435
 1467              		.loc 1 1043 1 is_stmt 0 view .LVU436
 1468 0094 7047     		bx	lr
 1469              	.L144:
 1470 0096 00BF     		.align	2
 1471              	.L143:
 1472 0098 00380240 		.word	1073887232
 1473 009c 40787D01 		.word	25000000
 1474 00a0 0024F400 		.word	16000000
 1475              		.cfi_endproc
 1476              	.LFE144:
 1478              		.section	.text.HAL_RCC_ClockConfig,"ax",%progbits
 1479              		.align	1
 1480              		.global	HAL_RCC_ClockConfig
 1481              		.syntax unified
 1482              		.thumb
 1483              		.thumb_func
 1484              		.fpu fpv5-sp-d16
 1486              	HAL_RCC_ClockConfig:
 1487              	.LVL105:
 1488              	.LFB140:
 720:Drivers/STM32F7xx_HAL_Driver/Src/stm32f7xx_hal_rcc.c ****   uint32_t tickstart = 0;
 1489              		.loc 1 720 1 is_stmt 1 view -0
 1490              		.cfi_startproc
ARM GAS  /tmp/ccNE9tpB.s 			page 49


 1491              		@ args = 0, pretend = 0, frame = 0
 1492              		@ frame_needed = 0, uses_anonymous_args = 0
 721:Drivers/STM32F7xx_HAL_Driver/Src/stm32f7xx_hal_rcc.c **** 
 1493              		.loc 1 721 3 view .LVU438
 724:Drivers/STM32F7xx_HAL_Driver/Src/stm32f7xx_hal_rcc.c ****   {
 1494              		.loc 1 724 3 view .LVU439
 724:Drivers/STM32F7xx_HAL_Driver/Src/stm32f7xx_hal_rcc.c ****   {
 1495              		.loc 1 724 5 is_stmt 0 view .LVU440
 1496 0000 0028     		cmp	r0, #0
 1497 0002 00F09F80 		beq	.L160
 720:Drivers/STM32F7xx_HAL_Driver/Src/stm32f7xx_hal_rcc.c ****   uint32_t tickstart = 0;
 1498              		.loc 1 720 1 view .LVU441
 1499 0006 70B5     		push	{r4, r5, r6, lr}
 1500              	.LCFI13:
 1501              		.cfi_def_cfa_offset 16
 1502              		.cfi_offset 4, -16
 1503              		.cfi_offset 5, -12
 1504              		.cfi_offset 6, -8
 1505              		.cfi_offset 14, -4
 1506 0008 0446     		mov	r4, r0
 730:Drivers/STM32F7xx_HAL_Driver/Src/stm32f7xx_hal_rcc.c ****   assert_param(IS_FLASH_LATENCY(FLatency));
 1507              		.loc 1 730 3 is_stmt 1 view .LVU442
 731:Drivers/STM32F7xx_HAL_Driver/Src/stm32f7xx_hal_rcc.c **** 
 1508              		.loc 1 731 3 view .LVU443
 738:Drivers/STM32F7xx_HAL_Driver/Src/stm32f7xx_hal_rcc.c ****   {
 1509              		.loc 1 738 3 view .LVU444
 738:Drivers/STM32F7xx_HAL_Driver/Src/stm32f7xx_hal_rcc.c ****   {
 1510              		.loc 1 738 17 is_stmt 0 view .LVU445
 1511 000a 524B     		ldr	r3, .L173
 1512 000c 1B68     		ldr	r3, [r3]
 1513 000e 03F00F03 		and	r3, r3, #15
 738:Drivers/STM32F7xx_HAL_Driver/Src/stm32f7xx_hal_rcc.c ****   {
 1514              		.loc 1 738 5 view .LVU446
 1515 0012 8B42     		cmp	r3, r1
 1516 0014 0BD2     		bcs	.L147
 741:Drivers/STM32F7xx_HAL_Driver/Src/stm32f7xx_hal_rcc.c **** 
 1517              		.loc 1 741 5 is_stmt 1 view .LVU447
 1518 0016 4F4A     		ldr	r2, .L173
 1519 0018 1368     		ldr	r3, [r2]
 1520 001a 23F00F03 		bic	r3, r3, #15
 1521 001e 0B43     		orrs	r3, r3, r1
 1522 0020 1360     		str	r3, [r2]
 745:Drivers/STM32F7xx_HAL_Driver/Src/stm32f7xx_hal_rcc.c ****     {
 1523              		.loc 1 745 5 view .LVU448
 745:Drivers/STM32F7xx_HAL_Driver/Src/stm32f7xx_hal_rcc.c ****     {
 1524              		.loc 1 745 8 is_stmt 0 view .LVU449
 1525 0022 1368     		ldr	r3, [r2]
 1526 0024 03F00F03 		and	r3, r3, #15
 745:Drivers/STM32F7xx_HAL_Driver/Src/stm32f7xx_hal_rcc.c ****     {
 1527              		.loc 1 745 7 view .LVU450
 1528 0028 8B42     		cmp	r3, r1
 1529 002a 40F08D80 		bne	.L161
 1530              	.L147:
 752:Drivers/STM32F7xx_HAL_Driver/Src/stm32f7xx_hal_rcc.c ****   {
 1531              		.loc 1 752 3 is_stmt 1 view .LVU451
 752:Drivers/STM32F7xx_HAL_Driver/Src/stm32f7xx_hal_rcc.c ****   {
 1532              		.loc 1 752 25 is_stmt 0 view .LVU452
ARM GAS  /tmp/ccNE9tpB.s 			page 50


 1533 002e 2368     		ldr	r3, [r4]
 752:Drivers/STM32F7xx_HAL_Driver/Src/stm32f7xx_hal_rcc.c ****   {
 1534              		.loc 1 752 5 view .LVU453
 1535 0030 13F0020F 		tst	r3, #2
 1536 0034 17D0     		beq	.L148
 756:Drivers/STM32F7xx_HAL_Driver/Src/stm32f7xx_hal_rcc.c ****     {
 1537              		.loc 1 756 5 is_stmt 1 view .LVU454
 756:Drivers/STM32F7xx_HAL_Driver/Src/stm32f7xx_hal_rcc.c ****     {
 1538              		.loc 1 756 7 is_stmt 0 view .LVU455
 1539 0036 13F0040F 		tst	r3, #4
 1540 003a 04D0     		beq	.L149
 758:Drivers/STM32F7xx_HAL_Driver/Src/stm32f7xx_hal_rcc.c ****     }
 1541              		.loc 1 758 7 is_stmt 1 view .LVU456
 1542 003c 464A     		ldr	r2, .L173+4
 1543 003e 9368     		ldr	r3, [r2, #8]
 1544 0040 43F4E053 		orr	r3, r3, #7168
 1545 0044 9360     		str	r3, [r2, #8]
 1546              	.L149:
 761:Drivers/STM32F7xx_HAL_Driver/Src/stm32f7xx_hal_rcc.c ****     {
 1547              		.loc 1 761 5 view .LVU457
 761:Drivers/STM32F7xx_HAL_Driver/Src/stm32f7xx_hal_rcc.c ****     {
 1548              		.loc 1 761 27 is_stmt 0 view .LVU458
 1549 0046 2368     		ldr	r3, [r4]
 761:Drivers/STM32F7xx_HAL_Driver/Src/stm32f7xx_hal_rcc.c ****     {
 1550              		.loc 1 761 7 view .LVU459
 1551 0048 13F0080F 		tst	r3, #8
 1552 004c 04D0     		beq	.L150
 763:Drivers/STM32F7xx_HAL_Driver/Src/stm32f7xx_hal_rcc.c ****     }
 1553              		.loc 1 763 7 is_stmt 1 view .LVU460
 1554 004e 424A     		ldr	r2, .L173+4
 1555 0050 9368     		ldr	r3, [r2, #8]
 1556 0052 43F46043 		orr	r3, r3, #57344
 1557 0056 9360     		str	r3, [r2, #8]
 1558              	.L150:
 767:Drivers/STM32F7xx_HAL_Driver/Src/stm32f7xx_hal_rcc.c ****     MODIFY_REG(RCC->CFGR, RCC_CFGR_HPRE, RCC_ClkInitStruct->AHBCLKDivider);
 1559              		.loc 1 767 5 view .LVU461
 768:Drivers/STM32F7xx_HAL_Driver/Src/stm32f7xx_hal_rcc.c ****   }
 1560              		.loc 1 768 5 view .LVU462
 1561 0058 3F4A     		ldr	r2, .L173+4
 1562 005a 9368     		ldr	r3, [r2, #8]
 1563 005c 23F0F003 		bic	r3, r3, #240
 1564 0060 A068     		ldr	r0, [r4, #8]
 1565              	.LVL106:
 768:Drivers/STM32F7xx_HAL_Driver/Src/stm32f7xx_hal_rcc.c ****   }
 1566              		.loc 1 768 5 is_stmt 0 view .LVU463
 1567 0062 0343     		orrs	r3, r3, r0
 1568 0064 9360     		str	r3, [r2, #8]
 1569              	.L148:
 768:Drivers/STM32F7xx_HAL_Driver/Src/stm32f7xx_hal_rcc.c ****   }
 1570              		.loc 1 768 5 view .LVU464
 1571 0066 0D46     		mov	r5, r1
 772:Drivers/STM32F7xx_HAL_Driver/Src/stm32f7xx_hal_rcc.c ****   {
 1572              		.loc 1 772 3 is_stmt 1 view .LVU465
 772:Drivers/STM32F7xx_HAL_Driver/Src/stm32f7xx_hal_rcc.c ****   {
 1573              		.loc 1 772 25 is_stmt 0 view .LVU466
 1574 0068 2368     		ldr	r3, [r4]
 772:Drivers/STM32F7xx_HAL_Driver/Src/stm32f7xx_hal_rcc.c ****   {
ARM GAS  /tmp/ccNE9tpB.s 			page 51


 1575              		.loc 1 772 5 view .LVU467
 1576 006a 13F0010F 		tst	r3, #1
 1577 006e 31D0     		beq	.L151
 774:Drivers/STM32F7xx_HAL_Driver/Src/stm32f7xx_hal_rcc.c **** 
 1578              		.loc 1 774 5 is_stmt 1 view .LVU468
 777:Drivers/STM32F7xx_HAL_Driver/Src/stm32f7xx_hal_rcc.c ****     {
 1579              		.loc 1 777 5 view .LVU469
 777:Drivers/STM32F7xx_HAL_Driver/Src/stm32f7xx_hal_rcc.c ****     {
 1580              		.loc 1 777 25 is_stmt 0 view .LVU470
 1581 0070 6368     		ldr	r3, [r4, #4]
 777:Drivers/STM32F7xx_HAL_Driver/Src/stm32f7xx_hal_rcc.c ****     {
 1582              		.loc 1 777 7 view .LVU471
 1583 0072 012B     		cmp	r3, #1
 1584 0074 20D0     		beq	.L171
 786:Drivers/STM32F7xx_HAL_Driver/Src/stm32f7xx_hal_rcc.c ****     {
 1585              		.loc 1 786 10 is_stmt 1 view .LVU472
 786:Drivers/STM32F7xx_HAL_Driver/Src/stm32f7xx_hal_rcc.c ****     {
 1586              		.loc 1 786 12 is_stmt 0 view .LVU473
 1587 0076 022B     		cmp	r3, #2
 1588 0078 25D0     		beq	.L172
 798:Drivers/STM32F7xx_HAL_Driver/Src/stm32f7xx_hal_rcc.c ****       {
 1589              		.loc 1 798 7 is_stmt 1 view .LVU474
 798:Drivers/STM32F7xx_HAL_Driver/Src/stm32f7xx_hal_rcc.c ****       {
 1590              		.loc 1 798 10 is_stmt 0 view .LVU475
 1591 007a 374A     		ldr	r2, .L173+4
 1592 007c 1268     		ldr	r2, [r2]
 798:Drivers/STM32F7xx_HAL_Driver/Src/stm32f7xx_hal_rcc.c ****       {
 1593              		.loc 1 798 9 view .LVU476
 1594 007e 12F0020F 		tst	r2, #2
 1595 0082 63D0     		beq	.L164
 1596              	.L153:
 804:Drivers/STM32F7xx_HAL_Driver/Src/stm32f7xx_hal_rcc.c **** 
 1597              		.loc 1 804 5 is_stmt 1 view .LVU477
 1598 0084 3449     		ldr	r1, .L173+4
 1599              	.LVL107:
 804:Drivers/STM32F7xx_HAL_Driver/Src/stm32f7xx_hal_rcc.c **** 
 1600              		.loc 1 804 5 is_stmt 0 view .LVU478
 1601 0086 8A68     		ldr	r2, [r1, #8]
 1602 0088 22F00302 		bic	r2, r2, #3
 1603 008c 1343     		orrs	r3, r3, r2
 1604 008e 8B60     		str	r3, [r1, #8]
 807:Drivers/STM32F7xx_HAL_Driver/Src/stm32f7xx_hal_rcc.c **** 
 1605              		.loc 1 807 5 is_stmt 1 view .LVU479
 807:Drivers/STM32F7xx_HAL_Driver/Src/stm32f7xx_hal_rcc.c **** 
 1606              		.loc 1 807 17 is_stmt 0 view .LVU480
 1607 0090 FFF7FEFF 		bl	HAL_GetTick
 1608              	.LVL108:
 1609 0094 0646     		mov	r6, r0
 1610              	.LVL109:
 809:Drivers/STM32F7xx_HAL_Driver/Src/stm32f7xx_hal_rcc.c ****     {
 1611              		.loc 1 809 5 is_stmt 1 view .LVU481
 1612              	.L155:
 809:Drivers/STM32F7xx_HAL_Driver/Src/stm32f7xx_hal_rcc.c ****     {
 1613              		.loc 1 809 12 is_stmt 0 view .LVU482
 1614 0096 304B     		ldr	r3, .L173+4
 1615 0098 9B68     		ldr	r3, [r3, #8]
 1616 009a 03F00C03 		and	r3, r3, #12
ARM GAS  /tmp/ccNE9tpB.s 			page 52


 809:Drivers/STM32F7xx_HAL_Driver/Src/stm32f7xx_hal_rcc.c ****     {
 1617              		.loc 1 809 63 view .LVU483
 1618 009e 6268     		ldr	r2, [r4, #4]
 809:Drivers/STM32F7xx_HAL_Driver/Src/stm32f7xx_hal_rcc.c ****     {
 1619              		.loc 1 809 11 view .LVU484
 1620 00a0 B3EB820F 		cmp	r3, r2, lsl #2
 1621 00a4 16D0     		beq	.L151
 811:Drivers/STM32F7xx_HAL_Driver/Src/stm32f7xx_hal_rcc.c ****       {
 1622              		.loc 1 811 7 is_stmt 1 view .LVU485
 811:Drivers/STM32F7xx_HAL_Driver/Src/stm32f7xx_hal_rcc.c ****       {
 1623              		.loc 1 811 12 is_stmt 0 view .LVU486
 1624 00a6 FFF7FEFF 		bl	HAL_GetTick
 1625              	.LVL110:
 811:Drivers/STM32F7xx_HAL_Driver/Src/stm32f7xx_hal_rcc.c ****       {
 1626              		.loc 1 811 26 view .LVU487
 1627 00aa 801B     		subs	r0, r0, r6
 811:Drivers/STM32F7xx_HAL_Driver/Src/stm32f7xx_hal_rcc.c ****       {
 1628              		.loc 1 811 10 view .LVU488
 1629 00ac 41F28833 		movw	r3, #5000
 1630 00b0 9842     		cmp	r0, r3
 1631 00b2 F0D9     		bls	.L155
 813:Drivers/STM32F7xx_HAL_Driver/Src/stm32f7xx_hal_rcc.c ****       }
 1632              		.loc 1 813 16 view .LVU489
 1633 00b4 0320     		movs	r0, #3
 1634 00b6 44E0     		b	.L146
 1635              	.LVL111:
 1636              	.L171:
 780:Drivers/STM32F7xx_HAL_Driver/Src/stm32f7xx_hal_rcc.c ****       {
 1637              		.loc 1 780 7 is_stmt 1 view .LVU490
 780:Drivers/STM32F7xx_HAL_Driver/Src/stm32f7xx_hal_rcc.c ****       {
 1638              		.loc 1 780 10 is_stmt 0 view .LVU491
 1639 00b8 274A     		ldr	r2, .L173+4
 1640 00ba 1268     		ldr	r2, [r2]
 780:Drivers/STM32F7xx_HAL_Driver/Src/stm32f7xx_hal_rcc.c ****       {
 1641              		.loc 1 780 9 view .LVU492
 1642 00bc 12F4003F 		tst	r2, #131072
 1643 00c0 E0D1     		bne	.L153
 782:Drivers/STM32F7xx_HAL_Driver/Src/stm32f7xx_hal_rcc.c ****       }
 1644              		.loc 1 782 16 view .LVU493
 1645 00c2 0120     		movs	r0, #1
 1646 00c4 3DE0     		b	.L146
 1647              	.L172:
 789:Drivers/STM32F7xx_HAL_Driver/Src/stm32f7xx_hal_rcc.c ****       {
 1648              		.loc 1 789 7 is_stmt 1 view .LVU494
 789:Drivers/STM32F7xx_HAL_Driver/Src/stm32f7xx_hal_rcc.c ****       {
 1649              		.loc 1 789 10 is_stmt 0 view .LVU495
 1650 00c6 244A     		ldr	r2, .L173+4
 1651 00c8 1268     		ldr	r2, [r2]
 789:Drivers/STM32F7xx_HAL_Driver/Src/stm32f7xx_hal_rcc.c ****       {
 1652              		.loc 1 789 9 view .LVU496
 1653 00ca 12F0007F 		tst	r2, #33554432
 1654 00ce D9D1     		bne	.L153
 791:Drivers/STM32F7xx_HAL_Driver/Src/stm32f7xx_hal_rcc.c ****       }
 1655              		.loc 1 791 16 view .LVU497
 1656 00d0 0120     		movs	r0, #1
 1657 00d2 36E0     		b	.L146
 1658              	.LVL112:
ARM GAS  /tmp/ccNE9tpB.s 			page 53


 1659              	.L151:
 819:Drivers/STM32F7xx_HAL_Driver/Src/stm32f7xx_hal_rcc.c ****   {
 1660              		.loc 1 819 3 is_stmt 1 view .LVU498
 819:Drivers/STM32F7xx_HAL_Driver/Src/stm32f7xx_hal_rcc.c ****   {
 1661              		.loc 1 819 17 is_stmt 0 view .LVU499
 1662 00d4 1F4B     		ldr	r3, .L173
 1663 00d6 1B68     		ldr	r3, [r3]
 1664 00d8 03F00F03 		and	r3, r3, #15
 819:Drivers/STM32F7xx_HAL_Driver/Src/stm32f7xx_hal_rcc.c ****   {
 1665              		.loc 1 819 5 view .LVU500
 1666 00dc AB42     		cmp	r3, r5
 1667 00de 0AD9     		bls	.L157
 822:Drivers/STM32F7xx_HAL_Driver/Src/stm32f7xx_hal_rcc.c **** 
 1668              		.loc 1 822 5 is_stmt 1 view .LVU501
 1669 00e0 1C4A     		ldr	r2, .L173
 1670 00e2 1368     		ldr	r3, [r2]
 1671 00e4 23F00F03 		bic	r3, r3, #15
 1672 00e8 2B43     		orrs	r3, r3, r5
 1673 00ea 1360     		str	r3, [r2]
 826:Drivers/STM32F7xx_HAL_Driver/Src/stm32f7xx_hal_rcc.c ****     {
 1674              		.loc 1 826 5 view .LVU502
 826:Drivers/STM32F7xx_HAL_Driver/Src/stm32f7xx_hal_rcc.c ****     {
 1675              		.loc 1 826 8 is_stmt 0 view .LVU503
 1676 00ec 1368     		ldr	r3, [r2]
 1677 00ee 03F00F03 		and	r3, r3, #15
 826:Drivers/STM32F7xx_HAL_Driver/Src/stm32f7xx_hal_rcc.c ****     {
 1678              		.loc 1 826 7 view .LVU504
 1679 00f2 AB42     		cmp	r3, r5
 1680 00f4 2CD1     		bne	.L166
 1681              	.L157:
 833:Drivers/STM32F7xx_HAL_Driver/Src/stm32f7xx_hal_rcc.c ****   {
 1682              		.loc 1 833 3 is_stmt 1 view .LVU505
 833:Drivers/STM32F7xx_HAL_Driver/Src/stm32f7xx_hal_rcc.c ****   {
 1683              		.loc 1 833 25 is_stmt 0 view .LVU506
 1684 00f6 2368     		ldr	r3, [r4]
 833:Drivers/STM32F7xx_HAL_Driver/Src/stm32f7xx_hal_rcc.c ****   {
 1685              		.loc 1 833 5 view .LVU507
 1686 00f8 13F0040F 		tst	r3, #4
 1687 00fc 06D0     		beq	.L158
 835:Drivers/STM32F7xx_HAL_Driver/Src/stm32f7xx_hal_rcc.c ****     MODIFY_REG(RCC->CFGR, RCC_CFGR_PPRE1, RCC_ClkInitStruct->APB1CLKDivider);
 1688              		.loc 1 835 5 is_stmt 1 view .LVU508
 836:Drivers/STM32F7xx_HAL_Driver/Src/stm32f7xx_hal_rcc.c ****   }
 1689              		.loc 1 836 5 view .LVU509
 1690 00fe 164A     		ldr	r2, .L173+4
 1691 0100 9368     		ldr	r3, [r2, #8]
 1692 0102 23F4E053 		bic	r3, r3, #7168
 1693 0106 E168     		ldr	r1, [r4, #12]
 1694 0108 0B43     		orrs	r3, r3, r1
 1695 010a 9360     		str	r3, [r2, #8]
 1696              	.L158:
 840:Drivers/STM32F7xx_HAL_Driver/Src/stm32f7xx_hal_rcc.c ****   {
 1697              		.loc 1 840 3 view .LVU510
 840:Drivers/STM32F7xx_HAL_Driver/Src/stm32f7xx_hal_rcc.c ****   {
 1698              		.loc 1 840 25 is_stmt 0 view .LVU511
 1699 010c 2368     		ldr	r3, [r4]
 840:Drivers/STM32F7xx_HAL_Driver/Src/stm32f7xx_hal_rcc.c ****   {
 1700              		.loc 1 840 5 view .LVU512
ARM GAS  /tmp/ccNE9tpB.s 			page 54


 1701 010e 13F0080F 		tst	r3, #8
 1702 0112 07D0     		beq	.L159
 842:Drivers/STM32F7xx_HAL_Driver/Src/stm32f7xx_hal_rcc.c ****     MODIFY_REG(RCC->CFGR, RCC_CFGR_PPRE2, ((RCC_ClkInitStruct->APB2CLKDivider) << 3));
 1703              		.loc 1 842 5 is_stmt 1 view .LVU513
 843:Drivers/STM32F7xx_HAL_Driver/Src/stm32f7xx_hal_rcc.c ****   }
 1704              		.loc 1 843 5 view .LVU514
 1705 0114 104A     		ldr	r2, .L173+4
 1706 0116 9368     		ldr	r3, [r2, #8]
 1707 0118 23F46043 		bic	r3, r3, #57344
 1708 011c 2169     		ldr	r1, [r4, #16]
 1709 011e 43EAC103 		orr	r3, r3, r1, lsl #3
 1710 0122 9360     		str	r3, [r2, #8]
 1711              	.L159:
 847:Drivers/STM32F7xx_HAL_Driver/Src/stm32f7xx_hal_rcc.c **** 
 1712              		.loc 1 847 3 view .LVU515
 847:Drivers/STM32F7xx_HAL_Driver/Src/stm32f7xx_hal_rcc.c **** 
 1713              		.loc 1 847 21 is_stmt 0 view .LVU516
 1714 0124 FFF7FEFF 		bl	HAL_RCC_GetSysClockFreq
 1715              	.LVL113:
 847:Drivers/STM32F7xx_HAL_Driver/Src/stm32f7xx_hal_rcc.c **** 
 1716              		.loc 1 847 68 view .LVU517
 1717 0128 0B4B     		ldr	r3, .L173+4
 1718 012a 9B68     		ldr	r3, [r3, #8]
 847:Drivers/STM32F7xx_HAL_Driver/Src/stm32f7xx_hal_rcc.c **** 
 1719              		.loc 1 847 91 view .LVU518
 1720 012c C3F30313 		ubfx	r3, r3, #4, #4
 847:Drivers/STM32F7xx_HAL_Driver/Src/stm32f7xx_hal_rcc.c **** 
 1721              		.loc 1 847 63 view .LVU519
 1722 0130 0A4A     		ldr	r2, .L173+8
 1723 0132 D35C     		ldrb	r3, [r2, r3]	@ zero_extendqisi2
 847:Drivers/STM32F7xx_HAL_Driver/Src/stm32f7xx_hal_rcc.c **** 
 1724              		.loc 1 847 47 view .LVU520
 1725 0134 D840     		lsrs	r0, r0, r3
 847:Drivers/STM32F7xx_HAL_Driver/Src/stm32f7xx_hal_rcc.c **** 
 1726              		.loc 1 847 19 view .LVU521
 1727 0136 0A4B     		ldr	r3, .L173+12
 1728 0138 1860     		str	r0, [r3]
 850:Drivers/STM32F7xx_HAL_Driver/Src/stm32f7xx_hal_rcc.c **** 
 1729              		.loc 1 850 3 is_stmt 1 view .LVU522
 1730 013a 0020     		movs	r0, #0
 1731 013c FFF7FEFF 		bl	HAL_InitTick
 1732              	.LVL114:
 852:Drivers/STM32F7xx_HAL_Driver/Src/stm32f7xx_hal_rcc.c **** }
 1733              		.loc 1 852 3 view .LVU523
 852:Drivers/STM32F7xx_HAL_Driver/Src/stm32f7xx_hal_rcc.c **** }
 1734              		.loc 1 852 10 is_stmt 0 view .LVU524
 1735 0140 0020     		movs	r0, #0
 1736              	.LVL115:
 1737              	.L146:
 853:Drivers/STM32F7xx_HAL_Driver/Src/stm32f7xx_hal_rcc.c **** 
 1738              		.loc 1 853 1 view .LVU525
 1739 0142 70BD     		pop	{r4, r5, r6, pc}
 1740              	.LVL116:
 1741              	.L160:
 1742              	.LCFI14:
 1743              		.cfi_def_cfa_offset 0
 1744              		.cfi_restore 4
ARM GAS  /tmp/ccNE9tpB.s 			page 55


 1745              		.cfi_restore 5
 1746              		.cfi_restore 6
 1747              		.cfi_restore 14
 726:Drivers/STM32F7xx_HAL_Driver/Src/stm32f7xx_hal_rcc.c ****   }
 1748              		.loc 1 726 12 view .LVU526
 1749 0144 0120     		movs	r0, #1
 1750              	.LVL117:
 853:Drivers/STM32F7xx_HAL_Driver/Src/stm32f7xx_hal_rcc.c **** 
 1751              		.loc 1 853 1 view .LVU527
 1752 0146 7047     		bx	lr
 1753              	.LVL118:
 1754              	.L161:
 1755              	.LCFI15:
 1756              		.cfi_def_cfa_offset 16
 1757              		.cfi_offset 4, -16
 1758              		.cfi_offset 5, -12
 1759              		.cfi_offset 6, -8
 1760              		.cfi_offset 14, -4
 747:Drivers/STM32F7xx_HAL_Driver/Src/stm32f7xx_hal_rcc.c ****     }
 1761              		.loc 1 747 14 view .LVU528
 1762 0148 0120     		movs	r0, #1
 1763              	.LVL119:
 747:Drivers/STM32F7xx_HAL_Driver/Src/stm32f7xx_hal_rcc.c ****     }
 1764              		.loc 1 747 14 view .LVU529
 1765 014a FAE7     		b	.L146
 1766              	.L164:
 800:Drivers/STM32F7xx_HAL_Driver/Src/stm32f7xx_hal_rcc.c ****       }
 1767              		.loc 1 800 16 view .LVU530
 1768 014c 0120     		movs	r0, #1
 1769 014e F8E7     		b	.L146
 1770              	.LVL120:
 1771              	.L166:
 828:Drivers/STM32F7xx_HAL_Driver/Src/stm32f7xx_hal_rcc.c ****     }
 1772              		.loc 1 828 14 view .LVU531
 1773 0150 0120     		movs	r0, #1
 1774 0152 F6E7     		b	.L146
 1775              	.L174:
 1776              		.align	2
 1777              	.L173:
 1778 0154 003C0240 		.word	1073888256
 1779 0158 00380240 		.word	1073887232
 1780 015c 00000000 		.word	AHBPrescTable
 1781 0160 00000000 		.word	SystemCoreClock
 1782              		.cfi_endproc
 1783              	.LFE140:
 1785              		.section	.text.HAL_RCC_GetHCLKFreq,"ax",%progbits
 1786              		.align	1
 1787              		.global	HAL_RCC_GetHCLKFreq
 1788              		.syntax unified
 1789              		.thumb
 1790              		.thumb_func
 1791              		.fpu fpv5-sp-d16
 1793              	HAL_RCC_GetHCLKFreq:
 1794              	.LFB145:
1044:Drivers/STM32F7xx_HAL_Driver/Src/stm32f7xx_hal_rcc.c **** 
1045:Drivers/STM32F7xx_HAL_Driver/Src/stm32f7xx_hal_rcc.c **** /**
1046:Drivers/STM32F7xx_HAL_Driver/Src/stm32f7xx_hal_rcc.c ****   * @brief  Returns the HCLK frequency
ARM GAS  /tmp/ccNE9tpB.s 			page 56


1047:Drivers/STM32F7xx_HAL_Driver/Src/stm32f7xx_hal_rcc.c ****   * @note   Each time HCLK changes, this function must be called to update the
1048:Drivers/STM32F7xx_HAL_Driver/Src/stm32f7xx_hal_rcc.c ****   *         right HCLK value. Otherwise, any configuration based on this function will be incorrect
1049:Drivers/STM32F7xx_HAL_Driver/Src/stm32f7xx_hal_rcc.c ****   * @note   The SystemCoreClock CMSIS variable is used to store System Clock Frequency.
1050:Drivers/STM32F7xx_HAL_Driver/Src/stm32f7xx_hal_rcc.c ****   * @retval HCLK frequency
1051:Drivers/STM32F7xx_HAL_Driver/Src/stm32f7xx_hal_rcc.c ****   */
1052:Drivers/STM32F7xx_HAL_Driver/Src/stm32f7xx_hal_rcc.c **** uint32_t HAL_RCC_GetHCLKFreq(void)
1053:Drivers/STM32F7xx_HAL_Driver/Src/stm32f7xx_hal_rcc.c **** {
 1795              		.loc 1 1053 1 is_stmt 1 view -0
 1796              		.cfi_startproc
 1797              		@ args = 0, pretend = 0, frame = 0
 1798              		@ frame_needed = 0, uses_anonymous_args = 0
 1799              		@ link register save eliminated.
1054:Drivers/STM32F7xx_HAL_Driver/Src/stm32f7xx_hal_rcc.c ****   return SystemCoreClock;
 1800              		.loc 1 1054 3 view .LVU533
1055:Drivers/STM32F7xx_HAL_Driver/Src/stm32f7xx_hal_rcc.c **** }
 1801              		.loc 1 1055 1 is_stmt 0 view .LVU534
 1802 0000 014B     		ldr	r3, .L176
 1803 0002 1868     		ldr	r0, [r3]
 1804 0004 7047     		bx	lr
 1805              	.L177:
 1806 0006 00BF     		.align	2
 1807              	.L176:
 1808 0008 00000000 		.word	SystemCoreClock
 1809              		.cfi_endproc
 1810              	.LFE145:
 1812              		.section	.text.HAL_RCC_GetPCLK1Freq,"ax",%progbits
 1813              		.align	1
 1814              		.global	HAL_RCC_GetPCLK1Freq
 1815              		.syntax unified
 1816              		.thumb
 1817              		.thumb_func
 1818              		.fpu fpv5-sp-d16
 1820              	HAL_RCC_GetPCLK1Freq:
 1821              	.LFB146:
1056:Drivers/STM32F7xx_HAL_Driver/Src/stm32f7xx_hal_rcc.c **** 
1057:Drivers/STM32F7xx_HAL_Driver/Src/stm32f7xx_hal_rcc.c **** /**
1058:Drivers/STM32F7xx_HAL_Driver/Src/stm32f7xx_hal_rcc.c ****   * @brief  Returns the PCLK1 frequency
1059:Drivers/STM32F7xx_HAL_Driver/Src/stm32f7xx_hal_rcc.c ****   * @note   Each time PCLK1 changes, this function must be called to update the
1060:Drivers/STM32F7xx_HAL_Driver/Src/stm32f7xx_hal_rcc.c ****   *         right PCLK1 value. Otherwise, any configuration based on this function will be incorrec
1061:Drivers/STM32F7xx_HAL_Driver/Src/stm32f7xx_hal_rcc.c ****   * @retval PCLK1 frequency
1062:Drivers/STM32F7xx_HAL_Driver/Src/stm32f7xx_hal_rcc.c ****   */
1063:Drivers/STM32F7xx_HAL_Driver/Src/stm32f7xx_hal_rcc.c **** uint32_t HAL_RCC_GetPCLK1Freq(void)
1064:Drivers/STM32F7xx_HAL_Driver/Src/stm32f7xx_hal_rcc.c **** {
 1822              		.loc 1 1064 1 is_stmt 1 view -0
 1823              		.cfi_startproc
 1824              		@ args = 0, pretend = 0, frame = 0
 1825              		@ frame_needed = 0, uses_anonymous_args = 0
 1826 0000 08B5     		push	{r3, lr}
 1827              	.LCFI16:
 1828              		.cfi_def_cfa_offset 8
 1829              		.cfi_offset 3, -8
 1830              		.cfi_offset 14, -4
1065:Drivers/STM32F7xx_HAL_Driver/Src/stm32f7xx_hal_rcc.c ****   /* Get HCLK source and Compute PCLK1 frequency ---------------------------*/
1066:Drivers/STM32F7xx_HAL_Driver/Src/stm32f7xx_hal_rcc.c ****   return (HAL_RCC_GetHCLKFreq() >> APBPrescTable[(RCC->CFGR & RCC_CFGR_PPRE1)>> RCC_CFGR_PPRE1_Pos]
 1831              		.loc 1 1066 3 view .LVU536
 1832              		.loc 1 1066 11 is_stmt 0 view .LVU537
 1833 0002 FFF7FEFF 		bl	HAL_RCC_GetHCLKFreq
ARM GAS  /tmp/ccNE9tpB.s 			page 57


 1834              	.LVL121:
 1835              		.loc 1 1066 54 view .LVU538
 1836 0006 044B     		ldr	r3, .L180
 1837 0008 9B68     		ldr	r3, [r3, #8]
 1838              		.loc 1 1066 78 view .LVU539
 1839 000a C3F38223 		ubfx	r3, r3, #10, #3
 1840              		.loc 1 1066 49 view .LVU540
 1841 000e 034A     		ldr	r2, .L180+4
 1842 0010 D35C     		ldrb	r3, [r2, r3]	@ zero_extendqisi2
1067:Drivers/STM32F7xx_HAL_Driver/Src/stm32f7xx_hal_rcc.c **** }
 1843              		.loc 1 1067 1 view .LVU541
 1844 0012 D840     		lsrs	r0, r0, r3
 1845 0014 08BD     		pop	{r3, pc}
 1846              	.L181:
 1847 0016 00BF     		.align	2
 1848              	.L180:
 1849 0018 00380240 		.word	1073887232
 1850 001c 00000000 		.word	APBPrescTable
 1851              		.cfi_endproc
 1852              	.LFE146:
 1854              		.section	.text.HAL_RCC_GetPCLK2Freq,"ax",%progbits
 1855              		.align	1
 1856              		.global	HAL_RCC_GetPCLK2Freq
 1857              		.syntax unified
 1858              		.thumb
 1859              		.thumb_func
 1860              		.fpu fpv5-sp-d16
 1862              	HAL_RCC_GetPCLK2Freq:
 1863              	.LFB147:
1068:Drivers/STM32F7xx_HAL_Driver/Src/stm32f7xx_hal_rcc.c **** 
1069:Drivers/STM32F7xx_HAL_Driver/Src/stm32f7xx_hal_rcc.c **** /**
1070:Drivers/STM32F7xx_HAL_Driver/Src/stm32f7xx_hal_rcc.c ****   * @brief  Returns the PCLK2 frequency
1071:Drivers/STM32F7xx_HAL_Driver/Src/stm32f7xx_hal_rcc.c ****   * @note   Each time PCLK2 changes, this function must be called to update the
1072:Drivers/STM32F7xx_HAL_Driver/Src/stm32f7xx_hal_rcc.c ****   *         right PCLK2 value. Otherwise, any configuration based on this function will be incorrec
1073:Drivers/STM32F7xx_HAL_Driver/Src/stm32f7xx_hal_rcc.c ****   * @retval PCLK2 frequency
1074:Drivers/STM32F7xx_HAL_Driver/Src/stm32f7xx_hal_rcc.c ****   */
1075:Drivers/STM32F7xx_HAL_Driver/Src/stm32f7xx_hal_rcc.c **** uint32_t HAL_RCC_GetPCLK2Freq(void)
1076:Drivers/STM32F7xx_HAL_Driver/Src/stm32f7xx_hal_rcc.c **** {
 1864              		.loc 1 1076 1 is_stmt 1 view -0
 1865              		.cfi_startproc
 1866              		@ args = 0, pretend = 0, frame = 0
 1867              		@ frame_needed = 0, uses_anonymous_args = 0
 1868 0000 08B5     		push	{r3, lr}
 1869              	.LCFI17:
 1870              		.cfi_def_cfa_offset 8
 1871              		.cfi_offset 3, -8
 1872              		.cfi_offset 14, -4
1077:Drivers/STM32F7xx_HAL_Driver/Src/stm32f7xx_hal_rcc.c ****   /* Get HCLK source and Compute PCLK2 frequency ---------------------------*/
1078:Drivers/STM32F7xx_HAL_Driver/Src/stm32f7xx_hal_rcc.c ****   return (HAL_RCC_GetHCLKFreq()>> APBPrescTable[(RCC->CFGR & RCC_CFGR_PPRE2)>> RCC_CFGR_PPRE2_Pos])
 1873              		.loc 1 1078 3 view .LVU543
 1874              		.loc 1 1078 11 is_stmt 0 view .LVU544
 1875 0002 FFF7FEFF 		bl	HAL_RCC_GetHCLKFreq
 1876              	.LVL122:
 1877              		.loc 1 1078 53 view .LVU545
 1878 0006 044B     		ldr	r3, .L184
 1879 0008 9B68     		ldr	r3, [r3, #8]
 1880              		.loc 1 1078 77 view .LVU546
ARM GAS  /tmp/ccNE9tpB.s 			page 58


 1881 000a C3F34233 		ubfx	r3, r3, #13, #3
 1882              		.loc 1 1078 48 view .LVU547
 1883 000e 034A     		ldr	r2, .L184+4
 1884 0010 D35C     		ldrb	r3, [r2, r3]	@ zero_extendqisi2
1079:Drivers/STM32F7xx_HAL_Driver/Src/stm32f7xx_hal_rcc.c **** }
 1885              		.loc 1 1079 1 view .LVU548
 1886 0012 D840     		lsrs	r0, r0, r3
 1887 0014 08BD     		pop	{r3, pc}
 1888              	.L185:
 1889 0016 00BF     		.align	2
 1890              	.L184:
 1891 0018 00380240 		.word	1073887232
 1892 001c 00000000 		.word	APBPrescTable
 1893              		.cfi_endproc
 1894              	.LFE147:
 1896              		.section	.text.HAL_RCC_GetOscConfig,"ax",%progbits
 1897              		.align	1
 1898              		.global	HAL_RCC_GetOscConfig
 1899              		.syntax unified
 1900              		.thumb
 1901              		.thumb_func
 1902              		.fpu fpv5-sp-d16
 1904              	HAL_RCC_GetOscConfig:
 1905              	.LVL123:
 1906              	.LFB148:
1080:Drivers/STM32F7xx_HAL_Driver/Src/stm32f7xx_hal_rcc.c **** 
1081:Drivers/STM32F7xx_HAL_Driver/Src/stm32f7xx_hal_rcc.c **** /**
1082:Drivers/STM32F7xx_HAL_Driver/Src/stm32f7xx_hal_rcc.c ****   * @brief  Configures the RCC_OscInitStruct according to the internal
1083:Drivers/STM32F7xx_HAL_Driver/Src/stm32f7xx_hal_rcc.c ****   * RCC configuration registers.
1084:Drivers/STM32F7xx_HAL_Driver/Src/stm32f7xx_hal_rcc.c ****   * @param  RCC_OscInitStruct pointer to an RCC_OscInitTypeDef structure that
1085:Drivers/STM32F7xx_HAL_Driver/Src/stm32f7xx_hal_rcc.c ****   * will be configured.
1086:Drivers/STM32F7xx_HAL_Driver/Src/stm32f7xx_hal_rcc.c ****   * @retval None
1087:Drivers/STM32F7xx_HAL_Driver/Src/stm32f7xx_hal_rcc.c ****   */
1088:Drivers/STM32F7xx_HAL_Driver/Src/stm32f7xx_hal_rcc.c **** void HAL_RCC_GetOscConfig(RCC_OscInitTypeDef  *RCC_OscInitStruct)
1089:Drivers/STM32F7xx_HAL_Driver/Src/stm32f7xx_hal_rcc.c **** {
 1907              		.loc 1 1089 1 is_stmt 1 view -0
 1908              		.cfi_startproc
 1909              		@ args = 0, pretend = 0, frame = 0
 1910              		@ frame_needed = 0, uses_anonymous_args = 0
 1911              		@ link register save eliminated.
1090:Drivers/STM32F7xx_HAL_Driver/Src/stm32f7xx_hal_rcc.c ****   /* Set all possible values for the Oscillator type parameter ---------------*/
1091:Drivers/STM32F7xx_HAL_Driver/Src/stm32f7xx_hal_rcc.c ****   RCC_OscInitStruct->OscillatorType = RCC_OSCILLATORTYPE_HSE | RCC_OSCILLATORTYPE_HSI | RCC_OSCILLA
 1912              		.loc 1 1091 3 view .LVU550
 1913              		.loc 1 1091 37 is_stmt 0 view .LVU551
 1914 0000 0F23     		movs	r3, #15
 1915 0002 0360     		str	r3, [r0]
1092:Drivers/STM32F7xx_HAL_Driver/Src/stm32f7xx_hal_rcc.c **** 
1093:Drivers/STM32F7xx_HAL_Driver/Src/stm32f7xx_hal_rcc.c ****   /* Get the HSE configuration -----------------------------------------------*/
1094:Drivers/STM32F7xx_HAL_Driver/Src/stm32f7xx_hal_rcc.c ****   if((RCC->CR &RCC_CR_HSEBYP) == RCC_CR_HSEBYP)
 1916              		.loc 1 1094 3 is_stmt 1 view .LVU552
 1917              		.loc 1 1094 10 is_stmt 0 view .LVU553
 1918 0004 304B     		ldr	r3, .L199
 1919 0006 1B68     		ldr	r3, [r3]
 1920              		.loc 1 1094 5 view .LVU554
 1921 0008 13F4802F 		tst	r3, #262144
 1922 000c 3BD0     		beq	.L187
1095:Drivers/STM32F7xx_HAL_Driver/Src/stm32f7xx_hal_rcc.c ****   {
ARM GAS  /tmp/ccNE9tpB.s 			page 59


1096:Drivers/STM32F7xx_HAL_Driver/Src/stm32f7xx_hal_rcc.c ****     RCC_OscInitStruct->HSEState = RCC_HSE_BYPASS;
 1923              		.loc 1 1096 5 is_stmt 1 view .LVU555
 1924              		.loc 1 1096 33 is_stmt 0 view .LVU556
 1925 000e 4FF4A023 		mov	r3, #327680
 1926 0012 4360     		str	r3, [r0, #4]
 1927              	.L188:
1097:Drivers/STM32F7xx_HAL_Driver/Src/stm32f7xx_hal_rcc.c ****   }
1098:Drivers/STM32F7xx_HAL_Driver/Src/stm32f7xx_hal_rcc.c ****   else if((RCC->CR &RCC_CR_HSEON) == RCC_CR_HSEON)
1099:Drivers/STM32F7xx_HAL_Driver/Src/stm32f7xx_hal_rcc.c ****   {
1100:Drivers/STM32F7xx_HAL_Driver/Src/stm32f7xx_hal_rcc.c ****     RCC_OscInitStruct->HSEState = RCC_HSE_ON;
1101:Drivers/STM32F7xx_HAL_Driver/Src/stm32f7xx_hal_rcc.c ****   }
1102:Drivers/STM32F7xx_HAL_Driver/Src/stm32f7xx_hal_rcc.c ****   else
1103:Drivers/STM32F7xx_HAL_Driver/Src/stm32f7xx_hal_rcc.c ****   {
1104:Drivers/STM32F7xx_HAL_Driver/Src/stm32f7xx_hal_rcc.c ****     RCC_OscInitStruct->HSEState = RCC_HSE_OFF;
1105:Drivers/STM32F7xx_HAL_Driver/Src/stm32f7xx_hal_rcc.c ****   }
1106:Drivers/STM32F7xx_HAL_Driver/Src/stm32f7xx_hal_rcc.c **** 
1107:Drivers/STM32F7xx_HAL_Driver/Src/stm32f7xx_hal_rcc.c ****   /* Get the HSI configuration -----------------------------------------------*/
1108:Drivers/STM32F7xx_HAL_Driver/Src/stm32f7xx_hal_rcc.c ****   if((RCC->CR &RCC_CR_HSION) == RCC_CR_HSION)
 1928              		.loc 1 1108 3 is_stmt 1 view .LVU557
 1929              		.loc 1 1108 10 is_stmt 0 view .LVU558
 1930 0014 2C4B     		ldr	r3, .L199
 1931 0016 1B68     		ldr	r3, [r3]
 1932              		.loc 1 1108 5 view .LVU559
 1933 0018 13F0010F 		tst	r3, #1
 1934 001c 3FD0     		beq	.L190
1109:Drivers/STM32F7xx_HAL_Driver/Src/stm32f7xx_hal_rcc.c ****   {
1110:Drivers/STM32F7xx_HAL_Driver/Src/stm32f7xx_hal_rcc.c ****     RCC_OscInitStruct->HSIState = RCC_HSI_ON;
 1935              		.loc 1 1110 5 is_stmt 1 view .LVU560
 1936              		.loc 1 1110 33 is_stmt 0 view .LVU561
 1937 001e 0123     		movs	r3, #1
 1938 0020 C360     		str	r3, [r0, #12]
 1939              	.L191:
1111:Drivers/STM32F7xx_HAL_Driver/Src/stm32f7xx_hal_rcc.c ****   }
1112:Drivers/STM32F7xx_HAL_Driver/Src/stm32f7xx_hal_rcc.c ****   else
1113:Drivers/STM32F7xx_HAL_Driver/Src/stm32f7xx_hal_rcc.c ****   {
1114:Drivers/STM32F7xx_HAL_Driver/Src/stm32f7xx_hal_rcc.c ****     RCC_OscInitStruct->HSIState = RCC_HSI_OFF;
1115:Drivers/STM32F7xx_HAL_Driver/Src/stm32f7xx_hal_rcc.c ****   }
1116:Drivers/STM32F7xx_HAL_Driver/Src/stm32f7xx_hal_rcc.c **** 
1117:Drivers/STM32F7xx_HAL_Driver/Src/stm32f7xx_hal_rcc.c ****   RCC_OscInitStruct->HSICalibrationValue = (uint32_t)((RCC->CR &RCC_CR_HSITRIM) >> RCC_CR_HSITRIM_P
 1940              		.loc 1 1117 3 is_stmt 1 view .LVU562
 1941              		.loc 1 1117 59 is_stmt 0 view .LVU563
 1942 0022 294A     		ldr	r2, .L199
 1943 0024 1368     		ldr	r3, [r2]
 1944              		.loc 1 1117 44 view .LVU564
 1945 0026 C3F3C403 		ubfx	r3, r3, #3, #5
 1946              		.loc 1 1117 42 view .LVU565
 1947 002a 0361     		str	r3, [r0, #16]
1118:Drivers/STM32F7xx_HAL_Driver/Src/stm32f7xx_hal_rcc.c **** 
1119:Drivers/STM32F7xx_HAL_Driver/Src/stm32f7xx_hal_rcc.c ****   /* Get the LSE configuration -----------------------------------------------*/
1120:Drivers/STM32F7xx_HAL_Driver/Src/stm32f7xx_hal_rcc.c ****   if((RCC->BDCR &RCC_BDCR_LSEBYP) == RCC_BDCR_LSEBYP)
 1948              		.loc 1 1120 3 is_stmt 1 view .LVU566
 1949              		.loc 1 1120 10 is_stmt 0 view .LVU567
 1950 002c 136F     		ldr	r3, [r2, #112]
 1951              		.loc 1 1120 5 view .LVU568
 1952 002e 13F0040F 		tst	r3, #4
 1953 0032 37D0     		beq	.L192
1121:Drivers/STM32F7xx_HAL_Driver/Src/stm32f7xx_hal_rcc.c ****   {
ARM GAS  /tmp/ccNE9tpB.s 			page 60


1122:Drivers/STM32F7xx_HAL_Driver/Src/stm32f7xx_hal_rcc.c ****     RCC_OscInitStruct->LSEState = RCC_LSE_BYPASS;
 1954              		.loc 1 1122 5 is_stmt 1 view .LVU569
 1955              		.loc 1 1122 33 is_stmt 0 view .LVU570
 1956 0034 0523     		movs	r3, #5
 1957 0036 8360     		str	r3, [r0, #8]
 1958              	.L193:
1123:Drivers/STM32F7xx_HAL_Driver/Src/stm32f7xx_hal_rcc.c ****   }
1124:Drivers/STM32F7xx_HAL_Driver/Src/stm32f7xx_hal_rcc.c ****   else if((RCC->BDCR &RCC_BDCR_LSEON) == RCC_BDCR_LSEON)
1125:Drivers/STM32F7xx_HAL_Driver/Src/stm32f7xx_hal_rcc.c ****   {
1126:Drivers/STM32F7xx_HAL_Driver/Src/stm32f7xx_hal_rcc.c ****     RCC_OscInitStruct->LSEState = RCC_LSE_ON;
1127:Drivers/STM32F7xx_HAL_Driver/Src/stm32f7xx_hal_rcc.c ****   }
1128:Drivers/STM32F7xx_HAL_Driver/Src/stm32f7xx_hal_rcc.c ****   else
1129:Drivers/STM32F7xx_HAL_Driver/Src/stm32f7xx_hal_rcc.c ****   {
1130:Drivers/STM32F7xx_HAL_Driver/Src/stm32f7xx_hal_rcc.c ****     RCC_OscInitStruct->LSEState = RCC_LSE_OFF;
1131:Drivers/STM32F7xx_HAL_Driver/Src/stm32f7xx_hal_rcc.c ****   }
1132:Drivers/STM32F7xx_HAL_Driver/Src/stm32f7xx_hal_rcc.c **** 
1133:Drivers/STM32F7xx_HAL_Driver/Src/stm32f7xx_hal_rcc.c ****   /* Get the LSI configuration -----------------------------------------------*/
1134:Drivers/STM32F7xx_HAL_Driver/Src/stm32f7xx_hal_rcc.c ****   if((RCC->CSR &RCC_CSR_LSION) == RCC_CSR_LSION)
 1959              		.loc 1 1134 3 is_stmt 1 view .LVU571
 1960              		.loc 1 1134 10 is_stmt 0 view .LVU572
 1961 0038 234B     		ldr	r3, .L199
 1962 003a 5B6F     		ldr	r3, [r3, #116]
 1963              		.loc 1 1134 5 view .LVU573
 1964 003c 13F0010F 		tst	r3, #1
 1965 0040 3BD0     		beq	.L195
1135:Drivers/STM32F7xx_HAL_Driver/Src/stm32f7xx_hal_rcc.c ****   {
1136:Drivers/STM32F7xx_HAL_Driver/Src/stm32f7xx_hal_rcc.c ****     RCC_OscInitStruct->LSIState = RCC_LSI_ON;
 1966              		.loc 1 1136 5 is_stmt 1 view .LVU574
 1967              		.loc 1 1136 33 is_stmt 0 view .LVU575
 1968 0042 0123     		movs	r3, #1
 1969 0044 4361     		str	r3, [r0, #20]
 1970              	.L196:
1137:Drivers/STM32F7xx_HAL_Driver/Src/stm32f7xx_hal_rcc.c ****   }
1138:Drivers/STM32F7xx_HAL_Driver/Src/stm32f7xx_hal_rcc.c ****   else
1139:Drivers/STM32F7xx_HAL_Driver/Src/stm32f7xx_hal_rcc.c ****   {
1140:Drivers/STM32F7xx_HAL_Driver/Src/stm32f7xx_hal_rcc.c ****     RCC_OscInitStruct->LSIState = RCC_LSI_OFF;
1141:Drivers/STM32F7xx_HAL_Driver/Src/stm32f7xx_hal_rcc.c ****   }
1142:Drivers/STM32F7xx_HAL_Driver/Src/stm32f7xx_hal_rcc.c **** 
1143:Drivers/STM32F7xx_HAL_Driver/Src/stm32f7xx_hal_rcc.c ****   /* Get the PLL configuration -----------------------------------------------*/
1144:Drivers/STM32F7xx_HAL_Driver/Src/stm32f7xx_hal_rcc.c ****   if((RCC->CR &RCC_CR_PLLON) == RCC_CR_PLLON)
 1971              		.loc 1 1144 3 is_stmt 1 view .LVU576
 1972              		.loc 1 1144 10 is_stmt 0 view .LVU577
 1973 0046 204B     		ldr	r3, .L199
 1974 0048 1B68     		ldr	r3, [r3]
 1975              		.loc 1 1144 5 view .LVU578
 1976 004a 13F0807F 		tst	r3, #16777216
 1977 004e 37D0     		beq	.L197
1145:Drivers/STM32F7xx_HAL_Driver/Src/stm32f7xx_hal_rcc.c ****   {
1146:Drivers/STM32F7xx_HAL_Driver/Src/stm32f7xx_hal_rcc.c ****     RCC_OscInitStruct->PLL.PLLState = RCC_PLL_ON;
 1978              		.loc 1 1146 5 is_stmt 1 view .LVU579
 1979              		.loc 1 1146 37 is_stmt 0 view .LVU580
 1980 0050 0223     		movs	r3, #2
 1981 0052 8361     		str	r3, [r0, #24]
 1982              	.L198:
1147:Drivers/STM32F7xx_HAL_Driver/Src/stm32f7xx_hal_rcc.c ****   }
1148:Drivers/STM32F7xx_HAL_Driver/Src/stm32f7xx_hal_rcc.c ****   else
1149:Drivers/STM32F7xx_HAL_Driver/Src/stm32f7xx_hal_rcc.c ****   {
ARM GAS  /tmp/ccNE9tpB.s 			page 61


1150:Drivers/STM32F7xx_HAL_Driver/Src/stm32f7xx_hal_rcc.c ****     RCC_OscInitStruct->PLL.PLLState = RCC_PLL_OFF;
1151:Drivers/STM32F7xx_HAL_Driver/Src/stm32f7xx_hal_rcc.c ****   }
1152:Drivers/STM32F7xx_HAL_Driver/Src/stm32f7xx_hal_rcc.c ****   RCC_OscInitStruct->PLL.PLLSource = (uint32_t)(RCC->PLLCFGR & RCC_PLLCFGR_PLLSRC);
 1983              		.loc 1 1152 3 is_stmt 1 view .LVU581
 1984              		.loc 1 1152 52 is_stmt 0 view .LVU582
 1985 0054 1C4A     		ldr	r2, .L199
 1986 0056 5368     		ldr	r3, [r2, #4]
 1987              		.loc 1 1152 38 view .LVU583
 1988 0058 03F48003 		and	r3, r3, #4194304
 1989              		.loc 1 1152 36 view .LVU584
 1990 005c C361     		str	r3, [r0, #28]
1153:Drivers/STM32F7xx_HAL_Driver/Src/stm32f7xx_hal_rcc.c ****   RCC_OscInitStruct->PLL.PLLM = (uint32_t)(RCC->PLLCFGR & RCC_PLLCFGR_PLLM);
 1991              		.loc 1 1153 3 is_stmt 1 view .LVU585
 1992              		.loc 1 1153 47 is_stmt 0 view .LVU586
 1993 005e 5368     		ldr	r3, [r2, #4]
 1994              		.loc 1 1153 33 view .LVU587
 1995 0060 03F03F03 		and	r3, r3, #63
 1996              		.loc 1 1153 31 view .LVU588
 1997 0064 0362     		str	r3, [r0, #32]
1154:Drivers/STM32F7xx_HAL_Driver/Src/stm32f7xx_hal_rcc.c ****   RCC_OscInitStruct->PLL.PLLN = (uint32_t)((RCC->PLLCFGR & RCC_PLLCFGR_PLLN) >> RCC_PLLCFGR_PLLN_Po
 1998              		.loc 1 1154 3 is_stmt 1 view .LVU589
 1999              		.loc 1 1154 48 is_stmt 0 view .LVU590
 2000 0066 5368     		ldr	r3, [r2, #4]
 2001              		.loc 1 1154 33 view .LVU591
 2002 0068 C3F38813 		ubfx	r3, r3, #6, #9
 2003              		.loc 1 1154 31 view .LVU592
 2004 006c 4362     		str	r3, [r0, #36]
1155:Drivers/STM32F7xx_HAL_Driver/Src/stm32f7xx_hal_rcc.c ****   RCC_OscInitStruct->PLL.PLLP = (uint32_t)((((RCC->PLLCFGR & RCC_PLLCFGR_PLLP) + RCC_PLLCFGR_PLLP_0
 2005              		.loc 1 1155 3 is_stmt 1 view .LVU593
 2006              		.loc 1 1155 50 is_stmt 0 view .LVU594
 2007 006e 5368     		ldr	r3, [r2, #4]
 2008              		.loc 1 1155 60 view .LVU595
 2009 0070 03F44033 		and	r3, r3, #196608
 2010              		.loc 1 1155 80 view .LVU596
 2011 0074 03F58033 		add	r3, r3, #65536
 2012              		.loc 1 1155 33 view .LVU597
 2013 0078 DB0B     		lsrs	r3, r3, #15
 2014              		.loc 1 1155 31 view .LVU598
 2015 007a 8362     		str	r3, [r0, #40]
1156:Drivers/STM32F7xx_HAL_Driver/Src/stm32f7xx_hal_rcc.c ****   RCC_OscInitStruct->PLL.PLLQ = (uint32_t)((RCC->PLLCFGR & RCC_PLLCFGR_PLLQ) >> RCC_PLLCFGR_PLLQ_Po
 2016              		.loc 1 1156 3 is_stmt 1 view .LVU599
 2017              		.loc 1 1156 48 is_stmt 0 view .LVU600
 2018 007c 5368     		ldr	r3, [r2, #4]
 2019              		.loc 1 1156 33 view .LVU601
 2020 007e C3F30363 		ubfx	r3, r3, #24, #4
 2021              		.loc 1 1156 31 view .LVU602
 2022 0082 C362     		str	r3, [r0, #44]
1157:Drivers/STM32F7xx_HAL_Driver/Src/stm32f7xx_hal_rcc.c **** #if defined (RCC_PLLCFGR_PLLR)
1158:Drivers/STM32F7xx_HAL_Driver/Src/stm32f7xx_hal_rcc.c ****   RCC_OscInitStruct->PLL.PLLR = (uint32_t)((RCC->PLLCFGR & RCC_PLLCFGR_PLLR) >> POSITION_VAL(RCC_PL
1159:Drivers/STM32F7xx_HAL_Driver/Src/stm32f7xx_hal_rcc.c **** #endif
1160:Drivers/STM32F7xx_HAL_Driver/Src/stm32f7xx_hal_rcc.c **** }
 2023              		.loc 1 1160 1 view .LVU603
 2024 0084 7047     		bx	lr
 2025              	.L187:
1098:Drivers/STM32F7xx_HAL_Driver/Src/stm32f7xx_hal_rcc.c ****   {
 2026              		.loc 1 1098 8 is_stmt 1 view .LVU604
1098:Drivers/STM32F7xx_HAL_Driver/Src/stm32f7xx_hal_rcc.c ****   {
ARM GAS  /tmp/ccNE9tpB.s 			page 62


 2027              		.loc 1 1098 15 is_stmt 0 view .LVU605
 2028 0086 104B     		ldr	r3, .L199
 2029 0088 1B68     		ldr	r3, [r3]
1098:Drivers/STM32F7xx_HAL_Driver/Src/stm32f7xx_hal_rcc.c ****   {
 2030              		.loc 1 1098 10 view .LVU606
 2031 008a 13F4803F 		tst	r3, #65536
 2032 008e 03D0     		beq	.L189
1100:Drivers/STM32F7xx_HAL_Driver/Src/stm32f7xx_hal_rcc.c ****   }
 2033              		.loc 1 1100 5 is_stmt 1 view .LVU607
1100:Drivers/STM32F7xx_HAL_Driver/Src/stm32f7xx_hal_rcc.c ****   }
 2034              		.loc 1 1100 33 is_stmt 0 view .LVU608
 2035 0090 4FF48033 		mov	r3, #65536
 2036 0094 4360     		str	r3, [r0, #4]
 2037 0096 BDE7     		b	.L188
 2038              	.L189:
1104:Drivers/STM32F7xx_HAL_Driver/Src/stm32f7xx_hal_rcc.c ****   }
 2039              		.loc 1 1104 5 is_stmt 1 view .LVU609
1104:Drivers/STM32F7xx_HAL_Driver/Src/stm32f7xx_hal_rcc.c ****   }
 2040              		.loc 1 1104 33 is_stmt 0 view .LVU610
 2041 0098 0023     		movs	r3, #0
 2042 009a 4360     		str	r3, [r0, #4]
 2043 009c BAE7     		b	.L188
 2044              	.L190:
1114:Drivers/STM32F7xx_HAL_Driver/Src/stm32f7xx_hal_rcc.c ****   }
 2045              		.loc 1 1114 5 is_stmt 1 view .LVU611
1114:Drivers/STM32F7xx_HAL_Driver/Src/stm32f7xx_hal_rcc.c ****   }
 2046              		.loc 1 1114 33 is_stmt 0 view .LVU612
 2047 009e 0023     		movs	r3, #0
 2048 00a0 C360     		str	r3, [r0, #12]
 2049 00a2 BEE7     		b	.L191
 2050              	.L192:
1124:Drivers/STM32F7xx_HAL_Driver/Src/stm32f7xx_hal_rcc.c ****   {
 2051              		.loc 1 1124 8 is_stmt 1 view .LVU613
1124:Drivers/STM32F7xx_HAL_Driver/Src/stm32f7xx_hal_rcc.c ****   {
 2052              		.loc 1 1124 15 is_stmt 0 view .LVU614
 2053 00a4 084B     		ldr	r3, .L199
 2054 00a6 1B6F     		ldr	r3, [r3, #112]
1124:Drivers/STM32F7xx_HAL_Driver/Src/stm32f7xx_hal_rcc.c ****   {
 2055              		.loc 1 1124 10 view .LVU615
 2056 00a8 13F0010F 		tst	r3, #1
 2057 00ac 02D0     		beq	.L194
1126:Drivers/STM32F7xx_HAL_Driver/Src/stm32f7xx_hal_rcc.c ****   }
 2058              		.loc 1 1126 5 is_stmt 1 view .LVU616
1126:Drivers/STM32F7xx_HAL_Driver/Src/stm32f7xx_hal_rcc.c ****   }
 2059              		.loc 1 1126 33 is_stmt 0 view .LVU617
 2060 00ae 0123     		movs	r3, #1
 2061 00b0 8360     		str	r3, [r0, #8]
 2062 00b2 C1E7     		b	.L193
 2063              	.L194:
1130:Drivers/STM32F7xx_HAL_Driver/Src/stm32f7xx_hal_rcc.c ****   }
 2064              		.loc 1 1130 5 is_stmt 1 view .LVU618
1130:Drivers/STM32F7xx_HAL_Driver/Src/stm32f7xx_hal_rcc.c ****   }
 2065              		.loc 1 1130 33 is_stmt 0 view .LVU619
 2066 00b4 0023     		movs	r3, #0
 2067 00b6 8360     		str	r3, [r0, #8]
 2068 00b8 BEE7     		b	.L193
 2069              	.L195:
ARM GAS  /tmp/ccNE9tpB.s 			page 63


1140:Drivers/STM32F7xx_HAL_Driver/Src/stm32f7xx_hal_rcc.c ****   }
 2070              		.loc 1 1140 5 is_stmt 1 view .LVU620
1140:Drivers/STM32F7xx_HAL_Driver/Src/stm32f7xx_hal_rcc.c ****   }
 2071              		.loc 1 1140 33 is_stmt 0 view .LVU621
 2072 00ba 0023     		movs	r3, #0
 2073 00bc 4361     		str	r3, [r0, #20]
 2074 00be C2E7     		b	.L196
 2075              	.L197:
1150:Drivers/STM32F7xx_HAL_Driver/Src/stm32f7xx_hal_rcc.c ****   }
 2076              		.loc 1 1150 5 is_stmt 1 view .LVU622
1150:Drivers/STM32F7xx_HAL_Driver/Src/stm32f7xx_hal_rcc.c ****   }
 2077              		.loc 1 1150 37 is_stmt 0 view .LVU623
 2078 00c0 0123     		movs	r3, #1
 2079 00c2 8361     		str	r3, [r0, #24]
 2080 00c4 C6E7     		b	.L198
 2081              	.L200:
 2082 00c6 00BF     		.align	2
 2083              	.L199:
 2084 00c8 00380240 		.word	1073887232
 2085              		.cfi_endproc
 2086              	.LFE148:
 2088              		.section	.text.HAL_RCC_GetClockConfig,"ax",%progbits
 2089              		.align	1
 2090              		.global	HAL_RCC_GetClockConfig
 2091              		.syntax unified
 2092              		.thumb
 2093              		.thumb_func
 2094              		.fpu fpv5-sp-d16
 2096              	HAL_RCC_GetClockConfig:
 2097              	.LVL124:
 2098              	.LFB149:
1161:Drivers/STM32F7xx_HAL_Driver/Src/stm32f7xx_hal_rcc.c **** 
1162:Drivers/STM32F7xx_HAL_Driver/Src/stm32f7xx_hal_rcc.c **** /**
1163:Drivers/STM32F7xx_HAL_Driver/Src/stm32f7xx_hal_rcc.c ****   * @brief  Configures the RCC_ClkInitStruct according to the internal
1164:Drivers/STM32F7xx_HAL_Driver/Src/stm32f7xx_hal_rcc.c ****   * RCC configuration registers.
1165:Drivers/STM32F7xx_HAL_Driver/Src/stm32f7xx_hal_rcc.c ****   * @param  RCC_ClkInitStruct pointer to an RCC_ClkInitTypeDef structure that
1166:Drivers/STM32F7xx_HAL_Driver/Src/stm32f7xx_hal_rcc.c ****   * will be configured.
1167:Drivers/STM32F7xx_HAL_Driver/Src/stm32f7xx_hal_rcc.c ****   * @param  pFLatency Pointer on the Flash Latency.
1168:Drivers/STM32F7xx_HAL_Driver/Src/stm32f7xx_hal_rcc.c ****   * @retval None
1169:Drivers/STM32F7xx_HAL_Driver/Src/stm32f7xx_hal_rcc.c ****   */
1170:Drivers/STM32F7xx_HAL_Driver/Src/stm32f7xx_hal_rcc.c **** void HAL_RCC_GetClockConfig(RCC_ClkInitTypeDef  *RCC_ClkInitStruct, uint32_t *pFLatency)
1171:Drivers/STM32F7xx_HAL_Driver/Src/stm32f7xx_hal_rcc.c **** {
 2099              		.loc 1 1171 1 is_stmt 1 view -0
 2100              		.cfi_startproc
 2101              		@ args = 0, pretend = 0, frame = 0
 2102              		@ frame_needed = 0, uses_anonymous_args = 0
 2103              		@ link register save eliminated.
1172:Drivers/STM32F7xx_HAL_Driver/Src/stm32f7xx_hal_rcc.c ****   /* Set all possible values for the Clock type parameter --------------------*/
1173:Drivers/STM32F7xx_HAL_Driver/Src/stm32f7xx_hal_rcc.c ****   RCC_ClkInitStruct->ClockType = RCC_CLOCKTYPE_SYSCLK | RCC_CLOCKTYPE_HCLK | RCC_CLOCKTYPE_PCLK1 | 
 2104              		.loc 1 1173 3 view .LVU625
 2105              		.loc 1 1173 32 is_stmt 0 view .LVU626
 2106 0000 0F23     		movs	r3, #15
 2107 0002 0360     		str	r3, [r0]
1174:Drivers/STM32F7xx_HAL_Driver/Src/stm32f7xx_hal_rcc.c **** 
1175:Drivers/STM32F7xx_HAL_Driver/Src/stm32f7xx_hal_rcc.c ****   /* Get the SYSCLK configuration --------------------------------------------*/
1176:Drivers/STM32F7xx_HAL_Driver/Src/stm32f7xx_hal_rcc.c ****   RCC_ClkInitStruct->SYSCLKSource = (uint32_t)(RCC->CFGR & RCC_CFGR_SW);
 2108              		.loc 1 1176 3 is_stmt 1 view .LVU627
ARM GAS  /tmp/ccNE9tpB.s 			page 64


 2109              		.loc 1 1176 51 is_stmt 0 view .LVU628
 2110 0004 0B4B     		ldr	r3, .L202
 2111 0006 9A68     		ldr	r2, [r3, #8]
 2112              		.loc 1 1176 37 view .LVU629
 2113 0008 02F00302 		and	r2, r2, #3
 2114              		.loc 1 1176 35 view .LVU630
 2115 000c 4260     		str	r2, [r0, #4]
1177:Drivers/STM32F7xx_HAL_Driver/Src/stm32f7xx_hal_rcc.c **** 
1178:Drivers/STM32F7xx_HAL_Driver/Src/stm32f7xx_hal_rcc.c ****   /* Get the HCLK configuration ----------------------------------------------*/
1179:Drivers/STM32F7xx_HAL_Driver/Src/stm32f7xx_hal_rcc.c ****   RCC_ClkInitStruct->AHBCLKDivider = (uint32_t)(RCC->CFGR & RCC_CFGR_HPRE);
 2116              		.loc 1 1179 3 is_stmt 1 view .LVU631
 2117              		.loc 1 1179 52 is_stmt 0 view .LVU632
 2118 000e 9A68     		ldr	r2, [r3, #8]
 2119              		.loc 1 1179 38 view .LVU633
 2120 0010 02F0F002 		and	r2, r2, #240
 2121              		.loc 1 1179 36 view .LVU634
 2122 0014 8260     		str	r2, [r0, #8]
1180:Drivers/STM32F7xx_HAL_Driver/Src/stm32f7xx_hal_rcc.c **** 
1181:Drivers/STM32F7xx_HAL_Driver/Src/stm32f7xx_hal_rcc.c ****   /* Get the APB1 configuration ----------------------------------------------*/
1182:Drivers/STM32F7xx_HAL_Driver/Src/stm32f7xx_hal_rcc.c ****   RCC_ClkInitStruct->APB1CLKDivider = (uint32_t)(RCC->CFGR & RCC_CFGR_PPRE1);
 2123              		.loc 1 1182 3 is_stmt 1 view .LVU635
 2124              		.loc 1 1182 53 is_stmt 0 view .LVU636
 2125 0016 9A68     		ldr	r2, [r3, #8]
 2126              		.loc 1 1182 39 view .LVU637
 2127 0018 02F4E052 		and	r2, r2, #7168
 2128              		.loc 1 1182 37 view .LVU638
 2129 001c C260     		str	r2, [r0, #12]
1183:Drivers/STM32F7xx_HAL_Driver/Src/stm32f7xx_hal_rcc.c **** 
1184:Drivers/STM32F7xx_HAL_Driver/Src/stm32f7xx_hal_rcc.c ****   /* Get the APB2 configuration ----------------------------------------------*/
1185:Drivers/STM32F7xx_HAL_Driver/Src/stm32f7xx_hal_rcc.c ****   RCC_ClkInitStruct->APB2CLKDivider = (uint32_t)((RCC->CFGR & RCC_CFGR_PPRE2) >> 3);
 2130              		.loc 1 1185 3 is_stmt 1 view .LVU639
 2131              		.loc 1 1185 54 is_stmt 0 view .LVU640
 2132 001e 9B68     		ldr	r3, [r3, #8]
 2133              		.loc 1 1185 39 view .LVU641
 2134 0020 DB08     		lsrs	r3, r3, #3
 2135 0022 03F4E053 		and	r3, r3, #7168
 2136              		.loc 1 1185 37 view .LVU642
 2137 0026 0361     		str	r3, [r0, #16]
1186:Drivers/STM32F7xx_HAL_Driver/Src/stm32f7xx_hal_rcc.c **** 
1187:Drivers/STM32F7xx_HAL_Driver/Src/stm32f7xx_hal_rcc.c ****   /* Get the Flash Wait State (Latency) configuration ------------------------*/
1188:Drivers/STM32F7xx_HAL_Driver/Src/stm32f7xx_hal_rcc.c ****   *pFLatency = (uint32_t)(FLASH->ACR & FLASH_ACR_LATENCY);
 2138              		.loc 1 1188 3 is_stmt 1 view .LVU643
 2139              		.loc 1 1188 32 is_stmt 0 view .LVU644
 2140 0028 034B     		ldr	r3, .L202+4
 2141 002a 1B68     		ldr	r3, [r3]
 2142              		.loc 1 1188 16 view .LVU645
 2143 002c 03F00F03 		and	r3, r3, #15
 2144              		.loc 1 1188 14 view .LVU646
 2145 0030 0B60     		str	r3, [r1]
1189:Drivers/STM32F7xx_HAL_Driver/Src/stm32f7xx_hal_rcc.c **** }
 2146              		.loc 1 1189 1 view .LVU647
 2147 0032 7047     		bx	lr
 2148              	.L203:
 2149              		.align	2
 2150              	.L202:
 2151 0034 00380240 		.word	1073887232
 2152 0038 003C0240 		.word	1073888256
ARM GAS  /tmp/ccNE9tpB.s 			page 65


 2153              		.cfi_endproc
 2154              	.LFE149:
 2156              		.section	.text.HAL_RCC_CSSCallback,"ax",%progbits
 2157              		.align	1
 2158              		.weak	HAL_RCC_CSSCallback
 2159              		.syntax unified
 2160              		.thumb
 2161              		.thumb_func
 2162              		.fpu fpv5-sp-d16
 2164              	HAL_RCC_CSSCallback:
 2165              	.LFB151:
1190:Drivers/STM32F7xx_HAL_Driver/Src/stm32f7xx_hal_rcc.c **** 
1191:Drivers/STM32F7xx_HAL_Driver/Src/stm32f7xx_hal_rcc.c **** /**
1192:Drivers/STM32F7xx_HAL_Driver/Src/stm32f7xx_hal_rcc.c ****   * @brief This function handles the RCC CSS interrupt request.
1193:Drivers/STM32F7xx_HAL_Driver/Src/stm32f7xx_hal_rcc.c ****   * @note This API should be called under the NMI_Handler().
1194:Drivers/STM32F7xx_HAL_Driver/Src/stm32f7xx_hal_rcc.c ****   * @retval None
1195:Drivers/STM32F7xx_HAL_Driver/Src/stm32f7xx_hal_rcc.c ****   */
1196:Drivers/STM32F7xx_HAL_Driver/Src/stm32f7xx_hal_rcc.c **** void HAL_RCC_NMI_IRQHandler(void)
1197:Drivers/STM32F7xx_HAL_Driver/Src/stm32f7xx_hal_rcc.c **** {
1198:Drivers/STM32F7xx_HAL_Driver/Src/stm32f7xx_hal_rcc.c ****   /* Check RCC CSSF flag  */
1199:Drivers/STM32F7xx_HAL_Driver/Src/stm32f7xx_hal_rcc.c ****   if(__HAL_RCC_GET_IT(RCC_IT_CSS))
1200:Drivers/STM32F7xx_HAL_Driver/Src/stm32f7xx_hal_rcc.c ****   {
1201:Drivers/STM32F7xx_HAL_Driver/Src/stm32f7xx_hal_rcc.c ****     /* RCC Clock Security System interrupt user callback */
1202:Drivers/STM32F7xx_HAL_Driver/Src/stm32f7xx_hal_rcc.c ****     HAL_RCC_CSSCallback();
1203:Drivers/STM32F7xx_HAL_Driver/Src/stm32f7xx_hal_rcc.c **** 
1204:Drivers/STM32F7xx_HAL_Driver/Src/stm32f7xx_hal_rcc.c ****     /* Clear RCC CSS pending bit */
1205:Drivers/STM32F7xx_HAL_Driver/Src/stm32f7xx_hal_rcc.c ****     __HAL_RCC_CLEAR_IT(RCC_IT_CSS);
1206:Drivers/STM32F7xx_HAL_Driver/Src/stm32f7xx_hal_rcc.c ****   }
1207:Drivers/STM32F7xx_HAL_Driver/Src/stm32f7xx_hal_rcc.c **** }
1208:Drivers/STM32F7xx_HAL_Driver/Src/stm32f7xx_hal_rcc.c **** 
1209:Drivers/STM32F7xx_HAL_Driver/Src/stm32f7xx_hal_rcc.c **** /**
1210:Drivers/STM32F7xx_HAL_Driver/Src/stm32f7xx_hal_rcc.c ****   * @brief  RCC Clock Security System interrupt callback
1211:Drivers/STM32F7xx_HAL_Driver/Src/stm32f7xx_hal_rcc.c ****   * @retval None
1212:Drivers/STM32F7xx_HAL_Driver/Src/stm32f7xx_hal_rcc.c ****   */
1213:Drivers/STM32F7xx_HAL_Driver/Src/stm32f7xx_hal_rcc.c **** __weak void HAL_RCC_CSSCallback(void)
1214:Drivers/STM32F7xx_HAL_Driver/Src/stm32f7xx_hal_rcc.c **** {
 2166              		.loc 1 1214 1 is_stmt 1 view -0
 2167              		.cfi_startproc
 2168              		@ args = 0, pretend = 0, frame = 0
 2169              		@ frame_needed = 0, uses_anonymous_args = 0
 2170              		@ link register save eliminated.
1215:Drivers/STM32F7xx_HAL_Driver/Src/stm32f7xx_hal_rcc.c ****   /* NOTE : This function Should not be modified, when the callback is needed,
1216:Drivers/STM32F7xx_HAL_Driver/Src/stm32f7xx_hal_rcc.c ****             the HAL_RCC_CSSCallback could be implemented in the user file
1217:Drivers/STM32F7xx_HAL_Driver/Src/stm32f7xx_hal_rcc.c ****    */
1218:Drivers/STM32F7xx_HAL_Driver/Src/stm32f7xx_hal_rcc.c **** }
 2171              		.loc 1 1218 1 view .LVU649
 2172 0000 7047     		bx	lr
 2173              		.cfi_endproc
 2174              	.LFE151:
 2176              		.section	.text.HAL_RCC_NMI_IRQHandler,"ax",%progbits
 2177              		.align	1
 2178              		.global	HAL_RCC_NMI_IRQHandler
 2179              		.syntax unified
 2180              		.thumb
 2181              		.thumb_func
 2182              		.fpu fpv5-sp-d16
 2184              	HAL_RCC_NMI_IRQHandler:
ARM GAS  /tmp/ccNE9tpB.s 			page 66


 2185              	.LFB150:
1197:Drivers/STM32F7xx_HAL_Driver/Src/stm32f7xx_hal_rcc.c ****   /* Check RCC CSSF flag  */
 2186              		.loc 1 1197 1 view -0
 2187              		.cfi_startproc
 2188              		@ args = 0, pretend = 0, frame = 0
 2189              		@ frame_needed = 0, uses_anonymous_args = 0
 2190 0000 08B5     		push	{r3, lr}
 2191              	.LCFI18:
 2192              		.cfi_def_cfa_offset 8
 2193              		.cfi_offset 3, -8
 2194              		.cfi_offset 14, -4
1199:Drivers/STM32F7xx_HAL_Driver/Src/stm32f7xx_hal_rcc.c ****   {
 2195              		.loc 1 1199 3 view .LVU651
1199:Drivers/STM32F7xx_HAL_Driver/Src/stm32f7xx_hal_rcc.c ****   {
 2196              		.loc 1 1199 6 is_stmt 0 view .LVU652
 2197 0002 064B     		ldr	r3, .L209
 2198 0004 DB68     		ldr	r3, [r3, #12]
1199:Drivers/STM32F7xx_HAL_Driver/Src/stm32f7xx_hal_rcc.c ****   {
 2199              		.loc 1 1199 5 view .LVU653
 2200 0006 13F0800F 		tst	r3, #128
 2201 000a 00D1     		bne	.L208
 2202              	.L205:
1207:Drivers/STM32F7xx_HAL_Driver/Src/stm32f7xx_hal_rcc.c **** 
 2203              		.loc 1 1207 1 view .LVU654
 2204 000c 08BD     		pop	{r3, pc}
 2205              	.L208:
1202:Drivers/STM32F7xx_HAL_Driver/Src/stm32f7xx_hal_rcc.c **** 
 2206              		.loc 1 1202 5 is_stmt 1 view .LVU655
 2207 000e FFF7FEFF 		bl	HAL_RCC_CSSCallback
 2208              	.LVL125:
1205:Drivers/STM32F7xx_HAL_Driver/Src/stm32f7xx_hal_rcc.c ****   }
 2209              		.loc 1 1205 5 view .LVU656
 2210 0012 034B     		ldr	r3, .L209+4
 2211 0014 8022     		movs	r2, #128
 2212 0016 1A70     		strb	r2, [r3]
1207:Drivers/STM32F7xx_HAL_Driver/Src/stm32f7xx_hal_rcc.c **** 
 2213              		.loc 1 1207 1 is_stmt 0 view .LVU657
 2214 0018 F8E7     		b	.L205
 2215              	.L210:
 2216 001a 00BF     		.align	2
 2217              	.L209:
 2218 001c 00380240 		.word	1073887232
 2219 0020 0E380240 		.word	1073887246
 2220              		.cfi_endproc
 2221              	.LFE150:
 2223              		.text
 2224              	.Letext0:
 2225              		.file 2 "/usr/arm-none-eabi/include/machine/_default_types.h"
 2226              		.file 3 "/usr/arm-none-eabi/include/sys/_stdint.h"
 2227              		.file 4 "Drivers/CMSIS/Include/core_cm7.h"
 2228              		.file 5 "Drivers/CMSIS/Device/ST/STM32F7xx/Include/system_stm32f7xx.h"
 2229              		.file 6 "Drivers/CMSIS/Device/ST/STM32F7xx/Include/stm32f746xx.h"
 2230              		.file 7 "Drivers/CMSIS/Device/ST/STM32F7xx/Include/stm32f7xx.h"
 2231              		.file 8 "/usr/arm-none-eabi/include/sys/lock.h"
 2232              		.file 9 "/usr/arm-none-eabi/include/sys/_types.h"
 2233              		.file 10 "/usr/lib/gcc/arm-none-eabi/8.3.0/include/stddef.h"
 2234              		.file 11 "/usr/arm-none-eabi/include/sys/reent.h"
ARM GAS  /tmp/ccNE9tpB.s 			page 67


 2235              		.file 12 "Drivers/STM32F7xx_HAL_Driver/Inc/stm32f7xx_hal_def.h"
 2236              		.file 13 "Drivers/STM32F7xx_HAL_Driver/Inc/stm32f7xx_hal_rcc_ex.h"
 2237              		.file 14 "Drivers/STM32F7xx_HAL_Driver/Inc/stm32f7xx_hal_rcc.h"
 2238              		.file 15 "Drivers/STM32F7xx_HAL_Driver/Inc/stm32f7xx_hal_gpio.h"
 2239              		.file 16 "Drivers/STM32F7xx_HAL_Driver/Inc/stm32f7xx_hal.h"
ARM GAS  /tmp/ccNE9tpB.s 			page 68


DEFINED SYMBOLS
                            *ABS*:0000000000000000 stm32f7xx_hal_rcc.c
     /tmp/ccNE9tpB.s:18     .text.HAL_RCC_DeInit:0000000000000000 $t
     /tmp/ccNE9tpB.s:26     .text.HAL_RCC_DeInit:0000000000000000 HAL_RCC_DeInit
     /tmp/ccNE9tpB.s:295    .text.HAL_RCC_DeInit:0000000000000144 $d
     /tmp/ccNE9tpB.s:303    .text.HAL_RCC_OscConfig:0000000000000000 $t
     /tmp/ccNE9tpB.s:310    .text.HAL_RCC_OscConfig:0000000000000000 HAL_RCC_OscConfig
     /tmp/ccNE9tpB.s:861    .text.HAL_RCC_OscConfig:00000000000002b4 $d
     /tmp/ccNE9tpB.s:865    .text.HAL_RCC_OscConfig:00000000000002bc $t
     /tmp/ccNE9tpB.s:1111   .text.HAL_RCC_OscConfig:00000000000003d0 $d
     /tmp/ccNE9tpB.s:1116   .text.HAL_RCC_MCOConfig:0000000000000000 $t
     /tmp/ccNE9tpB.s:1123   .text.HAL_RCC_MCOConfig:0000000000000000 HAL_RCC_MCOConfig
     /tmp/ccNE9tpB.s:1270   .text.HAL_RCC_MCOConfig:000000000000008c $d
     /tmp/ccNE9tpB.s:1277   .text.HAL_RCC_EnableCSS:0000000000000000 $t
     /tmp/ccNE9tpB.s:1284   .text.HAL_RCC_EnableCSS:0000000000000000 HAL_RCC_EnableCSS
     /tmp/ccNE9tpB.s:1301   .text.HAL_RCC_EnableCSS:000000000000000c $d
     /tmp/ccNE9tpB.s:1306   .text.HAL_RCC_DisableCSS:0000000000000000 $t
     /tmp/ccNE9tpB.s:1313   .text.HAL_RCC_DisableCSS:0000000000000000 HAL_RCC_DisableCSS
     /tmp/ccNE9tpB.s:1330   .text.HAL_RCC_DisableCSS:000000000000000c $d
     /tmp/ccNE9tpB.s:1336   .text.HAL_RCC_GetSysClockFreq:0000000000000000 $t
     /tmp/ccNE9tpB.s:1343   .text.HAL_RCC_GetSysClockFreq:0000000000000000 HAL_RCC_GetSysClockFreq
     /tmp/ccNE9tpB.s:1472   .text.HAL_RCC_GetSysClockFreq:0000000000000098 $d
     /tmp/ccNE9tpB.s:1479   .text.HAL_RCC_ClockConfig:0000000000000000 $t
     /tmp/ccNE9tpB.s:1486   .text.HAL_RCC_ClockConfig:0000000000000000 HAL_RCC_ClockConfig
     /tmp/ccNE9tpB.s:1778   .text.HAL_RCC_ClockConfig:0000000000000154 $d
     /tmp/ccNE9tpB.s:1786   .text.HAL_RCC_GetHCLKFreq:0000000000000000 $t
     /tmp/ccNE9tpB.s:1793   .text.HAL_RCC_GetHCLKFreq:0000000000000000 HAL_RCC_GetHCLKFreq
     /tmp/ccNE9tpB.s:1808   .text.HAL_RCC_GetHCLKFreq:0000000000000008 $d
     /tmp/ccNE9tpB.s:1813   .text.HAL_RCC_GetPCLK1Freq:0000000000000000 $t
     /tmp/ccNE9tpB.s:1820   .text.HAL_RCC_GetPCLK1Freq:0000000000000000 HAL_RCC_GetPCLK1Freq
     /tmp/ccNE9tpB.s:1849   .text.HAL_RCC_GetPCLK1Freq:0000000000000018 $d
     /tmp/ccNE9tpB.s:1855   .text.HAL_RCC_GetPCLK2Freq:0000000000000000 $t
     /tmp/ccNE9tpB.s:1862   .text.HAL_RCC_GetPCLK2Freq:0000000000000000 HAL_RCC_GetPCLK2Freq
     /tmp/ccNE9tpB.s:1891   .text.HAL_RCC_GetPCLK2Freq:0000000000000018 $d
     /tmp/ccNE9tpB.s:1897   .text.HAL_RCC_GetOscConfig:0000000000000000 $t
     /tmp/ccNE9tpB.s:1904   .text.HAL_RCC_GetOscConfig:0000000000000000 HAL_RCC_GetOscConfig
     /tmp/ccNE9tpB.s:2084   .text.HAL_RCC_GetOscConfig:00000000000000c8 $d
     /tmp/ccNE9tpB.s:2089   .text.HAL_RCC_GetClockConfig:0000000000000000 $t
     /tmp/ccNE9tpB.s:2096   .text.HAL_RCC_GetClockConfig:0000000000000000 HAL_RCC_GetClockConfig
     /tmp/ccNE9tpB.s:2151   .text.HAL_RCC_GetClockConfig:0000000000000034 $d
     /tmp/ccNE9tpB.s:2157   .text.HAL_RCC_CSSCallback:0000000000000000 $t
     /tmp/ccNE9tpB.s:2164   .text.HAL_RCC_CSSCallback:0000000000000000 HAL_RCC_CSSCallback
     /tmp/ccNE9tpB.s:2177   .text.HAL_RCC_NMI_IRQHandler:0000000000000000 $t
     /tmp/ccNE9tpB.s:2184   .text.HAL_RCC_NMI_IRQHandler:0000000000000000 HAL_RCC_NMI_IRQHandler
     /tmp/ccNE9tpB.s:2218   .text.HAL_RCC_NMI_IRQHandler:000000000000001c $d

UNDEFINED SYMBOLS
HAL_GetTick
HAL_InitTick
SystemCoreClock
HAL_GPIO_Init
__aeabi_uldivmod
AHBPrescTable
APBPrescTable
