ARM GAS  /tmp/cc6by9MY.s 			page 1


   1              		.cpu cortex-m7
   2              		.eabi_attribute 27, 1
   3              		.eabi_attribute 28, 1
   4              		.eabi_attribute 20, 1
   5              		.eabi_attribute 21, 1
   6              		.eabi_attribute 23, 3
   7              		.eabi_attribute 24, 1
   8              		.eabi_attribute 25, 1
   9              		.eabi_attribute 26, 1
  10              		.eabi_attribute 30, 1
  11              		.eabi_attribute 34, 1
  12              		.eabi_attribute 18, 4
  13              		.file	"tcp.c"
  14              		.text
  15              	.Ltext0:
  16              		.cfi_sections	.debug_frame
  17              		.section	.text.tcp_remove_listener,"ax",%progbits
  18              		.align	1
  19              		.arch armv7e-m
  20              		.syntax unified
  21              		.thumb
  22              		.thumb_func
  23              		.fpu fpv5-sp-d16
  25              	tcp_remove_listener:
  26              	.LVL0:
  27              	.LFB162:
  28              		.file 1 "Middlewares/Third_Party/LwIP/src/core/tcp.c"
   1:Middlewares/Third_Party/LwIP/src/core/tcp.c **** /**
   2:Middlewares/Third_Party/LwIP/src/core/tcp.c ****  * @file 
   3:Middlewares/Third_Party/LwIP/src/core/tcp.c ****  * Transmission Control Protocol for IP
   4:Middlewares/Third_Party/LwIP/src/core/tcp.c ****  * See also @ref tcp_raw
   5:Middlewares/Third_Party/LwIP/src/core/tcp.c ****  *
   6:Middlewares/Third_Party/LwIP/src/core/tcp.c ****  * @defgroup tcp_raw TCP
   7:Middlewares/Third_Party/LwIP/src/core/tcp.c ****  * @ingroup callbackstyle_api
   8:Middlewares/Third_Party/LwIP/src/core/tcp.c ****  * Transmission Control Protocol for IP\n
   9:Middlewares/Third_Party/LwIP/src/core/tcp.c ****  * @see @ref raw_api and @ref netconn
  10:Middlewares/Third_Party/LwIP/src/core/tcp.c ****  *
  11:Middlewares/Third_Party/LwIP/src/core/tcp.c ****  * Common functions for the TCP implementation, such as functinos
  12:Middlewares/Third_Party/LwIP/src/core/tcp.c ****  * for manipulating the data structures and the TCP timer functions. TCP functions
  13:Middlewares/Third_Party/LwIP/src/core/tcp.c ****  * related to input and output is found in tcp_in.c and tcp_out.c respectively.\n
  14:Middlewares/Third_Party/LwIP/src/core/tcp.c ****  */
  15:Middlewares/Third_Party/LwIP/src/core/tcp.c **** 
  16:Middlewares/Third_Party/LwIP/src/core/tcp.c **** /*
  17:Middlewares/Third_Party/LwIP/src/core/tcp.c ****  * Copyright (c) 2001-2004 Swedish Institute of Computer Science.
  18:Middlewares/Third_Party/LwIP/src/core/tcp.c ****  * All rights reserved.
  19:Middlewares/Third_Party/LwIP/src/core/tcp.c ****  *
  20:Middlewares/Third_Party/LwIP/src/core/tcp.c ****  * Redistribution and use in source and binary forms, with or without modification,
  21:Middlewares/Third_Party/LwIP/src/core/tcp.c ****  * are permitted provided that the following conditions are met:
  22:Middlewares/Third_Party/LwIP/src/core/tcp.c ****  *
  23:Middlewares/Third_Party/LwIP/src/core/tcp.c ****  * 1. Redistributions of source code must retain the above copyright notice,
  24:Middlewares/Third_Party/LwIP/src/core/tcp.c ****  *    this list of conditions and the following disclaimer.
  25:Middlewares/Third_Party/LwIP/src/core/tcp.c ****  * 2. Redistributions in binary form must reproduce the above copyright notice,
  26:Middlewares/Third_Party/LwIP/src/core/tcp.c ****  *    this list of conditions and the following disclaimer in the documentation
  27:Middlewares/Third_Party/LwIP/src/core/tcp.c ****  *    and/or other materials provided with the distribution.
  28:Middlewares/Third_Party/LwIP/src/core/tcp.c ****  * 3. The name of the author may not be used to endorse or promote products
  29:Middlewares/Third_Party/LwIP/src/core/tcp.c ****  *    derived from this software without specific prior written permission.
  30:Middlewares/Third_Party/LwIP/src/core/tcp.c ****  *
ARM GAS  /tmp/cc6by9MY.s 			page 2


  31:Middlewares/Third_Party/LwIP/src/core/tcp.c ****  * THIS SOFTWARE IS PROVIDED BY THE AUTHOR ``AS IS'' AND ANY EXPRESS OR IMPLIED
  32:Middlewares/Third_Party/LwIP/src/core/tcp.c ****  * WARRANTIES, INCLUDING, BUT NOT LIMITED TO, THE IMPLIED WARRANTIES OF
  33:Middlewares/Third_Party/LwIP/src/core/tcp.c ****  * MERCHANTABILITY AND FITNESS FOR A PARTICULAR PURPOSE ARE DISCLAIMED. IN NO EVENT
  34:Middlewares/Third_Party/LwIP/src/core/tcp.c ****  * SHALL THE AUTHOR BE LIABLE FOR ANY DIRECT, INDIRECT, INCIDENTAL, SPECIAL,
  35:Middlewares/Third_Party/LwIP/src/core/tcp.c ****  * EXEMPLARY, OR CONSEQUENTIAL DAMAGES (INCLUDING, BUT NOT LIMITED TO, PROCUREMENT
  36:Middlewares/Third_Party/LwIP/src/core/tcp.c ****  * OF SUBSTITUTE GOODS OR SERVICES; LOSS OF USE, DATA, OR PROFITS; OR BUSINESS
  37:Middlewares/Third_Party/LwIP/src/core/tcp.c ****  * INTERRUPTION) HOWEVER CAUSED AND ON ANY THEORY OF LIABILITY, WHETHER IN
  38:Middlewares/Third_Party/LwIP/src/core/tcp.c ****  * CONTRACT, STRICT LIABILITY, OR TORT (INCLUDING NEGLIGENCE OR OTHERWISE) ARISING
  39:Middlewares/Third_Party/LwIP/src/core/tcp.c ****  * IN ANY WAY OUT OF THE USE OF THIS SOFTWARE, EVEN IF ADVISED OF THE POSSIBILITY
  40:Middlewares/Third_Party/LwIP/src/core/tcp.c ****  * OF SUCH DAMAGE.
  41:Middlewares/Third_Party/LwIP/src/core/tcp.c ****  *
  42:Middlewares/Third_Party/LwIP/src/core/tcp.c ****  * This file is part of the lwIP TCP/IP stack.
  43:Middlewares/Third_Party/LwIP/src/core/tcp.c ****  *
  44:Middlewares/Third_Party/LwIP/src/core/tcp.c ****  * Author: Adam Dunkels <adam@sics.se>
  45:Middlewares/Third_Party/LwIP/src/core/tcp.c ****  *
  46:Middlewares/Third_Party/LwIP/src/core/tcp.c ****  */
  47:Middlewares/Third_Party/LwIP/src/core/tcp.c **** 
  48:Middlewares/Third_Party/LwIP/src/core/tcp.c **** #include "lwip/opt.h"
  49:Middlewares/Third_Party/LwIP/src/core/tcp.c **** 
  50:Middlewares/Third_Party/LwIP/src/core/tcp.c **** #if LWIP_TCP /* don't build if not configured for use in lwipopts.h */
  51:Middlewares/Third_Party/LwIP/src/core/tcp.c **** 
  52:Middlewares/Third_Party/LwIP/src/core/tcp.c **** #include "lwip/def.h"
  53:Middlewares/Third_Party/LwIP/src/core/tcp.c **** #include "lwip/mem.h"
  54:Middlewares/Third_Party/LwIP/src/core/tcp.c **** #include "lwip/memp.h"
  55:Middlewares/Third_Party/LwIP/src/core/tcp.c **** #include "lwip/tcp.h"
  56:Middlewares/Third_Party/LwIP/src/core/tcp.c **** #include "lwip/priv/tcp_priv.h"
  57:Middlewares/Third_Party/LwIP/src/core/tcp.c **** #include "lwip/debug.h"
  58:Middlewares/Third_Party/LwIP/src/core/tcp.c **** #include "lwip/stats.h"
  59:Middlewares/Third_Party/LwIP/src/core/tcp.c **** #include "lwip/ip6.h"
  60:Middlewares/Third_Party/LwIP/src/core/tcp.c **** #include "lwip/ip6_addr.h"
  61:Middlewares/Third_Party/LwIP/src/core/tcp.c **** #include "lwip/nd6.h"
  62:Middlewares/Third_Party/LwIP/src/core/tcp.c **** 
  63:Middlewares/Third_Party/LwIP/src/core/tcp.c **** #include <string.h>
  64:Middlewares/Third_Party/LwIP/src/core/tcp.c **** 
  65:Middlewares/Third_Party/LwIP/src/core/tcp.c **** #ifdef LWIP_HOOK_FILENAME
  66:Middlewares/Third_Party/LwIP/src/core/tcp.c **** #include LWIP_HOOK_FILENAME
  67:Middlewares/Third_Party/LwIP/src/core/tcp.c **** #endif
  68:Middlewares/Third_Party/LwIP/src/core/tcp.c **** 
  69:Middlewares/Third_Party/LwIP/src/core/tcp.c **** #ifndef TCP_LOCAL_PORT_RANGE_START
  70:Middlewares/Third_Party/LwIP/src/core/tcp.c **** /* From http://www.iana.org/assignments/port-numbers:
  71:Middlewares/Third_Party/LwIP/src/core/tcp.c ****    "The Dynamic and/or Private Ports are those from 49152 through 65535" */
  72:Middlewares/Third_Party/LwIP/src/core/tcp.c **** #define TCP_LOCAL_PORT_RANGE_START        0xc000
  73:Middlewares/Third_Party/LwIP/src/core/tcp.c **** #define TCP_LOCAL_PORT_RANGE_END          0xffff
  74:Middlewares/Third_Party/LwIP/src/core/tcp.c **** #define TCP_ENSURE_LOCAL_PORT_RANGE(port) ((u16_t)(((port) & ~TCP_LOCAL_PORT_RANGE_START) + TCP_LOC
  75:Middlewares/Third_Party/LwIP/src/core/tcp.c **** #endif
  76:Middlewares/Third_Party/LwIP/src/core/tcp.c **** 
  77:Middlewares/Third_Party/LwIP/src/core/tcp.c **** #if LWIP_TCP_KEEPALIVE
  78:Middlewares/Third_Party/LwIP/src/core/tcp.c **** #define TCP_KEEP_DUR(pcb)   ((pcb)->keep_cnt * (pcb)->keep_intvl)
  79:Middlewares/Third_Party/LwIP/src/core/tcp.c **** #define TCP_KEEP_INTVL(pcb) ((pcb)->keep_intvl)
  80:Middlewares/Third_Party/LwIP/src/core/tcp.c **** #else /* LWIP_TCP_KEEPALIVE */
  81:Middlewares/Third_Party/LwIP/src/core/tcp.c **** #define TCP_KEEP_DUR(pcb)   TCP_MAXIDLE
  82:Middlewares/Third_Party/LwIP/src/core/tcp.c **** #define TCP_KEEP_INTVL(pcb) TCP_KEEPINTVL_DEFAULT
  83:Middlewares/Third_Party/LwIP/src/core/tcp.c **** #endif /* LWIP_TCP_KEEPALIVE */
  84:Middlewares/Third_Party/LwIP/src/core/tcp.c **** 
  85:Middlewares/Third_Party/LwIP/src/core/tcp.c **** /* As initial send MSS, we use TCP_MSS but limit it to 536. */
  86:Middlewares/Third_Party/LwIP/src/core/tcp.c **** #if TCP_MSS > 536
  87:Middlewares/Third_Party/LwIP/src/core/tcp.c **** #define INITIAL_MSS 536
ARM GAS  /tmp/cc6by9MY.s 			page 3


  88:Middlewares/Third_Party/LwIP/src/core/tcp.c **** #else
  89:Middlewares/Third_Party/LwIP/src/core/tcp.c **** #define INITIAL_MSS TCP_MSS
  90:Middlewares/Third_Party/LwIP/src/core/tcp.c **** #endif
  91:Middlewares/Third_Party/LwIP/src/core/tcp.c **** 
  92:Middlewares/Third_Party/LwIP/src/core/tcp.c **** static const char * const tcp_state_str[] = {
  93:Middlewares/Third_Party/LwIP/src/core/tcp.c ****   "CLOSED",
  94:Middlewares/Third_Party/LwIP/src/core/tcp.c ****   "LISTEN",
  95:Middlewares/Third_Party/LwIP/src/core/tcp.c ****   "SYN_SENT",
  96:Middlewares/Third_Party/LwIP/src/core/tcp.c ****   "SYN_RCVD",
  97:Middlewares/Third_Party/LwIP/src/core/tcp.c ****   "ESTABLISHED",
  98:Middlewares/Third_Party/LwIP/src/core/tcp.c ****   "FIN_WAIT_1",
  99:Middlewares/Third_Party/LwIP/src/core/tcp.c ****   "FIN_WAIT_2",
 100:Middlewares/Third_Party/LwIP/src/core/tcp.c ****   "CLOSE_WAIT",
 101:Middlewares/Third_Party/LwIP/src/core/tcp.c ****   "CLOSING",
 102:Middlewares/Third_Party/LwIP/src/core/tcp.c ****   "LAST_ACK",
 103:Middlewares/Third_Party/LwIP/src/core/tcp.c ****   "TIME_WAIT"
 104:Middlewares/Third_Party/LwIP/src/core/tcp.c **** };
 105:Middlewares/Third_Party/LwIP/src/core/tcp.c **** 
 106:Middlewares/Third_Party/LwIP/src/core/tcp.c **** /* last local TCP port */
 107:Middlewares/Third_Party/LwIP/src/core/tcp.c **** static u16_t tcp_port = TCP_LOCAL_PORT_RANGE_START;
 108:Middlewares/Third_Party/LwIP/src/core/tcp.c **** 
 109:Middlewares/Third_Party/LwIP/src/core/tcp.c **** /* Incremented every coarse grained timer shot (typically every 500 ms). */
 110:Middlewares/Third_Party/LwIP/src/core/tcp.c **** u32_t tcp_ticks;
 111:Middlewares/Third_Party/LwIP/src/core/tcp.c **** static const u8_t tcp_backoff[13] =
 112:Middlewares/Third_Party/LwIP/src/core/tcp.c ****     { 1, 2, 3, 4, 5, 6, 7, 7, 7, 7, 7, 7, 7};
 113:Middlewares/Third_Party/LwIP/src/core/tcp.c ****  /* Times per slowtmr hits */
 114:Middlewares/Third_Party/LwIP/src/core/tcp.c **** static const u8_t tcp_persist_backoff[7] = { 3, 6, 12, 24, 48, 96, 120 };
 115:Middlewares/Third_Party/LwIP/src/core/tcp.c **** 
 116:Middlewares/Third_Party/LwIP/src/core/tcp.c **** /* The TCP PCB lists. */
 117:Middlewares/Third_Party/LwIP/src/core/tcp.c **** 
 118:Middlewares/Third_Party/LwIP/src/core/tcp.c **** /** List of all TCP PCBs bound but not yet (connected || listening) */
 119:Middlewares/Third_Party/LwIP/src/core/tcp.c **** struct tcp_pcb *tcp_bound_pcbs;
 120:Middlewares/Third_Party/LwIP/src/core/tcp.c **** /** List of all TCP PCBs in LISTEN state */
 121:Middlewares/Third_Party/LwIP/src/core/tcp.c **** union tcp_listen_pcbs_t tcp_listen_pcbs;
 122:Middlewares/Third_Party/LwIP/src/core/tcp.c **** /** List of all TCP PCBs that are in a state in which
 123:Middlewares/Third_Party/LwIP/src/core/tcp.c ****  * they accept or send data. */
 124:Middlewares/Third_Party/LwIP/src/core/tcp.c **** struct tcp_pcb *tcp_active_pcbs;
 125:Middlewares/Third_Party/LwIP/src/core/tcp.c **** /** List of all TCP PCBs in TIME-WAIT state */
 126:Middlewares/Third_Party/LwIP/src/core/tcp.c **** struct tcp_pcb *tcp_tw_pcbs;
 127:Middlewares/Third_Party/LwIP/src/core/tcp.c **** 
 128:Middlewares/Third_Party/LwIP/src/core/tcp.c **** /** An array with all (non-temporary) PCB lists, mainly used for smaller code size */
 129:Middlewares/Third_Party/LwIP/src/core/tcp.c **** struct tcp_pcb ** const tcp_pcb_lists[] = {&tcp_listen_pcbs.pcbs, &tcp_bound_pcbs,
 130:Middlewares/Third_Party/LwIP/src/core/tcp.c ****   &tcp_active_pcbs, &tcp_tw_pcbs};
 131:Middlewares/Third_Party/LwIP/src/core/tcp.c **** 
 132:Middlewares/Third_Party/LwIP/src/core/tcp.c **** u8_t tcp_active_pcbs_changed;
 133:Middlewares/Third_Party/LwIP/src/core/tcp.c **** 
 134:Middlewares/Third_Party/LwIP/src/core/tcp.c **** /** Timer counter to handle calling slow-timer from tcp_tmr() */
 135:Middlewares/Third_Party/LwIP/src/core/tcp.c **** static u8_t tcp_timer;
 136:Middlewares/Third_Party/LwIP/src/core/tcp.c **** static u8_t tcp_timer_ctr;
 137:Middlewares/Third_Party/LwIP/src/core/tcp.c **** static u16_t tcp_new_port(void);
 138:Middlewares/Third_Party/LwIP/src/core/tcp.c **** 
 139:Middlewares/Third_Party/LwIP/src/core/tcp.c **** static err_t tcp_close_shutdown_fin(struct tcp_pcb *pcb);
 140:Middlewares/Third_Party/LwIP/src/core/tcp.c **** 
 141:Middlewares/Third_Party/LwIP/src/core/tcp.c **** /**
 142:Middlewares/Third_Party/LwIP/src/core/tcp.c ****  * Initialize this module.
 143:Middlewares/Third_Party/LwIP/src/core/tcp.c ****  */
 144:Middlewares/Third_Party/LwIP/src/core/tcp.c **** void
ARM GAS  /tmp/cc6by9MY.s 			page 4


 145:Middlewares/Third_Party/LwIP/src/core/tcp.c **** tcp_init(void)
 146:Middlewares/Third_Party/LwIP/src/core/tcp.c **** {
 147:Middlewares/Third_Party/LwIP/src/core/tcp.c **** #if LWIP_RANDOMIZE_INITIAL_LOCAL_PORTS && defined(LWIP_RAND)
 148:Middlewares/Third_Party/LwIP/src/core/tcp.c ****   tcp_port = TCP_ENSURE_LOCAL_PORT_RANGE(LWIP_RAND());
 149:Middlewares/Third_Party/LwIP/src/core/tcp.c **** #endif /* LWIP_RANDOMIZE_INITIAL_LOCAL_PORTS && defined(LWIP_RAND) */
 150:Middlewares/Third_Party/LwIP/src/core/tcp.c **** }
 151:Middlewares/Third_Party/LwIP/src/core/tcp.c **** 
 152:Middlewares/Third_Party/LwIP/src/core/tcp.c **** /**
 153:Middlewares/Third_Party/LwIP/src/core/tcp.c ****  * Called periodically to dispatch TCP timers.
 154:Middlewares/Third_Party/LwIP/src/core/tcp.c ****  */
 155:Middlewares/Third_Party/LwIP/src/core/tcp.c **** void
 156:Middlewares/Third_Party/LwIP/src/core/tcp.c **** tcp_tmr(void)
 157:Middlewares/Third_Party/LwIP/src/core/tcp.c **** {
 158:Middlewares/Third_Party/LwIP/src/core/tcp.c ****   /* Call tcp_fasttmr() every 250 ms */
 159:Middlewares/Third_Party/LwIP/src/core/tcp.c ****   tcp_fasttmr();
 160:Middlewares/Third_Party/LwIP/src/core/tcp.c **** 
 161:Middlewares/Third_Party/LwIP/src/core/tcp.c ****   if (++tcp_timer & 1) {
 162:Middlewares/Third_Party/LwIP/src/core/tcp.c ****     /* Call tcp_slowtmr() every 500 ms, i.e., every other timer
 163:Middlewares/Third_Party/LwIP/src/core/tcp.c ****        tcp_tmr() is called. */
 164:Middlewares/Third_Party/LwIP/src/core/tcp.c ****     tcp_slowtmr();
 165:Middlewares/Third_Party/LwIP/src/core/tcp.c ****   }
 166:Middlewares/Third_Party/LwIP/src/core/tcp.c **** }
 167:Middlewares/Third_Party/LwIP/src/core/tcp.c **** 
 168:Middlewares/Third_Party/LwIP/src/core/tcp.c **** #if LWIP_CALLBACK_API || TCP_LISTEN_BACKLOG
 169:Middlewares/Third_Party/LwIP/src/core/tcp.c **** /** Called when a listen pcb is closed. Iterates one pcb list and removes the
 170:Middlewares/Third_Party/LwIP/src/core/tcp.c ****  * closed listener pcb from pcb->listener if matching.
 171:Middlewares/Third_Party/LwIP/src/core/tcp.c ****  */
 172:Middlewares/Third_Party/LwIP/src/core/tcp.c **** static void
 173:Middlewares/Third_Party/LwIP/src/core/tcp.c **** tcp_remove_listener(struct tcp_pcb *list, struct tcp_pcb_listen *lpcb)
 174:Middlewares/Third_Party/LwIP/src/core/tcp.c **** {
  29              		.loc 1 174 1 view -0
  30              		.cfi_startproc
  31              		@ args = 0, pretend = 0, frame = 0
  32              		@ frame_needed = 0, uses_anonymous_args = 0
  33              		@ link register save eliminated.
 175:Middlewares/Third_Party/LwIP/src/core/tcp.c ****    struct tcp_pcb *pcb;
  34              		.loc 1 175 4 view .LVU1
 176:Middlewares/Third_Party/LwIP/src/core/tcp.c ****    for (pcb = list; pcb != NULL; pcb = pcb->next) {
  35              		.loc 1 176 4 view .LVU2
  36              		.loc 1 176 4 is_stmt 0 view .LVU3
  37 0000 02E0     		b	.L2
  38              	.LVL1:
  39              	.L6:
 177:Middlewares/Third_Party/LwIP/src/core/tcp.c ****       if (pcb->listener == lpcb) {
 178:Middlewares/Third_Party/LwIP/src/core/tcp.c ****          pcb->listener = NULL;
  40              		.loc 1 178 10 is_stmt 1 view .LVU4
  41              		.loc 1 178 24 is_stmt 0 view .LVU5
  42 0002 0023     		movs	r3, #0
  43 0004 8367     		str	r3, [r0, #120]
  44              	.L3:
 176:Middlewares/Third_Party/LwIP/src/core/tcp.c ****    for (pcb = list; pcb != NULL; pcb = pcb->next) {
  45              		.loc 1 176 38 discriminator 2 view .LVU6
  46 0006 C068     		ldr	r0, [r0, #12]
  47              	.LVL2:
  48              	.L2:
 176:Middlewares/Third_Party/LwIP/src/core/tcp.c ****    for (pcb = list; pcb != NULL; pcb = pcb->next) {
  49              		.loc 1 176 4 discriminator 1 view .LVU7
ARM GAS  /tmp/cc6by9MY.s 			page 5


  50 0008 18B1     		cbz	r0, .L5
 177:Middlewares/Third_Party/LwIP/src/core/tcp.c ****       if (pcb->listener == lpcb) {
  51              		.loc 1 177 7 is_stmt 1 view .LVU8
 177:Middlewares/Third_Party/LwIP/src/core/tcp.c ****       if (pcb->listener == lpcb) {
  52              		.loc 1 177 14 is_stmt 0 view .LVU9
  53 000a 836F     		ldr	r3, [r0, #120]
 177:Middlewares/Third_Party/LwIP/src/core/tcp.c ****       if (pcb->listener == lpcb) {
  54              		.loc 1 177 10 view .LVU10
  55 000c 8B42     		cmp	r3, r1
  56 000e FAD1     		bne	.L3
  57 0010 F7E7     		b	.L6
  58              	.L5:
 179:Middlewares/Third_Party/LwIP/src/core/tcp.c ****       }
 180:Middlewares/Third_Party/LwIP/src/core/tcp.c ****    }
 181:Middlewares/Third_Party/LwIP/src/core/tcp.c **** }
  59              		.loc 1 181 1 view .LVU11
  60 0012 7047     		bx	lr
  61              		.cfi_endproc
  62              	.LFE162:
  64              		.section	.text.tcp_new_port,"ax",%progbits
  65              		.align	1
  66              		.syntax unified
  67              		.thumb
  68              		.thumb_func
  69              		.fpu fpv5-sp-d16
  71              	tcp_new_port:
  72              	.LFB176:
 182:Middlewares/Third_Party/LwIP/src/core/tcp.c **** #endif
 183:Middlewares/Third_Party/LwIP/src/core/tcp.c **** 
 184:Middlewares/Third_Party/LwIP/src/core/tcp.c **** /** Called when a listen pcb is closed. Iterates all pcb lists and removes the
 185:Middlewares/Third_Party/LwIP/src/core/tcp.c ****  * closed listener pcb from pcb->listener if matching.
 186:Middlewares/Third_Party/LwIP/src/core/tcp.c ****  */
 187:Middlewares/Third_Party/LwIP/src/core/tcp.c **** static void
 188:Middlewares/Third_Party/LwIP/src/core/tcp.c **** tcp_listen_closed(struct tcp_pcb *pcb)
 189:Middlewares/Third_Party/LwIP/src/core/tcp.c **** {
 190:Middlewares/Third_Party/LwIP/src/core/tcp.c **** #if LWIP_CALLBACK_API || TCP_LISTEN_BACKLOG
 191:Middlewares/Third_Party/LwIP/src/core/tcp.c ****   size_t i;
 192:Middlewares/Third_Party/LwIP/src/core/tcp.c ****   LWIP_ASSERT("pcb != NULL", pcb != NULL);
 193:Middlewares/Third_Party/LwIP/src/core/tcp.c ****   LWIP_ASSERT("pcb->state == LISTEN", pcb->state == LISTEN);
 194:Middlewares/Third_Party/LwIP/src/core/tcp.c ****   for (i = 1; i < LWIP_ARRAYSIZE(tcp_pcb_lists); i++) {
 195:Middlewares/Third_Party/LwIP/src/core/tcp.c ****     tcp_remove_listener(*tcp_pcb_lists[i], (struct tcp_pcb_listen*)pcb);
 196:Middlewares/Third_Party/LwIP/src/core/tcp.c ****   }
 197:Middlewares/Third_Party/LwIP/src/core/tcp.c **** #endif
 198:Middlewares/Third_Party/LwIP/src/core/tcp.c ****   LWIP_UNUSED_ARG(pcb);
 199:Middlewares/Third_Party/LwIP/src/core/tcp.c **** }
 200:Middlewares/Third_Party/LwIP/src/core/tcp.c **** 
 201:Middlewares/Third_Party/LwIP/src/core/tcp.c **** #if TCP_LISTEN_BACKLOG
 202:Middlewares/Third_Party/LwIP/src/core/tcp.c **** /** @ingroup tcp_raw
 203:Middlewares/Third_Party/LwIP/src/core/tcp.c ****  * Delay accepting a connection in respect to the listen backlog:
 204:Middlewares/Third_Party/LwIP/src/core/tcp.c ****  * the number of outstanding connections is increased until
 205:Middlewares/Third_Party/LwIP/src/core/tcp.c ****  * tcp_backlog_accepted() is called.
 206:Middlewares/Third_Party/LwIP/src/core/tcp.c ****  *
 207:Middlewares/Third_Party/LwIP/src/core/tcp.c ****  * ATTENTION: the caller is responsible for calling tcp_backlog_accepted()
 208:Middlewares/Third_Party/LwIP/src/core/tcp.c ****  * or else the backlog feature will get out of sync!
 209:Middlewares/Third_Party/LwIP/src/core/tcp.c ****  *
 210:Middlewares/Third_Party/LwIP/src/core/tcp.c ****  * @param pcb the connection pcb which is not fully accepted yet
 211:Middlewares/Third_Party/LwIP/src/core/tcp.c ****  */
ARM GAS  /tmp/cc6by9MY.s 			page 6


 212:Middlewares/Third_Party/LwIP/src/core/tcp.c **** void
 213:Middlewares/Third_Party/LwIP/src/core/tcp.c **** tcp_backlog_delayed(struct tcp_pcb* pcb)
 214:Middlewares/Third_Party/LwIP/src/core/tcp.c **** {
 215:Middlewares/Third_Party/LwIP/src/core/tcp.c ****   LWIP_ASSERT("pcb != NULL", pcb != NULL);
 216:Middlewares/Third_Party/LwIP/src/core/tcp.c ****   if ((pcb->flags & TF_BACKLOGPEND) == 0) {
 217:Middlewares/Third_Party/LwIP/src/core/tcp.c ****     if (pcb->listener != NULL) {
 218:Middlewares/Third_Party/LwIP/src/core/tcp.c ****       pcb->listener->accepts_pending++;
 219:Middlewares/Third_Party/LwIP/src/core/tcp.c ****       LWIP_ASSERT("accepts_pending != 0", pcb->listener->accepts_pending != 0);
 220:Middlewares/Third_Party/LwIP/src/core/tcp.c ****       pcb->flags |= TF_BACKLOGPEND;
 221:Middlewares/Third_Party/LwIP/src/core/tcp.c ****     }
 222:Middlewares/Third_Party/LwIP/src/core/tcp.c ****   }
 223:Middlewares/Third_Party/LwIP/src/core/tcp.c **** }
 224:Middlewares/Third_Party/LwIP/src/core/tcp.c **** 
 225:Middlewares/Third_Party/LwIP/src/core/tcp.c **** /** @ingroup tcp_raw
 226:Middlewares/Third_Party/LwIP/src/core/tcp.c ****  * A delayed-accept a connection is accepted (or closed/aborted): decreases
 227:Middlewares/Third_Party/LwIP/src/core/tcp.c ****  * the number of outstanding connections after calling tcp_backlog_delayed().
 228:Middlewares/Third_Party/LwIP/src/core/tcp.c ****  *
 229:Middlewares/Third_Party/LwIP/src/core/tcp.c ****  * ATTENTION: the caller is responsible for calling tcp_backlog_accepted()
 230:Middlewares/Third_Party/LwIP/src/core/tcp.c ****  * or else the backlog feature will get out of sync!
 231:Middlewares/Third_Party/LwIP/src/core/tcp.c ****  *
 232:Middlewares/Third_Party/LwIP/src/core/tcp.c ****  * @param pcb the connection pcb which is now fully accepted (or closed/aborted)
 233:Middlewares/Third_Party/LwIP/src/core/tcp.c ****  */
 234:Middlewares/Third_Party/LwIP/src/core/tcp.c **** void
 235:Middlewares/Third_Party/LwIP/src/core/tcp.c **** tcp_backlog_accepted(struct tcp_pcb* pcb)
 236:Middlewares/Third_Party/LwIP/src/core/tcp.c **** {
 237:Middlewares/Third_Party/LwIP/src/core/tcp.c ****   LWIP_ASSERT("pcb != NULL", pcb != NULL);
 238:Middlewares/Third_Party/LwIP/src/core/tcp.c ****   if ((pcb->flags & TF_BACKLOGPEND) != 0) {
 239:Middlewares/Third_Party/LwIP/src/core/tcp.c ****     if (pcb->listener != NULL) {
 240:Middlewares/Third_Party/LwIP/src/core/tcp.c ****       LWIP_ASSERT("accepts_pending != 0", pcb->listener->accepts_pending != 0);
 241:Middlewares/Third_Party/LwIP/src/core/tcp.c ****       pcb->listener->accepts_pending--;
 242:Middlewares/Third_Party/LwIP/src/core/tcp.c ****       pcb->flags &= ~TF_BACKLOGPEND;
 243:Middlewares/Third_Party/LwIP/src/core/tcp.c ****     }
 244:Middlewares/Third_Party/LwIP/src/core/tcp.c ****   }
 245:Middlewares/Third_Party/LwIP/src/core/tcp.c **** }
 246:Middlewares/Third_Party/LwIP/src/core/tcp.c **** #endif /* TCP_LISTEN_BACKLOG */
 247:Middlewares/Third_Party/LwIP/src/core/tcp.c **** 
 248:Middlewares/Third_Party/LwIP/src/core/tcp.c **** /**
 249:Middlewares/Third_Party/LwIP/src/core/tcp.c ****  * Closes the TX side of a connection held by the PCB.
 250:Middlewares/Third_Party/LwIP/src/core/tcp.c ****  * For tcp_close(), a RST is sent if the application didn't receive all data
 251:Middlewares/Third_Party/LwIP/src/core/tcp.c ****  * (tcp_recved() not called for all data passed to recv callback).
 252:Middlewares/Third_Party/LwIP/src/core/tcp.c ****  *
 253:Middlewares/Third_Party/LwIP/src/core/tcp.c ****  * Listening pcbs are freed and may not be referenced any more.
 254:Middlewares/Third_Party/LwIP/src/core/tcp.c ****  * Connection pcbs are freed if not yet connected and may not be referenced
 255:Middlewares/Third_Party/LwIP/src/core/tcp.c ****  * any more. If a connection is established (at least SYN received or in
 256:Middlewares/Third_Party/LwIP/src/core/tcp.c ****  * a closing state), the connection is closed, and put in a closing state.
 257:Middlewares/Third_Party/LwIP/src/core/tcp.c ****  * The pcb is then automatically freed in tcp_slowtmr(). It is therefore
 258:Middlewares/Third_Party/LwIP/src/core/tcp.c ****  * unsafe to reference it.
 259:Middlewares/Third_Party/LwIP/src/core/tcp.c ****  *
 260:Middlewares/Third_Party/LwIP/src/core/tcp.c ****  * @param pcb the tcp_pcb to close
 261:Middlewares/Third_Party/LwIP/src/core/tcp.c ****  * @return ERR_OK if connection has been closed
 262:Middlewares/Third_Party/LwIP/src/core/tcp.c ****  *         another err_t if closing failed and pcb is not freed
 263:Middlewares/Third_Party/LwIP/src/core/tcp.c ****  */
 264:Middlewares/Third_Party/LwIP/src/core/tcp.c **** static err_t
 265:Middlewares/Third_Party/LwIP/src/core/tcp.c **** tcp_close_shutdown(struct tcp_pcb *pcb, u8_t rst_on_unacked_data)
 266:Middlewares/Third_Party/LwIP/src/core/tcp.c **** {
 267:Middlewares/Third_Party/LwIP/src/core/tcp.c ****   if (rst_on_unacked_data && ((pcb->state == ESTABLISHED) || (pcb->state == CLOSE_WAIT))) {
 268:Middlewares/Third_Party/LwIP/src/core/tcp.c ****     if ((pcb->refused_data != NULL) || (pcb->rcv_wnd != TCP_WND_MAX(pcb))) {
ARM GAS  /tmp/cc6by9MY.s 			page 7


 269:Middlewares/Third_Party/LwIP/src/core/tcp.c ****       /* Not all data received by application, send RST to tell the remote
 270:Middlewares/Third_Party/LwIP/src/core/tcp.c ****          side about this. */
 271:Middlewares/Third_Party/LwIP/src/core/tcp.c ****       LWIP_ASSERT("pcb->flags & TF_RXCLOSED", pcb->flags & TF_RXCLOSED);
 272:Middlewares/Third_Party/LwIP/src/core/tcp.c **** 
 273:Middlewares/Third_Party/LwIP/src/core/tcp.c ****       /* don't call tcp_abort here: we must not deallocate the pcb since
 274:Middlewares/Third_Party/LwIP/src/core/tcp.c ****          that might not be expected when calling tcp_close */
 275:Middlewares/Third_Party/LwIP/src/core/tcp.c ****       tcp_rst(pcb->snd_nxt, pcb->rcv_nxt, &pcb->local_ip, &pcb->remote_ip,
 276:Middlewares/Third_Party/LwIP/src/core/tcp.c ****                pcb->local_port, pcb->remote_port);
 277:Middlewares/Third_Party/LwIP/src/core/tcp.c **** 
 278:Middlewares/Third_Party/LwIP/src/core/tcp.c ****       tcp_pcb_purge(pcb);
 279:Middlewares/Third_Party/LwIP/src/core/tcp.c ****       TCP_RMV_ACTIVE(pcb);
 280:Middlewares/Third_Party/LwIP/src/core/tcp.c ****       if (pcb->state == ESTABLISHED) {
 281:Middlewares/Third_Party/LwIP/src/core/tcp.c ****         /* move to TIME_WAIT since we close actively */
 282:Middlewares/Third_Party/LwIP/src/core/tcp.c ****         pcb->state = TIME_WAIT;
 283:Middlewares/Third_Party/LwIP/src/core/tcp.c ****         TCP_REG(&tcp_tw_pcbs, pcb);
 284:Middlewares/Third_Party/LwIP/src/core/tcp.c ****       } else {
 285:Middlewares/Third_Party/LwIP/src/core/tcp.c ****         /* CLOSE_WAIT: deallocate the pcb since we already sent a RST for it */
 286:Middlewares/Third_Party/LwIP/src/core/tcp.c ****         if (tcp_input_pcb == pcb) {
 287:Middlewares/Third_Party/LwIP/src/core/tcp.c ****           /* prevent using a deallocated pcb: free it from tcp_input later */
 288:Middlewares/Third_Party/LwIP/src/core/tcp.c ****           tcp_trigger_input_pcb_close();
 289:Middlewares/Third_Party/LwIP/src/core/tcp.c ****         } else {
 290:Middlewares/Third_Party/LwIP/src/core/tcp.c ****           memp_free(MEMP_TCP_PCB, pcb);
 291:Middlewares/Third_Party/LwIP/src/core/tcp.c ****         }
 292:Middlewares/Third_Party/LwIP/src/core/tcp.c ****       }
 293:Middlewares/Third_Party/LwIP/src/core/tcp.c ****       return ERR_OK;
 294:Middlewares/Third_Party/LwIP/src/core/tcp.c ****     }
 295:Middlewares/Third_Party/LwIP/src/core/tcp.c ****   }
 296:Middlewares/Third_Party/LwIP/src/core/tcp.c **** 
 297:Middlewares/Third_Party/LwIP/src/core/tcp.c ****   /* - states which free the pcb are handled here,
 298:Middlewares/Third_Party/LwIP/src/core/tcp.c ****      - states which send FIN and change state are handled in tcp_close_shutdown_fin() */
 299:Middlewares/Third_Party/LwIP/src/core/tcp.c ****   switch (pcb->state) {
 300:Middlewares/Third_Party/LwIP/src/core/tcp.c ****   case CLOSED:
 301:Middlewares/Third_Party/LwIP/src/core/tcp.c ****     /* Closing a pcb in the CLOSED state might seem erroneous,
 302:Middlewares/Third_Party/LwIP/src/core/tcp.c ****      * however, it is in this state once allocated and as yet unused
 303:Middlewares/Third_Party/LwIP/src/core/tcp.c ****      * and the user needs some way to free it should the need arise.
 304:Middlewares/Third_Party/LwIP/src/core/tcp.c ****      * Calling tcp_close() with a pcb that has already been closed, (i.e. twice)
 305:Middlewares/Third_Party/LwIP/src/core/tcp.c ****      * or for a pcb that has been used and then entered the CLOSED state
 306:Middlewares/Third_Party/LwIP/src/core/tcp.c ****      * is erroneous, but this should never happen as the pcb has in those cases
 307:Middlewares/Third_Party/LwIP/src/core/tcp.c ****      * been freed, and so any remaining handles are bogus. */
 308:Middlewares/Third_Party/LwIP/src/core/tcp.c ****     if (pcb->local_port != 0) {
 309:Middlewares/Third_Party/LwIP/src/core/tcp.c ****       TCP_RMV(&tcp_bound_pcbs, pcb);
 310:Middlewares/Third_Party/LwIP/src/core/tcp.c ****     }
 311:Middlewares/Third_Party/LwIP/src/core/tcp.c ****     memp_free(MEMP_TCP_PCB, pcb);
 312:Middlewares/Third_Party/LwIP/src/core/tcp.c ****     break;
 313:Middlewares/Third_Party/LwIP/src/core/tcp.c ****   case LISTEN:
 314:Middlewares/Third_Party/LwIP/src/core/tcp.c ****     tcp_listen_closed(pcb);
 315:Middlewares/Third_Party/LwIP/src/core/tcp.c ****     tcp_pcb_remove(&tcp_listen_pcbs.pcbs, pcb);
 316:Middlewares/Third_Party/LwIP/src/core/tcp.c ****     memp_free(MEMP_TCP_PCB_LISTEN, pcb);
 317:Middlewares/Third_Party/LwIP/src/core/tcp.c ****     break;
 318:Middlewares/Third_Party/LwIP/src/core/tcp.c ****   case SYN_SENT:
 319:Middlewares/Third_Party/LwIP/src/core/tcp.c ****     TCP_PCB_REMOVE_ACTIVE(pcb);
 320:Middlewares/Third_Party/LwIP/src/core/tcp.c ****     memp_free(MEMP_TCP_PCB, pcb);
 321:Middlewares/Third_Party/LwIP/src/core/tcp.c ****     MIB2_STATS_INC(mib2.tcpattemptfails);
 322:Middlewares/Third_Party/LwIP/src/core/tcp.c ****     break;
 323:Middlewares/Third_Party/LwIP/src/core/tcp.c ****   default:
 324:Middlewares/Third_Party/LwIP/src/core/tcp.c ****     return tcp_close_shutdown_fin(pcb);
 325:Middlewares/Third_Party/LwIP/src/core/tcp.c ****   }
ARM GAS  /tmp/cc6by9MY.s 			page 8


 326:Middlewares/Third_Party/LwIP/src/core/tcp.c ****   return ERR_OK;
 327:Middlewares/Third_Party/LwIP/src/core/tcp.c **** }
 328:Middlewares/Third_Party/LwIP/src/core/tcp.c **** 
 329:Middlewares/Third_Party/LwIP/src/core/tcp.c **** static err_t
 330:Middlewares/Third_Party/LwIP/src/core/tcp.c **** tcp_close_shutdown_fin(struct tcp_pcb *pcb)
 331:Middlewares/Third_Party/LwIP/src/core/tcp.c **** {
 332:Middlewares/Third_Party/LwIP/src/core/tcp.c ****   err_t err;
 333:Middlewares/Third_Party/LwIP/src/core/tcp.c ****   LWIP_ASSERT("pcb != NULL", pcb != NULL);
 334:Middlewares/Third_Party/LwIP/src/core/tcp.c **** 
 335:Middlewares/Third_Party/LwIP/src/core/tcp.c ****   switch (pcb->state) {
 336:Middlewares/Third_Party/LwIP/src/core/tcp.c ****   case SYN_RCVD:
 337:Middlewares/Third_Party/LwIP/src/core/tcp.c ****     err = tcp_send_fin(pcb);
 338:Middlewares/Third_Party/LwIP/src/core/tcp.c ****     if (err == ERR_OK) {
 339:Middlewares/Third_Party/LwIP/src/core/tcp.c ****       tcp_backlog_accepted(pcb);
 340:Middlewares/Third_Party/LwIP/src/core/tcp.c ****       MIB2_STATS_INC(mib2.tcpattemptfails);
 341:Middlewares/Third_Party/LwIP/src/core/tcp.c ****       pcb->state = FIN_WAIT_1;
 342:Middlewares/Third_Party/LwIP/src/core/tcp.c ****     }
 343:Middlewares/Third_Party/LwIP/src/core/tcp.c ****     break;
 344:Middlewares/Third_Party/LwIP/src/core/tcp.c ****   case ESTABLISHED:
 345:Middlewares/Third_Party/LwIP/src/core/tcp.c ****     err = tcp_send_fin(pcb);
 346:Middlewares/Third_Party/LwIP/src/core/tcp.c ****     if (err == ERR_OK) {
 347:Middlewares/Third_Party/LwIP/src/core/tcp.c ****       MIB2_STATS_INC(mib2.tcpestabresets);
 348:Middlewares/Third_Party/LwIP/src/core/tcp.c ****       pcb->state = FIN_WAIT_1;
 349:Middlewares/Third_Party/LwIP/src/core/tcp.c ****     }
 350:Middlewares/Third_Party/LwIP/src/core/tcp.c ****     break;
 351:Middlewares/Third_Party/LwIP/src/core/tcp.c ****   case CLOSE_WAIT:
 352:Middlewares/Third_Party/LwIP/src/core/tcp.c ****     err = tcp_send_fin(pcb);
 353:Middlewares/Third_Party/LwIP/src/core/tcp.c ****     if (err == ERR_OK) {
 354:Middlewares/Third_Party/LwIP/src/core/tcp.c ****       MIB2_STATS_INC(mib2.tcpestabresets);
 355:Middlewares/Third_Party/LwIP/src/core/tcp.c ****       pcb->state = LAST_ACK;
 356:Middlewares/Third_Party/LwIP/src/core/tcp.c ****     }
 357:Middlewares/Third_Party/LwIP/src/core/tcp.c ****     break;
 358:Middlewares/Third_Party/LwIP/src/core/tcp.c ****   default:
 359:Middlewares/Third_Party/LwIP/src/core/tcp.c ****     /* Has already been closed, do nothing. */
 360:Middlewares/Third_Party/LwIP/src/core/tcp.c ****     return ERR_OK;
 361:Middlewares/Third_Party/LwIP/src/core/tcp.c ****   }
 362:Middlewares/Third_Party/LwIP/src/core/tcp.c **** 
 363:Middlewares/Third_Party/LwIP/src/core/tcp.c ****   if (err == ERR_OK) {
 364:Middlewares/Third_Party/LwIP/src/core/tcp.c ****     /* To ensure all data has been sent when tcp_close returns, we have
 365:Middlewares/Third_Party/LwIP/src/core/tcp.c ****        to make sure tcp_output doesn't fail.
 366:Middlewares/Third_Party/LwIP/src/core/tcp.c ****        Since we don't really have to ensure all data has been sent when tcp_close
 367:Middlewares/Third_Party/LwIP/src/core/tcp.c ****        returns (unsent data is sent from tcp timer functions, also), we don't care
 368:Middlewares/Third_Party/LwIP/src/core/tcp.c ****        for the return value of tcp_output for now. */
 369:Middlewares/Third_Party/LwIP/src/core/tcp.c ****     tcp_output(pcb);
 370:Middlewares/Third_Party/LwIP/src/core/tcp.c ****   } else if (err == ERR_MEM) {
 371:Middlewares/Third_Party/LwIP/src/core/tcp.c ****     /* Mark this pcb for closing. Closing is retried from tcp_tmr. */
 372:Middlewares/Third_Party/LwIP/src/core/tcp.c ****     pcb->flags |= TF_CLOSEPEND;
 373:Middlewares/Third_Party/LwIP/src/core/tcp.c ****     /* We have to return ERR_OK from here to indicate to the callers that this
 374:Middlewares/Third_Party/LwIP/src/core/tcp.c ****        pcb should not be used any more as it will be freed soon via tcp_tmr.
 375:Middlewares/Third_Party/LwIP/src/core/tcp.c ****        This is OK here since sending FIN does not guarantee a time frime for
 376:Middlewares/Third_Party/LwIP/src/core/tcp.c ****        actually freeing the pcb, either (it is left in closure states for
 377:Middlewares/Third_Party/LwIP/src/core/tcp.c ****        remote ACK or timeout) */
 378:Middlewares/Third_Party/LwIP/src/core/tcp.c ****     return ERR_OK;
 379:Middlewares/Third_Party/LwIP/src/core/tcp.c ****   }
 380:Middlewares/Third_Party/LwIP/src/core/tcp.c ****   return err;
 381:Middlewares/Third_Party/LwIP/src/core/tcp.c **** }
 382:Middlewares/Third_Party/LwIP/src/core/tcp.c **** 
ARM GAS  /tmp/cc6by9MY.s 			page 9


 383:Middlewares/Third_Party/LwIP/src/core/tcp.c **** /**
 384:Middlewares/Third_Party/LwIP/src/core/tcp.c ****  * @ingroup tcp_raw
 385:Middlewares/Third_Party/LwIP/src/core/tcp.c ****  * Closes the connection held by the PCB.
 386:Middlewares/Third_Party/LwIP/src/core/tcp.c ****  *
 387:Middlewares/Third_Party/LwIP/src/core/tcp.c ****  * Listening pcbs are freed and may not be referenced any more.
 388:Middlewares/Third_Party/LwIP/src/core/tcp.c ****  * Connection pcbs are freed if not yet connected and may not be referenced
 389:Middlewares/Third_Party/LwIP/src/core/tcp.c ****  * any more. If a connection is established (at least SYN received or in
 390:Middlewares/Third_Party/LwIP/src/core/tcp.c ****  * a closing state), the connection is closed, and put in a closing state.
 391:Middlewares/Third_Party/LwIP/src/core/tcp.c ****  * The pcb is then automatically freed in tcp_slowtmr(). It is therefore
 392:Middlewares/Third_Party/LwIP/src/core/tcp.c ****  * unsafe to reference it (unless an error is returned).
 393:Middlewares/Third_Party/LwIP/src/core/tcp.c ****  *
 394:Middlewares/Third_Party/LwIP/src/core/tcp.c ****  * @param pcb the tcp_pcb to close
 395:Middlewares/Third_Party/LwIP/src/core/tcp.c ****  * @return ERR_OK if connection has been closed
 396:Middlewares/Third_Party/LwIP/src/core/tcp.c ****  *         another err_t if closing failed and pcb is not freed
 397:Middlewares/Third_Party/LwIP/src/core/tcp.c ****  */
 398:Middlewares/Third_Party/LwIP/src/core/tcp.c **** err_t
 399:Middlewares/Third_Party/LwIP/src/core/tcp.c **** tcp_close(struct tcp_pcb *pcb)
 400:Middlewares/Third_Party/LwIP/src/core/tcp.c **** {
 401:Middlewares/Third_Party/LwIP/src/core/tcp.c ****   LWIP_DEBUGF(TCP_DEBUG, ("tcp_close: closing in "));
 402:Middlewares/Third_Party/LwIP/src/core/tcp.c ****   tcp_debug_print_state(pcb->state);
 403:Middlewares/Third_Party/LwIP/src/core/tcp.c **** 
 404:Middlewares/Third_Party/LwIP/src/core/tcp.c ****   if (pcb->state != LISTEN) {
 405:Middlewares/Third_Party/LwIP/src/core/tcp.c ****     /* Set a flag not to receive any more data... */
 406:Middlewares/Third_Party/LwIP/src/core/tcp.c ****     pcb->flags |= TF_RXCLOSED;
 407:Middlewares/Third_Party/LwIP/src/core/tcp.c ****   }
 408:Middlewares/Third_Party/LwIP/src/core/tcp.c ****   /* ... and close */
 409:Middlewares/Third_Party/LwIP/src/core/tcp.c ****   return tcp_close_shutdown(pcb, 1);
 410:Middlewares/Third_Party/LwIP/src/core/tcp.c **** }
 411:Middlewares/Third_Party/LwIP/src/core/tcp.c **** 
 412:Middlewares/Third_Party/LwIP/src/core/tcp.c **** /**
 413:Middlewares/Third_Party/LwIP/src/core/tcp.c ****  * @ingroup tcp_raw
 414:Middlewares/Third_Party/LwIP/src/core/tcp.c ****  * Causes all or part of a full-duplex connection of this PCB to be shut down.
 415:Middlewares/Third_Party/LwIP/src/core/tcp.c ****  * This doesn't deallocate the PCB unless shutting down both sides!
 416:Middlewares/Third_Party/LwIP/src/core/tcp.c ****  * Shutting down both sides is the same as calling tcp_close, so if it succeds
 417:Middlewares/Third_Party/LwIP/src/core/tcp.c ****  * (i.e. returns ER_OK), the PCB must not be referenced any more!
 418:Middlewares/Third_Party/LwIP/src/core/tcp.c ****  *
 419:Middlewares/Third_Party/LwIP/src/core/tcp.c ****  * @param pcb PCB to shutdown
 420:Middlewares/Third_Party/LwIP/src/core/tcp.c ****  * @param shut_rx shut down receive side if this is != 0
 421:Middlewares/Third_Party/LwIP/src/core/tcp.c ****  * @param shut_tx shut down send side if this is != 0
 422:Middlewares/Third_Party/LwIP/src/core/tcp.c ****  * @return ERR_OK if shutdown succeeded (or the PCB has already been shut down)
 423:Middlewares/Third_Party/LwIP/src/core/tcp.c ****  *         another err_t on error.
 424:Middlewares/Third_Party/LwIP/src/core/tcp.c ****  */
 425:Middlewares/Third_Party/LwIP/src/core/tcp.c **** err_t
 426:Middlewares/Third_Party/LwIP/src/core/tcp.c **** tcp_shutdown(struct tcp_pcb *pcb, int shut_rx, int shut_tx)
 427:Middlewares/Third_Party/LwIP/src/core/tcp.c **** {
 428:Middlewares/Third_Party/LwIP/src/core/tcp.c ****   if (pcb->state == LISTEN) {
 429:Middlewares/Third_Party/LwIP/src/core/tcp.c ****     return ERR_CONN;
 430:Middlewares/Third_Party/LwIP/src/core/tcp.c ****   }
 431:Middlewares/Third_Party/LwIP/src/core/tcp.c ****   if (shut_rx) {
 432:Middlewares/Third_Party/LwIP/src/core/tcp.c ****     /* shut down the receive side: set a flag not to receive any more data... */
 433:Middlewares/Third_Party/LwIP/src/core/tcp.c ****     pcb->flags |= TF_RXCLOSED;
 434:Middlewares/Third_Party/LwIP/src/core/tcp.c ****     if (shut_tx) {
 435:Middlewares/Third_Party/LwIP/src/core/tcp.c ****       /* shutting down the tx AND rx side is the same as closing for the raw API */
 436:Middlewares/Third_Party/LwIP/src/core/tcp.c ****       return tcp_close_shutdown(pcb, 1);
 437:Middlewares/Third_Party/LwIP/src/core/tcp.c ****     }
 438:Middlewares/Third_Party/LwIP/src/core/tcp.c ****     /* ... and free buffered data */
 439:Middlewares/Third_Party/LwIP/src/core/tcp.c ****     if (pcb->refused_data != NULL) {
ARM GAS  /tmp/cc6by9MY.s 			page 10


 440:Middlewares/Third_Party/LwIP/src/core/tcp.c ****       pbuf_free(pcb->refused_data);
 441:Middlewares/Third_Party/LwIP/src/core/tcp.c ****       pcb->refused_data = NULL;
 442:Middlewares/Third_Party/LwIP/src/core/tcp.c ****     }
 443:Middlewares/Third_Party/LwIP/src/core/tcp.c ****   }
 444:Middlewares/Third_Party/LwIP/src/core/tcp.c ****   if (shut_tx) {
 445:Middlewares/Third_Party/LwIP/src/core/tcp.c ****     /* This can't happen twice since if it succeeds, the pcb's state is changed.
 446:Middlewares/Third_Party/LwIP/src/core/tcp.c ****        Only close in these states as the others directly deallocate the PCB */
 447:Middlewares/Third_Party/LwIP/src/core/tcp.c ****     switch (pcb->state) {
 448:Middlewares/Third_Party/LwIP/src/core/tcp.c ****     case SYN_RCVD:
 449:Middlewares/Third_Party/LwIP/src/core/tcp.c ****     case ESTABLISHED:
 450:Middlewares/Third_Party/LwIP/src/core/tcp.c ****     case CLOSE_WAIT:
 451:Middlewares/Third_Party/LwIP/src/core/tcp.c ****       return tcp_close_shutdown(pcb, (u8_t)shut_rx);
 452:Middlewares/Third_Party/LwIP/src/core/tcp.c ****     default:
 453:Middlewares/Third_Party/LwIP/src/core/tcp.c ****       /* Not (yet?) connected, cannot shutdown the TX side as that would bring us
 454:Middlewares/Third_Party/LwIP/src/core/tcp.c ****         into CLOSED state, where the PCB is deallocated. */
 455:Middlewares/Third_Party/LwIP/src/core/tcp.c ****       return ERR_CONN;
 456:Middlewares/Third_Party/LwIP/src/core/tcp.c ****     }
 457:Middlewares/Third_Party/LwIP/src/core/tcp.c ****   }
 458:Middlewares/Third_Party/LwIP/src/core/tcp.c ****   return ERR_OK;
 459:Middlewares/Third_Party/LwIP/src/core/tcp.c **** }
 460:Middlewares/Third_Party/LwIP/src/core/tcp.c **** 
 461:Middlewares/Third_Party/LwIP/src/core/tcp.c **** /**
 462:Middlewares/Third_Party/LwIP/src/core/tcp.c ****  * Abandons a connection and optionally sends a RST to the remote
 463:Middlewares/Third_Party/LwIP/src/core/tcp.c ****  * host.  Deletes the local protocol control block. This is done when
 464:Middlewares/Third_Party/LwIP/src/core/tcp.c ****  * a connection is killed because of shortage of memory.
 465:Middlewares/Third_Party/LwIP/src/core/tcp.c ****  *
 466:Middlewares/Third_Party/LwIP/src/core/tcp.c ****  * @param pcb the tcp_pcb to abort
 467:Middlewares/Third_Party/LwIP/src/core/tcp.c ****  * @param reset boolean to indicate whether a reset should be sent
 468:Middlewares/Third_Party/LwIP/src/core/tcp.c ****  */
 469:Middlewares/Third_Party/LwIP/src/core/tcp.c **** void
 470:Middlewares/Third_Party/LwIP/src/core/tcp.c **** tcp_abandon(struct tcp_pcb *pcb, int reset)
 471:Middlewares/Third_Party/LwIP/src/core/tcp.c **** {
 472:Middlewares/Third_Party/LwIP/src/core/tcp.c ****   u32_t seqno, ackno;
 473:Middlewares/Third_Party/LwIP/src/core/tcp.c **** #if LWIP_CALLBACK_API
 474:Middlewares/Third_Party/LwIP/src/core/tcp.c ****   tcp_err_fn errf;
 475:Middlewares/Third_Party/LwIP/src/core/tcp.c **** #endif /* LWIP_CALLBACK_API */
 476:Middlewares/Third_Party/LwIP/src/core/tcp.c ****   void *errf_arg;
 477:Middlewares/Third_Party/LwIP/src/core/tcp.c **** 
 478:Middlewares/Third_Party/LwIP/src/core/tcp.c ****   /* pcb->state LISTEN not allowed here */
 479:Middlewares/Third_Party/LwIP/src/core/tcp.c ****   LWIP_ASSERT("don't call tcp_abort/tcp_abandon for listen-pcbs",
 480:Middlewares/Third_Party/LwIP/src/core/tcp.c ****     pcb->state != LISTEN);
 481:Middlewares/Third_Party/LwIP/src/core/tcp.c ****   /* Figure out on which TCP PCB list we are, and remove us. If we
 482:Middlewares/Third_Party/LwIP/src/core/tcp.c ****      are in an active state, call the receive function associated with
 483:Middlewares/Third_Party/LwIP/src/core/tcp.c ****      the PCB with a NULL argument, and send an RST to the remote end. */
 484:Middlewares/Third_Party/LwIP/src/core/tcp.c ****   if (pcb->state == TIME_WAIT) {
 485:Middlewares/Third_Party/LwIP/src/core/tcp.c ****     tcp_pcb_remove(&tcp_tw_pcbs, pcb);
 486:Middlewares/Third_Party/LwIP/src/core/tcp.c ****     memp_free(MEMP_TCP_PCB, pcb);
 487:Middlewares/Third_Party/LwIP/src/core/tcp.c ****   } else {
 488:Middlewares/Third_Party/LwIP/src/core/tcp.c ****     int send_rst = 0;
 489:Middlewares/Third_Party/LwIP/src/core/tcp.c ****     u16_t local_port = 0;
 490:Middlewares/Third_Party/LwIP/src/core/tcp.c ****     enum tcp_state last_state;
 491:Middlewares/Third_Party/LwIP/src/core/tcp.c ****     seqno = pcb->snd_nxt;
 492:Middlewares/Third_Party/LwIP/src/core/tcp.c ****     ackno = pcb->rcv_nxt;
 493:Middlewares/Third_Party/LwIP/src/core/tcp.c **** #if LWIP_CALLBACK_API
 494:Middlewares/Third_Party/LwIP/src/core/tcp.c ****     errf = pcb->errf;
 495:Middlewares/Third_Party/LwIP/src/core/tcp.c **** #endif /* LWIP_CALLBACK_API */
 496:Middlewares/Third_Party/LwIP/src/core/tcp.c ****     errf_arg = pcb->callback_arg;
ARM GAS  /tmp/cc6by9MY.s 			page 11


 497:Middlewares/Third_Party/LwIP/src/core/tcp.c ****     if (pcb->state == CLOSED) {
 498:Middlewares/Third_Party/LwIP/src/core/tcp.c ****       if (pcb->local_port != 0) {
 499:Middlewares/Third_Party/LwIP/src/core/tcp.c ****         /* bound, not yet opened */
 500:Middlewares/Third_Party/LwIP/src/core/tcp.c ****         TCP_RMV(&tcp_bound_pcbs, pcb);
 501:Middlewares/Third_Party/LwIP/src/core/tcp.c ****       }
 502:Middlewares/Third_Party/LwIP/src/core/tcp.c ****     } else {
 503:Middlewares/Third_Party/LwIP/src/core/tcp.c ****       send_rst = reset;
 504:Middlewares/Third_Party/LwIP/src/core/tcp.c ****       local_port = pcb->local_port;
 505:Middlewares/Third_Party/LwIP/src/core/tcp.c ****       TCP_PCB_REMOVE_ACTIVE(pcb);
 506:Middlewares/Third_Party/LwIP/src/core/tcp.c ****     }
 507:Middlewares/Third_Party/LwIP/src/core/tcp.c ****     if (pcb->unacked != NULL) {
 508:Middlewares/Third_Party/LwIP/src/core/tcp.c ****       tcp_segs_free(pcb->unacked);
 509:Middlewares/Third_Party/LwIP/src/core/tcp.c ****     }
 510:Middlewares/Third_Party/LwIP/src/core/tcp.c ****     if (pcb->unsent != NULL) {
 511:Middlewares/Third_Party/LwIP/src/core/tcp.c ****       tcp_segs_free(pcb->unsent);
 512:Middlewares/Third_Party/LwIP/src/core/tcp.c ****     }
 513:Middlewares/Third_Party/LwIP/src/core/tcp.c **** #if TCP_QUEUE_OOSEQ
 514:Middlewares/Third_Party/LwIP/src/core/tcp.c ****     if (pcb->ooseq != NULL) {
 515:Middlewares/Third_Party/LwIP/src/core/tcp.c ****       tcp_segs_free(pcb->ooseq);
 516:Middlewares/Third_Party/LwIP/src/core/tcp.c ****     }
 517:Middlewares/Third_Party/LwIP/src/core/tcp.c **** #endif /* TCP_QUEUE_OOSEQ */
 518:Middlewares/Third_Party/LwIP/src/core/tcp.c ****     tcp_backlog_accepted(pcb);
 519:Middlewares/Third_Party/LwIP/src/core/tcp.c ****     if (send_rst) {
 520:Middlewares/Third_Party/LwIP/src/core/tcp.c ****       LWIP_DEBUGF(TCP_RST_DEBUG, ("tcp_abandon: sending RST\n"));
 521:Middlewares/Third_Party/LwIP/src/core/tcp.c ****       tcp_rst(seqno, ackno, &pcb->local_ip, &pcb->remote_ip, local_port, pcb->remote_port);
 522:Middlewares/Third_Party/LwIP/src/core/tcp.c ****     }
 523:Middlewares/Third_Party/LwIP/src/core/tcp.c ****     last_state = pcb->state;
 524:Middlewares/Third_Party/LwIP/src/core/tcp.c ****     memp_free(MEMP_TCP_PCB, pcb);
 525:Middlewares/Third_Party/LwIP/src/core/tcp.c ****     TCP_EVENT_ERR(last_state, errf, errf_arg, ERR_ABRT);
 526:Middlewares/Third_Party/LwIP/src/core/tcp.c ****   }
 527:Middlewares/Third_Party/LwIP/src/core/tcp.c **** }
 528:Middlewares/Third_Party/LwIP/src/core/tcp.c **** 
 529:Middlewares/Third_Party/LwIP/src/core/tcp.c **** /**
 530:Middlewares/Third_Party/LwIP/src/core/tcp.c ****  * @ingroup tcp_raw
 531:Middlewares/Third_Party/LwIP/src/core/tcp.c ****  * Aborts the connection by sending a RST (reset) segment to the remote
 532:Middlewares/Third_Party/LwIP/src/core/tcp.c ****  * host. The pcb is deallocated. This function never fails.
 533:Middlewares/Third_Party/LwIP/src/core/tcp.c ****  *
 534:Middlewares/Third_Party/LwIP/src/core/tcp.c ****  * ATTENTION: When calling this from one of the TCP callbacks, make
 535:Middlewares/Third_Party/LwIP/src/core/tcp.c ****  * sure you always return ERR_ABRT (and never return ERR_ABRT otherwise
 536:Middlewares/Third_Party/LwIP/src/core/tcp.c ****  * or you will risk accessing deallocated memory or memory leaks!
 537:Middlewares/Third_Party/LwIP/src/core/tcp.c ****  *
 538:Middlewares/Third_Party/LwIP/src/core/tcp.c ****  * @param pcb the tcp pcb to abort
 539:Middlewares/Third_Party/LwIP/src/core/tcp.c ****  */
 540:Middlewares/Third_Party/LwIP/src/core/tcp.c **** void
 541:Middlewares/Third_Party/LwIP/src/core/tcp.c **** tcp_abort(struct tcp_pcb *pcb)
 542:Middlewares/Third_Party/LwIP/src/core/tcp.c **** {
 543:Middlewares/Third_Party/LwIP/src/core/tcp.c ****   tcp_abandon(pcb, 1);
 544:Middlewares/Third_Party/LwIP/src/core/tcp.c **** }
 545:Middlewares/Third_Party/LwIP/src/core/tcp.c **** 
 546:Middlewares/Third_Party/LwIP/src/core/tcp.c **** /**
 547:Middlewares/Third_Party/LwIP/src/core/tcp.c ****  * @ingroup tcp_raw
 548:Middlewares/Third_Party/LwIP/src/core/tcp.c ****  * Binds the connection to a local port number and IP address. If the
 549:Middlewares/Third_Party/LwIP/src/core/tcp.c ****  * IP address is not given (i.e., ipaddr == NULL), the IP address of
 550:Middlewares/Third_Party/LwIP/src/core/tcp.c ****  * the outgoing network interface is used instead.
 551:Middlewares/Third_Party/LwIP/src/core/tcp.c ****  *
 552:Middlewares/Third_Party/LwIP/src/core/tcp.c ****  * @param pcb the tcp_pcb to bind (no check is done whether this pcb is
 553:Middlewares/Third_Party/LwIP/src/core/tcp.c ****  *        already bound!)
ARM GAS  /tmp/cc6by9MY.s 			page 12


 554:Middlewares/Third_Party/LwIP/src/core/tcp.c ****  * @param ipaddr the local ip address to bind to (use IP4_ADDR_ANY to bind
 555:Middlewares/Third_Party/LwIP/src/core/tcp.c ****  *        to any local address
 556:Middlewares/Third_Party/LwIP/src/core/tcp.c ****  * @param port the local port to bind to
 557:Middlewares/Third_Party/LwIP/src/core/tcp.c ****  * @return ERR_USE if the port is already in use
 558:Middlewares/Third_Party/LwIP/src/core/tcp.c ****  *         ERR_VAL if bind failed because the PCB is not in a valid state
 559:Middlewares/Third_Party/LwIP/src/core/tcp.c ****  *         ERR_OK if bound
 560:Middlewares/Third_Party/LwIP/src/core/tcp.c ****  */
 561:Middlewares/Third_Party/LwIP/src/core/tcp.c **** err_t
 562:Middlewares/Third_Party/LwIP/src/core/tcp.c **** tcp_bind(struct tcp_pcb *pcb, const ip_addr_t *ipaddr, u16_t port)
 563:Middlewares/Third_Party/LwIP/src/core/tcp.c **** {
 564:Middlewares/Third_Party/LwIP/src/core/tcp.c ****   int i;
 565:Middlewares/Third_Party/LwIP/src/core/tcp.c ****   int max_pcb_list = NUM_TCP_PCB_LISTS;
 566:Middlewares/Third_Party/LwIP/src/core/tcp.c ****   struct tcp_pcb *cpcb;
 567:Middlewares/Third_Party/LwIP/src/core/tcp.c **** 
 568:Middlewares/Third_Party/LwIP/src/core/tcp.c **** #if LWIP_IPV4
 569:Middlewares/Third_Party/LwIP/src/core/tcp.c ****   /* Don't propagate NULL pointer (IPv4 ANY) to subsequent functions */
 570:Middlewares/Third_Party/LwIP/src/core/tcp.c ****   if (ipaddr == NULL) {
 571:Middlewares/Third_Party/LwIP/src/core/tcp.c ****     ipaddr = IP4_ADDR_ANY;
 572:Middlewares/Third_Party/LwIP/src/core/tcp.c ****   }
 573:Middlewares/Third_Party/LwIP/src/core/tcp.c **** #endif /* LWIP_IPV4 */
 574:Middlewares/Third_Party/LwIP/src/core/tcp.c **** 
 575:Middlewares/Third_Party/LwIP/src/core/tcp.c ****   /* still need to check for ipaddr == NULL in IPv6 only case */
 576:Middlewares/Third_Party/LwIP/src/core/tcp.c ****   if ((pcb == NULL) || (ipaddr == NULL)) {
 577:Middlewares/Third_Party/LwIP/src/core/tcp.c ****     return ERR_VAL;
 578:Middlewares/Third_Party/LwIP/src/core/tcp.c ****   }
 579:Middlewares/Third_Party/LwIP/src/core/tcp.c **** 
 580:Middlewares/Third_Party/LwIP/src/core/tcp.c ****   LWIP_ERROR("tcp_bind: can only bind in state CLOSED", pcb->state == CLOSED, return ERR_VAL);
 581:Middlewares/Third_Party/LwIP/src/core/tcp.c **** 
 582:Middlewares/Third_Party/LwIP/src/core/tcp.c **** #if SO_REUSE
 583:Middlewares/Third_Party/LwIP/src/core/tcp.c ****   /* Unless the REUSEADDR flag is set,
 584:Middlewares/Third_Party/LwIP/src/core/tcp.c ****      we have to check the pcbs in TIME-WAIT state, also.
 585:Middlewares/Third_Party/LwIP/src/core/tcp.c ****      We do not dump TIME_WAIT pcb's; they can still be matched by incoming
 586:Middlewares/Third_Party/LwIP/src/core/tcp.c ****      packets using both local and remote IP addresses and ports to distinguish.
 587:Middlewares/Third_Party/LwIP/src/core/tcp.c ****    */
 588:Middlewares/Third_Party/LwIP/src/core/tcp.c ****   if (ip_get_option(pcb, SOF_REUSEADDR)) {
 589:Middlewares/Third_Party/LwIP/src/core/tcp.c ****     max_pcb_list = NUM_TCP_PCB_LISTS_NO_TIME_WAIT;
 590:Middlewares/Third_Party/LwIP/src/core/tcp.c ****   }
 591:Middlewares/Third_Party/LwIP/src/core/tcp.c **** #endif /* SO_REUSE */
 592:Middlewares/Third_Party/LwIP/src/core/tcp.c **** 
 593:Middlewares/Third_Party/LwIP/src/core/tcp.c ****   if (port == 0) {
 594:Middlewares/Third_Party/LwIP/src/core/tcp.c ****     port = tcp_new_port();
 595:Middlewares/Third_Party/LwIP/src/core/tcp.c ****     if (port == 0) {
 596:Middlewares/Third_Party/LwIP/src/core/tcp.c ****       return ERR_BUF;
 597:Middlewares/Third_Party/LwIP/src/core/tcp.c ****     }
 598:Middlewares/Third_Party/LwIP/src/core/tcp.c ****   } else {
 599:Middlewares/Third_Party/LwIP/src/core/tcp.c ****     /* Check if the address already is in use (on all lists) */
 600:Middlewares/Third_Party/LwIP/src/core/tcp.c ****     for (i = 0; i < max_pcb_list; i++) {
 601:Middlewares/Third_Party/LwIP/src/core/tcp.c ****       for (cpcb = *tcp_pcb_lists[i]; cpcb != NULL; cpcb = cpcb->next) {
 602:Middlewares/Third_Party/LwIP/src/core/tcp.c ****         if (cpcb->local_port == port) {
 603:Middlewares/Third_Party/LwIP/src/core/tcp.c **** #if SO_REUSE
 604:Middlewares/Third_Party/LwIP/src/core/tcp.c ****           /* Omit checking for the same port if both pcbs have REUSEADDR set.
 605:Middlewares/Third_Party/LwIP/src/core/tcp.c ****              For SO_REUSEADDR, the duplicate-check for a 5-tuple is done in
 606:Middlewares/Third_Party/LwIP/src/core/tcp.c ****              tcp_connect. */
 607:Middlewares/Third_Party/LwIP/src/core/tcp.c ****           if (!ip_get_option(pcb, SOF_REUSEADDR) ||
 608:Middlewares/Third_Party/LwIP/src/core/tcp.c ****               !ip_get_option(cpcb, SOF_REUSEADDR))
 609:Middlewares/Third_Party/LwIP/src/core/tcp.c **** #endif /* SO_REUSE */
 610:Middlewares/Third_Party/LwIP/src/core/tcp.c ****           {
ARM GAS  /tmp/cc6by9MY.s 			page 13


 611:Middlewares/Third_Party/LwIP/src/core/tcp.c ****             /* @todo: check accept_any_ip_version */
 612:Middlewares/Third_Party/LwIP/src/core/tcp.c ****             if ((IP_IS_V6(ipaddr) == IP_IS_V6_VAL(cpcb->local_ip)) &&
 613:Middlewares/Third_Party/LwIP/src/core/tcp.c ****                 (ip_addr_isany(&cpcb->local_ip) ||
 614:Middlewares/Third_Party/LwIP/src/core/tcp.c ****                 ip_addr_isany(ipaddr) ||
 615:Middlewares/Third_Party/LwIP/src/core/tcp.c ****                 ip_addr_cmp(&cpcb->local_ip, ipaddr))) {
 616:Middlewares/Third_Party/LwIP/src/core/tcp.c ****               return ERR_USE;
 617:Middlewares/Third_Party/LwIP/src/core/tcp.c ****             }
 618:Middlewares/Third_Party/LwIP/src/core/tcp.c ****           }
 619:Middlewares/Third_Party/LwIP/src/core/tcp.c ****         }
 620:Middlewares/Third_Party/LwIP/src/core/tcp.c ****       }
 621:Middlewares/Third_Party/LwIP/src/core/tcp.c ****     }
 622:Middlewares/Third_Party/LwIP/src/core/tcp.c ****   }
 623:Middlewares/Third_Party/LwIP/src/core/tcp.c **** 
 624:Middlewares/Third_Party/LwIP/src/core/tcp.c ****   if (!ip_addr_isany(ipaddr)) {
 625:Middlewares/Third_Party/LwIP/src/core/tcp.c ****     ip_addr_set(&pcb->local_ip, ipaddr);
 626:Middlewares/Third_Party/LwIP/src/core/tcp.c ****   }
 627:Middlewares/Third_Party/LwIP/src/core/tcp.c ****   pcb->local_port = port;
 628:Middlewares/Third_Party/LwIP/src/core/tcp.c ****   TCP_REG(&tcp_bound_pcbs, pcb);
 629:Middlewares/Third_Party/LwIP/src/core/tcp.c ****   LWIP_DEBUGF(TCP_DEBUG, ("tcp_bind: bind to port %"U16_F"\n", port));
 630:Middlewares/Third_Party/LwIP/src/core/tcp.c ****   return ERR_OK;
 631:Middlewares/Third_Party/LwIP/src/core/tcp.c **** }
 632:Middlewares/Third_Party/LwIP/src/core/tcp.c **** #if LWIP_CALLBACK_API
 633:Middlewares/Third_Party/LwIP/src/core/tcp.c **** /**
 634:Middlewares/Third_Party/LwIP/src/core/tcp.c ****  * Default accept callback if no accept callback is specified by the user.
 635:Middlewares/Third_Party/LwIP/src/core/tcp.c ****  */
 636:Middlewares/Third_Party/LwIP/src/core/tcp.c **** static err_t
 637:Middlewares/Third_Party/LwIP/src/core/tcp.c **** tcp_accept_null(void *arg, struct tcp_pcb *pcb, err_t err)
 638:Middlewares/Third_Party/LwIP/src/core/tcp.c **** {
 639:Middlewares/Third_Party/LwIP/src/core/tcp.c ****   LWIP_UNUSED_ARG(arg);
 640:Middlewares/Third_Party/LwIP/src/core/tcp.c ****   LWIP_UNUSED_ARG(err);
 641:Middlewares/Third_Party/LwIP/src/core/tcp.c **** 
 642:Middlewares/Third_Party/LwIP/src/core/tcp.c ****   tcp_abort(pcb);
 643:Middlewares/Third_Party/LwIP/src/core/tcp.c **** 
 644:Middlewares/Third_Party/LwIP/src/core/tcp.c ****   return ERR_ABRT;
 645:Middlewares/Third_Party/LwIP/src/core/tcp.c **** }
 646:Middlewares/Third_Party/LwIP/src/core/tcp.c **** #endif /* LWIP_CALLBACK_API */
 647:Middlewares/Third_Party/LwIP/src/core/tcp.c **** 
 648:Middlewares/Third_Party/LwIP/src/core/tcp.c **** /**
 649:Middlewares/Third_Party/LwIP/src/core/tcp.c ****  * @ingroup tcp_raw
 650:Middlewares/Third_Party/LwIP/src/core/tcp.c ****  * Set the state of the connection to be LISTEN, which means that it
 651:Middlewares/Third_Party/LwIP/src/core/tcp.c ****  * is able to accept incoming connections. The protocol control block
 652:Middlewares/Third_Party/LwIP/src/core/tcp.c ****  * is reallocated in order to consume less memory. Setting the
 653:Middlewares/Third_Party/LwIP/src/core/tcp.c ****  * connection to LISTEN is an irreversible process.
 654:Middlewares/Third_Party/LwIP/src/core/tcp.c ****  *
 655:Middlewares/Third_Party/LwIP/src/core/tcp.c ****  * @param pcb the original tcp_pcb
 656:Middlewares/Third_Party/LwIP/src/core/tcp.c ****  * @param backlog the incoming connections queue limit
 657:Middlewares/Third_Party/LwIP/src/core/tcp.c ****  * @return tcp_pcb used for listening, consumes less memory.
 658:Middlewares/Third_Party/LwIP/src/core/tcp.c ****  *
 659:Middlewares/Third_Party/LwIP/src/core/tcp.c ****  * @note The original tcp_pcb is freed. This function therefore has to be
 660:Middlewares/Third_Party/LwIP/src/core/tcp.c ****  *       called like this:
 661:Middlewares/Third_Party/LwIP/src/core/tcp.c ****  *             tpcb = tcp_listen_with_backlog(tpcb, backlog);
 662:Middlewares/Third_Party/LwIP/src/core/tcp.c ****  */
 663:Middlewares/Third_Party/LwIP/src/core/tcp.c **** struct tcp_pcb *
 664:Middlewares/Third_Party/LwIP/src/core/tcp.c **** tcp_listen_with_backlog(struct tcp_pcb *pcb, u8_t backlog)
 665:Middlewares/Third_Party/LwIP/src/core/tcp.c **** {
 666:Middlewares/Third_Party/LwIP/src/core/tcp.c ****   return tcp_listen_with_backlog_and_err(pcb, backlog, NULL);
 667:Middlewares/Third_Party/LwIP/src/core/tcp.c **** }
ARM GAS  /tmp/cc6by9MY.s 			page 14


 668:Middlewares/Third_Party/LwIP/src/core/tcp.c **** 
 669:Middlewares/Third_Party/LwIP/src/core/tcp.c **** /**
 670:Middlewares/Third_Party/LwIP/src/core/tcp.c ****  * @ingroup tcp_raw
 671:Middlewares/Third_Party/LwIP/src/core/tcp.c ****  * Set the state of the connection to be LISTEN, which means that it
 672:Middlewares/Third_Party/LwIP/src/core/tcp.c ****  * is able to accept incoming connections. The protocol control block
 673:Middlewares/Third_Party/LwIP/src/core/tcp.c ****  * is reallocated in order to consume less memory. Setting the
 674:Middlewares/Third_Party/LwIP/src/core/tcp.c ****  * connection to LISTEN is an irreversible process.
 675:Middlewares/Third_Party/LwIP/src/core/tcp.c ****  *
 676:Middlewares/Third_Party/LwIP/src/core/tcp.c ****  * @param pcb the original tcp_pcb
 677:Middlewares/Third_Party/LwIP/src/core/tcp.c ****  * @param backlog the incoming connections queue limit
 678:Middlewares/Third_Party/LwIP/src/core/tcp.c ****  * @param err when NULL is returned, this contains the error reason
 679:Middlewares/Third_Party/LwIP/src/core/tcp.c ****  * @return tcp_pcb used for listening, consumes less memory.
 680:Middlewares/Third_Party/LwIP/src/core/tcp.c ****  *
 681:Middlewares/Third_Party/LwIP/src/core/tcp.c ****  * @note The original tcp_pcb is freed. This function therefore has to be
 682:Middlewares/Third_Party/LwIP/src/core/tcp.c ****  *       called like this:
 683:Middlewares/Third_Party/LwIP/src/core/tcp.c ****  *             tpcb = tcp_listen_with_backlog_and_err(tpcb, backlog, &err);
 684:Middlewares/Third_Party/LwIP/src/core/tcp.c ****  */
 685:Middlewares/Third_Party/LwIP/src/core/tcp.c **** struct tcp_pcb *
 686:Middlewares/Third_Party/LwIP/src/core/tcp.c **** tcp_listen_with_backlog_and_err(struct tcp_pcb *pcb, u8_t backlog, err_t *err)
 687:Middlewares/Third_Party/LwIP/src/core/tcp.c **** {
 688:Middlewares/Third_Party/LwIP/src/core/tcp.c ****   struct tcp_pcb_listen *lpcb = NULL;
 689:Middlewares/Third_Party/LwIP/src/core/tcp.c ****   err_t res;
 690:Middlewares/Third_Party/LwIP/src/core/tcp.c **** 
 691:Middlewares/Third_Party/LwIP/src/core/tcp.c ****   LWIP_UNUSED_ARG(backlog);
 692:Middlewares/Third_Party/LwIP/src/core/tcp.c ****   LWIP_ERROR("tcp_listen: pcb already connected", pcb->state == CLOSED, res = ERR_CLSD; goto done);
 693:Middlewares/Third_Party/LwIP/src/core/tcp.c **** 
 694:Middlewares/Third_Party/LwIP/src/core/tcp.c ****   /* already listening? */
 695:Middlewares/Third_Party/LwIP/src/core/tcp.c ****   if (pcb->state == LISTEN) {
 696:Middlewares/Third_Party/LwIP/src/core/tcp.c ****     lpcb = (struct tcp_pcb_listen*)pcb;
 697:Middlewares/Third_Party/LwIP/src/core/tcp.c ****     res = ERR_ALREADY;
 698:Middlewares/Third_Party/LwIP/src/core/tcp.c ****     goto done;
 699:Middlewares/Third_Party/LwIP/src/core/tcp.c ****   }
 700:Middlewares/Third_Party/LwIP/src/core/tcp.c **** #if SO_REUSE
 701:Middlewares/Third_Party/LwIP/src/core/tcp.c ****   if (ip_get_option(pcb, SOF_REUSEADDR)) {
 702:Middlewares/Third_Party/LwIP/src/core/tcp.c ****     /* Since SOF_REUSEADDR allows reusing a local address before the pcb's usage
 703:Middlewares/Third_Party/LwIP/src/core/tcp.c ****        is declared (listen-/connection-pcb), we have to make sure now that
 704:Middlewares/Third_Party/LwIP/src/core/tcp.c ****        this port is only used once for every local IP. */
 705:Middlewares/Third_Party/LwIP/src/core/tcp.c ****     for (lpcb = tcp_listen_pcbs.listen_pcbs; lpcb != NULL; lpcb = lpcb->next) {
 706:Middlewares/Third_Party/LwIP/src/core/tcp.c ****       if ((lpcb->local_port == pcb->local_port) &&
 707:Middlewares/Third_Party/LwIP/src/core/tcp.c ****           ip_addr_cmp(&lpcb->local_ip, &pcb->local_ip)) {
 708:Middlewares/Third_Party/LwIP/src/core/tcp.c ****         /* this address/port is already used */
 709:Middlewares/Third_Party/LwIP/src/core/tcp.c ****         lpcb = NULL;
 710:Middlewares/Third_Party/LwIP/src/core/tcp.c ****         res = ERR_USE;
 711:Middlewares/Third_Party/LwIP/src/core/tcp.c ****         goto done;
 712:Middlewares/Third_Party/LwIP/src/core/tcp.c ****       }
 713:Middlewares/Third_Party/LwIP/src/core/tcp.c ****     }
 714:Middlewares/Third_Party/LwIP/src/core/tcp.c ****   }
 715:Middlewares/Third_Party/LwIP/src/core/tcp.c **** #endif /* SO_REUSE */
 716:Middlewares/Third_Party/LwIP/src/core/tcp.c ****   lpcb = (struct tcp_pcb_listen *)memp_malloc(MEMP_TCP_PCB_LISTEN);
 717:Middlewares/Third_Party/LwIP/src/core/tcp.c ****   if (lpcb == NULL) {
 718:Middlewares/Third_Party/LwIP/src/core/tcp.c ****     res = ERR_MEM;
 719:Middlewares/Third_Party/LwIP/src/core/tcp.c ****     goto done;
 720:Middlewares/Third_Party/LwIP/src/core/tcp.c ****   }
 721:Middlewares/Third_Party/LwIP/src/core/tcp.c ****   lpcb->callback_arg = pcb->callback_arg;
 722:Middlewares/Third_Party/LwIP/src/core/tcp.c ****   lpcb->local_port = pcb->local_port;
 723:Middlewares/Third_Party/LwIP/src/core/tcp.c ****   lpcb->state = LISTEN;
 724:Middlewares/Third_Party/LwIP/src/core/tcp.c ****   lpcb->prio = pcb->prio;
ARM GAS  /tmp/cc6by9MY.s 			page 15


 725:Middlewares/Third_Party/LwIP/src/core/tcp.c ****   lpcb->so_options = pcb->so_options;
 726:Middlewares/Third_Party/LwIP/src/core/tcp.c ****   lpcb->ttl = pcb->ttl;
 727:Middlewares/Third_Party/LwIP/src/core/tcp.c ****   lpcb->tos = pcb->tos;
 728:Middlewares/Third_Party/LwIP/src/core/tcp.c **** #if LWIP_IPV4 && LWIP_IPV6
 729:Middlewares/Third_Party/LwIP/src/core/tcp.c ****   IP_SET_TYPE_VAL(lpcb->remote_ip, pcb->local_ip.type);
 730:Middlewares/Third_Party/LwIP/src/core/tcp.c **** #endif /* LWIP_IPV4 && LWIP_IPV6 */
 731:Middlewares/Third_Party/LwIP/src/core/tcp.c ****   ip_addr_copy(lpcb->local_ip, pcb->local_ip);
 732:Middlewares/Third_Party/LwIP/src/core/tcp.c ****   if (pcb->local_port != 0) {
 733:Middlewares/Third_Party/LwIP/src/core/tcp.c ****     TCP_RMV(&tcp_bound_pcbs, pcb);
 734:Middlewares/Third_Party/LwIP/src/core/tcp.c ****   }
 735:Middlewares/Third_Party/LwIP/src/core/tcp.c ****   memp_free(MEMP_TCP_PCB, pcb);
 736:Middlewares/Third_Party/LwIP/src/core/tcp.c **** #if LWIP_CALLBACK_API
 737:Middlewares/Third_Party/LwIP/src/core/tcp.c ****   lpcb->accept = tcp_accept_null;
 738:Middlewares/Third_Party/LwIP/src/core/tcp.c **** #endif /* LWIP_CALLBACK_API */
 739:Middlewares/Third_Party/LwIP/src/core/tcp.c **** #if TCP_LISTEN_BACKLOG
 740:Middlewares/Third_Party/LwIP/src/core/tcp.c ****   lpcb->accepts_pending = 0;
 741:Middlewares/Third_Party/LwIP/src/core/tcp.c ****   tcp_backlog_set(lpcb, backlog);
 742:Middlewares/Third_Party/LwIP/src/core/tcp.c **** #endif /* TCP_LISTEN_BACKLOG */
 743:Middlewares/Third_Party/LwIP/src/core/tcp.c ****   TCP_REG(&tcp_listen_pcbs.pcbs, (struct tcp_pcb *)lpcb);
 744:Middlewares/Third_Party/LwIP/src/core/tcp.c ****   res = ERR_OK;
 745:Middlewares/Third_Party/LwIP/src/core/tcp.c **** done:
 746:Middlewares/Third_Party/LwIP/src/core/tcp.c ****   if (err != NULL) {
 747:Middlewares/Third_Party/LwIP/src/core/tcp.c ****     *err = res;
 748:Middlewares/Third_Party/LwIP/src/core/tcp.c ****   }
 749:Middlewares/Third_Party/LwIP/src/core/tcp.c ****   return (struct tcp_pcb *)lpcb;
 750:Middlewares/Third_Party/LwIP/src/core/tcp.c **** }
 751:Middlewares/Third_Party/LwIP/src/core/tcp.c **** 
 752:Middlewares/Third_Party/LwIP/src/core/tcp.c **** /**
 753:Middlewares/Third_Party/LwIP/src/core/tcp.c ****  * Update the state that tracks the available window space to advertise.
 754:Middlewares/Third_Party/LwIP/src/core/tcp.c ****  *
 755:Middlewares/Third_Party/LwIP/src/core/tcp.c ****  * Returns how much extra window would be advertised if we sent an
 756:Middlewares/Third_Party/LwIP/src/core/tcp.c ****  * update now.
 757:Middlewares/Third_Party/LwIP/src/core/tcp.c ****  */
 758:Middlewares/Third_Party/LwIP/src/core/tcp.c **** u32_t
 759:Middlewares/Third_Party/LwIP/src/core/tcp.c **** tcp_update_rcv_ann_wnd(struct tcp_pcb *pcb)
 760:Middlewares/Third_Party/LwIP/src/core/tcp.c **** {
 761:Middlewares/Third_Party/LwIP/src/core/tcp.c ****   u32_t new_right_edge = pcb->rcv_nxt + pcb->rcv_wnd;
 762:Middlewares/Third_Party/LwIP/src/core/tcp.c **** 
 763:Middlewares/Third_Party/LwIP/src/core/tcp.c ****   if (TCP_SEQ_GEQ(new_right_edge, pcb->rcv_ann_right_edge + LWIP_MIN((TCP_WND / 2), pcb->mss))) {
 764:Middlewares/Third_Party/LwIP/src/core/tcp.c ****     /* we can advertise more window */
 765:Middlewares/Third_Party/LwIP/src/core/tcp.c ****     pcb->rcv_ann_wnd = pcb->rcv_wnd;
 766:Middlewares/Third_Party/LwIP/src/core/tcp.c ****     return new_right_edge - pcb->rcv_ann_right_edge;
 767:Middlewares/Third_Party/LwIP/src/core/tcp.c ****   } else {
 768:Middlewares/Third_Party/LwIP/src/core/tcp.c ****     if (TCP_SEQ_GT(pcb->rcv_nxt, pcb->rcv_ann_right_edge)) {
 769:Middlewares/Third_Party/LwIP/src/core/tcp.c ****       /* Can happen due to other end sending out of advertised window,
 770:Middlewares/Third_Party/LwIP/src/core/tcp.c ****        * but within actual available (but not yet advertised) window */
 771:Middlewares/Third_Party/LwIP/src/core/tcp.c ****       pcb->rcv_ann_wnd = 0;
 772:Middlewares/Third_Party/LwIP/src/core/tcp.c ****     } else {
 773:Middlewares/Third_Party/LwIP/src/core/tcp.c ****       /* keep the right edge of window constant */
 774:Middlewares/Third_Party/LwIP/src/core/tcp.c ****       u32_t new_rcv_ann_wnd = pcb->rcv_ann_right_edge - pcb->rcv_nxt;
 775:Middlewares/Third_Party/LwIP/src/core/tcp.c **** #if !LWIP_WND_SCALE
 776:Middlewares/Third_Party/LwIP/src/core/tcp.c ****       LWIP_ASSERT("new_rcv_ann_wnd <= 0xffff", new_rcv_ann_wnd <= 0xffff);
 777:Middlewares/Third_Party/LwIP/src/core/tcp.c **** #endif
 778:Middlewares/Third_Party/LwIP/src/core/tcp.c ****       pcb->rcv_ann_wnd = (tcpwnd_size_t)new_rcv_ann_wnd;
 779:Middlewares/Third_Party/LwIP/src/core/tcp.c ****     }
 780:Middlewares/Third_Party/LwIP/src/core/tcp.c ****     return 0;
 781:Middlewares/Third_Party/LwIP/src/core/tcp.c ****   }
ARM GAS  /tmp/cc6by9MY.s 			page 16


 782:Middlewares/Third_Party/LwIP/src/core/tcp.c **** }
 783:Middlewares/Third_Party/LwIP/src/core/tcp.c **** 
 784:Middlewares/Third_Party/LwIP/src/core/tcp.c **** /**
 785:Middlewares/Third_Party/LwIP/src/core/tcp.c ****  * @ingroup tcp_raw
 786:Middlewares/Third_Party/LwIP/src/core/tcp.c ****  * This function should be called by the application when it has
 787:Middlewares/Third_Party/LwIP/src/core/tcp.c ****  * processed the data. The purpose is to advertise a larger window
 788:Middlewares/Third_Party/LwIP/src/core/tcp.c ****  * when the data has been processed.
 789:Middlewares/Third_Party/LwIP/src/core/tcp.c ****  *
 790:Middlewares/Third_Party/LwIP/src/core/tcp.c ****  * @param pcb the tcp_pcb for which data is read
 791:Middlewares/Third_Party/LwIP/src/core/tcp.c ****  * @param len the amount of bytes that have been read by the application
 792:Middlewares/Third_Party/LwIP/src/core/tcp.c ****  */
 793:Middlewares/Third_Party/LwIP/src/core/tcp.c **** void
 794:Middlewares/Third_Party/LwIP/src/core/tcp.c **** tcp_recved(struct tcp_pcb *pcb, u16_t len)
 795:Middlewares/Third_Party/LwIP/src/core/tcp.c **** {
 796:Middlewares/Third_Party/LwIP/src/core/tcp.c ****   int wnd_inflation;
 797:Middlewares/Third_Party/LwIP/src/core/tcp.c **** 
 798:Middlewares/Third_Party/LwIP/src/core/tcp.c ****   /* pcb->state LISTEN not allowed here */
 799:Middlewares/Third_Party/LwIP/src/core/tcp.c ****   LWIP_ASSERT("don't call tcp_recved for listen-pcbs",
 800:Middlewares/Third_Party/LwIP/src/core/tcp.c ****     pcb->state != LISTEN);
 801:Middlewares/Third_Party/LwIP/src/core/tcp.c **** 
 802:Middlewares/Third_Party/LwIP/src/core/tcp.c ****   pcb->rcv_wnd += len;
 803:Middlewares/Third_Party/LwIP/src/core/tcp.c ****   if (pcb->rcv_wnd > TCP_WND_MAX(pcb)) {
 804:Middlewares/Third_Party/LwIP/src/core/tcp.c ****     pcb->rcv_wnd = TCP_WND_MAX(pcb);
 805:Middlewares/Third_Party/LwIP/src/core/tcp.c ****   } else if (pcb->rcv_wnd == 0) {
 806:Middlewares/Third_Party/LwIP/src/core/tcp.c ****     /* rcv_wnd overflowed */
 807:Middlewares/Third_Party/LwIP/src/core/tcp.c ****     if ((pcb->state == CLOSE_WAIT) || (pcb->state == LAST_ACK)) {
 808:Middlewares/Third_Party/LwIP/src/core/tcp.c ****       /* In passive close, we allow this, since the FIN bit is added to rcv_wnd
 809:Middlewares/Third_Party/LwIP/src/core/tcp.c ****          by the stack itself, since it is not mandatory for an application
 810:Middlewares/Third_Party/LwIP/src/core/tcp.c ****          to call tcp_recved() for the FIN bit, but e.g. the netconn API does so. */
 811:Middlewares/Third_Party/LwIP/src/core/tcp.c ****       pcb->rcv_wnd = TCP_WND_MAX(pcb);
 812:Middlewares/Third_Party/LwIP/src/core/tcp.c ****     } else {
 813:Middlewares/Third_Party/LwIP/src/core/tcp.c ****       LWIP_ASSERT("tcp_recved: len wrapped rcv_wnd\n", 0);
 814:Middlewares/Third_Party/LwIP/src/core/tcp.c ****     }
 815:Middlewares/Third_Party/LwIP/src/core/tcp.c ****   }
 816:Middlewares/Third_Party/LwIP/src/core/tcp.c **** 
 817:Middlewares/Third_Party/LwIP/src/core/tcp.c ****   wnd_inflation = tcp_update_rcv_ann_wnd(pcb);
 818:Middlewares/Third_Party/LwIP/src/core/tcp.c **** 
 819:Middlewares/Third_Party/LwIP/src/core/tcp.c ****   /* If the change in the right edge of window is significant (default
 820:Middlewares/Third_Party/LwIP/src/core/tcp.c ****    * watermark is TCP_WND/4), then send an explicit update now.
 821:Middlewares/Third_Party/LwIP/src/core/tcp.c ****    * Otherwise wait for a packet to be sent in the normal course of
 822:Middlewares/Third_Party/LwIP/src/core/tcp.c ****    * events (or more window to be available later) */
 823:Middlewares/Third_Party/LwIP/src/core/tcp.c ****   if (wnd_inflation >= TCP_WND_UPDATE_THRESHOLD) {
 824:Middlewares/Third_Party/LwIP/src/core/tcp.c ****     tcp_ack_now(pcb);
 825:Middlewares/Third_Party/LwIP/src/core/tcp.c ****     tcp_output(pcb);
 826:Middlewares/Third_Party/LwIP/src/core/tcp.c ****   }
 827:Middlewares/Third_Party/LwIP/src/core/tcp.c **** 
 828:Middlewares/Third_Party/LwIP/src/core/tcp.c ****   LWIP_DEBUGF(TCP_DEBUG, ("tcp_recved: received %"U16_F" bytes, wnd %"TCPWNDSIZE_F" (%"TCPWNDSIZE_F
 829:Middlewares/Third_Party/LwIP/src/core/tcp.c ****          len, pcb->rcv_wnd, (u16_t)(TCP_WND_MAX(pcb) - pcb->rcv_wnd)));
 830:Middlewares/Third_Party/LwIP/src/core/tcp.c **** }
 831:Middlewares/Third_Party/LwIP/src/core/tcp.c **** 
 832:Middlewares/Third_Party/LwIP/src/core/tcp.c **** /**
 833:Middlewares/Third_Party/LwIP/src/core/tcp.c ****  * Allocate a new local TCP port.
 834:Middlewares/Third_Party/LwIP/src/core/tcp.c ****  *
 835:Middlewares/Third_Party/LwIP/src/core/tcp.c ****  * @return a new (free) local TCP port number
 836:Middlewares/Third_Party/LwIP/src/core/tcp.c ****  */
 837:Middlewares/Third_Party/LwIP/src/core/tcp.c **** static u16_t
 838:Middlewares/Third_Party/LwIP/src/core/tcp.c **** tcp_new_port(void)
ARM GAS  /tmp/cc6by9MY.s 			page 17


 839:Middlewares/Third_Party/LwIP/src/core/tcp.c **** {
  73              		.loc 1 839 1 is_stmt 1 view -0
  74              		.cfi_startproc
  75              		@ args = 0, pretend = 0, frame = 0
  76              		@ frame_needed = 0, uses_anonymous_args = 0
  77              		@ link register save eliminated.
  78 0000 10B4     		push	{r4}
  79              	.LCFI0:
  80              		.cfi_def_cfa_offset 4
  81              		.cfi_offset 4, -4
 840:Middlewares/Third_Party/LwIP/src/core/tcp.c ****   u8_t i;
  82              		.loc 1 840 3 view .LVU13
 841:Middlewares/Third_Party/LwIP/src/core/tcp.c ****   u16_t n = 0;
  83              		.loc 1 841 3 view .LVU14
  84              	.LVL3:
  85              		.loc 1 841 9 is_stmt 0 view .LVU15
  86 0002 0024     		movs	r4, #0
  87 0004 09E0     		b	.L8
  88              	.LVL4:
  89              	.L19:
 842:Middlewares/Third_Party/LwIP/src/core/tcp.c ****   struct tcp_pcb *pcb;
 843:Middlewares/Third_Party/LwIP/src/core/tcp.c **** 
 844:Middlewares/Third_Party/LwIP/src/core/tcp.c **** again:
 845:Middlewares/Third_Party/LwIP/src/core/tcp.c ****   if (tcp_port++ == TCP_LOCAL_PORT_RANGE_END) {
 846:Middlewares/Third_Party/LwIP/src/core/tcp.c ****     tcp_port = TCP_LOCAL_PORT_RANGE_START;
  90              		.loc 1 846 5 is_stmt 1 view .LVU16
  91              		.loc 1 846 14 is_stmt 0 view .LVU17
  92 0006 154B     		ldr	r3, .L23
  93 0008 4FF44042 		mov	r2, #49152
  94 000c 1A80     		strh	r2, [r3]	@ movhi
  95 000e 0CE0     		b	.L9
  96              	.LVL5:
  97              	.L22:
 847:Middlewares/Third_Party/LwIP/src/core/tcp.c ****   }
 848:Middlewares/Third_Party/LwIP/src/core/tcp.c ****   /* Check all PCB lists. */
 849:Middlewares/Third_Party/LwIP/src/core/tcp.c ****   for (i = 0; i < NUM_TCP_PCB_LISTS; i++) {
 850:Middlewares/Third_Party/LwIP/src/core/tcp.c ****     for (pcb = *tcp_pcb_lists[i]; pcb != NULL; pcb = pcb->next) {
 851:Middlewares/Third_Party/LwIP/src/core/tcp.c ****       if (pcb->local_port == tcp_port) {
 852:Middlewares/Third_Party/LwIP/src/core/tcp.c ****         if (++n > (TCP_LOCAL_PORT_RANGE_END - TCP_LOCAL_PORT_RANGE_START)) {
  98              		.loc 1 852 9 is_stmt 1 view .LVU18
  99              		.loc 1 852 12 is_stmt 0 view .LVU19
 100 0010 0134     		adds	r4, r4, #1
 101              	.LVL6:
 102              		.loc 1 852 12 view .LVU20
 103 0012 A4B2     		uxth	r4, r4
 104              	.LVL7:
 105              		.loc 1 852 12 view .LVU21
 106 0014 B4F5804F 		cmp	r4, #16384
 107 0018 1ED2     		bcs	.L18
 108              	.LVL8:
 109              	.L8:
 842:Middlewares/Third_Party/LwIP/src/core/tcp.c ****   struct tcp_pcb *pcb;
 110              		.loc 1 842 3 is_stmt 1 view .LVU22
 845:Middlewares/Third_Party/LwIP/src/core/tcp.c ****     tcp_port = TCP_LOCAL_PORT_RANGE_START;
 111              		.loc 1 845 3 view .LVU23
 845:Middlewares/Third_Party/LwIP/src/core/tcp.c ****     tcp_port = TCP_LOCAL_PORT_RANGE_START;
 112              		.loc 1 845 15 is_stmt 0 view .LVU24
ARM GAS  /tmp/cc6by9MY.s 			page 18


 113 001a 104A     		ldr	r2, .L23
 114 001c 1388     		ldrh	r3, [r2]
 115 001e 591C     		adds	r1, r3, #1
 116 0020 1180     		strh	r1, [r2]	@ movhi
 845:Middlewares/Third_Party/LwIP/src/core/tcp.c ****     tcp_port = TCP_LOCAL_PORT_RANGE_START;
 117              		.loc 1 845 6 view .LVU25
 118 0022 4FF6FF72 		movw	r2, #65535
 119 0026 9342     		cmp	r3, r2
 120 0028 EDD0     		beq	.L19
 121              	.L9:
 849:Middlewares/Third_Party/LwIP/src/core/tcp.c ****     for (pcb = *tcp_pcb_lists[i]; pcb != NULL; pcb = pcb->next) {
 122              		.loc 1 849 3 is_stmt 1 view .LVU26
 123              	.LVL9:
 849:Middlewares/Third_Party/LwIP/src/core/tcp.c ****     for (pcb = *tcp_pcb_lists[i]; pcb != NULL; pcb = pcb->next) {
 124              		.loc 1 849 10 is_stmt 0 view .LVU27
 125 002a 0020     		movs	r0, #0
 126              	.LVL10:
 127              	.L10:
 849:Middlewares/Third_Party/LwIP/src/core/tcp.c ****     for (pcb = *tcp_pcb_lists[i]; pcb != NULL; pcb = pcb->next) {
 128              		.loc 1 849 3 discriminator 1 view .LVU28
 129 002c 0328     		cmp	r0, #3
 130 002e 0ED8     		bhi	.L20
 850:Middlewares/Third_Party/LwIP/src/core/tcp.c ****       if (pcb->local_port == tcp_port) {
 131              		.loc 1 850 5 is_stmt 1 view .LVU29
 850:Middlewares/Third_Party/LwIP/src/core/tcp.c ****       if (pcb->local_port == tcp_port) {
 132              		.loc 1 850 30 is_stmt 0 view .LVU30
 133 0030 0B4B     		ldr	r3, .L23+4
 134 0032 53F82030 		ldr	r3, [r3, r0, lsl #2]
 850:Middlewares/Third_Party/LwIP/src/core/tcp.c ****       if (pcb->local_port == tcp_port) {
 135              		.loc 1 850 14 view .LVU31
 136 0036 1B68     		ldr	r3, [r3]
 137              	.LVL11:
 138              	.L11:
 850:Middlewares/Third_Party/LwIP/src/core/tcp.c ****       if (pcb->local_port == tcp_port) {
 139              		.loc 1 850 5 discriminator 1 view .LVU32
 140 0038 33B1     		cbz	r3, .L21
 851:Middlewares/Third_Party/LwIP/src/core/tcp.c ****         if (++n > (TCP_LOCAL_PORT_RANGE_END - TCP_LOCAL_PORT_RANGE_START)) {
 141              		.loc 1 851 7 is_stmt 1 view .LVU33
 851:Middlewares/Third_Party/LwIP/src/core/tcp.c ****         if (++n > (TCP_LOCAL_PORT_RANGE_END - TCP_LOCAL_PORT_RANGE_START)) {
 142              		.loc 1 851 14 is_stmt 0 view .LVU34
 143 003a D98A     		ldrh	r1, [r3, #22]
 851:Middlewares/Third_Party/LwIP/src/core/tcp.c ****         if (++n > (TCP_LOCAL_PORT_RANGE_END - TCP_LOCAL_PORT_RANGE_START)) {
 144              		.loc 1 851 27 view .LVU35
 145 003c 074A     		ldr	r2, .L23
 146 003e 1288     		ldrh	r2, [r2]
 851:Middlewares/Third_Party/LwIP/src/core/tcp.c ****         if (++n > (TCP_LOCAL_PORT_RANGE_END - TCP_LOCAL_PORT_RANGE_START)) {
 147              		.loc 1 851 10 view .LVU36
 148 0040 9142     		cmp	r1, r2
 149 0042 E5D0     		beq	.L22
 850:Middlewares/Third_Party/LwIP/src/core/tcp.c ****       if (pcb->local_port == tcp_port) {
 150              		.loc 1 850 52 discriminator 2 view .LVU37
 151 0044 DB68     		ldr	r3, [r3, #12]
 152              	.LVL12:
 850:Middlewares/Third_Party/LwIP/src/core/tcp.c ****       if (pcb->local_port == tcp_port) {
 153              		.loc 1 850 52 discriminator 2 view .LVU38
 154 0046 F7E7     		b	.L11
 155              	.L21:
ARM GAS  /tmp/cc6by9MY.s 			page 19


 849:Middlewares/Third_Party/LwIP/src/core/tcp.c ****     for (pcb = *tcp_pcb_lists[i]; pcb != NULL; pcb = pcb->next) {
 156              		.loc 1 849 39 discriminator 2 view .LVU39
 157 0048 0130     		adds	r0, r0, #1
 158              	.LVL13:
 849:Middlewares/Third_Party/LwIP/src/core/tcp.c ****     for (pcb = *tcp_pcb_lists[i]; pcb != NULL; pcb = pcb->next) {
 159              		.loc 1 849 39 discriminator 2 view .LVU40
 160 004a C0B2     		uxtb	r0, r0
 161              	.LVL14:
 849:Middlewares/Third_Party/LwIP/src/core/tcp.c ****     for (pcb = *tcp_pcb_lists[i]; pcb != NULL; pcb = pcb->next) {
 162              		.loc 1 849 39 discriminator 2 view .LVU41
 163 004c EEE7     		b	.L10
 164              	.LVL15:
 165              	.L20:
 853:Middlewares/Third_Party/LwIP/src/core/tcp.c ****           return 0;
 854:Middlewares/Third_Party/LwIP/src/core/tcp.c ****         }
 855:Middlewares/Third_Party/LwIP/src/core/tcp.c ****         goto again;
 856:Middlewares/Third_Party/LwIP/src/core/tcp.c ****       }
 857:Middlewares/Third_Party/LwIP/src/core/tcp.c ****     }
 858:Middlewares/Third_Party/LwIP/src/core/tcp.c ****   }
 859:Middlewares/Third_Party/LwIP/src/core/tcp.c ****   return tcp_port;
 166              		.loc 1 859 3 is_stmt 1 view .LVU42
 167              		.loc 1 859 10 is_stmt 0 view .LVU43
 168 004e 034B     		ldr	r3, .L23
 169 0050 1888     		ldrh	r0, [r3]
 170              	.LVL16:
 171              	.L13:
 860:Middlewares/Third_Party/LwIP/src/core/tcp.c **** }
 172              		.loc 1 860 1 view .LVU44
 173 0052 5DF8044B 		ldr	r4, [sp], #4
 174              	.LCFI1:
 175              		.cfi_remember_state
 176              		.cfi_restore 4
 177              		.cfi_def_cfa_offset 0
 178              	.LVL17:
 179              		.loc 1 860 1 view .LVU45
 180 0056 7047     		bx	lr
 181              	.LVL18:
 182              	.L18:
 183              	.LCFI2:
 184              		.cfi_restore_state
 853:Middlewares/Third_Party/LwIP/src/core/tcp.c ****           return 0;
 185              		.loc 1 853 18 view .LVU46
 186 0058 0020     		movs	r0, #0
 187              	.LVL19:
 853:Middlewares/Third_Party/LwIP/src/core/tcp.c ****           return 0;
 188              		.loc 1 853 18 view .LVU47
 189 005a FAE7     		b	.L13
 190              	.L24:
 191              		.align	2
 192              	.L23:
 193 005c 00000000 		.word	.LANCHOR0
 194 0060 00000000 		.word	.LANCHOR1
 195              		.cfi_endproc
 196              	.LFE176:
 198              		.section	.text.tcp_listen_closed,"ax",%progbits
 199              		.align	1
 200              		.syntax unified
ARM GAS  /tmp/cc6by9MY.s 			page 20


 201              		.thumb
 202              		.thumb_func
 203              		.fpu fpv5-sp-d16
 205              	tcp_listen_closed:
 206              	.LVL20:
 207              	.LFB163:
 189:Middlewares/Third_Party/LwIP/src/core/tcp.c **** #if LWIP_CALLBACK_API || TCP_LISTEN_BACKLOG
 208              		.loc 1 189 1 is_stmt 1 view -0
 209              		.cfi_startproc
 210              		@ args = 0, pretend = 0, frame = 0
 211              		@ frame_needed = 0, uses_anonymous_args = 0
 189:Middlewares/Third_Party/LwIP/src/core/tcp.c **** #if LWIP_CALLBACK_API || TCP_LISTEN_BACKLOG
 212              		.loc 1 189 1 is_stmt 0 view .LVU49
 213 0000 38B5     		push	{r3, r4, r5, lr}
 214              	.LCFI3:
 215              		.cfi_def_cfa_offset 16
 216              		.cfi_offset 3, -16
 217              		.cfi_offset 4, -12
 218              		.cfi_offset 5, -8
 219              		.cfi_offset 14, -4
 191:Middlewares/Third_Party/LwIP/src/core/tcp.c ****   LWIP_ASSERT("pcb != NULL", pcb != NULL);
 220              		.loc 1 191 3 is_stmt 1 view .LVU50
 192:Middlewares/Third_Party/LwIP/src/core/tcp.c ****   LWIP_ASSERT("pcb->state == LISTEN", pcb->state == LISTEN);
 221              		.loc 1 192 3 view .LVU51
 192:Middlewares/Third_Party/LwIP/src/core/tcp.c ****   LWIP_ASSERT("pcb->state == LISTEN", pcb->state == LISTEN);
 222              		.loc 1 192 3 view .LVU52
 223 0002 0546     		mov	r5, r0
 224 0004 70B1     		cbz	r0, .L31
 225              	.LVL21:
 226              	.L26:
 193:Middlewares/Third_Party/LwIP/src/core/tcp.c ****   for (i = 1; i < LWIP_ARRAYSIZE(tcp_pcb_lists); i++) {
 227              		.loc 1 193 3 view .LVU53
 193:Middlewares/Third_Party/LwIP/src/core/tcp.c ****   for (i = 1; i < LWIP_ARRAYSIZE(tcp_pcb_lists); i++) {
 228              		.loc 1 193 3 view .LVU54
 229 0006 2B7D     		ldrb	r3, [r5, #20]	@ zero_extendqisi2
 230 0008 012B     		cmp	r3, #1
 231 000a 12D1     		bne	.L32
 232              	.L27:
 189:Middlewares/Third_Party/LwIP/src/core/tcp.c **** #if LWIP_CALLBACK_API || TCP_LISTEN_BACKLOG
 233              		.loc 1 189 1 is_stmt 0 discriminator 1 view .LVU55
 234 000c 0124     		movs	r4, #1
 235              	.L28:
 236              	.LVL22:
 194:Middlewares/Third_Party/LwIP/src/core/tcp.c ****     tcp_remove_listener(*tcp_pcb_lists[i], (struct tcp_pcb_listen*)pcb);
 237              		.loc 1 194 3 discriminator 1 view .LVU56
 238 000e 032C     		cmp	r4, #3
 239 0010 16D8     		bhi	.L33
 195:Middlewares/Third_Party/LwIP/src/core/tcp.c ****   }
 240              		.loc 1 195 5 is_stmt 1 discriminator 3 view .LVU57
 195:Middlewares/Third_Party/LwIP/src/core/tcp.c ****   }
 241              		.loc 1 195 39 is_stmt 0 discriminator 3 view .LVU58
 242 0012 0C4B     		ldr	r3, .L34
 243 0014 53F82430 		ldr	r3, [r3, r4, lsl #2]
 195:Middlewares/Third_Party/LwIP/src/core/tcp.c ****   }
 244              		.loc 1 195 5 discriminator 3 view .LVU59
 245 0018 2946     		mov	r1, r5
 246 001a 1868     		ldr	r0, [r3]
ARM GAS  /tmp/cc6by9MY.s 			page 21


 247 001c FFF7FEFF 		bl	tcp_remove_listener
 248              	.LVL23:
 194:Middlewares/Third_Party/LwIP/src/core/tcp.c ****     tcp_remove_listener(*tcp_pcb_lists[i], (struct tcp_pcb_listen*)pcb);
 249              		.loc 1 194 51 discriminator 3 view .LVU60
 250 0020 0134     		adds	r4, r4, #1
 251              	.LVL24:
 194:Middlewares/Third_Party/LwIP/src/core/tcp.c ****     tcp_remove_listener(*tcp_pcb_lists[i], (struct tcp_pcb_listen*)pcb);
 252              		.loc 1 194 51 discriminator 3 view .LVU61
 253 0022 F4E7     		b	.L28
 254              	.LVL25:
 255              	.L31:
 192:Middlewares/Third_Party/LwIP/src/core/tcp.c ****   LWIP_ASSERT("pcb->state == LISTEN", pcb->state == LISTEN);
 256              		.loc 1 192 3 is_stmt 1 discriminator 1 view .LVU62
 192:Middlewares/Third_Party/LwIP/src/core/tcp.c ****   LWIP_ASSERT("pcb->state == LISTEN", pcb->state == LISTEN);
 257              		.loc 1 192 3 discriminator 1 view .LVU63
 258 0024 084B     		ldr	r3, .L34+4
 259 0026 C022     		movs	r2, #192
 260 0028 0849     		ldr	r1, .L34+8
 261 002a 0948     		ldr	r0, .L34+12
 262              	.LVL26:
 192:Middlewares/Third_Party/LwIP/src/core/tcp.c ****   LWIP_ASSERT("pcb->state == LISTEN", pcb->state == LISTEN);
 263              		.loc 1 192 3 is_stmt 0 discriminator 1 view .LVU64
 264 002c FFF7FEFF 		bl	printf
 265              	.LVL27:
 266 0030 E9E7     		b	.L26
 267              	.L32:
 193:Middlewares/Third_Party/LwIP/src/core/tcp.c ****   for (i = 1; i < LWIP_ARRAYSIZE(tcp_pcb_lists); i++) {
 268              		.loc 1 193 3 is_stmt 1 discriminator 1 view .LVU65
 193:Middlewares/Third_Party/LwIP/src/core/tcp.c ****   for (i = 1; i < LWIP_ARRAYSIZE(tcp_pcb_lists); i++) {
 269              		.loc 1 193 3 discriminator 1 view .LVU66
 270 0032 054B     		ldr	r3, .L34+4
 271 0034 C122     		movs	r2, #193
 272 0036 0749     		ldr	r1, .L34+16
 273 0038 0548     		ldr	r0, .L34+12
 274 003a FFF7FEFF 		bl	printf
 275              	.LVL28:
 276 003e E5E7     		b	.L27
 277              	.LVL29:
 278              	.L33:
 199:Middlewares/Third_Party/LwIP/src/core/tcp.c **** 
 279              		.loc 1 199 1 is_stmt 0 view .LVU67
 280 0040 38BD     		pop	{r3, r4, r5, pc}
 281              	.LVL30:
 282              	.L35:
 199:Middlewares/Third_Party/LwIP/src/core/tcp.c **** 
 283              		.loc 1 199 1 view .LVU68
 284 0042 00BF     		.align	2
 285              	.L34:
 286 0044 00000000 		.word	.LANCHOR1
 287 0048 00000000 		.word	.LC0
 288 004c 2C000000 		.word	.LC1
 289 0050 38000000 		.word	.LC2
 290 0054 60000000 		.word	.LC3
 291              		.cfi_endproc
 292              	.LFE163:
 294              		.section	.text.tcp_close_shutdown_fin,"ax",%progbits
 295              		.align	1
ARM GAS  /tmp/cc6by9MY.s 			page 22


 296              		.syntax unified
 297              		.thumb
 298              		.thumb_func
 299              		.fpu fpv5-sp-d16
 301              	tcp_close_shutdown_fin:
 302              	.LVL31:
 303              	.LFB165:
 331:Middlewares/Third_Party/LwIP/src/core/tcp.c ****   err_t err;
 304              		.loc 1 331 1 is_stmt 1 view -0
 305              		.cfi_startproc
 306              		@ args = 0, pretend = 0, frame = 0
 307              		@ frame_needed = 0, uses_anonymous_args = 0
 331:Middlewares/Third_Party/LwIP/src/core/tcp.c ****   err_t err;
 308              		.loc 1 331 1 is_stmt 0 view .LVU70
 309 0000 38B5     		push	{r3, r4, r5, lr}
 310              	.LCFI4:
 311              		.cfi_def_cfa_offset 16
 312              		.cfi_offset 3, -16
 313              		.cfi_offset 4, -12
 314              		.cfi_offset 5, -8
 315              		.cfi_offset 14, -4
 332:Middlewares/Third_Party/LwIP/src/core/tcp.c ****   LWIP_ASSERT("pcb != NULL", pcb != NULL);
 316              		.loc 1 332 3 is_stmt 1 view .LVU71
 333:Middlewares/Third_Party/LwIP/src/core/tcp.c **** 
 317              		.loc 1 333 3 view .LVU72
 333:Middlewares/Third_Party/LwIP/src/core/tcp.c **** 
 318              		.loc 1 333 3 view .LVU73
 319 0002 0546     		mov	r5, r0
 320 0004 48B1     		cbz	r0, .L45
 321              	.LVL32:
 322              	.L37:
 335:Middlewares/Third_Party/LwIP/src/core/tcp.c ****   case SYN_RCVD:
 323              		.loc 1 335 3 view .LVU74
 335:Middlewares/Third_Party/LwIP/src/core/tcp.c ****   case SYN_RCVD:
 324              		.loc 1 335 14 is_stmt 0 view .LVU75
 325 0006 2B7D     		ldrb	r3, [r5, #20]	@ zero_extendqisi2
 335:Middlewares/Third_Party/LwIP/src/core/tcp.c ****   case SYN_RCVD:
 326              		.loc 1 335 3 view .LVU76
 327 0008 042B     		cmp	r3, #4
 328 000a 1FD0     		beq	.L38
 329 000c 072B     		cmp	r3, #7
 330 000e 26D0     		beq	.L39
 331 0010 032B     		cmp	r3, #3
 332 0012 0AD0     		beq	.L46
 360:Middlewares/Third_Party/LwIP/src/core/tcp.c ****   }
 333              		.loc 1 360 12 view .LVU77
 334 0014 0024     		movs	r4, #0
 335              	.L40:
 381:Middlewares/Third_Party/LwIP/src/core/tcp.c **** 
 336              		.loc 1 381 1 view .LVU78
 337 0016 2046     		mov	r0, r4
 338 0018 38BD     		pop	{r3, r4, r5, pc}
 339              	.LVL33:
 340              	.L45:
 333:Middlewares/Third_Party/LwIP/src/core/tcp.c **** 
 341              		.loc 1 333 3 is_stmt 1 discriminator 1 view .LVU79
 333:Middlewares/Third_Party/LwIP/src/core/tcp.c **** 
ARM GAS  /tmp/cc6by9MY.s 			page 23


 342              		.loc 1 333 3 discriminator 1 view .LVU80
 343 001a 174B     		ldr	r3, .L48
 344 001c 40F24D12 		movw	r2, #333
 345 0020 1649     		ldr	r1, .L48+4
 346 0022 1748     		ldr	r0, .L48+8
 347              	.LVL34:
 333:Middlewares/Third_Party/LwIP/src/core/tcp.c **** 
 348              		.loc 1 333 3 is_stmt 0 discriminator 1 view .LVU81
 349 0024 FFF7FEFF 		bl	printf
 350              	.LVL35:
 351 0028 EDE7     		b	.L37
 352              	.L46:
 337:Middlewares/Third_Party/LwIP/src/core/tcp.c ****     if (err == ERR_OK) {
 353              		.loc 1 337 5 is_stmt 1 view .LVU82
 337:Middlewares/Third_Party/LwIP/src/core/tcp.c ****     if (err == ERR_OK) {
 354              		.loc 1 337 11 is_stmt 0 view .LVU83
 355 002a 2846     		mov	r0, r5
 356 002c FFF7FEFF 		bl	tcp_send_fin
 357              	.LVL36:
 338:Middlewares/Third_Party/LwIP/src/core/tcp.c ****       tcp_backlog_accepted(pcb);
 358              		.loc 1 338 5 is_stmt 1 view .LVU84
 338:Middlewares/Third_Party/LwIP/src/core/tcp.c ****       tcp_backlog_accepted(pcb);
 359              		.loc 1 338 8 is_stmt 0 view .LVU85
 360 0030 0446     		mov	r4, r0
 361 0032 08B9     		cbnz	r0, .L41
 339:Middlewares/Third_Party/LwIP/src/core/tcp.c ****       MIB2_STATS_INC(mib2.tcpattemptfails);
 362              		.loc 1 339 32 is_stmt 1 view .LVU86
 340:Middlewares/Third_Party/LwIP/src/core/tcp.c ****       pcb->state = FIN_WAIT_1;
 363              		.loc 1 340 43 view .LVU87
 341:Middlewares/Third_Party/LwIP/src/core/tcp.c ****     }
 364              		.loc 1 341 7 view .LVU88
 341:Middlewares/Third_Party/LwIP/src/core/tcp.c ****     }
 365              		.loc 1 341 18 is_stmt 0 view .LVU89
 366 0034 0523     		movs	r3, #5
 367 0036 2B75     		strb	r3, [r5, #20]
 368              	.L41:
 369              	.LVL37:
 363:Middlewares/Third_Party/LwIP/src/core/tcp.c ****     /* To ensure all data has been sent when tcp_close returns, we have
 370              		.loc 1 363 3 is_stmt 1 view .LVU90
 363:Middlewares/Third_Party/LwIP/src/core/tcp.c ****     /* To ensure all data has been sent when tcp_close returns, we have
 371              		.loc 1 363 6 is_stmt 0 view .LVU91
 372 0038 D4B1     		cbz	r4, .L47
 370:Middlewares/Third_Party/LwIP/src/core/tcp.c ****     /* Mark this pcb for closing. Closing is retried from tcp_tmr. */
 373              		.loc 1 370 10 is_stmt 1 view .LVU92
 370:Middlewares/Third_Party/LwIP/src/core/tcp.c ****     /* Mark this pcb for closing. Closing is retried from tcp_tmr. */
 374              		.loc 1 370 13 is_stmt 0 view .LVU93
 375 003a B4F1FF3F 		cmp	r4, #-1
 376 003e EAD1     		bne	.L40
 372:Middlewares/Third_Party/LwIP/src/core/tcp.c ****     /* We have to return ERR_OK from here to indicate to the callers that this
 377              		.loc 1 372 5 is_stmt 1 view .LVU94
 372:Middlewares/Third_Party/LwIP/src/core/tcp.c ****     /* We have to return ERR_OK from here to indicate to the callers that this
 378              		.loc 1 372 16 is_stmt 0 view .LVU95
 379 0040 AB7E     		ldrb	r3, [r5, #26]	@ zero_extendqisi2
 380 0042 43F00803 		orr	r3, r3, #8
 381 0046 AB76     		strb	r3, [r5, #26]
 378:Middlewares/Third_Party/LwIP/src/core/tcp.c ****   }
 382              		.loc 1 378 5 is_stmt 1 view .LVU96
ARM GAS  /tmp/cc6by9MY.s 			page 24


 378:Middlewares/Third_Party/LwIP/src/core/tcp.c ****   }
 383              		.loc 1 378 12 is_stmt 0 view .LVU97
 384 0048 0024     		movs	r4, #0
 385              	.LVL38:
 378:Middlewares/Third_Party/LwIP/src/core/tcp.c ****   }
 386              		.loc 1 378 12 view .LVU98
 387 004a E4E7     		b	.L40
 388              	.L38:
 345:Middlewares/Third_Party/LwIP/src/core/tcp.c ****     if (err == ERR_OK) {
 389              		.loc 1 345 5 is_stmt 1 view .LVU99
 345:Middlewares/Third_Party/LwIP/src/core/tcp.c ****     if (err == ERR_OK) {
 390              		.loc 1 345 11 is_stmt 0 view .LVU100
 391 004c 2846     		mov	r0, r5
 392 004e FFF7FEFF 		bl	tcp_send_fin
 393              	.LVL39:
 346:Middlewares/Third_Party/LwIP/src/core/tcp.c ****       MIB2_STATS_INC(mib2.tcpestabresets);
 394              		.loc 1 346 5 is_stmt 1 view .LVU101
 346:Middlewares/Third_Party/LwIP/src/core/tcp.c ****       MIB2_STATS_INC(mib2.tcpestabresets);
 395              		.loc 1 346 8 is_stmt 0 view .LVU102
 396 0052 0446     		mov	r4, r0
 397 0054 0028     		cmp	r0, #0
 398 0056 EFD1     		bne	.L41
 347:Middlewares/Third_Party/LwIP/src/core/tcp.c ****       pcb->state = FIN_WAIT_1;
 399              		.loc 1 347 42 is_stmt 1 view .LVU103
 348:Middlewares/Third_Party/LwIP/src/core/tcp.c ****     }
 400              		.loc 1 348 7 view .LVU104
 348:Middlewares/Third_Party/LwIP/src/core/tcp.c ****     }
 401              		.loc 1 348 18 is_stmt 0 view .LVU105
 402 0058 0523     		movs	r3, #5
 403 005a 2B75     		strb	r3, [r5, #20]
 404 005c ECE7     		b	.L41
 405              	.LVL40:
 406              	.L39:
 352:Middlewares/Third_Party/LwIP/src/core/tcp.c ****     if (err == ERR_OK) {
 407              		.loc 1 352 5 is_stmt 1 view .LVU106
 352:Middlewares/Third_Party/LwIP/src/core/tcp.c ****     if (err == ERR_OK) {
 408              		.loc 1 352 11 is_stmt 0 view .LVU107
 409 005e 2846     		mov	r0, r5
 410 0060 FFF7FEFF 		bl	tcp_send_fin
 411              	.LVL41:
 353:Middlewares/Third_Party/LwIP/src/core/tcp.c ****       MIB2_STATS_INC(mib2.tcpestabresets);
 412              		.loc 1 353 5 is_stmt 1 view .LVU108
 353:Middlewares/Third_Party/LwIP/src/core/tcp.c ****       MIB2_STATS_INC(mib2.tcpestabresets);
 413              		.loc 1 353 8 is_stmt 0 view .LVU109
 414 0064 0446     		mov	r4, r0
 415 0066 0028     		cmp	r0, #0
 416 0068 E6D1     		bne	.L41
 354:Middlewares/Third_Party/LwIP/src/core/tcp.c ****       pcb->state = LAST_ACK;
 417              		.loc 1 354 42 is_stmt 1 view .LVU110
 355:Middlewares/Third_Party/LwIP/src/core/tcp.c ****     }
 418              		.loc 1 355 7 view .LVU111
 355:Middlewares/Third_Party/LwIP/src/core/tcp.c ****     }
 419              		.loc 1 355 18 is_stmt 0 view .LVU112
 420 006a 0923     		movs	r3, #9
 421 006c 2B75     		strb	r3, [r5, #20]
 422 006e E3E7     		b	.L41
 423              	.LVL42:
ARM GAS  /tmp/cc6by9MY.s 			page 25


 424              	.L47:
 369:Middlewares/Third_Party/LwIP/src/core/tcp.c ****   } else if (err == ERR_MEM) {
 425              		.loc 1 369 5 is_stmt 1 view .LVU113
 426 0070 2846     		mov	r0, r5
 427 0072 FFF7FEFF 		bl	tcp_output
 428              	.LVL43:
 429 0076 CEE7     		b	.L40
 430              	.L49:
 431              		.align	2
 432              	.L48:
 433 0078 00000000 		.word	.LC0
 434 007c 2C000000 		.word	.LC1
 435 0080 38000000 		.word	.LC2
 436              		.cfi_endproc
 437              	.LFE165:
 439              		.section	.text.tcp_init,"ax",%progbits
 440              		.align	1
 441              		.global	tcp_init
 442              		.syntax unified
 443              		.thumb
 444              		.thumb_func
 445              		.fpu fpv5-sp-d16
 447              	tcp_init:
 448              	.LFB160:
 146:Middlewares/Third_Party/LwIP/src/core/tcp.c **** #if LWIP_RANDOMIZE_INITIAL_LOCAL_PORTS && defined(LWIP_RAND)
 449              		.loc 1 146 1 view -0
 450              		.cfi_startproc
 451              		@ args = 0, pretend = 0, frame = 0
 452              		@ frame_needed = 0, uses_anonymous_args = 0
 453              		@ link register save eliminated.
 150:Middlewares/Third_Party/LwIP/src/core/tcp.c **** 
 454              		.loc 1 150 1 view .LVU115
 455 0000 7047     		bx	lr
 456              		.cfi_endproc
 457              	.LFE160:
 459              		.section	.text.tcp_bind,"ax",%progbits
 460              		.align	1
 461              		.global	tcp_bind
 462              		.syntax unified
 463              		.thumb
 464              		.thumb_func
 465              		.fpu fpv5-sp-d16
 467              	tcp_bind:
 468              	.LVL44:
 469              	.LFB170:
 563:Middlewares/Third_Party/LwIP/src/core/tcp.c ****   int i;
 470              		.loc 1 563 1 view -0
 471              		.cfi_startproc
 472              		@ args = 0, pretend = 0, frame = 0
 473              		@ frame_needed = 0, uses_anonymous_args = 0
 563:Middlewares/Third_Party/LwIP/src/core/tcp.c ****   int i;
 474              		.loc 1 563 1 is_stmt 0 view .LVU117
 475 0000 70B5     		push	{r4, r5, r6, lr}
 476              	.LCFI5:
 477              		.cfi_def_cfa_offset 16
 478              		.cfi_offset 4, -16
 479              		.cfi_offset 5, -12
ARM GAS  /tmp/cc6by9MY.s 			page 26


 480              		.cfi_offset 6, -8
 481              		.cfi_offset 14, -4
 482 0002 0546     		mov	r5, r0
 564:Middlewares/Third_Party/LwIP/src/core/tcp.c ****   int max_pcb_list = NUM_TCP_PCB_LISTS;
 483              		.loc 1 564 3 is_stmt 1 view .LVU118
 565:Middlewares/Third_Party/LwIP/src/core/tcp.c ****   struct tcp_pcb *cpcb;
 484              		.loc 1 565 3 view .LVU119
 485              	.LVL45:
 566:Middlewares/Third_Party/LwIP/src/core/tcp.c **** 
 486              		.loc 1 566 3 view .LVU120
 570:Middlewares/Third_Party/LwIP/src/core/tcp.c ****     ipaddr = IP4_ADDR_ANY;
 487              		.loc 1 570 3 view .LVU121
 570:Middlewares/Third_Party/LwIP/src/core/tcp.c ****     ipaddr = IP4_ADDR_ANY;
 488              		.loc 1 570 6 is_stmt 0 view .LVU122
 489 0004 0C46     		mov	r4, r1
 490 0006 91B1     		cbz	r1, .L72
 491              	.L52:
 492              	.LVL46:
 576:Middlewares/Third_Party/LwIP/src/core/tcp.c ****     return ERR_VAL;
 493              		.loc 1 576 3 is_stmt 1 view .LVU123
 576:Middlewares/Third_Party/LwIP/src/core/tcp.c ****     return ERR_VAL;
 494              		.loc 1 576 32 is_stmt 0 view .LVU124
 495 0008 B4FA84F3 		clz	r3, r4
 496 000c 5B09     		lsrs	r3, r3, #5
 576:Middlewares/Third_Party/LwIP/src/core/tcp.c ****     return ERR_VAL;
 497              		.loc 1 576 21 view .LVU125
 498 000e 002D     		cmp	r5, #0
 499 0010 08BF     		it	eq
 500 0012 0123     		moveq	r3, #1
 576:Middlewares/Third_Party/LwIP/src/core/tcp.c ****     return ERR_VAL;
 501              		.loc 1 576 6 view .LVU126
 502 0014 002B     		cmp	r3, #0
 503 0016 39D1     		bne	.L63
 580:Middlewares/Third_Party/LwIP/src/core/tcp.c **** 
 504              		.loc 1 580 3 is_stmt 1 view .LVU127
 580:Middlewares/Third_Party/LwIP/src/core/tcp.c **** 
 505              		.loc 1 580 3 view .LVU128
 506 0018 2B7D     		ldrb	r3, [r5, #20]	@ zero_extendqisi2
 507 001a 53B9     		cbnz	r3, .L73
 593:Middlewares/Third_Party/LwIP/src/core/tcp.c ****     port = tcp_new_port();
 508              		.loc 1 593 3 view .LVU129
 593:Middlewares/Third_Party/LwIP/src/core/tcp.c ****     port = tcp_new_port();
 509              		.loc 1 593 6 is_stmt 0 view .LVU130
 510 001c 9AB1     		cbz	r2, .L74
 600:Middlewares/Third_Party/LwIP/src/core/tcp.c ****       for (cpcb = *tcp_pcb_lists[i]; cpcb != NULL; cpcb = cpcb->next) {
 511              		.loc 1 600 12 view .LVU131
 512 001e 0026     		movs	r6, #0
 513              	.LVL47:
 514              	.L55:
 600:Middlewares/Third_Party/LwIP/src/core/tcp.c ****       for (cpcb = *tcp_pcb_lists[i]; cpcb != NULL; cpcb = cpcb->next) {
 515              		.loc 1 600 5 discriminator 1 view .LVU132
 516 0020 032E     		cmp	r6, #3
 517 0022 14DC     		bgt	.L56
 601:Middlewares/Third_Party/LwIP/src/core/tcp.c ****         if (cpcb->local_port == port) {
 518              		.loc 1 601 7 is_stmt 1 view .LVU133
 601:Middlewares/Third_Party/LwIP/src/core/tcp.c ****         if (cpcb->local_port == port) {
 519              		.loc 1 601 33 is_stmt 0 view .LVU134
ARM GAS  /tmp/cc6by9MY.s 			page 27


 520 0024 224B     		ldr	r3, .L77
 521 0026 53F82630 		ldr	r3, [r3, r6, lsl #2]
 601:Middlewares/Third_Party/LwIP/src/core/tcp.c ****         if (cpcb->local_port == port) {
 522              		.loc 1 601 17 view .LVU135
 523 002a 1B68     		ldr	r3, [r3]
 524              	.LVL48:
 601:Middlewares/Third_Party/LwIP/src/core/tcp.c ****         if (cpcb->local_port == port) {
 525              		.loc 1 601 7 view .LVU136
 526 002c 1DE0     		b	.L57
 527              	.LVL49:
 528              	.L72:
 571:Middlewares/Third_Party/LwIP/src/core/tcp.c ****   }
 529              		.loc 1 571 12 view .LVU137
 530 002e 214C     		ldr	r4, .L77+4
 531 0030 EAE7     		b	.L52
 532              	.LVL50:
 533              	.L73:
 580:Middlewares/Third_Party/LwIP/src/core/tcp.c **** 
 534              		.loc 1 580 3 is_stmt 1 discriminator 1 view .LVU138
 580:Middlewares/Third_Party/LwIP/src/core/tcp.c **** 
 535              		.loc 1 580 3 discriminator 1 view .LVU139
 536 0032 214B     		ldr	r3, .L77+8
 537 0034 4FF41172 		mov	r2, #580
 538              	.LVL51:
 580:Middlewares/Third_Party/LwIP/src/core/tcp.c **** 
 539              		.loc 1 580 3 is_stmt 0 discriminator 1 view .LVU140
 540 0038 2049     		ldr	r1, .L77+12
 541 003a 2148     		ldr	r0, .L77+16
 542              	.LVL52:
 580:Middlewares/Third_Party/LwIP/src/core/tcp.c **** 
 543              		.loc 1 580 3 discriminator 1 view .LVU141
 544 003c FFF7FEFF 		bl	printf
 545              	.LVL53:
 580:Middlewares/Third_Party/LwIP/src/core/tcp.c **** 
 546              		.loc 1 580 3 is_stmt 1 discriminator 1 view .LVU142
 547 0040 6FF00500 		mvn	r0, #5
 548 0044 0FE0     		b	.L53
 549              	.LVL54:
 550              	.L74:
 594:Middlewares/Third_Party/LwIP/src/core/tcp.c ****     if (port == 0) {
 551              		.loc 1 594 5 view .LVU143
 594:Middlewares/Third_Party/LwIP/src/core/tcp.c ****     if (port == 0) {
 552              		.loc 1 594 12 is_stmt 0 view .LVU144
 553 0046 FFF7FEFF 		bl	tcp_new_port
 554              	.LVL55:
 595:Middlewares/Third_Party/LwIP/src/core/tcp.c ****       return ERR_BUF;
 555              		.loc 1 595 5 is_stmt 1 view .LVU145
 595:Middlewares/Third_Party/LwIP/src/core/tcp.c ****       return ERR_BUF;
 556              		.loc 1 595 8 is_stmt 0 view .LVU146
 557 004a 0246     		mov	r2, r0
 558 004c 08B3     		cbz	r0, .L75
 559              	.LVL56:
 560              	.L56:
 624:Middlewares/Third_Party/LwIP/src/core/tcp.c ****     ip_addr_set(&pcb->local_ip, ipaddr);
 561              		.loc 1 624 3 is_stmt 1 view .LVU147
 624:Middlewares/Third_Party/LwIP/src/core/tcp.c ****     ip_addr_set(&pcb->local_ip, ipaddr);
 562              		.loc 1 624 6 is_stmt 0 view .LVU148
ARM GAS  /tmp/cc6by9MY.s 			page 28


 563 004e 14B1     		cbz	r4, .L61
 624:Middlewares/Third_Party/LwIP/src/core/tcp.c ****     ip_addr_set(&pcb->local_ip, ipaddr);
 564              		.loc 1 624 8 discriminator 1 view .LVU149
 565 0050 2368     		ldr	r3, [r4]
 624:Middlewares/Third_Party/LwIP/src/core/tcp.c ****     ip_addr_set(&pcb->local_ip, ipaddr);
 566              		.loc 1 624 7 discriminator 1 view .LVU150
 567 0052 03B1     		cbz	r3, .L61
 625:Middlewares/Third_Party/LwIP/src/core/tcp.c ****   }
 568              		.loc 1 625 5 is_stmt 1 discriminator 4 view .LVU151
 569 0054 2B60     		str	r3, [r5]
 570              	.L61:
 627:Middlewares/Third_Party/LwIP/src/core/tcp.c ****   TCP_REG(&tcp_bound_pcbs, pcb);
 571              		.loc 1 627 3 view .LVU152
 627:Middlewares/Third_Party/LwIP/src/core/tcp.c ****   TCP_REG(&tcp_bound_pcbs, pcb);
 572              		.loc 1 627 19 is_stmt 0 view .LVU153
 573 0056 EA82     		strh	r2, [r5, #22]	@ movhi
 628:Middlewares/Third_Party/LwIP/src/core/tcp.c ****   LWIP_DEBUGF(TCP_DEBUG, ("tcp_bind: bind to port %"U16_F"\n", port));
 574              		.loc 1 628 3 is_stmt 1 view .LVU154
 628:Middlewares/Third_Party/LwIP/src/core/tcp.c ****   LWIP_DEBUGF(TCP_DEBUG, ("tcp_bind: bind to port %"U16_F"\n", port));
 575              		.loc 1 628 3 view .LVU155
 576 0058 1A4B     		ldr	r3, .L77+20
 577 005a 1A68     		ldr	r2, [r3]
 578              	.LVL57:
 628:Middlewares/Third_Party/LwIP/src/core/tcp.c ****   LWIP_DEBUGF(TCP_DEBUG, ("tcp_bind: bind to port %"U16_F"\n", port));
 579              		.loc 1 628 3 is_stmt 0 view .LVU156
 580 005c EA60     		str	r2, [r5, #12]
 628:Middlewares/Third_Party/LwIP/src/core/tcp.c ****   LWIP_DEBUGF(TCP_DEBUG, ("tcp_bind: bind to port %"U16_F"\n", port));
 581              		.loc 1 628 3 is_stmt 1 view .LVU157
 582 005e 1D60     		str	r5, [r3]
 628:Middlewares/Third_Party/LwIP/src/core/tcp.c ****   LWIP_DEBUGF(TCP_DEBUG, ("tcp_bind: bind to port %"U16_F"\n", port));
 583              		.loc 1 628 3 view .LVU158
 584 0060 FFF7FEFF 		bl	tcp_timer_needed
 585              	.LVL58:
 629:Middlewares/Third_Party/LwIP/src/core/tcp.c ****   return ERR_OK;
 586              		.loc 1 629 70 view .LVU159
 630:Middlewares/Third_Party/LwIP/src/core/tcp.c **** }
 587              		.loc 1 630 3 view .LVU160
 630:Middlewares/Third_Party/LwIP/src/core/tcp.c **** }
 588              		.loc 1 630 10 is_stmt 0 view .LVU161
 589 0064 0020     		movs	r0, #0
 590              	.L53:
 631:Middlewares/Third_Party/LwIP/src/core/tcp.c **** #if LWIP_CALLBACK_API
 591              		.loc 1 631 1 view .LVU162
 592 0066 70BD     		pop	{r4, r5, r6, pc}
 593              	.LVL59:
 594              	.L58:
 601:Middlewares/Third_Party/LwIP/src/core/tcp.c ****         if (cpcb->local_port == port) {
 595              		.loc 1 601 57 discriminator 2 view .LVU163
 596 0068 DB68     		ldr	r3, [r3, #12]
 597              	.LVL60:
 598              	.L57:
 601:Middlewares/Third_Party/LwIP/src/core/tcp.c ****         if (cpcb->local_port == port) {
 599              		.loc 1 601 7 discriminator 1 view .LVU164
 600 006a 6BB1     		cbz	r3, .L76
 602:Middlewares/Third_Party/LwIP/src/core/tcp.c **** #if SO_REUSE
 601              		.loc 1 602 9 is_stmt 1 view .LVU165
 602:Middlewares/Third_Party/LwIP/src/core/tcp.c **** #if SO_REUSE
ARM GAS  /tmp/cc6by9MY.s 			page 29


 602              		.loc 1 602 17 is_stmt 0 view .LVU166
 603 006c D98A     		ldrh	r1, [r3, #22]
 602:Middlewares/Third_Party/LwIP/src/core/tcp.c **** #if SO_REUSE
 604              		.loc 1 602 12 view .LVU167
 605 006e 9142     		cmp	r1, r2
 606 0070 FAD1     		bne	.L58
 612:Middlewares/Third_Party/LwIP/src/core/tcp.c ****                 (ip_addr_isany(&cpcb->local_ip) ||
 607              		.loc 1 612 13 is_stmt 1 view .LVU168
 612:Middlewares/Third_Party/LwIP/src/core/tcp.c ****                 (ip_addr_isany(&cpcb->local_ip) ||
 608              		.loc 1 612 16 is_stmt 0 view .LVU169
 609 0072 8BB1     		cbz	r3, .L66
 613:Middlewares/Third_Party/LwIP/src/core/tcp.c ****                 ip_addr_isany(ipaddr) ||
 610              		.loc 1 613 18 view .LVU170
 611 0074 1968     		ldr	r1, [r3]
 612 0076 91B1     		cbz	r1, .L67
 613:Middlewares/Third_Party/LwIP/src/core/tcp.c ****                 ip_addr_isany(ipaddr) ||
 613              		.loc 1 613 49 discriminator 1 view .LVU171
 614 0078 A4B1     		cbz	r4, .L68
 614:Middlewares/Third_Party/LwIP/src/core/tcp.c ****                 ip_addr_cmp(&cpcb->local_ip, ipaddr))) {
 615              		.loc 1 614 17 view .LVU172
 616 007a 2068     		ldr	r0, [r4]
 617 007c A8B1     		cbz	r0, .L69
 612:Middlewares/Third_Party/LwIP/src/core/tcp.c ****                 (ip_addr_isany(&cpcb->local_ip) ||
 618              		.loc 1 612 68 view .LVU173
 619 007e 8142     		cmp	r1, r0
 620 0080 F2D1     		bne	.L58
 616:Middlewares/Third_Party/LwIP/src/core/tcp.c ****             }
 621              		.loc 1 616 22 view .LVU174
 622 0082 6FF00700 		mvn	r0, #7
 623 0086 EEE7     		b	.L53
 624              	.L76:
 600:Middlewares/Third_Party/LwIP/src/core/tcp.c ****       for (cpcb = *tcp_pcb_lists[i]; cpcb != NULL; cpcb = cpcb->next) {
 625              		.loc 1 600 36 discriminator 2 view .LVU175
 626 0088 0136     		adds	r6, r6, #1
 627              	.LVL61:
 600:Middlewares/Third_Party/LwIP/src/core/tcp.c ****       for (cpcb = *tcp_pcb_lists[i]; cpcb != NULL; cpcb = cpcb->next) {
 628              		.loc 1 600 36 discriminator 2 view .LVU176
 629 008a C9E7     		b	.L55
 630              	.LVL62:
 631              	.L63:
 577:Middlewares/Third_Party/LwIP/src/core/tcp.c ****   }
 632              		.loc 1 577 12 view .LVU177
 633 008c 6FF00500 		mvn	r0, #5
 634              	.LVL63:
 577:Middlewares/Third_Party/LwIP/src/core/tcp.c ****   }
 635              		.loc 1 577 12 view .LVU178
 636 0090 E9E7     		b	.L53
 637              	.LVL64:
 638              	.L75:
 596:Middlewares/Third_Party/LwIP/src/core/tcp.c ****     }
 639              		.loc 1 596 14 view .LVU179
 640 0092 6FF00100 		mvn	r0, #1
 641              	.LVL65:
 596:Middlewares/Third_Party/LwIP/src/core/tcp.c ****     }
 642              		.loc 1 596 14 view .LVU180
 643 0096 E6E7     		b	.L53
 644              	.LVL66:
ARM GAS  /tmp/cc6by9MY.s 			page 30


 645              	.L66:
 616:Middlewares/Third_Party/LwIP/src/core/tcp.c ****             }
 646              		.loc 1 616 22 view .LVU181
 647 0098 6FF00700 		mvn	r0, #7
 648 009c E3E7     		b	.L53
 649              	.L67:
 650 009e 6FF00700 		mvn	r0, #7
 651 00a2 E0E7     		b	.L53
 652              	.L68:
 653 00a4 6FF00700 		mvn	r0, #7
 654 00a8 DDE7     		b	.L53
 655              	.L69:
 616:Middlewares/Third_Party/LwIP/src/core/tcp.c ****             }
 656              		.loc 1 616 22 view .LVU182
 657 00aa 6FF00700 		mvn	r0, #7
 658 00ae DAE7     		b	.L53
 659              	.L78:
 660              		.align	2
 661              	.L77:
 662 00b0 00000000 		.word	.LANCHOR1
 663 00b4 00000000 		.word	ip_addr_any
 664 00b8 00000000 		.word	.LC0
 665 00bc 00000000 		.word	.LC4
 666 00c0 38000000 		.word	.LC2
 667 00c4 00000000 		.word	tcp_bound_pcbs
 668              		.cfi_endproc
 669              	.LFE170:
 671              		.section	.text.tcp_listen_with_backlog_and_err,"ax",%progbits
 672              		.align	1
 673              		.global	tcp_listen_with_backlog_and_err
 674              		.syntax unified
 675              		.thumb
 676              		.thumb_func
 677              		.fpu fpv5-sp-d16
 679              	tcp_listen_with_backlog_and_err:
 680              	.LVL67:
 681              	.LFB173:
 687:Middlewares/Third_Party/LwIP/src/core/tcp.c ****   struct tcp_pcb_listen *lpcb = NULL;
 682              		.loc 1 687 1 is_stmt 1 view -0
 683              		.cfi_startproc
 684              		@ args = 0, pretend = 0, frame = 0
 685              		@ frame_needed = 0, uses_anonymous_args = 0
 687:Middlewares/Third_Party/LwIP/src/core/tcp.c ****   struct tcp_pcb_listen *lpcb = NULL;
 686              		.loc 1 687 1 is_stmt 0 view .LVU184
 687 0000 70B5     		push	{r4, r5, r6, lr}
 688              	.LCFI6:
 689              		.cfi_def_cfa_offset 16
 690              		.cfi_offset 4, -16
 691              		.cfi_offset 5, -12
 692              		.cfi_offset 6, -8
 693              		.cfi_offset 14, -4
 694 0002 1646     		mov	r6, r2
 688:Middlewares/Third_Party/LwIP/src/core/tcp.c ****   err_t res;
 695              		.loc 1 688 3 is_stmt 1 view .LVU185
 696              	.LVL68:
 689:Middlewares/Third_Party/LwIP/src/core/tcp.c **** 
 697              		.loc 1 689 3 view .LVU186
ARM GAS  /tmp/cc6by9MY.s 			page 31


 691:Middlewares/Third_Party/LwIP/src/core/tcp.c ****   LWIP_ERROR("tcp_listen: pcb already connected", pcb->state == CLOSED, res = ERR_CLSD; goto done);
 698              		.loc 1 691 3 view .LVU187
 692:Middlewares/Third_Party/LwIP/src/core/tcp.c **** 
 699              		.loc 1 692 3 view .LVU188
 692:Middlewares/Third_Party/LwIP/src/core/tcp.c **** 
 700              		.loc 1 692 3 view .LVU189
 701 0004 037D     		ldrb	r3, [r0, #20]	@ zero_extendqisi2
 702 0006 23BB     		cbnz	r3, .L91
 703 0008 0446     		mov	r4, r0
 695:Middlewares/Third_Party/LwIP/src/core/tcp.c ****     lpcb = (struct tcp_pcb_listen*)pcb;
 704              		.loc 1 695 3 view .LVU190
 695:Middlewares/Third_Party/LwIP/src/core/tcp.c ****     lpcb = (struct tcp_pcb_listen*)pcb;
 705              		.loc 1 695 6 is_stmt 0 view .LVU191
 706 000a 012B     		cmp	r3, #1
 707 000c 45D0     		beq	.L87
 716:Middlewares/Third_Party/LwIP/src/core/tcp.c ****   if (lpcb == NULL) {
 708              		.loc 1 716 3 is_stmt 1 view .LVU192
 716:Middlewares/Third_Party/LwIP/src/core/tcp.c ****   if (lpcb == NULL) {
 709              		.loc 1 716 35 is_stmt 0 view .LVU193
 710 000e 0220     		movs	r0, #2
 711              	.LVL69:
 716:Middlewares/Third_Party/LwIP/src/core/tcp.c ****   if (lpcb == NULL) {
 712              		.loc 1 716 35 view .LVU194
 713 0010 FFF7FEFF 		bl	memp_malloc
 714              	.LVL70:
 717:Middlewares/Third_Party/LwIP/src/core/tcp.c ****     res = ERR_MEM;
 715              		.loc 1 717 3 is_stmt 1 view .LVU195
 717:Middlewares/Third_Party/LwIP/src/core/tcp.c ****     res = ERR_MEM;
 716              		.loc 1 717 6 is_stmt 0 view .LVU196
 717 0014 0546     		mov	r5, r0
 718 0016 0028     		cmp	r0, #0
 719 0018 43D0     		beq	.L88
 721:Middlewares/Third_Party/LwIP/src/core/tcp.c ****   lpcb->local_port = pcb->local_port;
 720              		.loc 1 721 3 is_stmt 1 view .LVU197
 721:Middlewares/Third_Party/LwIP/src/core/tcp.c ****   lpcb->local_port = pcb->local_port;
 721              		.loc 1 721 27 is_stmt 0 view .LVU198
 722 001a 2369     		ldr	r3, [r4, #16]
 721:Middlewares/Third_Party/LwIP/src/core/tcp.c ****   lpcb->local_port = pcb->local_port;
 723              		.loc 1 721 22 view .LVU199
 724 001c 0361     		str	r3, [r0, #16]
 722:Middlewares/Third_Party/LwIP/src/core/tcp.c ****   lpcb->state = LISTEN;
 725              		.loc 1 722 3 is_stmt 1 view .LVU200
 722:Middlewares/Third_Party/LwIP/src/core/tcp.c ****   lpcb->state = LISTEN;
 726              		.loc 1 722 25 is_stmt 0 view .LVU201
 727 001e E38A     		ldrh	r3, [r4, #22]
 722:Middlewares/Third_Party/LwIP/src/core/tcp.c ****   lpcb->state = LISTEN;
 728              		.loc 1 722 20 view .LVU202
 729 0020 C382     		strh	r3, [r0, #22]	@ movhi
 723:Middlewares/Third_Party/LwIP/src/core/tcp.c ****   lpcb->prio = pcb->prio;
 730              		.loc 1 723 3 is_stmt 1 view .LVU203
 723:Middlewares/Third_Party/LwIP/src/core/tcp.c ****   lpcb->prio = pcb->prio;
 731              		.loc 1 723 15 is_stmt 0 view .LVU204
 732 0022 0123     		movs	r3, #1
 733 0024 0375     		strb	r3, [r0, #20]
 724:Middlewares/Third_Party/LwIP/src/core/tcp.c ****   lpcb->so_options = pcb->so_options;
 734              		.loc 1 724 3 is_stmt 1 view .LVU205
 724:Middlewares/Third_Party/LwIP/src/core/tcp.c ****   lpcb->so_options = pcb->so_options;
ARM GAS  /tmp/cc6by9MY.s 			page 32


 735              		.loc 1 724 19 is_stmt 0 view .LVU206
 736 0026 637D     		ldrb	r3, [r4, #21]	@ zero_extendqisi2
 724:Middlewares/Third_Party/LwIP/src/core/tcp.c ****   lpcb->so_options = pcb->so_options;
 737              		.loc 1 724 14 view .LVU207
 738 0028 4375     		strb	r3, [r0, #21]
 725:Middlewares/Third_Party/LwIP/src/core/tcp.c ****   lpcb->ttl = pcb->ttl;
 739              		.loc 1 725 3 is_stmt 1 view .LVU208
 725:Middlewares/Third_Party/LwIP/src/core/tcp.c ****   lpcb->ttl = pcb->ttl;
 740              		.loc 1 725 25 is_stmt 0 view .LVU209
 741 002a 237A     		ldrb	r3, [r4, #8]	@ zero_extendqisi2
 725:Middlewares/Third_Party/LwIP/src/core/tcp.c ****   lpcb->ttl = pcb->ttl;
 742              		.loc 1 725 20 view .LVU210
 743 002c 0372     		strb	r3, [r0, #8]
 726:Middlewares/Third_Party/LwIP/src/core/tcp.c ****   lpcb->tos = pcb->tos;
 744              		.loc 1 726 3 is_stmt 1 view .LVU211
 726:Middlewares/Third_Party/LwIP/src/core/tcp.c ****   lpcb->tos = pcb->tos;
 745              		.loc 1 726 18 is_stmt 0 view .LVU212
 746 002e A37A     		ldrb	r3, [r4, #10]	@ zero_extendqisi2
 726:Middlewares/Third_Party/LwIP/src/core/tcp.c ****   lpcb->tos = pcb->tos;
 747              		.loc 1 726 13 view .LVU213
 748 0030 8372     		strb	r3, [r0, #10]
 727:Middlewares/Third_Party/LwIP/src/core/tcp.c **** #if LWIP_IPV4 && LWIP_IPV6
 749              		.loc 1 727 3 is_stmt 1 view .LVU214
 727:Middlewares/Third_Party/LwIP/src/core/tcp.c **** #if LWIP_IPV4 && LWIP_IPV6
 750              		.loc 1 727 18 is_stmt 0 view .LVU215
 751 0032 637A     		ldrb	r3, [r4, #9]	@ zero_extendqisi2
 727:Middlewares/Third_Party/LwIP/src/core/tcp.c **** #if LWIP_IPV4 && LWIP_IPV6
 752              		.loc 1 727 13 view .LVU216
 753 0034 4372     		strb	r3, [r0, #9]
 731:Middlewares/Third_Party/LwIP/src/core/tcp.c ****   if (pcb->local_port != 0) {
 754              		.loc 1 731 3 is_stmt 1 view .LVU217
 755 0036 2368     		ldr	r3, [r4]
 756 0038 0360     		str	r3, [r0]
 732:Middlewares/Third_Party/LwIP/src/core/tcp.c ****     TCP_RMV(&tcp_bound_pcbs, pcb);
 757              		.loc 1 732 3 view .LVU218
 732:Middlewares/Third_Party/LwIP/src/core/tcp.c ****     TCP_RMV(&tcp_bound_pcbs, pcb);
 758              		.loc 1 732 10 is_stmt 0 view .LVU219
 759 003a E38A     		ldrh	r3, [r4, #22]
 732:Middlewares/Third_Party/LwIP/src/core/tcp.c ****     TCP_RMV(&tcp_bound_pcbs, pcb);
 760              		.loc 1 732 6 view .LVU220
 761 003c E3B1     		cbz	r3, .L82
 733:Middlewares/Third_Party/LwIP/src/core/tcp.c ****   }
 762              		.loc 1 733 5 is_stmt 1 view .LVU221
 733:Middlewares/Third_Party/LwIP/src/core/tcp.c ****   }
 763              		.loc 1 733 5 view .LVU222
 764 003e 1A4B     		ldr	r3, .L94
 765 0040 1B68     		ldr	r3, [r3]
 766 0042 A342     		cmp	r3, r4
 767 0044 10D0     		beq	.L92
 768              	.L83:
 769              	.LVL71:
 770              	.LBB2:
 733:Middlewares/Third_Party/LwIP/src/core/tcp.c ****   }
 771              		.loc 1 733 5 is_stmt 0 discriminator 8 view .LVU223
 772 0046 ABB1     		cbz	r3, .L84
 733:Middlewares/Third_Party/LwIP/src/core/tcp.c ****   }
 773              		.loc 1 733 5 is_stmt 1 discriminator 9 view .LVU224
ARM GAS  /tmp/cc6by9MY.s 			page 33


 774 0048 DA68     		ldr	r2, [r3, #12]
 775 004a A242     		cmp	r2, r4
 776 004c 10D0     		beq	.L93
 733:Middlewares/Third_Party/LwIP/src/core/tcp.c ****   }
 777              		.loc 1 733 5 is_stmt 0 view .LVU225
 778 004e 1346     		mov	r3, r2
 779              	.LVL72:
 733:Middlewares/Third_Party/LwIP/src/core/tcp.c ****   }
 780              		.loc 1 733 5 view .LVU226
 781 0050 F9E7     		b	.L83
 782              	.LVL73:
 783              	.L91:
 733:Middlewares/Third_Party/LwIP/src/core/tcp.c ****   }
 784              		.loc 1 733 5 view .LVU227
 785              	.LBE2:
 692:Middlewares/Third_Party/LwIP/src/core/tcp.c **** 
 786              		.loc 1 692 3 is_stmt 1 discriminator 1 view .LVU228
 692:Middlewares/Third_Party/LwIP/src/core/tcp.c **** 
 787              		.loc 1 692 3 discriminator 1 view .LVU229
 788 0052 164B     		ldr	r3, .L94+4
 789 0054 4FF42D72 		mov	r2, #692
 790              	.LVL74:
 692:Middlewares/Third_Party/LwIP/src/core/tcp.c **** 
 791              		.loc 1 692 3 is_stmt 0 discriminator 1 view .LVU230
 792 0058 1549     		ldr	r1, .L94+8
 793              	.LVL75:
 692:Middlewares/Third_Party/LwIP/src/core/tcp.c **** 
 794              		.loc 1 692 3 discriminator 1 view .LVU231
 795 005a 1648     		ldr	r0, .L94+12
 796              	.LVL76:
 692:Middlewares/Third_Party/LwIP/src/core/tcp.c **** 
 797              		.loc 1 692 3 discriminator 1 view .LVU232
 798 005c FFF7FEFF 		bl	printf
 799              	.LVL77:
 692:Middlewares/Third_Party/LwIP/src/core/tcp.c **** 
 800              		.loc 1 692 3 is_stmt 1 discriminator 1 view .LVU233
 692:Middlewares/Third_Party/LwIP/src/core/tcp.c **** 
 801              		.loc 1 692 3 discriminator 1 view .LVU234
 802 0060 6FF00E03 		mvn	r3, #14
 688:Middlewares/Third_Party/LwIP/src/core/tcp.c ****   err_t res;
 803              		.loc 1 688 26 is_stmt 0 discriminator 1 view .LVU235
 804 0064 0025     		movs	r5, #0
 692:Middlewares/Third_Party/LwIP/src/core/tcp.c **** 
 805              		.loc 1 692 3 discriminator 1 view .LVU236
 806 0066 14E0     		b	.L81
 807              	.LVL78:
 808              	.L92:
 733:Middlewares/Third_Party/LwIP/src/core/tcp.c ****   }
 809              		.loc 1 733 5 is_stmt 1 discriminator 1 view .LVU237
 810 0068 DA68     		ldr	r2, [r3, #12]
 811 006a 0F4B     		ldr	r3, .L94
 812 006c 1A60     		str	r2, [r3]
 813 006e 01E0     		b	.L84
 814              	.LVL79:
 815              	.L93:
 816              	.LBB3:
 733:Middlewares/Third_Party/LwIP/src/core/tcp.c ****   }
ARM GAS  /tmp/cc6by9MY.s 			page 34


 817              		.loc 1 733 5 discriminator 5 view .LVU238
 818 0070 E268     		ldr	r2, [r4, #12]
 819 0072 DA60     		str	r2, [r3, #12]
 733:Middlewares/Third_Party/LwIP/src/core/tcp.c ****   }
 820              		.loc 1 733 5 discriminator 5 view .LVU239
 821              	.LVL80:
 822              	.L84:
 733:Middlewares/Third_Party/LwIP/src/core/tcp.c ****   }
 823              		.loc 1 733 5 is_stmt 0 discriminator 5 view .LVU240
 824              	.LBE3:
 733:Middlewares/Third_Party/LwIP/src/core/tcp.c ****   }
 825              		.loc 1 733 5 is_stmt 1 discriminator 10 view .LVU241
 826 0074 0023     		movs	r3, #0
 827 0076 E360     		str	r3, [r4, #12]
 828              	.L82:
 735:Middlewares/Third_Party/LwIP/src/core/tcp.c **** #if LWIP_CALLBACK_API
 829              		.loc 1 735 3 view .LVU242
 830 0078 2146     		mov	r1, r4
 831 007a 0120     		movs	r0, #1
 832              	.LVL81:
 735:Middlewares/Third_Party/LwIP/src/core/tcp.c **** #if LWIP_CALLBACK_API
 833              		.loc 1 735 3 is_stmt 0 view .LVU243
 834 007c FFF7FEFF 		bl	memp_free
 835              	.LVL82:
 737:Middlewares/Third_Party/LwIP/src/core/tcp.c **** #endif /* LWIP_CALLBACK_API */
 836              		.loc 1 737 3 is_stmt 1 view .LVU244
 737:Middlewares/Third_Party/LwIP/src/core/tcp.c **** #endif /* LWIP_CALLBACK_API */
 837              		.loc 1 737 16 is_stmt 0 view .LVU245
 838 0080 0D4B     		ldr	r3, .L94+16
 839 0082 AB61     		str	r3, [r5, #24]
 743:Middlewares/Third_Party/LwIP/src/core/tcp.c ****   res = ERR_OK;
 840              		.loc 1 743 3 is_stmt 1 view .LVU246
 743:Middlewares/Third_Party/LwIP/src/core/tcp.c ****   res = ERR_OK;
 841              		.loc 1 743 3 view .LVU247
 842 0084 0D4B     		ldr	r3, .L94+20
 843 0086 1A68     		ldr	r2, [r3]
 844 0088 EA60     		str	r2, [r5, #12]
 743:Middlewares/Third_Party/LwIP/src/core/tcp.c ****   res = ERR_OK;
 845              		.loc 1 743 3 view .LVU248
 846 008a 1D60     		str	r5, [r3]
 743:Middlewares/Third_Party/LwIP/src/core/tcp.c ****   res = ERR_OK;
 847              		.loc 1 743 3 view .LVU249
 848 008c FFF7FEFF 		bl	tcp_timer_needed
 849              	.LVL83:
 744:Middlewares/Third_Party/LwIP/src/core/tcp.c **** done:
 850              		.loc 1 744 3 view .LVU250
 744:Middlewares/Third_Party/LwIP/src/core/tcp.c **** done:
 851              		.loc 1 744 7 is_stmt 0 view .LVU251
 852 0090 0023     		movs	r3, #0
 853              	.LVL84:
 854              	.L81:
 746:Middlewares/Third_Party/LwIP/src/core/tcp.c ****     *err = res;
 855              		.loc 1 746 3 is_stmt 1 view .LVU252
 746:Middlewares/Third_Party/LwIP/src/core/tcp.c ****     *err = res;
 856              		.loc 1 746 6 is_stmt 0 view .LVU253
 857 0092 06B1     		cbz	r6, .L79
 747:Middlewares/Third_Party/LwIP/src/core/tcp.c ****   }
ARM GAS  /tmp/cc6by9MY.s 			page 35


 858              		.loc 1 747 5 is_stmt 1 view .LVU254
 747:Middlewares/Third_Party/LwIP/src/core/tcp.c ****   }
 859              		.loc 1 747 10 is_stmt 0 view .LVU255
 860 0094 3370     		strb	r3, [r6]
 749:Middlewares/Third_Party/LwIP/src/core/tcp.c **** }
 861              		.loc 1 749 3 is_stmt 1 view .LVU256
 862              	.L79:
 750:Middlewares/Third_Party/LwIP/src/core/tcp.c **** 
 863              		.loc 1 750 1 is_stmt 0 view .LVU257
 864 0096 2846     		mov	r0, r5
 865 0098 70BD     		pop	{r4, r5, r6, pc}
 866              	.LVL85:
 867              	.L87:
 696:Middlewares/Third_Party/LwIP/src/core/tcp.c ****     res = ERR_ALREADY;
 868              		.loc 1 696 10 view .LVU258
 869 009a 0546     		mov	r5, r0
 697:Middlewares/Third_Party/LwIP/src/core/tcp.c ****     goto done;
 870              		.loc 1 697 9 view .LVU259
 871 009c 6FF00803 		mvn	r3, #8
 872 00a0 F7E7     		b	.L81
 873              	.LVL86:
 874              	.L88:
 718:Middlewares/Third_Party/LwIP/src/core/tcp.c ****     goto done;
 875              		.loc 1 718 9 view .LVU260
 876 00a2 4FF0FF33 		mov	r3, #-1
 877 00a6 F4E7     		b	.L81
 878              	.L95:
 879              		.align	2
 880              	.L94:
 881 00a8 00000000 		.word	tcp_bound_pcbs
 882 00ac 00000000 		.word	.LC0
 883 00b0 00000000 		.word	.LC5
 884 00b4 38000000 		.word	.LC2
 885 00b8 00000000 		.word	tcp_accept_null
 886 00bc 00000000 		.word	tcp_listen_pcbs
 887              		.cfi_endproc
 888              	.LFE173:
 890              		.section	.text.tcp_listen_with_backlog,"ax",%progbits
 891              		.align	1
 892              		.global	tcp_listen_with_backlog
 893              		.syntax unified
 894              		.thumb
 895              		.thumb_func
 896              		.fpu fpv5-sp-d16
 898              	tcp_listen_with_backlog:
 899              	.LVL87:
 900              	.LFB172:
 665:Middlewares/Third_Party/LwIP/src/core/tcp.c ****   return tcp_listen_with_backlog_and_err(pcb, backlog, NULL);
 901              		.loc 1 665 1 is_stmt 1 view -0
 902              		.cfi_startproc
 903              		@ args = 0, pretend = 0, frame = 0
 904              		@ frame_needed = 0, uses_anonymous_args = 0
 665:Middlewares/Third_Party/LwIP/src/core/tcp.c ****   return tcp_listen_with_backlog_and_err(pcb, backlog, NULL);
 905              		.loc 1 665 1 is_stmt 0 view .LVU262
 906 0000 08B5     		push	{r3, lr}
 907              	.LCFI7:
 908              		.cfi_def_cfa_offset 8
ARM GAS  /tmp/cc6by9MY.s 			page 36


 909              		.cfi_offset 3, -8
 910              		.cfi_offset 14, -4
 666:Middlewares/Third_Party/LwIP/src/core/tcp.c **** }
 911              		.loc 1 666 3 is_stmt 1 view .LVU263
 666:Middlewares/Third_Party/LwIP/src/core/tcp.c **** }
 912              		.loc 1 666 10 is_stmt 0 view .LVU264
 913 0002 0022     		movs	r2, #0
 914 0004 FFF7FEFF 		bl	tcp_listen_with_backlog_and_err
 915              	.LVL88:
 667:Middlewares/Third_Party/LwIP/src/core/tcp.c **** 
 916              		.loc 1 667 1 view .LVU265
 917 0008 08BD     		pop	{r3, pc}
 918              		.cfi_endproc
 919              	.LFE172:
 921              		.section	.text.tcp_update_rcv_ann_wnd,"ax",%progbits
 922              		.align	1
 923              		.global	tcp_update_rcv_ann_wnd
 924              		.syntax unified
 925              		.thumb
 926              		.thumb_func
 927              		.fpu fpv5-sp-d16
 929              	tcp_update_rcv_ann_wnd:
 930              	.LVL89:
 931              	.LFB174:
 760:Middlewares/Third_Party/LwIP/src/core/tcp.c ****   u32_t new_right_edge = pcb->rcv_nxt + pcb->rcv_wnd;
 932              		.loc 1 760 1 is_stmt 1 view -0
 933              		.cfi_startproc
 934              		@ args = 0, pretend = 0, frame = 0
 935              		@ frame_needed = 0, uses_anonymous_args = 0
 760:Middlewares/Third_Party/LwIP/src/core/tcp.c ****   u32_t new_right_edge = pcb->rcv_nxt + pcb->rcv_wnd;
 936              		.loc 1 760 1 is_stmt 0 view .LVU267
 937 0000 38B5     		push	{r3, r4, r5, lr}
 938              	.LCFI8:
 939              		.cfi_def_cfa_offset 16
 940              		.cfi_offset 3, -16
 941              		.cfi_offset 4, -12
 942              		.cfi_offset 5, -8
 943              		.cfi_offset 14, -4
 761:Middlewares/Third_Party/LwIP/src/core/tcp.c **** 
 944              		.loc 1 761 3 is_stmt 1 view .LVU268
 761:Middlewares/Third_Party/LwIP/src/core/tcp.c **** 
 945              		.loc 1 761 29 is_stmt 0 view .LVU269
 946 0002 456A     		ldr	r5, [r0, #36]
 761:Middlewares/Third_Party/LwIP/src/core/tcp.c **** 
 947              		.loc 1 761 44 view .LVU270
 948 0004 048D     		ldrh	r4, [r0, #40]
 761:Middlewares/Third_Party/LwIP/src/core/tcp.c **** 
 949              		.loc 1 761 9 view .LVU271
 950 0006 2A19     		adds	r2, r5, r4
 951              	.LVL90:
 763:Middlewares/Third_Party/LwIP/src/core/tcp.c ****     /* we can advertise more window */
 952              		.loc 1 763 3 is_stmt 1 view .LVU272
 763:Middlewares/Third_Party/LwIP/src/core/tcp.c ****     /* we can advertise more window */
 953              		.loc 1 763 7 is_stmt 0 view .LVU273
 954 0008 C16A     		ldr	r1, [r0, #44]
 955 000a 438E     		ldrh	r3, [r0, #50]
 956 000c B3F5866F 		cmp	r3, #1072
ARM GAS  /tmp/cc6by9MY.s 			page 37


 957 0010 94BF     		ite	ls
 958 0012 CB18     		addls	r3, r1, r3
 959 0014 01F58663 		addhi	r3, r1, #1072
 960 0018 D31A     		subs	r3, r2, r3
 763:Middlewares/Third_Party/LwIP/src/core/tcp.c ****     /* we can advertise more window */
 961              		.loc 1 763 6 view .LVU274
 962 001a 002B     		cmp	r3, #0
 963 001c 02DB     		blt	.L99
 765:Middlewares/Third_Party/LwIP/src/core/tcp.c ****     return new_right_edge - pcb->rcv_ann_right_edge;
 964              		.loc 1 765 5 is_stmt 1 view .LVU275
 765:Middlewares/Third_Party/LwIP/src/core/tcp.c ****     return new_right_edge - pcb->rcv_ann_right_edge;
 965              		.loc 1 765 22 is_stmt 0 view .LVU276
 966 001e 4485     		strh	r4, [r0, #42]	@ movhi
 766:Middlewares/Third_Party/LwIP/src/core/tcp.c ****   } else {
 967              		.loc 1 766 5 is_stmt 1 view .LVU277
 766:Middlewares/Third_Party/LwIP/src/core/tcp.c ****   } else {
 968              		.loc 1 766 27 is_stmt 0 view .LVU278
 969 0020 501A     		subs	r0, r2, r1
 970              	.LVL91:
 971              	.L98:
 782:Middlewares/Third_Party/LwIP/src/core/tcp.c **** 
 972              		.loc 1 782 1 view .LVU279
 973 0022 38BD     		pop	{r3, r4, r5, pc}
 974              	.LVL92:
 975              	.L99:
 768:Middlewares/Third_Party/LwIP/src/core/tcp.c ****       /* Can happen due to other end sending out of advertised window,
 976              		.loc 1 768 5 is_stmt 1 view .LVU280
 768:Middlewares/Third_Party/LwIP/src/core/tcp.c ****       /* Can happen due to other end sending out of advertised window,
 977              		.loc 1 768 9 is_stmt 0 view .LVU281
 978 0024 6B1A     		subs	r3, r5, r1
 768:Middlewares/Third_Party/LwIP/src/core/tcp.c ****       /* Can happen due to other end sending out of advertised window,
 979              		.loc 1 768 8 view .LVU282
 980 0026 002B     		cmp	r3, #0
 981 0028 03DD     		ble	.L101
 771:Middlewares/Third_Party/LwIP/src/core/tcp.c ****     } else {
 982              		.loc 1 771 7 is_stmt 1 view .LVU283
 771:Middlewares/Third_Party/LwIP/src/core/tcp.c ****     } else {
 983              		.loc 1 771 24 is_stmt 0 view .LVU284
 984 002a 0023     		movs	r3, #0
 985 002c 4385     		strh	r3, [r0, #42]	@ movhi
 986              	.LVL93:
 987              	.L102:
 780:Middlewares/Third_Party/LwIP/src/core/tcp.c ****   }
 988              		.loc 1 780 5 is_stmt 1 view .LVU285
 780:Middlewares/Third_Party/LwIP/src/core/tcp.c ****   }
 989              		.loc 1 780 12 is_stmt 0 view .LVU286
 990 002e 0020     		movs	r0, #0
 991 0030 F7E7     		b	.L98
 992              	.LVL94:
 993              	.L101:
 780:Middlewares/Third_Party/LwIP/src/core/tcp.c ****   }
 994              		.loc 1 780 12 view .LVU287
 995 0032 0446     		mov	r4, r0
 996              	.LBB4:
 774:Middlewares/Third_Party/LwIP/src/core/tcp.c **** #if !LWIP_WND_SCALE
 997              		.loc 1 774 7 is_stmt 1 view .LVU288
 774:Middlewares/Third_Party/LwIP/src/core/tcp.c **** #if !LWIP_WND_SCALE
ARM GAS  /tmp/cc6by9MY.s 			page 38


 998              		.loc 1 774 13 is_stmt 0 view .LVU289
 999 0034 4D1B     		subs	r5, r1, r5
 1000              	.LVL95:
 776:Middlewares/Third_Party/LwIP/src/core/tcp.c **** #endif
 1001              		.loc 1 776 7 is_stmt 1 view .LVU290
 776:Middlewares/Third_Party/LwIP/src/core/tcp.c **** #endif
 1002              		.loc 1 776 7 view .LVU291
 1003 0036 B5F5803F 		cmp	r5, #65536
 1004 003a 01D2     		bcs	.L105
 1005              	.LVL96:
 1006              	.L103:
 778:Middlewares/Third_Party/LwIP/src/core/tcp.c ****     }
 1007              		.loc 1 778 7 view .LVU292
 778:Middlewares/Third_Party/LwIP/src/core/tcp.c ****     }
 1008              		.loc 1 778 24 is_stmt 0 view .LVU293
 1009 003c 6585     		strh	r5, [r4, #42]	@ movhi
 1010 003e F6E7     		b	.L102
 1011              	.LVL97:
 1012              	.L105:
 776:Middlewares/Third_Party/LwIP/src/core/tcp.c **** #endif
 1013              		.loc 1 776 7 is_stmt 1 discriminator 1 view .LVU294
 776:Middlewares/Third_Party/LwIP/src/core/tcp.c **** #endif
 1014              		.loc 1 776 7 discriminator 1 view .LVU295
 1015 0040 034B     		ldr	r3, .L106
 1016 0042 4FF44272 		mov	r2, #776
 1017              	.LVL98:
 776:Middlewares/Third_Party/LwIP/src/core/tcp.c **** #endif
 1018              		.loc 1 776 7 is_stmt 0 discriminator 1 view .LVU296
 1019 0046 0349     		ldr	r1, .L106+4
 1020 0048 0348     		ldr	r0, .L106+8
 1021              	.LVL99:
 776:Middlewares/Third_Party/LwIP/src/core/tcp.c **** #endif
 1022              		.loc 1 776 7 discriminator 1 view .LVU297
 1023 004a FFF7FEFF 		bl	printf
 1024              	.LVL100:
 776:Middlewares/Third_Party/LwIP/src/core/tcp.c **** #endif
 1025              		.loc 1 776 7 discriminator 1 view .LVU298
 1026 004e F5E7     		b	.L103
 1027              	.L107:
 1028              		.align	2
 1029              	.L106:
 1030 0050 00000000 		.word	.LC0
 1031 0054 00000000 		.word	.LC6
 1032 0058 38000000 		.word	.LC2
 1033              	.LBE4:
 1034              		.cfi_endproc
 1035              	.LFE174:
 1037              		.section	.text.tcp_recved,"ax",%progbits
 1038              		.align	1
 1039              		.global	tcp_recved
 1040              		.syntax unified
 1041              		.thumb
 1042              		.thumb_func
 1043              		.fpu fpv5-sp-d16
 1045              	tcp_recved:
 1046              	.LVL101:
 1047              	.LFB175:
ARM GAS  /tmp/cc6by9MY.s 			page 39


 795:Middlewares/Third_Party/LwIP/src/core/tcp.c ****   int wnd_inflation;
 1048              		.loc 1 795 1 is_stmt 1 view -0
 1049              		.cfi_startproc
 1050              		@ args = 0, pretend = 0, frame = 0
 1051              		@ frame_needed = 0, uses_anonymous_args = 0
 795:Middlewares/Third_Party/LwIP/src/core/tcp.c ****   int wnd_inflation;
 1052              		.loc 1 795 1 is_stmt 0 view .LVU300
 1053 0000 38B5     		push	{r3, r4, r5, lr}
 1054              	.LCFI9:
 1055              		.cfi_def_cfa_offset 16
 1056              		.cfi_offset 3, -16
 1057              		.cfi_offset 4, -12
 1058              		.cfi_offset 5, -8
 1059              		.cfi_offset 14, -4
 1060 0002 0546     		mov	r5, r0
 1061 0004 0C46     		mov	r4, r1
 796:Middlewares/Third_Party/LwIP/src/core/tcp.c **** 
 1062              		.loc 1 796 3 is_stmt 1 view .LVU301
 799:Middlewares/Third_Party/LwIP/src/core/tcp.c ****     pcb->state != LISTEN);
 1063              		.loc 1 799 3 view .LVU302
 799:Middlewares/Third_Party/LwIP/src/core/tcp.c ****     pcb->state != LISTEN);
 1064              		.loc 1 799 3 view .LVU303
 1065 0006 037D     		ldrb	r3, [r0, #20]	@ zero_extendqisi2
 1066 0008 012B     		cmp	r3, #1
 1067 000a 10D0     		beq	.L115
 1068              	.LVL102:
 1069              	.L109:
 802:Middlewares/Third_Party/LwIP/src/core/tcp.c ****   if (pcb->rcv_wnd > TCP_WND_MAX(pcb)) {
 1070              		.loc 1 802 3 view .LVU304
 802:Middlewares/Third_Party/LwIP/src/core/tcp.c ****   if (pcb->rcv_wnd > TCP_WND_MAX(pcb)) {
 1071              		.loc 1 802 16 is_stmt 0 view .LVU305
 1072 000c 298D     		ldrh	r1, [r5, #40]
 1073 000e 2144     		add	r1, r1, r4
 1074 0010 89B2     		uxth	r1, r1
 1075 0012 2985     		strh	r1, [r5, #40]	@ movhi
 803:Middlewares/Third_Party/LwIP/src/core/tcp.c ****     pcb->rcv_wnd = TCP_WND_MAX(pcb);
 1076              		.loc 1 803 3 is_stmt 1 view .LVU306
 803:Middlewares/Third_Party/LwIP/src/core/tcp.c ****     pcb->rcv_wnd = TCP_WND_MAX(pcb);
 1077              		.loc 1 803 6 is_stmt 0 view .LVU307
 1078 0014 B1F5066F 		cmp	r1, #2144
 1079 0018 11D9     		bls	.L110
 804:Middlewares/Third_Party/LwIP/src/core/tcp.c ****   } else if (pcb->rcv_wnd == 0) {
 1080              		.loc 1 804 5 is_stmt 1 view .LVU308
 804:Middlewares/Third_Party/LwIP/src/core/tcp.c ****   } else if (pcb->rcv_wnd == 0) {
 1081              		.loc 1 804 18 is_stmt 0 view .LVU309
 1082 001a 4FF40663 		mov	r3, #2144
 1083 001e 2B85     		strh	r3, [r5, #40]	@ movhi
 1084              	.L111:
 817:Middlewares/Third_Party/LwIP/src/core/tcp.c **** 
 1085              		.loc 1 817 3 is_stmt 1 view .LVU310
 817:Middlewares/Third_Party/LwIP/src/core/tcp.c **** 
 1086              		.loc 1 817 19 is_stmt 0 view .LVU311
 1087 0020 2846     		mov	r0, r5
 1088 0022 FFF7FEFF 		bl	tcp_update_rcv_ann_wnd
 1089              	.LVL103:
 823:Middlewares/Third_Party/LwIP/src/core/tcp.c ****     tcp_ack_now(pcb);
 1090              		.loc 1 823 3 is_stmt 1 view .LVU312
ARM GAS  /tmp/cc6by9MY.s 			page 40


 823:Middlewares/Third_Party/LwIP/src/core/tcp.c ****     tcp_ack_now(pcb);
 1091              		.loc 1 823 6 is_stmt 0 view .LVU313
 1092 0026 B0F5067F 		cmp	r0, #536
 1093 002a 1BDA     		bge	.L116
 1094              	.LVL104:
 1095              	.L108:
 830:Middlewares/Third_Party/LwIP/src/core/tcp.c **** 
 1096              		.loc 1 830 1 view .LVU314
 1097 002c 38BD     		pop	{r3, r4, r5, pc}
 1098              	.LVL105:
 1099              	.L115:
 799:Middlewares/Third_Party/LwIP/src/core/tcp.c ****     pcb->state != LISTEN);
 1100              		.loc 1 799 3 is_stmt 1 discriminator 1 view .LVU315
 799:Middlewares/Third_Party/LwIP/src/core/tcp.c ****     pcb->state != LISTEN);
 1101              		.loc 1 799 3 discriminator 1 view .LVU316
 1102 002e 114B     		ldr	r3, .L117
 1103 0030 4FF44872 		mov	r2, #800
 1104 0034 1049     		ldr	r1, .L117+4
 1105              	.LVL106:
 799:Middlewares/Third_Party/LwIP/src/core/tcp.c ****     pcb->state != LISTEN);
 1106              		.loc 1 799 3 is_stmt 0 discriminator 1 view .LVU317
 1107 0036 1148     		ldr	r0, .L117+8
 1108              	.LVL107:
 799:Middlewares/Third_Party/LwIP/src/core/tcp.c ****     pcb->state != LISTEN);
 1109              		.loc 1 799 3 discriminator 1 view .LVU318
 1110 0038 FFF7FEFF 		bl	printf
 1111              	.LVL108:
 1112 003c E6E7     		b	.L109
 1113              	.L110:
 805:Middlewares/Third_Party/LwIP/src/core/tcp.c ****     /* rcv_wnd overflowed */
 1114              		.loc 1 805 10 is_stmt 1 view .LVU319
 805:Middlewares/Third_Party/LwIP/src/core/tcp.c ****     /* rcv_wnd overflowed */
 1115              		.loc 1 805 13 is_stmt 0 view .LVU320
 1116 003e 0029     		cmp	r1, #0
 1117 0040 EED1     		bne	.L111
 807:Middlewares/Third_Party/LwIP/src/core/tcp.c ****       /* In passive close, we allow this, since the FIN bit is added to rcv_wnd
 1118              		.loc 1 807 5 is_stmt 1 view .LVU321
 807:Middlewares/Third_Party/LwIP/src/core/tcp.c ****       /* In passive close, we allow this, since the FIN bit is added to rcv_wnd
 1119              		.loc 1 807 13 is_stmt 0 view .LVU322
 1120 0042 2B7D     		ldrb	r3, [r5, #20]	@ zero_extendqisi2
 807:Middlewares/Third_Party/LwIP/src/core/tcp.c ****       /* In passive close, we allow this, since the FIN bit is added to rcv_wnd
 1121              		.loc 1 807 8 view .LVU323
 1122 0044 092B     		cmp	r3, #9
 1123 0046 18BF     		it	ne
 1124 0048 072B     		cmpne	r3, #7
 1125 004a 03D1     		bne	.L112
 811:Middlewares/Third_Party/LwIP/src/core/tcp.c ****     } else {
 1126              		.loc 1 811 7 is_stmt 1 view .LVU324
 811:Middlewares/Third_Party/LwIP/src/core/tcp.c ****     } else {
 1127              		.loc 1 811 20 is_stmt 0 view .LVU325
 1128 004c 4FF40663 		mov	r3, #2144
 1129 0050 2B85     		strh	r3, [r5, #40]	@ movhi
 1130 0052 E5E7     		b	.L111
 1131              	.L112:
 813:Middlewares/Third_Party/LwIP/src/core/tcp.c ****     }
 1132              		.loc 1 813 7 is_stmt 1 discriminator 1 view .LVU326
 813:Middlewares/Third_Party/LwIP/src/core/tcp.c ****     }
ARM GAS  /tmp/cc6by9MY.s 			page 41


 1133              		.loc 1 813 7 discriminator 1 view .LVU327
 813:Middlewares/Third_Party/LwIP/src/core/tcp.c ****     }
 1134              		.loc 1 813 7 discriminator 1 view .LVU328
 813:Middlewares/Third_Party/LwIP/src/core/tcp.c ****     }
 1135              		.loc 1 813 7 discriminator 1 view .LVU329
 1136 0054 074B     		ldr	r3, .L117
 1137 0056 40F22D32 		movw	r2, #813
 1138 005a 0949     		ldr	r1, .L117+12
 1139 005c 0748     		ldr	r0, .L117+8
 1140 005e FFF7FEFF 		bl	printf
 1141              	.LVL109:
 1142 0062 DDE7     		b	.L111
 1143              	.LVL110:
 1144              	.L116:
 824:Middlewares/Third_Party/LwIP/src/core/tcp.c ****     tcp_output(pcb);
 1145              		.loc 1 824 5 view .LVU330
 824:Middlewares/Third_Party/LwIP/src/core/tcp.c ****     tcp_output(pcb);
 1146              		.loc 1 824 5 view .LVU331
 1147 0064 AB7E     		ldrb	r3, [r5, #26]	@ zero_extendqisi2
 1148 0066 43F00203 		orr	r3, r3, #2
 1149 006a AB76     		strb	r3, [r5, #26]
 825:Middlewares/Third_Party/LwIP/src/core/tcp.c ****   }
 1150              		.loc 1 825 5 view .LVU332
 1151 006c 2846     		mov	r0, r5
 1152              	.LVL111:
 825:Middlewares/Third_Party/LwIP/src/core/tcp.c ****   }
 1153              		.loc 1 825 5 is_stmt 0 view .LVU333
 1154 006e FFF7FEFF 		bl	tcp_output
 1155              	.LVL112:
 829:Middlewares/Third_Party/LwIP/src/core/tcp.c **** }
 1156              		.loc 1 829 71 is_stmt 1 view .LVU334
 830:Middlewares/Third_Party/LwIP/src/core/tcp.c **** 
 1157              		.loc 1 830 1 is_stmt 0 view .LVU335
 1158 0072 DBE7     		b	.L108
 1159              	.L118:
 1160              		.align	2
 1161              	.L117:
 1162 0074 00000000 		.word	.LC0
 1163 0078 00000000 		.word	.LC7
 1164 007c 38000000 		.word	.LC2
 1165 0080 28000000 		.word	.LC8
 1166              		.cfi_endproc
 1167              	.LFE175:
 1169              		.section	.text.tcp_txnow,"ax",%progbits
 1170              		.align	1
 1171              		.global	tcp_txnow
 1172              		.syntax unified
 1173              		.thumb
 1174              		.thumb_func
 1175              		.fpu fpv5-sp-d16
 1177              	tcp_txnow:
 1178              	.LFB180:
 861:Middlewares/Third_Party/LwIP/src/core/tcp.c **** 
 862:Middlewares/Third_Party/LwIP/src/core/tcp.c **** /**
 863:Middlewares/Third_Party/LwIP/src/core/tcp.c ****  * @ingroup tcp_raw
 864:Middlewares/Third_Party/LwIP/src/core/tcp.c ****  * Connects to another host. The function given as the "connected"
 865:Middlewares/Third_Party/LwIP/src/core/tcp.c ****  * argument will be called when the connection has been established.
ARM GAS  /tmp/cc6by9MY.s 			page 42


 866:Middlewares/Third_Party/LwIP/src/core/tcp.c ****  *
 867:Middlewares/Third_Party/LwIP/src/core/tcp.c ****  * @param pcb the tcp_pcb used to establish the connection
 868:Middlewares/Third_Party/LwIP/src/core/tcp.c ****  * @param ipaddr the remote ip address to connect to
 869:Middlewares/Third_Party/LwIP/src/core/tcp.c ****  * @param port the remote tcp port to connect to
 870:Middlewares/Third_Party/LwIP/src/core/tcp.c ****  * @param connected callback function to call when connected (on error,
 871:Middlewares/Third_Party/LwIP/src/core/tcp.c ****                     the err calback will be called)
 872:Middlewares/Third_Party/LwIP/src/core/tcp.c ****  * @return ERR_VAL if invalid arguments are given
 873:Middlewares/Third_Party/LwIP/src/core/tcp.c ****  *         ERR_OK if connect request has been sent
 874:Middlewares/Third_Party/LwIP/src/core/tcp.c ****  *         other err_t values if connect request couldn't be sent
 875:Middlewares/Third_Party/LwIP/src/core/tcp.c ****  */
 876:Middlewares/Third_Party/LwIP/src/core/tcp.c **** err_t
 877:Middlewares/Third_Party/LwIP/src/core/tcp.c **** tcp_connect(struct tcp_pcb *pcb, const ip_addr_t *ipaddr, u16_t port,
 878:Middlewares/Third_Party/LwIP/src/core/tcp.c ****       tcp_connected_fn connected)
 879:Middlewares/Third_Party/LwIP/src/core/tcp.c **** {
 880:Middlewares/Third_Party/LwIP/src/core/tcp.c ****   err_t ret;
 881:Middlewares/Third_Party/LwIP/src/core/tcp.c ****   u32_t iss;
 882:Middlewares/Third_Party/LwIP/src/core/tcp.c ****   u16_t old_local_port;
 883:Middlewares/Third_Party/LwIP/src/core/tcp.c **** 
 884:Middlewares/Third_Party/LwIP/src/core/tcp.c ****   if ((pcb == NULL) || (ipaddr == NULL)) {
 885:Middlewares/Third_Party/LwIP/src/core/tcp.c ****     return ERR_VAL;
 886:Middlewares/Third_Party/LwIP/src/core/tcp.c ****   }
 887:Middlewares/Third_Party/LwIP/src/core/tcp.c **** 
 888:Middlewares/Third_Party/LwIP/src/core/tcp.c ****   LWIP_ERROR("tcp_connect: can only connect from state CLOSED", pcb->state == CLOSED, return ERR_IS
 889:Middlewares/Third_Party/LwIP/src/core/tcp.c **** 
 890:Middlewares/Third_Party/LwIP/src/core/tcp.c ****   LWIP_DEBUGF(TCP_DEBUG, ("tcp_connect to port %"U16_F"\n", port));
 891:Middlewares/Third_Party/LwIP/src/core/tcp.c ****   ip_addr_set(&pcb->remote_ip, ipaddr);
 892:Middlewares/Third_Party/LwIP/src/core/tcp.c ****   pcb->remote_port = port;
 893:Middlewares/Third_Party/LwIP/src/core/tcp.c **** 
 894:Middlewares/Third_Party/LwIP/src/core/tcp.c ****   /* check if we have a route to the remote host */
 895:Middlewares/Third_Party/LwIP/src/core/tcp.c ****   if (ip_addr_isany(&pcb->local_ip)) {
 896:Middlewares/Third_Party/LwIP/src/core/tcp.c ****     /* no local IP address set, yet. */
 897:Middlewares/Third_Party/LwIP/src/core/tcp.c ****     struct netif *netif;
 898:Middlewares/Third_Party/LwIP/src/core/tcp.c ****     const ip_addr_t *local_ip;
 899:Middlewares/Third_Party/LwIP/src/core/tcp.c ****     ip_route_get_local_ip(&pcb->local_ip, &pcb->remote_ip, netif, local_ip);
 900:Middlewares/Third_Party/LwIP/src/core/tcp.c ****     if ((netif == NULL) || (local_ip == NULL)) {
 901:Middlewares/Third_Party/LwIP/src/core/tcp.c ****       /* Don't even try to send a SYN packet if we have no route
 902:Middlewares/Third_Party/LwIP/src/core/tcp.c ****          since that will fail. */
 903:Middlewares/Third_Party/LwIP/src/core/tcp.c ****       return ERR_RTE;
 904:Middlewares/Third_Party/LwIP/src/core/tcp.c ****     }
 905:Middlewares/Third_Party/LwIP/src/core/tcp.c ****     /* Use the address as local address of the pcb. */
 906:Middlewares/Third_Party/LwIP/src/core/tcp.c ****     ip_addr_copy(pcb->local_ip, *local_ip);
 907:Middlewares/Third_Party/LwIP/src/core/tcp.c ****   }
 908:Middlewares/Third_Party/LwIP/src/core/tcp.c **** 
 909:Middlewares/Third_Party/LwIP/src/core/tcp.c ****   old_local_port = pcb->local_port;
 910:Middlewares/Third_Party/LwIP/src/core/tcp.c ****   if (pcb->local_port == 0) {
 911:Middlewares/Third_Party/LwIP/src/core/tcp.c ****     pcb->local_port = tcp_new_port();
 912:Middlewares/Third_Party/LwIP/src/core/tcp.c ****     if (pcb->local_port == 0) {
 913:Middlewares/Third_Party/LwIP/src/core/tcp.c ****       return ERR_BUF;
 914:Middlewares/Third_Party/LwIP/src/core/tcp.c ****     }
 915:Middlewares/Third_Party/LwIP/src/core/tcp.c ****   } else {
 916:Middlewares/Third_Party/LwIP/src/core/tcp.c **** #if SO_REUSE
 917:Middlewares/Third_Party/LwIP/src/core/tcp.c ****     if (ip_get_option(pcb, SOF_REUSEADDR)) {
 918:Middlewares/Third_Party/LwIP/src/core/tcp.c ****       /* Since SOF_REUSEADDR allows reusing a local address, we have to make sure
 919:Middlewares/Third_Party/LwIP/src/core/tcp.c ****          now that the 5-tuple is unique. */
 920:Middlewares/Third_Party/LwIP/src/core/tcp.c ****       struct tcp_pcb *cpcb;
 921:Middlewares/Third_Party/LwIP/src/core/tcp.c ****       int i;
 922:Middlewares/Third_Party/LwIP/src/core/tcp.c ****       /* Don't check listen- and bound-PCBs, check active- and TIME-WAIT PCBs. */
ARM GAS  /tmp/cc6by9MY.s 			page 43


 923:Middlewares/Third_Party/LwIP/src/core/tcp.c ****       for (i = 2; i < NUM_TCP_PCB_LISTS; i++) {
 924:Middlewares/Third_Party/LwIP/src/core/tcp.c ****         for (cpcb = *tcp_pcb_lists[i]; cpcb != NULL; cpcb = cpcb->next) {
 925:Middlewares/Third_Party/LwIP/src/core/tcp.c ****           if ((cpcb->local_port == pcb->local_port) &&
 926:Middlewares/Third_Party/LwIP/src/core/tcp.c ****               (cpcb->remote_port == port) &&
 927:Middlewares/Third_Party/LwIP/src/core/tcp.c ****               ip_addr_cmp(&cpcb->local_ip, &pcb->local_ip) &&
 928:Middlewares/Third_Party/LwIP/src/core/tcp.c ****               ip_addr_cmp(&cpcb->remote_ip, ipaddr)) {
 929:Middlewares/Third_Party/LwIP/src/core/tcp.c ****             /* linux returns EISCONN here, but ERR_USE should be OK for us */
 930:Middlewares/Third_Party/LwIP/src/core/tcp.c ****             return ERR_USE;
 931:Middlewares/Third_Party/LwIP/src/core/tcp.c ****           }
 932:Middlewares/Third_Party/LwIP/src/core/tcp.c ****         }
 933:Middlewares/Third_Party/LwIP/src/core/tcp.c ****       }
 934:Middlewares/Third_Party/LwIP/src/core/tcp.c ****     }
 935:Middlewares/Third_Party/LwIP/src/core/tcp.c **** #endif /* SO_REUSE */
 936:Middlewares/Third_Party/LwIP/src/core/tcp.c ****   }
 937:Middlewares/Third_Party/LwIP/src/core/tcp.c **** 
 938:Middlewares/Third_Party/LwIP/src/core/tcp.c ****   iss = tcp_next_iss(pcb);
 939:Middlewares/Third_Party/LwIP/src/core/tcp.c ****   pcb->rcv_nxt = 0;
 940:Middlewares/Third_Party/LwIP/src/core/tcp.c ****   pcb->snd_nxt = iss;
 941:Middlewares/Third_Party/LwIP/src/core/tcp.c ****   pcb->lastack = iss - 1;
 942:Middlewares/Third_Party/LwIP/src/core/tcp.c ****   pcb->snd_wl2 = iss - 1;
 943:Middlewares/Third_Party/LwIP/src/core/tcp.c ****   pcb->snd_lbb = iss - 1;
 944:Middlewares/Third_Party/LwIP/src/core/tcp.c ****   /* Start with a window that does not need scaling. When window scaling is
 945:Middlewares/Third_Party/LwIP/src/core/tcp.c ****      enabled and used, the window is enlarged when both sides agree on scaling. */
 946:Middlewares/Third_Party/LwIP/src/core/tcp.c ****   pcb->rcv_wnd = pcb->rcv_ann_wnd = TCPWND_MIN16(TCP_WND);
 947:Middlewares/Third_Party/LwIP/src/core/tcp.c ****   pcb->rcv_ann_right_edge = pcb->rcv_nxt;
 948:Middlewares/Third_Party/LwIP/src/core/tcp.c ****   pcb->snd_wnd = TCP_WND;
 949:Middlewares/Third_Party/LwIP/src/core/tcp.c ****   /* As initial send MSS, we use TCP_MSS but limit it to 536.
 950:Middlewares/Third_Party/LwIP/src/core/tcp.c ****      The send MSS is updated when an MSS option is received. */
 951:Middlewares/Third_Party/LwIP/src/core/tcp.c ****   pcb->mss = INITIAL_MSS;
 952:Middlewares/Third_Party/LwIP/src/core/tcp.c **** #if TCP_CALCULATE_EFF_SEND_MSS
 953:Middlewares/Third_Party/LwIP/src/core/tcp.c ****   pcb->mss = tcp_eff_send_mss(pcb->mss, &pcb->local_ip, &pcb->remote_ip);
 954:Middlewares/Third_Party/LwIP/src/core/tcp.c **** #endif /* TCP_CALCULATE_EFF_SEND_MSS */
 955:Middlewares/Third_Party/LwIP/src/core/tcp.c ****   pcb->cwnd = 1;
 956:Middlewares/Third_Party/LwIP/src/core/tcp.c **** #if LWIP_CALLBACK_API
 957:Middlewares/Third_Party/LwIP/src/core/tcp.c ****   pcb->connected = connected;
 958:Middlewares/Third_Party/LwIP/src/core/tcp.c **** #else /* LWIP_CALLBACK_API */
 959:Middlewares/Third_Party/LwIP/src/core/tcp.c ****   LWIP_UNUSED_ARG(connected);
 960:Middlewares/Third_Party/LwIP/src/core/tcp.c **** #endif /* LWIP_CALLBACK_API */
 961:Middlewares/Third_Party/LwIP/src/core/tcp.c **** 
 962:Middlewares/Third_Party/LwIP/src/core/tcp.c ****   /* Send a SYN together with the MSS option. */
 963:Middlewares/Third_Party/LwIP/src/core/tcp.c ****   ret = tcp_enqueue_flags(pcb, TCP_SYN);
 964:Middlewares/Third_Party/LwIP/src/core/tcp.c ****   if (ret == ERR_OK) {
 965:Middlewares/Third_Party/LwIP/src/core/tcp.c ****     /* SYN segment was enqueued, changed the pcbs state now */
 966:Middlewares/Third_Party/LwIP/src/core/tcp.c ****     pcb->state = SYN_SENT;
 967:Middlewares/Third_Party/LwIP/src/core/tcp.c ****     if (old_local_port != 0) {
 968:Middlewares/Third_Party/LwIP/src/core/tcp.c ****       TCP_RMV(&tcp_bound_pcbs, pcb);
 969:Middlewares/Third_Party/LwIP/src/core/tcp.c ****     }
 970:Middlewares/Third_Party/LwIP/src/core/tcp.c ****     TCP_REG_ACTIVE(pcb);
 971:Middlewares/Third_Party/LwIP/src/core/tcp.c ****     MIB2_STATS_INC(mib2.tcpactiveopens);
 972:Middlewares/Third_Party/LwIP/src/core/tcp.c **** 
 973:Middlewares/Third_Party/LwIP/src/core/tcp.c ****     tcp_output(pcb);
 974:Middlewares/Third_Party/LwIP/src/core/tcp.c ****   }
 975:Middlewares/Third_Party/LwIP/src/core/tcp.c ****   return ret;
 976:Middlewares/Third_Party/LwIP/src/core/tcp.c **** }
 977:Middlewares/Third_Party/LwIP/src/core/tcp.c **** 
 978:Middlewares/Third_Party/LwIP/src/core/tcp.c **** /**
 979:Middlewares/Third_Party/LwIP/src/core/tcp.c ****  * Called every 500 ms and implements the retransmission timer and the timer that
ARM GAS  /tmp/cc6by9MY.s 			page 44


 980:Middlewares/Third_Party/LwIP/src/core/tcp.c ****  * removes PCBs that have been in TIME-WAIT for enough time. It also increments
 981:Middlewares/Third_Party/LwIP/src/core/tcp.c ****  * various timers such as the inactivity timer in each PCB.
 982:Middlewares/Third_Party/LwIP/src/core/tcp.c ****  *
 983:Middlewares/Third_Party/LwIP/src/core/tcp.c ****  * Automatically called from tcp_tmr().
 984:Middlewares/Third_Party/LwIP/src/core/tcp.c ****  */
 985:Middlewares/Third_Party/LwIP/src/core/tcp.c **** void
 986:Middlewares/Third_Party/LwIP/src/core/tcp.c **** tcp_slowtmr(void)
 987:Middlewares/Third_Party/LwIP/src/core/tcp.c **** {
 988:Middlewares/Third_Party/LwIP/src/core/tcp.c ****   struct tcp_pcb *pcb, *prev;
 989:Middlewares/Third_Party/LwIP/src/core/tcp.c ****   tcpwnd_size_t eff_wnd;
 990:Middlewares/Third_Party/LwIP/src/core/tcp.c ****   u8_t pcb_remove;      /* flag if a PCB should be removed */
 991:Middlewares/Third_Party/LwIP/src/core/tcp.c ****   u8_t pcb_reset;       /* flag if a RST should be sent when removing */
 992:Middlewares/Third_Party/LwIP/src/core/tcp.c ****   err_t err;
 993:Middlewares/Third_Party/LwIP/src/core/tcp.c **** 
 994:Middlewares/Third_Party/LwIP/src/core/tcp.c ****   err = ERR_OK;
 995:Middlewares/Third_Party/LwIP/src/core/tcp.c **** 
 996:Middlewares/Third_Party/LwIP/src/core/tcp.c ****   ++tcp_ticks;
 997:Middlewares/Third_Party/LwIP/src/core/tcp.c ****   ++tcp_timer_ctr;
 998:Middlewares/Third_Party/LwIP/src/core/tcp.c **** 
 999:Middlewares/Third_Party/LwIP/src/core/tcp.c **** tcp_slowtmr_start:
1000:Middlewares/Third_Party/LwIP/src/core/tcp.c ****   /* Steps through all of the active PCBs. */
1001:Middlewares/Third_Party/LwIP/src/core/tcp.c ****   prev = NULL;
1002:Middlewares/Third_Party/LwIP/src/core/tcp.c ****   pcb = tcp_active_pcbs;
1003:Middlewares/Third_Party/LwIP/src/core/tcp.c ****   if (pcb == NULL) {
1004:Middlewares/Third_Party/LwIP/src/core/tcp.c ****     LWIP_DEBUGF(TCP_DEBUG, ("tcp_slowtmr: no active pcbs\n"));
1005:Middlewares/Third_Party/LwIP/src/core/tcp.c ****   }
1006:Middlewares/Third_Party/LwIP/src/core/tcp.c ****   while (pcb != NULL) {
1007:Middlewares/Third_Party/LwIP/src/core/tcp.c ****     LWIP_DEBUGF(TCP_DEBUG, ("tcp_slowtmr: processing active pcb\n"));
1008:Middlewares/Third_Party/LwIP/src/core/tcp.c ****     LWIP_ASSERT("tcp_slowtmr: active pcb->state != CLOSED\n", pcb->state != CLOSED);
1009:Middlewares/Third_Party/LwIP/src/core/tcp.c ****     LWIP_ASSERT("tcp_slowtmr: active pcb->state != LISTEN\n", pcb->state != LISTEN);
1010:Middlewares/Third_Party/LwIP/src/core/tcp.c ****     LWIP_ASSERT("tcp_slowtmr: active pcb->state != TIME-WAIT\n", pcb->state != TIME_WAIT);
1011:Middlewares/Third_Party/LwIP/src/core/tcp.c ****     if (pcb->last_timer == tcp_timer_ctr) {
1012:Middlewares/Third_Party/LwIP/src/core/tcp.c ****       /* skip this pcb, we have already processed it */
1013:Middlewares/Third_Party/LwIP/src/core/tcp.c ****       pcb = pcb->next;
1014:Middlewares/Third_Party/LwIP/src/core/tcp.c ****       continue;
1015:Middlewares/Third_Party/LwIP/src/core/tcp.c ****     }
1016:Middlewares/Third_Party/LwIP/src/core/tcp.c ****     pcb->last_timer = tcp_timer_ctr;
1017:Middlewares/Third_Party/LwIP/src/core/tcp.c **** 
1018:Middlewares/Third_Party/LwIP/src/core/tcp.c ****     pcb_remove = 0;
1019:Middlewares/Third_Party/LwIP/src/core/tcp.c ****     pcb_reset = 0;
1020:Middlewares/Third_Party/LwIP/src/core/tcp.c **** 
1021:Middlewares/Third_Party/LwIP/src/core/tcp.c ****     if (pcb->state == SYN_SENT && pcb->nrtx >= TCP_SYNMAXRTX) {
1022:Middlewares/Third_Party/LwIP/src/core/tcp.c ****       ++pcb_remove;
1023:Middlewares/Third_Party/LwIP/src/core/tcp.c ****       LWIP_DEBUGF(TCP_DEBUG, ("tcp_slowtmr: max SYN retries reached\n"));
1024:Middlewares/Third_Party/LwIP/src/core/tcp.c ****     }
1025:Middlewares/Third_Party/LwIP/src/core/tcp.c ****     else if (pcb->nrtx >= TCP_MAXRTX) {
1026:Middlewares/Third_Party/LwIP/src/core/tcp.c ****       ++pcb_remove;
1027:Middlewares/Third_Party/LwIP/src/core/tcp.c ****       LWIP_DEBUGF(TCP_DEBUG, ("tcp_slowtmr: max DATA retries reached\n"));
1028:Middlewares/Third_Party/LwIP/src/core/tcp.c ****     } else {
1029:Middlewares/Third_Party/LwIP/src/core/tcp.c ****       if (pcb->persist_backoff > 0) {
1030:Middlewares/Third_Party/LwIP/src/core/tcp.c ****         /* If snd_wnd is zero, use persist timer to send 1 byte probes
1031:Middlewares/Third_Party/LwIP/src/core/tcp.c ****          * instead of using the standard retransmission mechanism. */
1032:Middlewares/Third_Party/LwIP/src/core/tcp.c ****         u8_t backoff_cnt = tcp_persist_backoff[pcb->persist_backoff-1];
1033:Middlewares/Third_Party/LwIP/src/core/tcp.c ****         if (pcb->persist_cnt < backoff_cnt) {
1034:Middlewares/Third_Party/LwIP/src/core/tcp.c ****           pcb->persist_cnt++;
1035:Middlewares/Third_Party/LwIP/src/core/tcp.c ****         }
1036:Middlewares/Third_Party/LwIP/src/core/tcp.c ****         if (pcb->persist_cnt >= backoff_cnt) {
ARM GAS  /tmp/cc6by9MY.s 			page 45


1037:Middlewares/Third_Party/LwIP/src/core/tcp.c ****           if (tcp_zero_window_probe(pcb) == ERR_OK) {
1038:Middlewares/Third_Party/LwIP/src/core/tcp.c ****             pcb->persist_cnt = 0;
1039:Middlewares/Third_Party/LwIP/src/core/tcp.c ****             if (pcb->persist_backoff < sizeof(tcp_persist_backoff)) {
1040:Middlewares/Third_Party/LwIP/src/core/tcp.c ****               pcb->persist_backoff++;
1041:Middlewares/Third_Party/LwIP/src/core/tcp.c ****             }
1042:Middlewares/Third_Party/LwIP/src/core/tcp.c ****           }
1043:Middlewares/Third_Party/LwIP/src/core/tcp.c ****         }
1044:Middlewares/Third_Party/LwIP/src/core/tcp.c ****       } else {
1045:Middlewares/Third_Party/LwIP/src/core/tcp.c ****         /* Increase the retransmission timer if it is running */
1046:Middlewares/Third_Party/LwIP/src/core/tcp.c ****         if (pcb->rtime >= 0) {
1047:Middlewares/Third_Party/LwIP/src/core/tcp.c ****           ++pcb->rtime;
1048:Middlewares/Third_Party/LwIP/src/core/tcp.c ****         }
1049:Middlewares/Third_Party/LwIP/src/core/tcp.c **** 
1050:Middlewares/Third_Party/LwIP/src/core/tcp.c ****         if (pcb->unacked != NULL && pcb->rtime >= pcb->rto) {
1051:Middlewares/Third_Party/LwIP/src/core/tcp.c ****           /* Time for a retransmission. */
1052:Middlewares/Third_Party/LwIP/src/core/tcp.c ****           LWIP_DEBUGF(TCP_RTO_DEBUG, ("tcp_slowtmr: rtime %"S16_F
1053:Middlewares/Third_Party/LwIP/src/core/tcp.c ****                                       " pcb->rto %"S16_F"\n",
1054:Middlewares/Third_Party/LwIP/src/core/tcp.c ****                                       pcb->rtime, pcb->rto));
1055:Middlewares/Third_Party/LwIP/src/core/tcp.c **** 
1056:Middlewares/Third_Party/LwIP/src/core/tcp.c ****           /* Double retransmission time-out unless we are trying to
1057:Middlewares/Third_Party/LwIP/src/core/tcp.c ****            * connect to somebody (i.e., we are in SYN_SENT). */
1058:Middlewares/Third_Party/LwIP/src/core/tcp.c ****           if (pcb->state != SYN_SENT) {
1059:Middlewares/Third_Party/LwIP/src/core/tcp.c ****             u8_t backoff_idx = LWIP_MIN(pcb->nrtx, sizeof(tcp_backoff)-1);
1060:Middlewares/Third_Party/LwIP/src/core/tcp.c ****             pcb->rto = ((pcb->sa >> 3) + pcb->sv) << tcp_backoff[backoff_idx];
1061:Middlewares/Third_Party/LwIP/src/core/tcp.c ****           }
1062:Middlewares/Third_Party/LwIP/src/core/tcp.c **** 
1063:Middlewares/Third_Party/LwIP/src/core/tcp.c ****           /* Reset the retransmission timer. */
1064:Middlewares/Third_Party/LwIP/src/core/tcp.c ****           pcb->rtime = 0;
1065:Middlewares/Third_Party/LwIP/src/core/tcp.c **** 
1066:Middlewares/Third_Party/LwIP/src/core/tcp.c ****           /* Reduce congestion window and ssthresh. */
1067:Middlewares/Third_Party/LwIP/src/core/tcp.c ****           eff_wnd = LWIP_MIN(pcb->cwnd, pcb->snd_wnd);
1068:Middlewares/Third_Party/LwIP/src/core/tcp.c ****           pcb->ssthresh = eff_wnd >> 1;
1069:Middlewares/Third_Party/LwIP/src/core/tcp.c ****           if (pcb->ssthresh < (tcpwnd_size_t)(pcb->mss << 1)) {
1070:Middlewares/Third_Party/LwIP/src/core/tcp.c ****             pcb->ssthresh = (pcb->mss << 1);
1071:Middlewares/Third_Party/LwIP/src/core/tcp.c ****           }
1072:Middlewares/Third_Party/LwIP/src/core/tcp.c ****           pcb->cwnd = pcb->mss;
1073:Middlewares/Third_Party/LwIP/src/core/tcp.c ****           LWIP_DEBUGF(TCP_CWND_DEBUG, ("tcp_slowtmr: cwnd %"TCPWNDSIZE_F
1074:Middlewares/Third_Party/LwIP/src/core/tcp.c ****                                        " ssthresh %"TCPWNDSIZE_F"\n",
1075:Middlewares/Third_Party/LwIP/src/core/tcp.c ****                                        pcb->cwnd, pcb->ssthresh));
1076:Middlewares/Third_Party/LwIP/src/core/tcp.c **** 
1077:Middlewares/Third_Party/LwIP/src/core/tcp.c ****           /* The following needs to be called AFTER cwnd is set to one
1078:Middlewares/Third_Party/LwIP/src/core/tcp.c ****              mss - STJ */
1079:Middlewares/Third_Party/LwIP/src/core/tcp.c ****           tcp_rexmit_rto(pcb);
1080:Middlewares/Third_Party/LwIP/src/core/tcp.c ****         }
1081:Middlewares/Third_Party/LwIP/src/core/tcp.c ****       }
1082:Middlewares/Third_Party/LwIP/src/core/tcp.c ****     }
1083:Middlewares/Third_Party/LwIP/src/core/tcp.c ****     /* Check if this PCB has stayed too long in FIN-WAIT-2 */
1084:Middlewares/Third_Party/LwIP/src/core/tcp.c ****     if (pcb->state == FIN_WAIT_2) {
1085:Middlewares/Third_Party/LwIP/src/core/tcp.c ****       /* If this PCB is in FIN_WAIT_2 because of SHUT_WR don't let it time out. */
1086:Middlewares/Third_Party/LwIP/src/core/tcp.c ****       if (pcb->flags & TF_RXCLOSED) {
1087:Middlewares/Third_Party/LwIP/src/core/tcp.c ****         /* PCB was fully closed (either through close() or SHUT_RDWR):
1088:Middlewares/Third_Party/LwIP/src/core/tcp.c ****            normal FIN-WAIT timeout handling. */
1089:Middlewares/Third_Party/LwIP/src/core/tcp.c ****         if ((u32_t)(tcp_ticks - pcb->tmr) >
1090:Middlewares/Third_Party/LwIP/src/core/tcp.c ****             TCP_FIN_WAIT_TIMEOUT / TCP_SLOW_INTERVAL) {
1091:Middlewares/Third_Party/LwIP/src/core/tcp.c ****           ++pcb_remove;
1092:Middlewares/Third_Party/LwIP/src/core/tcp.c ****           LWIP_DEBUGF(TCP_DEBUG, ("tcp_slowtmr: removing pcb stuck in FIN-WAIT-2\n"));
1093:Middlewares/Third_Party/LwIP/src/core/tcp.c ****         }
ARM GAS  /tmp/cc6by9MY.s 			page 46


1094:Middlewares/Third_Party/LwIP/src/core/tcp.c ****       }
1095:Middlewares/Third_Party/LwIP/src/core/tcp.c ****     }
1096:Middlewares/Third_Party/LwIP/src/core/tcp.c **** 
1097:Middlewares/Third_Party/LwIP/src/core/tcp.c ****     /* Check if KEEPALIVE should be sent */
1098:Middlewares/Third_Party/LwIP/src/core/tcp.c ****     if (ip_get_option(pcb, SOF_KEEPALIVE) &&
1099:Middlewares/Third_Party/LwIP/src/core/tcp.c ****        ((pcb->state == ESTABLISHED) ||
1100:Middlewares/Third_Party/LwIP/src/core/tcp.c ****         (pcb->state == CLOSE_WAIT))) {
1101:Middlewares/Third_Party/LwIP/src/core/tcp.c ****       if ((u32_t)(tcp_ticks - pcb->tmr) >
1102:Middlewares/Third_Party/LwIP/src/core/tcp.c ****          (pcb->keep_idle + TCP_KEEP_DUR(pcb)) / TCP_SLOW_INTERVAL)
1103:Middlewares/Third_Party/LwIP/src/core/tcp.c ****       {
1104:Middlewares/Third_Party/LwIP/src/core/tcp.c ****         LWIP_DEBUGF(TCP_DEBUG, ("tcp_slowtmr: KEEPALIVE timeout. Aborting connection to "));
1105:Middlewares/Third_Party/LwIP/src/core/tcp.c ****         ip_addr_debug_print(TCP_DEBUG, &pcb->remote_ip);
1106:Middlewares/Third_Party/LwIP/src/core/tcp.c ****         LWIP_DEBUGF(TCP_DEBUG, ("\n"));
1107:Middlewares/Third_Party/LwIP/src/core/tcp.c **** 
1108:Middlewares/Third_Party/LwIP/src/core/tcp.c ****         ++pcb_remove;
1109:Middlewares/Third_Party/LwIP/src/core/tcp.c ****         ++pcb_reset;
1110:Middlewares/Third_Party/LwIP/src/core/tcp.c ****       } else if ((u32_t)(tcp_ticks - pcb->tmr) >
1111:Middlewares/Third_Party/LwIP/src/core/tcp.c ****                 (pcb->keep_idle + pcb->keep_cnt_sent * TCP_KEEP_INTVL(pcb))
1112:Middlewares/Third_Party/LwIP/src/core/tcp.c ****                 / TCP_SLOW_INTERVAL)
1113:Middlewares/Third_Party/LwIP/src/core/tcp.c ****       {
1114:Middlewares/Third_Party/LwIP/src/core/tcp.c ****         err = tcp_keepalive(pcb);
1115:Middlewares/Third_Party/LwIP/src/core/tcp.c ****         if (err == ERR_OK) {
1116:Middlewares/Third_Party/LwIP/src/core/tcp.c ****           pcb->keep_cnt_sent++;
1117:Middlewares/Third_Party/LwIP/src/core/tcp.c ****         }
1118:Middlewares/Third_Party/LwIP/src/core/tcp.c ****       }
1119:Middlewares/Third_Party/LwIP/src/core/tcp.c ****     }
1120:Middlewares/Third_Party/LwIP/src/core/tcp.c **** 
1121:Middlewares/Third_Party/LwIP/src/core/tcp.c ****     /* If this PCB has queued out of sequence data, but has been
1122:Middlewares/Third_Party/LwIP/src/core/tcp.c ****        inactive for too long, will drop the data (it will eventually
1123:Middlewares/Third_Party/LwIP/src/core/tcp.c ****        be retransmitted). */
1124:Middlewares/Third_Party/LwIP/src/core/tcp.c **** #if TCP_QUEUE_OOSEQ
1125:Middlewares/Third_Party/LwIP/src/core/tcp.c ****     if (pcb->ooseq != NULL &&
1126:Middlewares/Third_Party/LwIP/src/core/tcp.c ****         (u32_t)tcp_ticks - pcb->tmr >= pcb->rto * TCP_OOSEQ_TIMEOUT) {
1127:Middlewares/Third_Party/LwIP/src/core/tcp.c ****       tcp_segs_free(pcb->ooseq);
1128:Middlewares/Third_Party/LwIP/src/core/tcp.c ****       pcb->ooseq = NULL;
1129:Middlewares/Third_Party/LwIP/src/core/tcp.c ****       LWIP_DEBUGF(TCP_CWND_DEBUG, ("tcp_slowtmr: dropping OOSEQ queued data\n"));
1130:Middlewares/Third_Party/LwIP/src/core/tcp.c ****     }
1131:Middlewares/Third_Party/LwIP/src/core/tcp.c **** #endif /* TCP_QUEUE_OOSEQ */
1132:Middlewares/Third_Party/LwIP/src/core/tcp.c **** 
1133:Middlewares/Third_Party/LwIP/src/core/tcp.c ****     /* Check if this PCB has stayed too long in SYN-RCVD */
1134:Middlewares/Third_Party/LwIP/src/core/tcp.c ****     if (pcb->state == SYN_RCVD) {
1135:Middlewares/Third_Party/LwIP/src/core/tcp.c ****       if ((u32_t)(tcp_ticks - pcb->tmr) >
1136:Middlewares/Third_Party/LwIP/src/core/tcp.c ****           TCP_SYN_RCVD_TIMEOUT / TCP_SLOW_INTERVAL) {
1137:Middlewares/Third_Party/LwIP/src/core/tcp.c ****         ++pcb_remove;
1138:Middlewares/Third_Party/LwIP/src/core/tcp.c ****         LWIP_DEBUGF(TCP_DEBUG, ("tcp_slowtmr: removing pcb stuck in SYN-RCVD\n"));
1139:Middlewares/Third_Party/LwIP/src/core/tcp.c ****       }
1140:Middlewares/Third_Party/LwIP/src/core/tcp.c ****     }
1141:Middlewares/Third_Party/LwIP/src/core/tcp.c **** 
1142:Middlewares/Third_Party/LwIP/src/core/tcp.c ****     /* Check if this PCB has stayed too long in LAST-ACK */
1143:Middlewares/Third_Party/LwIP/src/core/tcp.c ****     if (pcb->state == LAST_ACK) {
1144:Middlewares/Third_Party/LwIP/src/core/tcp.c ****       if ((u32_t)(tcp_ticks - pcb->tmr) > 2 * TCP_MSL / TCP_SLOW_INTERVAL) {
1145:Middlewares/Third_Party/LwIP/src/core/tcp.c ****         ++pcb_remove;
1146:Middlewares/Third_Party/LwIP/src/core/tcp.c ****         LWIP_DEBUGF(TCP_DEBUG, ("tcp_slowtmr: removing pcb stuck in LAST-ACK\n"));
1147:Middlewares/Third_Party/LwIP/src/core/tcp.c ****       }
1148:Middlewares/Third_Party/LwIP/src/core/tcp.c ****     }
1149:Middlewares/Third_Party/LwIP/src/core/tcp.c **** 
1150:Middlewares/Third_Party/LwIP/src/core/tcp.c ****     /* If the PCB should be removed, do it. */
ARM GAS  /tmp/cc6by9MY.s 			page 47


1151:Middlewares/Third_Party/LwIP/src/core/tcp.c ****     if (pcb_remove) {
1152:Middlewares/Third_Party/LwIP/src/core/tcp.c ****       struct tcp_pcb *pcb2;
1153:Middlewares/Third_Party/LwIP/src/core/tcp.c **** #if LWIP_CALLBACK_API
1154:Middlewares/Third_Party/LwIP/src/core/tcp.c ****       tcp_err_fn err_fn = pcb->errf;
1155:Middlewares/Third_Party/LwIP/src/core/tcp.c **** #endif /* LWIP_CALLBACK_API */
1156:Middlewares/Third_Party/LwIP/src/core/tcp.c ****       void *err_arg;
1157:Middlewares/Third_Party/LwIP/src/core/tcp.c ****       enum tcp_state last_state;
1158:Middlewares/Third_Party/LwIP/src/core/tcp.c ****       tcp_pcb_purge(pcb);
1159:Middlewares/Third_Party/LwIP/src/core/tcp.c ****       /* Remove PCB from tcp_active_pcbs list. */
1160:Middlewares/Third_Party/LwIP/src/core/tcp.c ****       if (prev != NULL) {
1161:Middlewares/Third_Party/LwIP/src/core/tcp.c ****         LWIP_ASSERT("tcp_slowtmr: middle tcp != tcp_active_pcbs", pcb != tcp_active_pcbs);
1162:Middlewares/Third_Party/LwIP/src/core/tcp.c ****         prev->next = pcb->next;
1163:Middlewares/Third_Party/LwIP/src/core/tcp.c ****       } else {
1164:Middlewares/Third_Party/LwIP/src/core/tcp.c ****         /* This PCB was the first. */
1165:Middlewares/Third_Party/LwIP/src/core/tcp.c ****         LWIP_ASSERT("tcp_slowtmr: first pcb == tcp_active_pcbs", tcp_active_pcbs == pcb);
1166:Middlewares/Third_Party/LwIP/src/core/tcp.c ****         tcp_active_pcbs = pcb->next;
1167:Middlewares/Third_Party/LwIP/src/core/tcp.c ****       }
1168:Middlewares/Third_Party/LwIP/src/core/tcp.c **** 
1169:Middlewares/Third_Party/LwIP/src/core/tcp.c ****       if (pcb_reset) {
1170:Middlewares/Third_Party/LwIP/src/core/tcp.c ****         tcp_rst(pcb->snd_nxt, pcb->rcv_nxt, &pcb->local_ip, &pcb->remote_ip,
1171:Middlewares/Third_Party/LwIP/src/core/tcp.c ****                  pcb->local_port, pcb->remote_port);
1172:Middlewares/Third_Party/LwIP/src/core/tcp.c ****       }
1173:Middlewares/Third_Party/LwIP/src/core/tcp.c **** 
1174:Middlewares/Third_Party/LwIP/src/core/tcp.c ****       err_arg = pcb->callback_arg;
1175:Middlewares/Third_Party/LwIP/src/core/tcp.c ****       last_state = pcb->state;
1176:Middlewares/Third_Party/LwIP/src/core/tcp.c ****       pcb2 = pcb;
1177:Middlewares/Third_Party/LwIP/src/core/tcp.c ****       pcb = pcb->next;
1178:Middlewares/Third_Party/LwIP/src/core/tcp.c ****       memp_free(MEMP_TCP_PCB, pcb2);
1179:Middlewares/Third_Party/LwIP/src/core/tcp.c **** 
1180:Middlewares/Third_Party/LwIP/src/core/tcp.c ****       tcp_active_pcbs_changed = 0;
1181:Middlewares/Third_Party/LwIP/src/core/tcp.c ****       TCP_EVENT_ERR(last_state, err_fn, err_arg, ERR_ABRT);
1182:Middlewares/Third_Party/LwIP/src/core/tcp.c ****       if (tcp_active_pcbs_changed) {
1183:Middlewares/Third_Party/LwIP/src/core/tcp.c ****         goto tcp_slowtmr_start;
1184:Middlewares/Third_Party/LwIP/src/core/tcp.c ****       }
1185:Middlewares/Third_Party/LwIP/src/core/tcp.c ****     } else {
1186:Middlewares/Third_Party/LwIP/src/core/tcp.c ****       /* get the 'next' element now and work with 'prev' below (in case of abort) */
1187:Middlewares/Third_Party/LwIP/src/core/tcp.c ****       prev = pcb;
1188:Middlewares/Third_Party/LwIP/src/core/tcp.c ****       pcb = pcb->next;
1189:Middlewares/Third_Party/LwIP/src/core/tcp.c **** 
1190:Middlewares/Third_Party/LwIP/src/core/tcp.c ****       /* We check if we should poll the connection. */
1191:Middlewares/Third_Party/LwIP/src/core/tcp.c ****       ++prev->polltmr;
1192:Middlewares/Third_Party/LwIP/src/core/tcp.c ****       if (prev->polltmr >= prev->pollinterval) {
1193:Middlewares/Third_Party/LwIP/src/core/tcp.c ****         prev->polltmr = 0;
1194:Middlewares/Third_Party/LwIP/src/core/tcp.c ****         LWIP_DEBUGF(TCP_DEBUG, ("tcp_slowtmr: polling application\n"));
1195:Middlewares/Third_Party/LwIP/src/core/tcp.c ****         tcp_active_pcbs_changed = 0;
1196:Middlewares/Third_Party/LwIP/src/core/tcp.c ****         TCP_EVENT_POLL(prev, err);
1197:Middlewares/Third_Party/LwIP/src/core/tcp.c ****         if (tcp_active_pcbs_changed) {
1198:Middlewares/Third_Party/LwIP/src/core/tcp.c ****           goto tcp_slowtmr_start;
1199:Middlewares/Third_Party/LwIP/src/core/tcp.c ****         }
1200:Middlewares/Third_Party/LwIP/src/core/tcp.c ****         /* if err == ERR_ABRT, 'prev' is already deallocated */
1201:Middlewares/Third_Party/LwIP/src/core/tcp.c ****         if (err == ERR_OK) {
1202:Middlewares/Third_Party/LwIP/src/core/tcp.c ****           tcp_output(prev);
1203:Middlewares/Third_Party/LwIP/src/core/tcp.c ****         }
1204:Middlewares/Third_Party/LwIP/src/core/tcp.c ****       }
1205:Middlewares/Third_Party/LwIP/src/core/tcp.c ****     }
1206:Middlewares/Third_Party/LwIP/src/core/tcp.c ****   }
1207:Middlewares/Third_Party/LwIP/src/core/tcp.c **** 
ARM GAS  /tmp/cc6by9MY.s 			page 48


1208:Middlewares/Third_Party/LwIP/src/core/tcp.c **** 
1209:Middlewares/Third_Party/LwIP/src/core/tcp.c ****   /* Steps through all of the TIME-WAIT PCBs. */
1210:Middlewares/Third_Party/LwIP/src/core/tcp.c ****   prev = NULL;
1211:Middlewares/Third_Party/LwIP/src/core/tcp.c ****   pcb = tcp_tw_pcbs;
1212:Middlewares/Third_Party/LwIP/src/core/tcp.c ****   while (pcb != NULL) {
1213:Middlewares/Third_Party/LwIP/src/core/tcp.c ****     LWIP_ASSERT("tcp_slowtmr: TIME-WAIT pcb->state == TIME-WAIT", pcb->state == TIME_WAIT);
1214:Middlewares/Third_Party/LwIP/src/core/tcp.c ****     pcb_remove = 0;
1215:Middlewares/Third_Party/LwIP/src/core/tcp.c **** 
1216:Middlewares/Third_Party/LwIP/src/core/tcp.c ****     /* Check if this PCB has stayed long enough in TIME-WAIT */
1217:Middlewares/Third_Party/LwIP/src/core/tcp.c ****     if ((u32_t)(tcp_ticks - pcb->tmr) > 2 * TCP_MSL / TCP_SLOW_INTERVAL) {
1218:Middlewares/Third_Party/LwIP/src/core/tcp.c ****       ++pcb_remove;
1219:Middlewares/Third_Party/LwIP/src/core/tcp.c ****     }
1220:Middlewares/Third_Party/LwIP/src/core/tcp.c **** 
1221:Middlewares/Third_Party/LwIP/src/core/tcp.c ****     /* If the PCB should be removed, do it. */
1222:Middlewares/Third_Party/LwIP/src/core/tcp.c ****     if (pcb_remove) {
1223:Middlewares/Third_Party/LwIP/src/core/tcp.c ****       struct tcp_pcb *pcb2;
1224:Middlewares/Third_Party/LwIP/src/core/tcp.c ****       tcp_pcb_purge(pcb);
1225:Middlewares/Third_Party/LwIP/src/core/tcp.c ****       /* Remove PCB from tcp_tw_pcbs list. */
1226:Middlewares/Third_Party/LwIP/src/core/tcp.c ****       if (prev != NULL) {
1227:Middlewares/Third_Party/LwIP/src/core/tcp.c ****         LWIP_ASSERT("tcp_slowtmr: middle tcp != tcp_tw_pcbs", pcb != tcp_tw_pcbs);
1228:Middlewares/Third_Party/LwIP/src/core/tcp.c ****         prev->next = pcb->next;
1229:Middlewares/Third_Party/LwIP/src/core/tcp.c ****       } else {
1230:Middlewares/Third_Party/LwIP/src/core/tcp.c ****         /* This PCB was the first. */
1231:Middlewares/Third_Party/LwIP/src/core/tcp.c ****         LWIP_ASSERT("tcp_slowtmr: first pcb == tcp_tw_pcbs", tcp_tw_pcbs == pcb);
1232:Middlewares/Third_Party/LwIP/src/core/tcp.c ****         tcp_tw_pcbs = pcb->next;
1233:Middlewares/Third_Party/LwIP/src/core/tcp.c ****       }
1234:Middlewares/Third_Party/LwIP/src/core/tcp.c ****       pcb2 = pcb;
1235:Middlewares/Third_Party/LwIP/src/core/tcp.c ****       pcb = pcb->next;
1236:Middlewares/Third_Party/LwIP/src/core/tcp.c ****       memp_free(MEMP_TCP_PCB, pcb2);
1237:Middlewares/Third_Party/LwIP/src/core/tcp.c ****     } else {
1238:Middlewares/Third_Party/LwIP/src/core/tcp.c ****       prev = pcb;
1239:Middlewares/Third_Party/LwIP/src/core/tcp.c ****       pcb = pcb->next;
1240:Middlewares/Third_Party/LwIP/src/core/tcp.c ****     }
1241:Middlewares/Third_Party/LwIP/src/core/tcp.c ****   }
1242:Middlewares/Third_Party/LwIP/src/core/tcp.c **** }
1243:Middlewares/Third_Party/LwIP/src/core/tcp.c **** 
1244:Middlewares/Third_Party/LwIP/src/core/tcp.c **** /**
1245:Middlewares/Third_Party/LwIP/src/core/tcp.c ****  * Is called every TCP_FAST_INTERVAL (250 ms) and process data previously
1246:Middlewares/Third_Party/LwIP/src/core/tcp.c ****  * "refused" by upper layer (application) and sends delayed ACKs.
1247:Middlewares/Third_Party/LwIP/src/core/tcp.c ****  *
1248:Middlewares/Third_Party/LwIP/src/core/tcp.c ****  * Automatically called from tcp_tmr().
1249:Middlewares/Third_Party/LwIP/src/core/tcp.c ****  */
1250:Middlewares/Third_Party/LwIP/src/core/tcp.c **** void
1251:Middlewares/Third_Party/LwIP/src/core/tcp.c **** tcp_fasttmr(void)
1252:Middlewares/Third_Party/LwIP/src/core/tcp.c **** {
1253:Middlewares/Third_Party/LwIP/src/core/tcp.c ****   struct tcp_pcb *pcb;
1254:Middlewares/Third_Party/LwIP/src/core/tcp.c **** 
1255:Middlewares/Third_Party/LwIP/src/core/tcp.c ****   ++tcp_timer_ctr;
1256:Middlewares/Third_Party/LwIP/src/core/tcp.c **** 
1257:Middlewares/Third_Party/LwIP/src/core/tcp.c **** tcp_fasttmr_start:
1258:Middlewares/Third_Party/LwIP/src/core/tcp.c ****   pcb = tcp_active_pcbs;
1259:Middlewares/Third_Party/LwIP/src/core/tcp.c **** 
1260:Middlewares/Third_Party/LwIP/src/core/tcp.c ****   while (pcb != NULL) {
1261:Middlewares/Third_Party/LwIP/src/core/tcp.c ****     if (pcb->last_timer != tcp_timer_ctr) {
1262:Middlewares/Third_Party/LwIP/src/core/tcp.c ****       struct tcp_pcb *next;
1263:Middlewares/Third_Party/LwIP/src/core/tcp.c ****       pcb->last_timer = tcp_timer_ctr;
1264:Middlewares/Third_Party/LwIP/src/core/tcp.c ****       /* send delayed ACKs */
ARM GAS  /tmp/cc6by9MY.s 			page 49


1265:Middlewares/Third_Party/LwIP/src/core/tcp.c ****       if (pcb->flags & TF_ACK_DELAY) {
1266:Middlewares/Third_Party/LwIP/src/core/tcp.c ****         LWIP_DEBUGF(TCP_DEBUG, ("tcp_fasttmr: delayed ACK\n"));
1267:Middlewares/Third_Party/LwIP/src/core/tcp.c ****         tcp_ack_now(pcb);
1268:Middlewares/Third_Party/LwIP/src/core/tcp.c ****         tcp_output(pcb);
1269:Middlewares/Third_Party/LwIP/src/core/tcp.c ****         pcb->flags &= ~(TF_ACK_DELAY | TF_ACK_NOW);
1270:Middlewares/Third_Party/LwIP/src/core/tcp.c ****       }
1271:Middlewares/Third_Party/LwIP/src/core/tcp.c ****       /* send pending FIN */
1272:Middlewares/Third_Party/LwIP/src/core/tcp.c ****       if (pcb->flags & TF_CLOSEPEND) {
1273:Middlewares/Third_Party/LwIP/src/core/tcp.c ****         LWIP_DEBUGF(TCP_DEBUG, ("tcp_fasttmr: pending FIN\n"));
1274:Middlewares/Third_Party/LwIP/src/core/tcp.c ****         pcb->flags &= ~(TF_CLOSEPEND);
1275:Middlewares/Third_Party/LwIP/src/core/tcp.c ****         tcp_close_shutdown_fin(pcb);
1276:Middlewares/Third_Party/LwIP/src/core/tcp.c ****       }
1277:Middlewares/Third_Party/LwIP/src/core/tcp.c **** 
1278:Middlewares/Third_Party/LwIP/src/core/tcp.c ****       next = pcb->next;
1279:Middlewares/Third_Party/LwIP/src/core/tcp.c **** 
1280:Middlewares/Third_Party/LwIP/src/core/tcp.c ****       /* If there is data which was previously "refused" by upper layer */
1281:Middlewares/Third_Party/LwIP/src/core/tcp.c ****       if (pcb->refused_data != NULL) {
1282:Middlewares/Third_Party/LwIP/src/core/tcp.c ****         tcp_active_pcbs_changed = 0;
1283:Middlewares/Third_Party/LwIP/src/core/tcp.c ****         tcp_process_refused_data(pcb);
1284:Middlewares/Third_Party/LwIP/src/core/tcp.c ****         if (tcp_active_pcbs_changed) {
1285:Middlewares/Third_Party/LwIP/src/core/tcp.c ****           /* application callback has changed the pcb list: restart the loop */
1286:Middlewares/Third_Party/LwIP/src/core/tcp.c ****           goto tcp_fasttmr_start;
1287:Middlewares/Third_Party/LwIP/src/core/tcp.c ****         }
1288:Middlewares/Third_Party/LwIP/src/core/tcp.c ****       }
1289:Middlewares/Third_Party/LwIP/src/core/tcp.c ****       pcb = next;
1290:Middlewares/Third_Party/LwIP/src/core/tcp.c ****     } else {
1291:Middlewares/Third_Party/LwIP/src/core/tcp.c ****       pcb = pcb->next;
1292:Middlewares/Third_Party/LwIP/src/core/tcp.c ****     }
1293:Middlewares/Third_Party/LwIP/src/core/tcp.c ****   }
1294:Middlewares/Third_Party/LwIP/src/core/tcp.c **** }
1295:Middlewares/Third_Party/LwIP/src/core/tcp.c **** 
1296:Middlewares/Third_Party/LwIP/src/core/tcp.c **** /** Call tcp_output for all active pcbs that have TF_NAGLEMEMERR set */
1297:Middlewares/Third_Party/LwIP/src/core/tcp.c **** void
1298:Middlewares/Third_Party/LwIP/src/core/tcp.c **** tcp_txnow(void)
1299:Middlewares/Third_Party/LwIP/src/core/tcp.c **** {
 1179              		.loc 1 1299 1 is_stmt 1 view -0
 1180              		.cfi_startproc
 1181              		@ args = 0, pretend = 0, frame = 0
 1182              		@ frame_needed = 0, uses_anonymous_args = 0
 1183 0000 10B5     		push	{r4, lr}
 1184              	.LCFI10:
 1185              		.cfi_def_cfa_offset 8
 1186              		.cfi_offset 4, -8
 1187              		.cfi_offset 14, -4
1300:Middlewares/Third_Party/LwIP/src/core/tcp.c ****   struct tcp_pcb *pcb;
 1188              		.loc 1 1300 3 view .LVU337
1301:Middlewares/Third_Party/LwIP/src/core/tcp.c **** 
1302:Middlewares/Third_Party/LwIP/src/core/tcp.c ****   for (pcb = tcp_active_pcbs; pcb != NULL; pcb = pcb->next) {
 1189              		.loc 1 1302 3 view .LVU338
 1190              		.loc 1 1302 12 is_stmt 0 view .LVU339
 1191 0002 074B     		ldr	r3, .L125
 1192 0004 1C68     		ldr	r4, [r3]
 1193              	.LVL113:
 1194              		.loc 1 1302 3 view .LVU340
 1195 0006 00E0     		b	.L120
 1196              	.L121:
 1197              		.loc 1 1302 48 discriminator 2 view .LVU341
ARM GAS  /tmp/cc6by9MY.s 			page 50


 1198 0008 E468     		ldr	r4, [r4, #12]
 1199              	.LVL114:
 1200              	.L120:
 1201              		.loc 1 1302 3 discriminator 1 view .LVU342
 1202 000a 3CB1     		cbz	r4, .L124
1303:Middlewares/Third_Party/LwIP/src/core/tcp.c ****     if (pcb->flags & TF_NAGLEMEMERR) {
 1203              		.loc 1 1303 5 is_stmt 1 view .LVU343
 1204              		.loc 1 1303 9 is_stmt 0 view .LVU344
 1205 000c 94F91A30 		ldrsb	r3, [r4, #26]
 1206              		.loc 1 1303 8 view .LVU345
 1207 0010 002B     		cmp	r3, #0
 1208 0012 F9DA     		bge	.L121
1304:Middlewares/Third_Party/LwIP/src/core/tcp.c ****       tcp_output(pcb);
 1209              		.loc 1 1304 7 is_stmt 1 view .LVU346
 1210 0014 2046     		mov	r0, r4
 1211 0016 FFF7FEFF 		bl	tcp_output
 1212              	.LVL115:
 1213 001a F5E7     		b	.L121
 1214              	.L124:
1305:Middlewares/Third_Party/LwIP/src/core/tcp.c ****     }
1306:Middlewares/Third_Party/LwIP/src/core/tcp.c ****   }
1307:Middlewares/Third_Party/LwIP/src/core/tcp.c **** }
 1215              		.loc 1 1307 1 is_stmt 0 view .LVU347
 1216 001c 10BD     		pop	{r4, pc}
 1217              	.LVL116:
 1218              	.L126:
 1219              		.loc 1 1307 1 view .LVU348
 1220 001e 00BF     		.align	2
 1221              	.L125:
 1222 0020 00000000 		.word	tcp_active_pcbs
 1223              		.cfi_endproc
 1224              	.LFE180:
 1226              		.section	.text.tcp_seg_free,"ax",%progbits
 1227              		.align	1
 1228              		.global	tcp_seg_free
 1229              		.syntax unified
 1230              		.thumb
 1231              		.thumb_func
 1232              		.fpu fpv5-sp-d16
 1234              	tcp_seg_free:
 1235              	.LVL117:
 1236              	.LFB183:
1308:Middlewares/Third_Party/LwIP/src/core/tcp.c **** 
1309:Middlewares/Third_Party/LwIP/src/core/tcp.c **** /** Pass pcb->refused_data to the recv callback */
1310:Middlewares/Third_Party/LwIP/src/core/tcp.c **** err_t
1311:Middlewares/Third_Party/LwIP/src/core/tcp.c **** tcp_process_refused_data(struct tcp_pcb *pcb)
1312:Middlewares/Third_Party/LwIP/src/core/tcp.c **** {
1313:Middlewares/Third_Party/LwIP/src/core/tcp.c **** #if TCP_QUEUE_OOSEQ && LWIP_WND_SCALE
1314:Middlewares/Third_Party/LwIP/src/core/tcp.c ****   struct pbuf *rest;
1315:Middlewares/Third_Party/LwIP/src/core/tcp.c ****   while (pcb->refused_data != NULL)
1316:Middlewares/Third_Party/LwIP/src/core/tcp.c **** #endif /* TCP_QUEUE_OOSEQ && LWIP_WND_SCALE */
1317:Middlewares/Third_Party/LwIP/src/core/tcp.c ****   {
1318:Middlewares/Third_Party/LwIP/src/core/tcp.c ****     err_t err;
1319:Middlewares/Third_Party/LwIP/src/core/tcp.c ****     u8_t refused_flags = pcb->refused_data->flags;
1320:Middlewares/Third_Party/LwIP/src/core/tcp.c ****     /* set pcb->refused_data to NULL in case the callback frees it and then
1321:Middlewares/Third_Party/LwIP/src/core/tcp.c ****        closes the pcb */
1322:Middlewares/Third_Party/LwIP/src/core/tcp.c ****     struct pbuf *refused_data = pcb->refused_data;
ARM GAS  /tmp/cc6by9MY.s 			page 51


1323:Middlewares/Third_Party/LwIP/src/core/tcp.c **** #if TCP_QUEUE_OOSEQ && LWIP_WND_SCALE
1324:Middlewares/Third_Party/LwIP/src/core/tcp.c ****     pbuf_split_64k(refused_data, &rest);
1325:Middlewares/Third_Party/LwIP/src/core/tcp.c ****     pcb->refused_data = rest;
1326:Middlewares/Third_Party/LwIP/src/core/tcp.c **** #else /* TCP_QUEUE_OOSEQ && LWIP_WND_SCALE */
1327:Middlewares/Third_Party/LwIP/src/core/tcp.c ****     pcb->refused_data = NULL;
1328:Middlewares/Third_Party/LwIP/src/core/tcp.c **** #endif /* TCP_QUEUE_OOSEQ && LWIP_WND_SCALE */
1329:Middlewares/Third_Party/LwIP/src/core/tcp.c ****     /* Notify again application with data previously received. */
1330:Middlewares/Third_Party/LwIP/src/core/tcp.c ****     LWIP_DEBUGF(TCP_INPUT_DEBUG, ("tcp_input: notify kept packet\n"));
1331:Middlewares/Third_Party/LwIP/src/core/tcp.c ****     TCP_EVENT_RECV(pcb, refused_data, ERR_OK, err);
1332:Middlewares/Third_Party/LwIP/src/core/tcp.c ****     if (err == ERR_OK) {
1333:Middlewares/Third_Party/LwIP/src/core/tcp.c ****       /* did refused_data include a FIN? */
1334:Middlewares/Third_Party/LwIP/src/core/tcp.c ****       if (refused_flags & PBUF_FLAG_TCP_FIN
1335:Middlewares/Third_Party/LwIP/src/core/tcp.c **** #if TCP_QUEUE_OOSEQ && LWIP_WND_SCALE
1336:Middlewares/Third_Party/LwIP/src/core/tcp.c ****           && (rest == NULL)
1337:Middlewares/Third_Party/LwIP/src/core/tcp.c **** #endif /* TCP_QUEUE_OOSEQ && LWIP_WND_SCALE */
1338:Middlewares/Third_Party/LwIP/src/core/tcp.c ****          ) {
1339:Middlewares/Third_Party/LwIP/src/core/tcp.c ****         /* correct rcv_wnd as the application won't call tcp_recved()
1340:Middlewares/Third_Party/LwIP/src/core/tcp.c ****            for the FIN's seqno */
1341:Middlewares/Third_Party/LwIP/src/core/tcp.c ****         if (pcb->rcv_wnd != TCP_WND_MAX(pcb)) {
1342:Middlewares/Third_Party/LwIP/src/core/tcp.c ****           pcb->rcv_wnd++;
1343:Middlewares/Third_Party/LwIP/src/core/tcp.c ****         }
1344:Middlewares/Third_Party/LwIP/src/core/tcp.c ****         TCP_EVENT_CLOSED(pcb, err);
1345:Middlewares/Third_Party/LwIP/src/core/tcp.c ****         if (err == ERR_ABRT) {
1346:Middlewares/Third_Party/LwIP/src/core/tcp.c ****           return ERR_ABRT;
1347:Middlewares/Third_Party/LwIP/src/core/tcp.c ****         }
1348:Middlewares/Third_Party/LwIP/src/core/tcp.c ****       }
1349:Middlewares/Third_Party/LwIP/src/core/tcp.c ****     } else if (err == ERR_ABRT) {
1350:Middlewares/Third_Party/LwIP/src/core/tcp.c ****       /* if err == ERR_ABRT, 'pcb' is already deallocated */
1351:Middlewares/Third_Party/LwIP/src/core/tcp.c ****       /* Drop incoming packets because pcb is "full" (only if the incoming
1352:Middlewares/Third_Party/LwIP/src/core/tcp.c ****          segment contains data). */
1353:Middlewares/Third_Party/LwIP/src/core/tcp.c ****       LWIP_DEBUGF(TCP_INPUT_DEBUG, ("tcp_input: drop incoming packets, because pcb is \"full\"\n"))
1354:Middlewares/Third_Party/LwIP/src/core/tcp.c ****       return ERR_ABRT;
1355:Middlewares/Third_Party/LwIP/src/core/tcp.c ****     } else {
1356:Middlewares/Third_Party/LwIP/src/core/tcp.c ****       /* data is still refused, pbuf is still valid (go on for ACK-only packets) */
1357:Middlewares/Third_Party/LwIP/src/core/tcp.c **** #if TCP_QUEUE_OOSEQ && LWIP_WND_SCALE
1358:Middlewares/Third_Party/LwIP/src/core/tcp.c ****       if (rest != NULL) {
1359:Middlewares/Third_Party/LwIP/src/core/tcp.c ****         pbuf_cat(refused_data, rest);
1360:Middlewares/Third_Party/LwIP/src/core/tcp.c ****       }
1361:Middlewares/Third_Party/LwIP/src/core/tcp.c **** #endif /* TCP_QUEUE_OOSEQ && LWIP_WND_SCALE */
1362:Middlewares/Third_Party/LwIP/src/core/tcp.c ****       pcb->refused_data = refused_data;
1363:Middlewares/Third_Party/LwIP/src/core/tcp.c ****       return ERR_INPROGRESS;
1364:Middlewares/Third_Party/LwIP/src/core/tcp.c ****     }
1365:Middlewares/Third_Party/LwIP/src/core/tcp.c ****   }
1366:Middlewares/Third_Party/LwIP/src/core/tcp.c ****   return ERR_OK;
1367:Middlewares/Third_Party/LwIP/src/core/tcp.c **** }
1368:Middlewares/Third_Party/LwIP/src/core/tcp.c **** 
1369:Middlewares/Third_Party/LwIP/src/core/tcp.c **** /**
1370:Middlewares/Third_Party/LwIP/src/core/tcp.c ****  * Deallocates a list of TCP segments (tcp_seg structures).
1371:Middlewares/Third_Party/LwIP/src/core/tcp.c ****  *
1372:Middlewares/Third_Party/LwIP/src/core/tcp.c ****  * @param seg tcp_seg list of TCP segments to free
1373:Middlewares/Third_Party/LwIP/src/core/tcp.c ****  */
1374:Middlewares/Third_Party/LwIP/src/core/tcp.c **** void
1375:Middlewares/Third_Party/LwIP/src/core/tcp.c **** tcp_segs_free(struct tcp_seg *seg)
1376:Middlewares/Third_Party/LwIP/src/core/tcp.c **** {
1377:Middlewares/Third_Party/LwIP/src/core/tcp.c ****   while (seg != NULL) {
1378:Middlewares/Third_Party/LwIP/src/core/tcp.c ****     struct tcp_seg *next = seg->next;
1379:Middlewares/Third_Party/LwIP/src/core/tcp.c ****     tcp_seg_free(seg);
ARM GAS  /tmp/cc6by9MY.s 			page 52


1380:Middlewares/Third_Party/LwIP/src/core/tcp.c ****     seg = next;
1381:Middlewares/Third_Party/LwIP/src/core/tcp.c ****   }
1382:Middlewares/Third_Party/LwIP/src/core/tcp.c **** }
1383:Middlewares/Third_Party/LwIP/src/core/tcp.c **** 
1384:Middlewares/Third_Party/LwIP/src/core/tcp.c **** /**
1385:Middlewares/Third_Party/LwIP/src/core/tcp.c ****  * Frees a TCP segment (tcp_seg structure).
1386:Middlewares/Third_Party/LwIP/src/core/tcp.c ****  *
1387:Middlewares/Third_Party/LwIP/src/core/tcp.c ****  * @param seg single tcp_seg to free
1388:Middlewares/Third_Party/LwIP/src/core/tcp.c ****  */
1389:Middlewares/Third_Party/LwIP/src/core/tcp.c **** void
1390:Middlewares/Third_Party/LwIP/src/core/tcp.c **** tcp_seg_free(struct tcp_seg *seg)
1391:Middlewares/Third_Party/LwIP/src/core/tcp.c **** {
 1237              		.loc 1 1391 1 is_stmt 1 view -0
 1238              		.cfi_startproc
 1239              		@ args = 0, pretend = 0, frame = 0
 1240              		@ frame_needed = 0, uses_anonymous_args = 0
1392:Middlewares/Third_Party/LwIP/src/core/tcp.c ****   if (seg != NULL) {
 1241              		.loc 1 1392 3 view .LVU350
 1242              		.loc 1 1392 6 is_stmt 0 view .LVU351
 1243 0000 50B1     		cbz	r0, .L131
1391:Middlewares/Third_Party/LwIP/src/core/tcp.c ****   if (seg != NULL) {
 1244              		.loc 1 1391 1 view .LVU352
 1245 0002 10B5     		push	{r4, lr}
 1246              	.LCFI11:
 1247              		.cfi_def_cfa_offset 8
 1248              		.cfi_offset 4, -8
 1249              		.cfi_offset 14, -4
 1250 0004 0446     		mov	r4, r0
1393:Middlewares/Third_Party/LwIP/src/core/tcp.c ****     if (seg->p != NULL) {
 1251              		.loc 1 1393 5 is_stmt 1 view .LVU353
 1252              		.loc 1 1393 12 is_stmt 0 view .LVU354
 1253 0006 4068     		ldr	r0, [r0, #4]
 1254              	.LVL118:
 1255              		.loc 1 1393 8 view .LVU355
 1256 0008 08B1     		cbz	r0, .L129
1394:Middlewares/Third_Party/LwIP/src/core/tcp.c ****       pbuf_free(seg->p);
 1257              		.loc 1 1394 7 is_stmt 1 view .LVU356
 1258 000a FFF7FEFF 		bl	pbuf_free
 1259              	.LVL119:
 1260              	.L129:
1395:Middlewares/Third_Party/LwIP/src/core/tcp.c **** #if TCP_DEBUG
1396:Middlewares/Third_Party/LwIP/src/core/tcp.c ****       seg->p = NULL;
1397:Middlewares/Third_Party/LwIP/src/core/tcp.c **** #endif /* TCP_DEBUG */
1398:Middlewares/Third_Party/LwIP/src/core/tcp.c ****     }
1399:Middlewares/Third_Party/LwIP/src/core/tcp.c ****     memp_free(MEMP_TCP_SEG, seg);
 1261              		.loc 1 1399 5 view .LVU357
 1262 000e 2146     		mov	r1, r4
 1263 0010 0320     		movs	r0, #3
 1264 0012 FFF7FEFF 		bl	memp_free
 1265              	.LVL120:
1400:Middlewares/Third_Party/LwIP/src/core/tcp.c ****   }
1401:Middlewares/Third_Party/LwIP/src/core/tcp.c **** }
 1266              		.loc 1 1401 1 is_stmt 0 view .LVU358
 1267 0016 10BD     		pop	{r4, pc}
 1268              	.LVL121:
 1269              	.L131:
 1270              	.LCFI12:
ARM GAS  /tmp/cc6by9MY.s 			page 53


 1271              		.cfi_def_cfa_offset 0
 1272              		.cfi_restore 4
 1273              		.cfi_restore 14
 1274              		.loc 1 1401 1 view .LVU359
 1275 0018 7047     		bx	lr
 1276              		.cfi_endproc
 1277              	.LFE183:
 1279              		.section	.text.tcp_segs_free,"ax",%progbits
 1280              		.align	1
 1281              		.global	tcp_segs_free
 1282              		.syntax unified
 1283              		.thumb
 1284              		.thumb_func
 1285              		.fpu fpv5-sp-d16
 1287              	tcp_segs_free:
 1288              	.LVL122:
 1289              	.LFB182:
1376:Middlewares/Third_Party/LwIP/src/core/tcp.c ****   while (seg != NULL) {
 1290              		.loc 1 1376 1 is_stmt 1 view -0
 1291              		.cfi_startproc
 1292              		@ args = 0, pretend = 0, frame = 0
 1293              		@ frame_needed = 0, uses_anonymous_args = 0
1377:Middlewares/Third_Party/LwIP/src/core/tcp.c ****     struct tcp_seg *next = seg->next;
 1294              		.loc 1 1377 3 view .LVU361
1377:Middlewares/Third_Party/LwIP/src/core/tcp.c ****     struct tcp_seg *next = seg->next;
 1295              		.loc 1 1377 9 is_stmt 0 view .LVU362
 1296 0000 38B1     		cbz	r0, .L140
1376:Middlewares/Third_Party/LwIP/src/core/tcp.c ****   while (seg != NULL) {
 1297              		.loc 1 1376 1 view .LVU363
 1298 0002 10B5     		push	{r4, lr}
 1299              	.LCFI13:
 1300              		.cfi_def_cfa_offset 8
 1301              		.cfi_offset 4, -8
 1302              		.cfi_offset 14, -4
 1303              	.L136:
 1304              	.LBB5:
1378:Middlewares/Third_Party/LwIP/src/core/tcp.c ****     tcp_seg_free(seg);
 1305              		.loc 1 1378 5 is_stmt 1 view .LVU364
1378:Middlewares/Third_Party/LwIP/src/core/tcp.c ****     tcp_seg_free(seg);
 1306              		.loc 1 1378 21 is_stmt 0 view .LVU365
 1307 0004 0468     		ldr	r4, [r0]
 1308              	.LVL123:
1379:Middlewares/Third_Party/LwIP/src/core/tcp.c ****     seg = next;
 1309              		.loc 1 1379 5 is_stmt 1 view .LVU366
 1310 0006 FFF7FEFF 		bl	tcp_seg_free
 1311              	.LVL124:
1380:Middlewares/Third_Party/LwIP/src/core/tcp.c ****   }
 1312              		.loc 1 1380 5 view .LVU367
1380:Middlewares/Third_Party/LwIP/src/core/tcp.c ****   }
 1313              		.loc 1 1380 9 is_stmt 0 view .LVU368
 1314 000a 2046     		mov	r0, r4
1380:Middlewares/Third_Party/LwIP/src/core/tcp.c ****   }
 1315              		.loc 1 1380 9 view .LVU369
 1316              	.LBE5:
1377:Middlewares/Third_Party/LwIP/src/core/tcp.c ****     struct tcp_seg *next = seg->next;
 1317              		.loc 1 1377 9 view .LVU370
 1318 000c 002C     		cmp	r4, #0
ARM GAS  /tmp/cc6by9MY.s 			page 54


 1319 000e F9D1     		bne	.L136
1382:Middlewares/Third_Party/LwIP/src/core/tcp.c **** 
 1320              		.loc 1 1382 1 view .LVU371
 1321 0010 10BD     		pop	{r4, pc}
 1322              	.LVL125:
 1323              	.L140:
 1324              	.LCFI14:
 1325              		.cfi_def_cfa_offset 0
 1326              		.cfi_restore 4
 1327              		.cfi_restore 14
1382:Middlewares/Third_Party/LwIP/src/core/tcp.c **** 
 1328              		.loc 1 1382 1 view .LVU372
 1329 0012 7047     		bx	lr
 1330              		.cfi_endproc
 1331              	.LFE182:
 1333              		.section	.text.tcp_setprio,"ax",%progbits
 1334              		.align	1
 1335              		.global	tcp_setprio
 1336              		.syntax unified
 1337              		.thumb
 1338              		.thumb_func
 1339              		.fpu fpv5-sp-d16
 1341              	tcp_setprio:
 1342              	.LVL126:
 1343              	.LFB184:
1402:Middlewares/Third_Party/LwIP/src/core/tcp.c **** 
1403:Middlewares/Third_Party/LwIP/src/core/tcp.c **** /**
1404:Middlewares/Third_Party/LwIP/src/core/tcp.c ****  * Sets the priority of a connection.
1405:Middlewares/Third_Party/LwIP/src/core/tcp.c ****  *
1406:Middlewares/Third_Party/LwIP/src/core/tcp.c ****  * @param pcb the tcp_pcb to manipulate
1407:Middlewares/Third_Party/LwIP/src/core/tcp.c ****  * @param prio new priority
1408:Middlewares/Third_Party/LwIP/src/core/tcp.c ****  */
1409:Middlewares/Third_Party/LwIP/src/core/tcp.c **** void
1410:Middlewares/Third_Party/LwIP/src/core/tcp.c **** tcp_setprio(struct tcp_pcb *pcb, u8_t prio)
1411:Middlewares/Third_Party/LwIP/src/core/tcp.c **** {
 1344              		.loc 1 1411 1 is_stmt 1 view -0
 1345              		.cfi_startproc
 1346              		@ args = 0, pretend = 0, frame = 0
 1347              		@ frame_needed = 0, uses_anonymous_args = 0
 1348              		@ link register save eliminated.
1412:Middlewares/Third_Party/LwIP/src/core/tcp.c ****   pcb->prio = prio;
 1349              		.loc 1 1412 3 view .LVU374
 1350              		.loc 1 1412 13 is_stmt 0 view .LVU375
 1351 0000 4175     		strb	r1, [r0, #21]
1413:Middlewares/Third_Party/LwIP/src/core/tcp.c **** }
 1352              		.loc 1 1413 1 view .LVU376
 1353 0002 7047     		bx	lr
 1354              		.cfi_endproc
 1355              	.LFE184:
 1357              		.section	.text.tcp_seg_copy,"ax",%progbits
 1358              		.align	1
 1359              		.global	tcp_seg_copy
 1360              		.syntax unified
 1361              		.thumb
 1362              		.thumb_func
 1363              		.fpu fpv5-sp-d16
 1365              	tcp_seg_copy:
ARM GAS  /tmp/cc6by9MY.s 			page 55


 1366              	.LVL127:
 1367              	.LFB185:
1414:Middlewares/Third_Party/LwIP/src/core/tcp.c **** 
1415:Middlewares/Third_Party/LwIP/src/core/tcp.c **** #if TCP_QUEUE_OOSEQ
1416:Middlewares/Third_Party/LwIP/src/core/tcp.c **** /**
1417:Middlewares/Third_Party/LwIP/src/core/tcp.c ****  * Returns a copy of the given TCP segment.
1418:Middlewares/Third_Party/LwIP/src/core/tcp.c ****  * The pbuf and data are not copied, only the pointers
1419:Middlewares/Third_Party/LwIP/src/core/tcp.c ****  *
1420:Middlewares/Third_Party/LwIP/src/core/tcp.c ****  * @param seg the old tcp_seg
1421:Middlewares/Third_Party/LwIP/src/core/tcp.c ****  * @return a copy of seg
1422:Middlewares/Third_Party/LwIP/src/core/tcp.c ****  */
1423:Middlewares/Third_Party/LwIP/src/core/tcp.c **** struct tcp_seg *
1424:Middlewares/Third_Party/LwIP/src/core/tcp.c **** tcp_seg_copy(struct tcp_seg *seg)
1425:Middlewares/Third_Party/LwIP/src/core/tcp.c **** {
 1368              		.loc 1 1425 1 is_stmt 1 view -0
 1369              		.cfi_startproc
 1370              		@ args = 0, pretend = 0, frame = 0
 1371              		@ frame_needed = 0, uses_anonymous_args = 0
 1372              		.loc 1 1425 1 is_stmt 0 view .LVU378
 1373 0000 38B5     		push	{r3, r4, r5, lr}
 1374              	.LCFI15:
 1375              		.cfi_def_cfa_offset 16
 1376              		.cfi_offset 3, -16
 1377              		.cfi_offset 4, -12
 1378              		.cfi_offset 5, -8
 1379              		.cfi_offset 14, -4
 1380 0002 0546     		mov	r5, r0
1426:Middlewares/Third_Party/LwIP/src/core/tcp.c ****   struct tcp_seg *cseg;
 1381              		.loc 1 1426 3 is_stmt 1 view .LVU379
1427:Middlewares/Third_Party/LwIP/src/core/tcp.c **** 
1428:Middlewares/Third_Party/LwIP/src/core/tcp.c ****   cseg = (struct tcp_seg *)memp_malloc(MEMP_TCP_SEG);
 1382              		.loc 1 1428 3 view .LVU380
 1383              		.loc 1 1428 28 is_stmt 0 view .LVU381
 1384 0004 0320     		movs	r0, #3
 1385              	.LVL128:
 1386              		.loc 1 1428 28 view .LVU382
 1387 0006 FFF7FEFF 		bl	memp_malloc
 1388              	.LVL129:
1429:Middlewares/Third_Party/LwIP/src/core/tcp.c ****   if (cseg == NULL) {
 1389              		.loc 1 1429 3 is_stmt 1 view .LVU383
 1390              		.loc 1 1429 6 is_stmt 0 view .LVU384
 1391 000a 0446     		mov	r4, r0
 1392 000c 50B1     		cbz	r0, .L142
1430:Middlewares/Third_Party/LwIP/src/core/tcp.c ****     return NULL;
1431:Middlewares/Third_Party/LwIP/src/core/tcp.c ****   }
1432:Middlewares/Third_Party/LwIP/src/core/tcp.c ****   SMEMCPY((u8_t *)cseg, (const u8_t *)seg, sizeof(struct tcp_seg));
 1393              		.loc 1 1432 3 is_stmt 1 view .LVU385
 1394 000e 2868     		ldr	r0, [r5]	@ unaligned
 1395              	.LVL130:
 1396              		.loc 1 1432 3 is_stmt 0 view .LVU386
 1397 0010 6968     		ldr	r1, [r5, #4]	@ unaligned
 1398 0012 AA68     		ldr	r2, [r5, #8]	@ unaligned
 1399 0014 EB68     		ldr	r3, [r5, #12]	@ unaligned
 1400 0016 2060     		str	r0, [r4]	@ unaligned
 1401 0018 6160     		str	r1, [r4, #4]	@ unaligned
 1402 001a A260     		str	r2, [r4, #8]	@ unaligned
 1403 001c E360     		str	r3, [r4, #12]	@ unaligned
ARM GAS  /tmp/cc6by9MY.s 			page 56


1433:Middlewares/Third_Party/LwIP/src/core/tcp.c ****   pbuf_ref(cseg->p);
 1404              		.loc 1 1433 3 is_stmt 1 view .LVU387
 1405 001e 6068     		ldr	r0, [r4, #4]
 1406 0020 FFF7FEFF 		bl	pbuf_ref
 1407              	.LVL131:
1434:Middlewares/Third_Party/LwIP/src/core/tcp.c ****   return cseg;
 1408              		.loc 1 1434 3 view .LVU388
 1409              	.L142:
1435:Middlewares/Third_Party/LwIP/src/core/tcp.c **** }
 1410              		.loc 1 1435 1 is_stmt 0 view .LVU389
 1411 0024 2046     		mov	r0, r4
 1412 0026 38BD     		pop	{r3, r4, r5, pc}
 1413              		.loc 1 1435 1 view .LVU390
 1414              		.cfi_endproc
 1415              	.LFE185:
 1417              		.section	.text.tcp_arg,"ax",%progbits
 1418              		.align	1
 1419              		.global	tcp_arg
 1420              		.syntax unified
 1421              		.thumb
 1422              		.thumb_func
 1423              		.fpu fpv5-sp-d16
 1425              	tcp_arg:
 1426              	.LVL132:
 1427              	.LFB193:
1436:Middlewares/Third_Party/LwIP/src/core/tcp.c **** #endif /* TCP_QUEUE_OOSEQ */
1437:Middlewares/Third_Party/LwIP/src/core/tcp.c **** 
1438:Middlewares/Third_Party/LwIP/src/core/tcp.c **** #if LWIP_CALLBACK_API
1439:Middlewares/Third_Party/LwIP/src/core/tcp.c **** /**
1440:Middlewares/Third_Party/LwIP/src/core/tcp.c ****  * Default receive callback that is called if the user didn't register
1441:Middlewares/Third_Party/LwIP/src/core/tcp.c ****  * a recv callback for the pcb.
1442:Middlewares/Third_Party/LwIP/src/core/tcp.c ****  */
1443:Middlewares/Third_Party/LwIP/src/core/tcp.c **** err_t
1444:Middlewares/Third_Party/LwIP/src/core/tcp.c **** tcp_recv_null(void *arg, struct tcp_pcb *pcb, struct pbuf *p, err_t err)
1445:Middlewares/Third_Party/LwIP/src/core/tcp.c **** {
1446:Middlewares/Third_Party/LwIP/src/core/tcp.c ****   LWIP_UNUSED_ARG(arg);
1447:Middlewares/Third_Party/LwIP/src/core/tcp.c ****   if (p != NULL) {
1448:Middlewares/Third_Party/LwIP/src/core/tcp.c ****     tcp_recved(pcb, p->tot_len);
1449:Middlewares/Third_Party/LwIP/src/core/tcp.c ****     pbuf_free(p);
1450:Middlewares/Third_Party/LwIP/src/core/tcp.c ****   } else if (err == ERR_OK) {
1451:Middlewares/Third_Party/LwIP/src/core/tcp.c ****     return tcp_close(pcb);
1452:Middlewares/Third_Party/LwIP/src/core/tcp.c ****   }
1453:Middlewares/Third_Party/LwIP/src/core/tcp.c ****   return ERR_OK;
1454:Middlewares/Third_Party/LwIP/src/core/tcp.c **** }
1455:Middlewares/Third_Party/LwIP/src/core/tcp.c **** #endif /* LWIP_CALLBACK_API */
1456:Middlewares/Third_Party/LwIP/src/core/tcp.c **** 
1457:Middlewares/Third_Party/LwIP/src/core/tcp.c **** /**
1458:Middlewares/Third_Party/LwIP/src/core/tcp.c ****  * Kills the oldest active connection that has the same or lower priority than
1459:Middlewares/Third_Party/LwIP/src/core/tcp.c ****  * 'prio'.
1460:Middlewares/Third_Party/LwIP/src/core/tcp.c ****  *
1461:Middlewares/Third_Party/LwIP/src/core/tcp.c ****  * @param prio minimum priority
1462:Middlewares/Third_Party/LwIP/src/core/tcp.c ****  */
1463:Middlewares/Third_Party/LwIP/src/core/tcp.c **** static void
1464:Middlewares/Third_Party/LwIP/src/core/tcp.c **** tcp_kill_prio(u8_t prio)
1465:Middlewares/Third_Party/LwIP/src/core/tcp.c **** {
1466:Middlewares/Third_Party/LwIP/src/core/tcp.c ****   struct tcp_pcb *pcb, *inactive;
1467:Middlewares/Third_Party/LwIP/src/core/tcp.c ****   u32_t inactivity;
ARM GAS  /tmp/cc6by9MY.s 			page 57


1468:Middlewares/Third_Party/LwIP/src/core/tcp.c ****   u8_t mprio;
1469:Middlewares/Third_Party/LwIP/src/core/tcp.c **** 
1470:Middlewares/Third_Party/LwIP/src/core/tcp.c ****   mprio = LWIP_MIN(TCP_PRIO_MAX, prio);
1471:Middlewares/Third_Party/LwIP/src/core/tcp.c **** 
1472:Middlewares/Third_Party/LwIP/src/core/tcp.c ****   /* We kill the oldest active connection that has lower priority than prio. */
1473:Middlewares/Third_Party/LwIP/src/core/tcp.c ****   inactivity = 0;
1474:Middlewares/Third_Party/LwIP/src/core/tcp.c ****   inactive = NULL;
1475:Middlewares/Third_Party/LwIP/src/core/tcp.c ****   for (pcb = tcp_active_pcbs; pcb != NULL; pcb = pcb->next) {
1476:Middlewares/Third_Party/LwIP/src/core/tcp.c ****     if (pcb->prio <= mprio &&
1477:Middlewares/Third_Party/LwIP/src/core/tcp.c ****        (u32_t)(tcp_ticks - pcb->tmr) >= inactivity) {
1478:Middlewares/Third_Party/LwIP/src/core/tcp.c ****       inactivity = tcp_ticks - pcb->tmr;
1479:Middlewares/Third_Party/LwIP/src/core/tcp.c ****       inactive = pcb;
1480:Middlewares/Third_Party/LwIP/src/core/tcp.c ****       mprio = pcb->prio;
1481:Middlewares/Third_Party/LwIP/src/core/tcp.c ****     }
1482:Middlewares/Third_Party/LwIP/src/core/tcp.c ****   }
1483:Middlewares/Third_Party/LwIP/src/core/tcp.c ****   if (inactive != NULL) {
1484:Middlewares/Third_Party/LwIP/src/core/tcp.c ****     LWIP_DEBUGF(TCP_DEBUG, ("tcp_kill_prio: killing oldest PCB %p (%"S32_F")\n",
1485:Middlewares/Third_Party/LwIP/src/core/tcp.c ****            (void *)inactive, inactivity));
1486:Middlewares/Third_Party/LwIP/src/core/tcp.c ****     tcp_abort(inactive);
1487:Middlewares/Third_Party/LwIP/src/core/tcp.c ****   }
1488:Middlewares/Third_Party/LwIP/src/core/tcp.c **** }
1489:Middlewares/Third_Party/LwIP/src/core/tcp.c **** 
1490:Middlewares/Third_Party/LwIP/src/core/tcp.c **** /**
1491:Middlewares/Third_Party/LwIP/src/core/tcp.c ****  * Kills the oldest connection that is in specific state.
1492:Middlewares/Third_Party/LwIP/src/core/tcp.c ****  * Called from tcp_alloc() for LAST_ACK and CLOSING if no more connections are available.
1493:Middlewares/Third_Party/LwIP/src/core/tcp.c ****  */
1494:Middlewares/Third_Party/LwIP/src/core/tcp.c **** static void
1495:Middlewares/Third_Party/LwIP/src/core/tcp.c **** tcp_kill_state(enum tcp_state state)
1496:Middlewares/Third_Party/LwIP/src/core/tcp.c **** {
1497:Middlewares/Third_Party/LwIP/src/core/tcp.c ****   struct tcp_pcb *pcb, *inactive;
1498:Middlewares/Third_Party/LwIP/src/core/tcp.c ****   u32_t inactivity;
1499:Middlewares/Third_Party/LwIP/src/core/tcp.c **** 
1500:Middlewares/Third_Party/LwIP/src/core/tcp.c ****   LWIP_ASSERT("invalid state", (state == CLOSING) || (state == LAST_ACK));
1501:Middlewares/Third_Party/LwIP/src/core/tcp.c **** 
1502:Middlewares/Third_Party/LwIP/src/core/tcp.c ****   inactivity = 0;
1503:Middlewares/Third_Party/LwIP/src/core/tcp.c ****   inactive = NULL;
1504:Middlewares/Third_Party/LwIP/src/core/tcp.c ****   /* Go through the list of active pcbs and get the oldest pcb that is in state
1505:Middlewares/Third_Party/LwIP/src/core/tcp.c ****      CLOSING/LAST_ACK. */
1506:Middlewares/Third_Party/LwIP/src/core/tcp.c ****   for (pcb = tcp_active_pcbs; pcb != NULL; pcb = pcb->next) {
1507:Middlewares/Third_Party/LwIP/src/core/tcp.c ****     if (pcb->state == state) {
1508:Middlewares/Third_Party/LwIP/src/core/tcp.c ****       if ((u32_t)(tcp_ticks - pcb->tmr) >= inactivity) {
1509:Middlewares/Third_Party/LwIP/src/core/tcp.c ****         inactivity = tcp_ticks - pcb->tmr;
1510:Middlewares/Third_Party/LwIP/src/core/tcp.c ****         inactive = pcb;
1511:Middlewares/Third_Party/LwIP/src/core/tcp.c ****       }
1512:Middlewares/Third_Party/LwIP/src/core/tcp.c ****     }
1513:Middlewares/Third_Party/LwIP/src/core/tcp.c ****   }
1514:Middlewares/Third_Party/LwIP/src/core/tcp.c ****   if (inactive != NULL) {
1515:Middlewares/Third_Party/LwIP/src/core/tcp.c ****     LWIP_DEBUGF(TCP_DEBUG, ("tcp_kill_closing: killing oldest %s PCB %p (%"S32_F")\n",
1516:Middlewares/Third_Party/LwIP/src/core/tcp.c ****            tcp_state_str[state], (void *)inactive, inactivity));
1517:Middlewares/Third_Party/LwIP/src/core/tcp.c ****     /* Don't send a RST, since no data is lost. */
1518:Middlewares/Third_Party/LwIP/src/core/tcp.c ****     tcp_abandon(inactive, 0);
1519:Middlewares/Third_Party/LwIP/src/core/tcp.c ****   }
1520:Middlewares/Third_Party/LwIP/src/core/tcp.c **** }
1521:Middlewares/Third_Party/LwIP/src/core/tcp.c **** 
1522:Middlewares/Third_Party/LwIP/src/core/tcp.c **** /**
1523:Middlewares/Third_Party/LwIP/src/core/tcp.c ****  * Kills the oldest connection that is in TIME_WAIT state.
1524:Middlewares/Third_Party/LwIP/src/core/tcp.c ****  * Called from tcp_alloc() if no more connections are available.
ARM GAS  /tmp/cc6by9MY.s 			page 58


1525:Middlewares/Third_Party/LwIP/src/core/tcp.c ****  */
1526:Middlewares/Third_Party/LwIP/src/core/tcp.c **** static void
1527:Middlewares/Third_Party/LwIP/src/core/tcp.c **** tcp_kill_timewait(void)
1528:Middlewares/Third_Party/LwIP/src/core/tcp.c **** {
1529:Middlewares/Third_Party/LwIP/src/core/tcp.c ****   struct tcp_pcb *pcb, *inactive;
1530:Middlewares/Third_Party/LwIP/src/core/tcp.c ****   u32_t inactivity;
1531:Middlewares/Third_Party/LwIP/src/core/tcp.c **** 
1532:Middlewares/Third_Party/LwIP/src/core/tcp.c ****   inactivity = 0;
1533:Middlewares/Third_Party/LwIP/src/core/tcp.c ****   inactive = NULL;
1534:Middlewares/Third_Party/LwIP/src/core/tcp.c ****   /* Go through the list of TIME_WAIT pcbs and get the oldest pcb. */
1535:Middlewares/Third_Party/LwIP/src/core/tcp.c ****   for (pcb = tcp_tw_pcbs; pcb != NULL; pcb = pcb->next) {
1536:Middlewares/Third_Party/LwIP/src/core/tcp.c ****     if ((u32_t)(tcp_ticks - pcb->tmr) >= inactivity) {
1537:Middlewares/Third_Party/LwIP/src/core/tcp.c ****       inactivity = tcp_ticks - pcb->tmr;
1538:Middlewares/Third_Party/LwIP/src/core/tcp.c ****       inactive = pcb;
1539:Middlewares/Third_Party/LwIP/src/core/tcp.c ****     }
1540:Middlewares/Third_Party/LwIP/src/core/tcp.c ****   }
1541:Middlewares/Third_Party/LwIP/src/core/tcp.c ****   if (inactive != NULL) {
1542:Middlewares/Third_Party/LwIP/src/core/tcp.c ****     LWIP_DEBUGF(TCP_DEBUG, ("tcp_kill_timewait: killing oldest TIME-WAIT PCB %p (%"S32_F")\n",
1543:Middlewares/Third_Party/LwIP/src/core/tcp.c ****            (void *)inactive, inactivity));
1544:Middlewares/Third_Party/LwIP/src/core/tcp.c ****     tcp_abort(inactive);
1545:Middlewares/Third_Party/LwIP/src/core/tcp.c ****   }
1546:Middlewares/Third_Party/LwIP/src/core/tcp.c **** }
1547:Middlewares/Third_Party/LwIP/src/core/tcp.c **** 
1548:Middlewares/Third_Party/LwIP/src/core/tcp.c **** /**
1549:Middlewares/Third_Party/LwIP/src/core/tcp.c ****  * Allocate a new tcp_pcb structure.
1550:Middlewares/Third_Party/LwIP/src/core/tcp.c ****  *
1551:Middlewares/Third_Party/LwIP/src/core/tcp.c ****  * @param prio priority for the new pcb
1552:Middlewares/Third_Party/LwIP/src/core/tcp.c ****  * @return a new tcp_pcb that initially is in state CLOSED
1553:Middlewares/Third_Party/LwIP/src/core/tcp.c ****  */
1554:Middlewares/Third_Party/LwIP/src/core/tcp.c **** struct tcp_pcb *
1555:Middlewares/Third_Party/LwIP/src/core/tcp.c **** tcp_alloc(u8_t prio)
1556:Middlewares/Third_Party/LwIP/src/core/tcp.c **** {
1557:Middlewares/Third_Party/LwIP/src/core/tcp.c ****   struct tcp_pcb *pcb;
1558:Middlewares/Third_Party/LwIP/src/core/tcp.c **** 
1559:Middlewares/Third_Party/LwIP/src/core/tcp.c ****   pcb = (struct tcp_pcb *)memp_malloc(MEMP_TCP_PCB);
1560:Middlewares/Third_Party/LwIP/src/core/tcp.c ****   if (pcb == NULL) {
1561:Middlewares/Third_Party/LwIP/src/core/tcp.c ****     /* Try killing oldest connection in TIME-WAIT. */
1562:Middlewares/Third_Party/LwIP/src/core/tcp.c ****     LWIP_DEBUGF(TCP_DEBUG, ("tcp_alloc: killing off oldest TIME-WAIT connection\n"));
1563:Middlewares/Third_Party/LwIP/src/core/tcp.c ****     tcp_kill_timewait();
1564:Middlewares/Third_Party/LwIP/src/core/tcp.c ****     /* Try to allocate a tcp_pcb again. */
1565:Middlewares/Third_Party/LwIP/src/core/tcp.c ****     pcb = (struct tcp_pcb *)memp_malloc(MEMP_TCP_PCB);
1566:Middlewares/Third_Party/LwIP/src/core/tcp.c ****     if (pcb == NULL) {
1567:Middlewares/Third_Party/LwIP/src/core/tcp.c ****       /* Try killing oldest connection in LAST-ACK (these wouldn't go to TIME-WAIT). */
1568:Middlewares/Third_Party/LwIP/src/core/tcp.c ****       LWIP_DEBUGF(TCP_DEBUG, ("tcp_alloc: killing off oldest LAST-ACK connection\n"));
1569:Middlewares/Third_Party/LwIP/src/core/tcp.c ****       tcp_kill_state(LAST_ACK);
1570:Middlewares/Third_Party/LwIP/src/core/tcp.c ****       /* Try to allocate a tcp_pcb again. */
1571:Middlewares/Third_Party/LwIP/src/core/tcp.c ****       pcb = (struct tcp_pcb *)memp_malloc(MEMP_TCP_PCB);
1572:Middlewares/Third_Party/LwIP/src/core/tcp.c ****       if (pcb == NULL) {
1573:Middlewares/Third_Party/LwIP/src/core/tcp.c ****         /* Try killing oldest connection in CLOSING. */
1574:Middlewares/Third_Party/LwIP/src/core/tcp.c ****         LWIP_DEBUGF(TCP_DEBUG, ("tcp_alloc: killing off oldest CLOSING connection\n"));
1575:Middlewares/Third_Party/LwIP/src/core/tcp.c ****         tcp_kill_state(CLOSING);
1576:Middlewares/Third_Party/LwIP/src/core/tcp.c ****         /* Try to allocate a tcp_pcb again. */
1577:Middlewares/Third_Party/LwIP/src/core/tcp.c ****         pcb = (struct tcp_pcb *)memp_malloc(MEMP_TCP_PCB);
1578:Middlewares/Third_Party/LwIP/src/core/tcp.c ****         if (pcb == NULL) {
1579:Middlewares/Third_Party/LwIP/src/core/tcp.c ****           /* Try killing active connections with lower priority than the new one. */
1580:Middlewares/Third_Party/LwIP/src/core/tcp.c ****           LWIP_DEBUGF(TCP_DEBUG, ("tcp_alloc: killing connection with prio lower than %d\n", prio))
1581:Middlewares/Third_Party/LwIP/src/core/tcp.c ****           tcp_kill_prio(prio);
ARM GAS  /tmp/cc6by9MY.s 			page 59


1582:Middlewares/Third_Party/LwIP/src/core/tcp.c ****           /* Try to allocate a tcp_pcb again. */
1583:Middlewares/Third_Party/LwIP/src/core/tcp.c ****           pcb = (struct tcp_pcb *)memp_malloc(MEMP_TCP_PCB);
1584:Middlewares/Third_Party/LwIP/src/core/tcp.c ****           if (pcb != NULL) {
1585:Middlewares/Third_Party/LwIP/src/core/tcp.c ****             /* adjust err stats: memp_malloc failed multiple times before */
1586:Middlewares/Third_Party/LwIP/src/core/tcp.c ****             MEMP_STATS_DEC(err, MEMP_TCP_PCB);
1587:Middlewares/Third_Party/LwIP/src/core/tcp.c ****           }
1588:Middlewares/Third_Party/LwIP/src/core/tcp.c ****         }
1589:Middlewares/Third_Party/LwIP/src/core/tcp.c ****         if (pcb != NULL) {
1590:Middlewares/Third_Party/LwIP/src/core/tcp.c ****           /* adjust err stats: memp_malloc failed multiple times before */
1591:Middlewares/Third_Party/LwIP/src/core/tcp.c ****           MEMP_STATS_DEC(err, MEMP_TCP_PCB);
1592:Middlewares/Third_Party/LwIP/src/core/tcp.c ****         }
1593:Middlewares/Third_Party/LwIP/src/core/tcp.c ****       }
1594:Middlewares/Third_Party/LwIP/src/core/tcp.c ****       if (pcb != NULL) {
1595:Middlewares/Third_Party/LwIP/src/core/tcp.c ****         /* adjust err stats: memp_malloc failed multiple times before */
1596:Middlewares/Third_Party/LwIP/src/core/tcp.c ****         MEMP_STATS_DEC(err, MEMP_TCP_PCB);
1597:Middlewares/Third_Party/LwIP/src/core/tcp.c ****       }
1598:Middlewares/Third_Party/LwIP/src/core/tcp.c ****     }
1599:Middlewares/Third_Party/LwIP/src/core/tcp.c ****     if (pcb != NULL) {
1600:Middlewares/Third_Party/LwIP/src/core/tcp.c ****       /* adjust err stats: memp_malloc failed above */
1601:Middlewares/Third_Party/LwIP/src/core/tcp.c ****       MEMP_STATS_DEC(err, MEMP_TCP_PCB);
1602:Middlewares/Third_Party/LwIP/src/core/tcp.c ****     }
1603:Middlewares/Third_Party/LwIP/src/core/tcp.c ****   }
1604:Middlewares/Third_Party/LwIP/src/core/tcp.c ****   if (pcb != NULL) {
1605:Middlewares/Third_Party/LwIP/src/core/tcp.c ****     /* zero out the whole pcb, so there is no need to initialize members to zero */
1606:Middlewares/Third_Party/LwIP/src/core/tcp.c ****     memset(pcb, 0, sizeof(struct tcp_pcb));
1607:Middlewares/Third_Party/LwIP/src/core/tcp.c ****     pcb->prio = prio;
1608:Middlewares/Third_Party/LwIP/src/core/tcp.c ****     pcb->snd_buf = TCP_SND_BUF;
1609:Middlewares/Third_Party/LwIP/src/core/tcp.c ****     /* Start with a window that does not need scaling. When window scaling is
1610:Middlewares/Third_Party/LwIP/src/core/tcp.c ****        enabled and used, the window is enlarged when both sides agree on scaling. */
1611:Middlewares/Third_Party/LwIP/src/core/tcp.c ****     pcb->rcv_wnd = pcb->rcv_ann_wnd = TCPWND_MIN16(TCP_WND);
1612:Middlewares/Third_Party/LwIP/src/core/tcp.c ****     pcb->ttl = TCP_TTL;
1613:Middlewares/Third_Party/LwIP/src/core/tcp.c ****     /* As initial send MSS, we use TCP_MSS but limit it to 536.
1614:Middlewares/Third_Party/LwIP/src/core/tcp.c ****        The send MSS is updated when an MSS option is received. */
1615:Middlewares/Third_Party/LwIP/src/core/tcp.c ****     pcb->mss = INITIAL_MSS;
1616:Middlewares/Third_Party/LwIP/src/core/tcp.c ****     pcb->rto = 3000 / TCP_SLOW_INTERVAL;
1617:Middlewares/Third_Party/LwIP/src/core/tcp.c ****     pcb->sv = 3000 / TCP_SLOW_INTERVAL;
1618:Middlewares/Third_Party/LwIP/src/core/tcp.c ****     pcb->rtime = -1;
1619:Middlewares/Third_Party/LwIP/src/core/tcp.c ****     pcb->cwnd = 1;
1620:Middlewares/Third_Party/LwIP/src/core/tcp.c ****     pcb->tmr = tcp_ticks;
1621:Middlewares/Third_Party/LwIP/src/core/tcp.c ****     pcb->last_timer = tcp_timer_ctr;
1622:Middlewares/Third_Party/LwIP/src/core/tcp.c **** 
1623:Middlewares/Third_Party/LwIP/src/core/tcp.c ****     /* RFC 5681 recommends setting ssthresh abritrarily high and gives an example
1624:Middlewares/Third_Party/LwIP/src/core/tcp.c ****     of using the largest advertised receive window.  We've seen complications with
1625:Middlewares/Third_Party/LwIP/src/core/tcp.c ****     receiving TCPs that use window scaling and/or window auto-tuning where the
1626:Middlewares/Third_Party/LwIP/src/core/tcp.c ****     initial advertised window is very small and then grows rapidly once the
1627:Middlewares/Third_Party/LwIP/src/core/tcp.c ****     connection is established. To avoid these complications, we set ssthresh to the
1628:Middlewares/Third_Party/LwIP/src/core/tcp.c ****     largest effective cwnd (amount of in-flight data) that the sender can have. */
1629:Middlewares/Third_Party/LwIP/src/core/tcp.c ****     pcb->ssthresh = TCP_SND_BUF;
1630:Middlewares/Third_Party/LwIP/src/core/tcp.c **** 
1631:Middlewares/Third_Party/LwIP/src/core/tcp.c **** #if LWIP_CALLBACK_API
1632:Middlewares/Third_Party/LwIP/src/core/tcp.c ****     pcb->recv = tcp_recv_null;
1633:Middlewares/Third_Party/LwIP/src/core/tcp.c **** #endif /* LWIP_CALLBACK_API */
1634:Middlewares/Third_Party/LwIP/src/core/tcp.c **** 
1635:Middlewares/Third_Party/LwIP/src/core/tcp.c ****     /* Init KEEPALIVE timer */
1636:Middlewares/Third_Party/LwIP/src/core/tcp.c ****     pcb->keep_idle  = TCP_KEEPIDLE_DEFAULT;
1637:Middlewares/Third_Party/LwIP/src/core/tcp.c **** 
1638:Middlewares/Third_Party/LwIP/src/core/tcp.c **** #if LWIP_TCP_KEEPALIVE
ARM GAS  /tmp/cc6by9MY.s 			page 60


1639:Middlewares/Third_Party/LwIP/src/core/tcp.c ****     pcb->keep_intvl = TCP_KEEPINTVL_DEFAULT;
1640:Middlewares/Third_Party/LwIP/src/core/tcp.c ****     pcb->keep_cnt   = TCP_KEEPCNT_DEFAULT;
1641:Middlewares/Third_Party/LwIP/src/core/tcp.c **** #endif /* LWIP_TCP_KEEPALIVE */
1642:Middlewares/Third_Party/LwIP/src/core/tcp.c ****   }
1643:Middlewares/Third_Party/LwIP/src/core/tcp.c ****   return pcb;
1644:Middlewares/Third_Party/LwIP/src/core/tcp.c **** }
1645:Middlewares/Third_Party/LwIP/src/core/tcp.c **** 
1646:Middlewares/Third_Party/LwIP/src/core/tcp.c **** /**
1647:Middlewares/Third_Party/LwIP/src/core/tcp.c ****  * @ingroup tcp_raw
1648:Middlewares/Third_Party/LwIP/src/core/tcp.c ****  * Creates a new TCP protocol control block but doesn't place it on
1649:Middlewares/Third_Party/LwIP/src/core/tcp.c ****  * any of the TCP PCB lists.
1650:Middlewares/Third_Party/LwIP/src/core/tcp.c ****  * The pcb is not put on any list until binding using tcp_bind().
1651:Middlewares/Third_Party/LwIP/src/core/tcp.c ****  *
1652:Middlewares/Third_Party/LwIP/src/core/tcp.c ****  * @internal: Maybe there should be a idle TCP PCB list where these
1653:Middlewares/Third_Party/LwIP/src/core/tcp.c ****  * PCBs are put on. Port reservation using tcp_bind() is implemented but
1654:Middlewares/Third_Party/LwIP/src/core/tcp.c ****  * allocated pcbs that are not bound can't be killed automatically if wanting
1655:Middlewares/Third_Party/LwIP/src/core/tcp.c ****  * to allocate a pcb with higher prio (@see tcp_kill_prio())
1656:Middlewares/Third_Party/LwIP/src/core/tcp.c ****  *
1657:Middlewares/Third_Party/LwIP/src/core/tcp.c ****  * @return a new tcp_pcb that initially is in state CLOSED
1658:Middlewares/Third_Party/LwIP/src/core/tcp.c ****  */
1659:Middlewares/Third_Party/LwIP/src/core/tcp.c **** struct tcp_pcb *
1660:Middlewares/Third_Party/LwIP/src/core/tcp.c **** tcp_new(void)
1661:Middlewares/Third_Party/LwIP/src/core/tcp.c **** {
1662:Middlewares/Third_Party/LwIP/src/core/tcp.c ****   return tcp_alloc(TCP_PRIO_NORMAL);
1663:Middlewares/Third_Party/LwIP/src/core/tcp.c **** }
1664:Middlewares/Third_Party/LwIP/src/core/tcp.c **** 
1665:Middlewares/Third_Party/LwIP/src/core/tcp.c **** /**
1666:Middlewares/Third_Party/LwIP/src/core/tcp.c ****  * @ingroup tcp_raw
1667:Middlewares/Third_Party/LwIP/src/core/tcp.c ****  * Creates a new TCP protocol control block but doesn't
1668:Middlewares/Third_Party/LwIP/src/core/tcp.c ****  * place it on any of the TCP PCB lists.
1669:Middlewares/Third_Party/LwIP/src/core/tcp.c ****  * The pcb is not put on any list until binding using tcp_bind().
1670:Middlewares/Third_Party/LwIP/src/core/tcp.c ****  *
1671:Middlewares/Third_Party/LwIP/src/core/tcp.c ****  * @param type IP address type, see @ref lwip_ip_addr_type definitions.
1672:Middlewares/Third_Party/LwIP/src/core/tcp.c ****  * If you want to listen to IPv4 and IPv6 (dual-stack) connections,
1673:Middlewares/Third_Party/LwIP/src/core/tcp.c ****  * supply @ref IPADDR_TYPE_ANY as argument and bind to @ref IP_ANY_TYPE.
1674:Middlewares/Third_Party/LwIP/src/core/tcp.c ****  * @return a new tcp_pcb that initially is in state CLOSED
1675:Middlewares/Third_Party/LwIP/src/core/tcp.c ****  */
1676:Middlewares/Third_Party/LwIP/src/core/tcp.c **** struct tcp_pcb *
1677:Middlewares/Third_Party/LwIP/src/core/tcp.c **** tcp_new_ip_type(u8_t type)
1678:Middlewares/Third_Party/LwIP/src/core/tcp.c **** {
1679:Middlewares/Third_Party/LwIP/src/core/tcp.c ****   struct tcp_pcb * pcb;
1680:Middlewares/Third_Party/LwIP/src/core/tcp.c ****   pcb = tcp_alloc(TCP_PRIO_NORMAL);
1681:Middlewares/Third_Party/LwIP/src/core/tcp.c **** #if LWIP_IPV4 && LWIP_IPV6
1682:Middlewares/Third_Party/LwIP/src/core/tcp.c ****   if (pcb != NULL) {
1683:Middlewares/Third_Party/LwIP/src/core/tcp.c ****     IP_SET_TYPE_VAL(pcb->local_ip, type);
1684:Middlewares/Third_Party/LwIP/src/core/tcp.c ****     IP_SET_TYPE_VAL(pcb->remote_ip, type);
1685:Middlewares/Third_Party/LwIP/src/core/tcp.c ****   }
1686:Middlewares/Third_Party/LwIP/src/core/tcp.c **** #else
1687:Middlewares/Third_Party/LwIP/src/core/tcp.c ****   LWIP_UNUSED_ARG(type);
1688:Middlewares/Third_Party/LwIP/src/core/tcp.c **** #endif /* LWIP_IPV4 && LWIP_IPV6 */
1689:Middlewares/Third_Party/LwIP/src/core/tcp.c ****   return pcb;
1690:Middlewares/Third_Party/LwIP/src/core/tcp.c **** }
1691:Middlewares/Third_Party/LwIP/src/core/tcp.c **** 
1692:Middlewares/Third_Party/LwIP/src/core/tcp.c **** /**
1693:Middlewares/Third_Party/LwIP/src/core/tcp.c ****  * @ingroup tcp_raw
1694:Middlewares/Third_Party/LwIP/src/core/tcp.c ****  * Used to specify the argument that should be passed callback
1695:Middlewares/Third_Party/LwIP/src/core/tcp.c ****  * functions.
ARM GAS  /tmp/cc6by9MY.s 			page 61


1696:Middlewares/Third_Party/LwIP/src/core/tcp.c ****  *
1697:Middlewares/Third_Party/LwIP/src/core/tcp.c ****  * @param pcb tcp_pcb to set the callback argument
1698:Middlewares/Third_Party/LwIP/src/core/tcp.c ****  * @param arg void pointer argument to pass to callback functions
1699:Middlewares/Third_Party/LwIP/src/core/tcp.c ****  */
1700:Middlewares/Third_Party/LwIP/src/core/tcp.c **** void
1701:Middlewares/Third_Party/LwIP/src/core/tcp.c **** tcp_arg(struct tcp_pcb *pcb, void *arg)
1702:Middlewares/Third_Party/LwIP/src/core/tcp.c **** {
 1428              		.loc 1 1702 1 is_stmt 1 view -0
 1429              		.cfi_startproc
 1430              		@ args = 0, pretend = 0, frame = 0
 1431              		@ frame_needed = 0, uses_anonymous_args = 0
 1432              		@ link register save eliminated.
1703:Middlewares/Third_Party/LwIP/src/core/tcp.c ****   /* This function is allowed to be called for both listen pcbs and
1704:Middlewares/Third_Party/LwIP/src/core/tcp.c ****      connection pcbs. */
1705:Middlewares/Third_Party/LwIP/src/core/tcp.c ****   if (pcb != NULL) {
 1433              		.loc 1 1705 3 view .LVU392
 1434              		.loc 1 1705 6 is_stmt 0 view .LVU393
 1435 0000 00B1     		cbz	r0, .L145
1706:Middlewares/Third_Party/LwIP/src/core/tcp.c ****     pcb->callback_arg = arg;
 1436              		.loc 1 1706 5 is_stmt 1 view .LVU394
 1437              		.loc 1 1706 23 is_stmt 0 view .LVU395
 1438 0002 0161     		str	r1, [r0, #16]
 1439              	.L145:
1707:Middlewares/Third_Party/LwIP/src/core/tcp.c ****   }
1708:Middlewares/Third_Party/LwIP/src/core/tcp.c **** }
 1440              		.loc 1 1708 1 view .LVU396
 1441 0004 7047     		bx	lr
 1442              		.cfi_endproc
 1443              	.LFE193:
 1445              		.section	.text.tcp_recv,"ax",%progbits
 1446              		.align	1
 1447              		.global	tcp_recv
 1448              		.syntax unified
 1449              		.thumb
 1450              		.thumb_func
 1451              		.fpu fpv5-sp-d16
 1453              	tcp_recv:
 1454              	.LVL133:
 1455              	.LFB194:
1709:Middlewares/Third_Party/LwIP/src/core/tcp.c **** #if LWIP_CALLBACK_API
1710:Middlewares/Third_Party/LwIP/src/core/tcp.c **** 
1711:Middlewares/Third_Party/LwIP/src/core/tcp.c **** /**
1712:Middlewares/Third_Party/LwIP/src/core/tcp.c ****  * @ingroup tcp_raw
1713:Middlewares/Third_Party/LwIP/src/core/tcp.c ****  * Used to specify the function that should be called when a TCP
1714:Middlewares/Third_Party/LwIP/src/core/tcp.c ****  * connection receives data.
1715:Middlewares/Third_Party/LwIP/src/core/tcp.c ****  *
1716:Middlewares/Third_Party/LwIP/src/core/tcp.c ****  * @param pcb tcp_pcb to set the recv callback
1717:Middlewares/Third_Party/LwIP/src/core/tcp.c ****  * @param recv callback function to call for this pcb when data is received
1718:Middlewares/Third_Party/LwIP/src/core/tcp.c ****  */
1719:Middlewares/Third_Party/LwIP/src/core/tcp.c **** void
1720:Middlewares/Third_Party/LwIP/src/core/tcp.c **** tcp_recv(struct tcp_pcb *pcb, tcp_recv_fn recv)
1721:Middlewares/Third_Party/LwIP/src/core/tcp.c **** {
 1456              		.loc 1 1721 1 is_stmt 1 view -0
 1457              		.cfi_startproc
 1458              		@ args = 0, pretend = 0, frame = 0
 1459              		@ frame_needed = 0, uses_anonymous_args = 0
1722:Middlewares/Third_Party/LwIP/src/core/tcp.c ****   if (pcb != NULL) {
ARM GAS  /tmp/cc6by9MY.s 			page 62


 1460              		.loc 1 1722 3 view .LVU398
 1461              		.loc 1 1722 6 is_stmt 0 view .LVU399
 1462 0000 80B1     		cbz	r0, .L151
1721:Middlewares/Third_Party/LwIP/src/core/tcp.c ****   if (pcb != NULL) {
 1463              		.loc 1 1721 1 view .LVU400
 1464 0002 38B5     		push	{r3, r4, r5, lr}
 1465              	.LCFI16:
 1466              		.cfi_def_cfa_offset 16
 1467              		.cfi_offset 3, -16
 1468              		.cfi_offset 4, -12
 1469              		.cfi_offset 5, -8
 1470              		.cfi_offset 14, -4
 1471 0004 0446     		mov	r4, r0
 1472 0006 0D46     		mov	r5, r1
1723:Middlewares/Third_Party/LwIP/src/core/tcp.c ****     LWIP_ASSERT("invalid socket state for recv callback", pcb->state != LISTEN);
 1473              		.loc 1 1723 5 is_stmt 1 view .LVU401
 1474              		.loc 1 1723 5 view .LVU402
 1475 0008 037D     		ldrb	r3, [r0, #20]	@ zero_extendqisi2
 1476 000a 012B     		cmp	r3, #1
 1477 000c 02D0     		beq	.L154
 1478              	.LVL134:
 1479              	.L149:
1724:Middlewares/Third_Party/LwIP/src/core/tcp.c ****     pcb->recv = recv;
 1480              		.loc 1 1724 5 view .LVU403
 1481              		.loc 1 1724 15 is_stmt 0 view .LVU404
 1482 000e C4F88050 		str	r5, [r4, #128]
1725:Middlewares/Third_Party/LwIP/src/core/tcp.c ****   }
1726:Middlewares/Third_Party/LwIP/src/core/tcp.c **** }
 1483              		.loc 1 1726 1 view .LVU405
 1484 0012 38BD     		pop	{r3, r4, r5, pc}
 1485              	.LVL135:
 1486              	.L154:
1723:Middlewares/Third_Party/LwIP/src/core/tcp.c ****     pcb->recv = recv;
 1487              		.loc 1 1723 5 is_stmt 1 discriminator 1 view .LVU406
1723:Middlewares/Third_Party/LwIP/src/core/tcp.c ****     pcb->recv = recv;
 1488              		.loc 1 1723 5 discriminator 1 view .LVU407
 1489 0014 044B     		ldr	r3, .L155
 1490 0016 40F2BB62 		movw	r2, #1723
 1491 001a 0449     		ldr	r1, .L155+4
 1492              	.LVL136:
1723:Middlewares/Third_Party/LwIP/src/core/tcp.c ****     pcb->recv = recv;
 1493              		.loc 1 1723 5 is_stmt 0 discriminator 1 view .LVU408
 1494 001c 0448     		ldr	r0, .L155+8
 1495              	.LVL137:
1723:Middlewares/Third_Party/LwIP/src/core/tcp.c ****     pcb->recv = recv;
 1496              		.loc 1 1723 5 discriminator 1 view .LVU409
 1497 001e FFF7FEFF 		bl	printf
 1498              	.LVL138:
 1499 0022 F4E7     		b	.L149
 1500              	.LVL139:
 1501              	.L151:
 1502              	.LCFI17:
 1503              		.cfi_def_cfa_offset 0
 1504              		.cfi_restore 3
 1505              		.cfi_restore 4
 1506              		.cfi_restore 5
 1507              		.cfi_restore 14
ARM GAS  /tmp/cc6by9MY.s 			page 63


1723:Middlewares/Third_Party/LwIP/src/core/tcp.c ****     pcb->recv = recv;
 1508              		.loc 1 1723 5 discriminator 1 view .LVU410
 1509 0024 7047     		bx	lr
 1510              	.L156:
 1511 0026 00BF     		.align	2
 1512              	.L155:
 1513 0028 00000000 		.word	.LC0
 1514 002c 00000000 		.word	.LC9
 1515 0030 38000000 		.word	.LC2
 1516              		.cfi_endproc
 1517              	.LFE194:
 1519              		.section	.text.tcp_sent,"ax",%progbits
 1520              		.align	1
 1521              		.global	tcp_sent
 1522              		.syntax unified
 1523              		.thumb
 1524              		.thumb_func
 1525              		.fpu fpv5-sp-d16
 1527              	tcp_sent:
 1528              	.LVL140:
 1529              	.LFB195:
1727:Middlewares/Third_Party/LwIP/src/core/tcp.c **** 
1728:Middlewares/Third_Party/LwIP/src/core/tcp.c **** /**
1729:Middlewares/Third_Party/LwIP/src/core/tcp.c ****  * @ingroup tcp_raw
1730:Middlewares/Third_Party/LwIP/src/core/tcp.c ****  * Used to specify the function that should be called when TCP data
1731:Middlewares/Third_Party/LwIP/src/core/tcp.c ****  * has been successfully delivered to the remote host.
1732:Middlewares/Third_Party/LwIP/src/core/tcp.c ****  *
1733:Middlewares/Third_Party/LwIP/src/core/tcp.c ****  * @param pcb tcp_pcb to set the sent callback
1734:Middlewares/Third_Party/LwIP/src/core/tcp.c ****  * @param sent callback function to call for this pcb when data is successfully sent
1735:Middlewares/Third_Party/LwIP/src/core/tcp.c ****  */
1736:Middlewares/Third_Party/LwIP/src/core/tcp.c **** void
1737:Middlewares/Third_Party/LwIP/src/core/tcp.c **** tcp_sent(struct tcp_pcb *pcb, tcp_sent_fn sent)
1738:Middlewares/Third_Party/LwIP/src/core/tcp.c **** {
 1530              		.loc 1 1738 1 is_stmt 1 view -0
 1531              		.cfi_startproc
 1532              		@ args = 0, pretend = 0, frame = 0
 1533              		@ frame_needed = 0, uses_anonymous_args = 0
1739:Middlewares/Third_Party/LwIP/src/core/tcp.c ****   if (pcb != NULL) {
 1534              		.loc 1 1739 3 view .LVU412
 1535              		.loc 1 1739 6 is_stmt 0 view .LVU413
 1536 0000 78B1     		cbz	r0, .L161
1738:Middlewares/Third_Party/LwIP/src/core/tcp.c ****   if (pcb != NULL) {
 1537              		.loc 1 1738 1 view .LVU414
 1538 0002 38B5     		push	{r3, r4, r5, lr}
 1539              	.LCFI18:
 1540              		.cfi_def_cfa_offset 16
 1541              		.cfi_offset 3, -16
 1542              		.cfi_offset 4, -12
 1543              		.cfi_offset 5, -8
 1544              		.cfi_offset 14, -4
 1545 0004 0446     		mov	r4, r0
 1546 0006 0D46     		mov	r5, r1
1740:Middlewares/Third_Party/LwIP/src/core/tcp.c ****     LWIP_ASSERT("invalid socket state for sent callback", pcb->state != LISTEN);
 1547              		.loc 1 1740 5 is_stmt 1 view .LVU415
 1548              		.loc 1 1740 5 view .LVU416
 1549 0008 037D     		ldrb	r3, [r0, #20]	@ zero_extendqisi2
 1550 000a 012B     		cmp	r3, #1
ARM GAS  /tmp/cc6by9MY.s 			page 64


 1551 000c 01D0     		beq	.L164
 1552              	.LVL141:
 1553              	.L159:
1741:Middlewares/Third_Party/LwIP/src/core/tcp.c ****     pcb->sent = sent;
 1554              		.loc 1 1741 5 view .LVU417
 1555              		.loc 1 1741 15 is_stmt 0 view .LVU418
 1556 000e E567     		str	r5, [r4, #124]
1742:Middlewares/Third_Party/LwIP/src/core/tcp.c ****   }
1743:Middlewares/Third_Party/LwIP/src/core/tcp.c **** }
 1557              		.loc 1 1743 1 view .LVU419
 1558 0010 38BD     		pop	{r3, r4, r5, pc}
 1559              	.LVL142:
 1560              	.L164:
1740:Middlewares/Third_Party/LwIP/src/core/tcp.c ****     pcb->sent = sent;
 1561              		.loc 1 1740 5 is_stmt 1 discriminator 1 view .LVU420
1740:Middlewares/Third_Party/LwIP/src/core/tcp.c ****     pcb->sent = sent;
 1562              		.loc 1 1740 5 discriminator 1 view .LVU421
 1563 0012 044B     		ldr	r3, .L165
 1564 0014 40F2CC62 		movw	r2, #1740
 1565 0018 0349     		ldr	r1, .L165+4
 1566              	.LVL143:
1740:Middlewares/Third_Party/LwIP/src/core/tcp.c ****     pcb->sent = sent;
 1567              		.loc 1 1740 5 is_stmt 0 discriminator 1 view .LVU422
 1568 001a 0448     		ldr	r0, .L165+8
 1569              	.LVL144:
1740:Middlewares/Third_Party/LwIP/src/core/tcp.c ****     pcb->sent = sent;
 1570              		.loc 1 1740 5 discriminator 1 view .LVU423
 1571 001c FFF7FEFF 		bl	printf
 1572              	.LVL145:
 1573 0020 F5E7     		b	.L159
 1574              	.LVL146:
 1575              	.L161:
 1576              	.LCFI19:
 1577              		.cfi_def_cfa_offset 0
 1578              		.cfi_restore 3
 1579              		.cfi_restore 4
 1580              		.cfi_restore 5
 1581              		.cfi_restore 14
1740:Middlewares/Third_Party/LwIP/src/core/tcp.c ****     pcb->sent = sent;
 1582              		.loc 1 1740 5 discriminator 1 view .LVU424
 1583 0022 7047     		bx	lr
 1584              	.L166:
 1585              		.align	2
 1586              	.L165:
 1587 0024 00000000 		.word	.LC0
 1588 0028 00000000 		.word	.LC10
 1589 002c 38000000 		.word	.LC2
 1590              		.cfi_endproc
 1591              	.LFE195:
 1593              		.section	.text.tcp_err,"ax",%progbits
 1594              		.align	1
 1595              		.global	tcp_err
 1596              		.syntax unified
 1597              		.thumb
 1598              		.thumb_func
 1599              		.fpu fpv5-sp-d16
 1601              	tcp_err:
ARM GAS  /tmp/cc6by9MY.s 			page 65


 1602              	.LVL147:
 1603              	.LFB196:
1744:Middlewares/Third_Party/LwIP/src/core/tcp.c **** 
1745:Middlewares/Third_Party/LwIP/src/core/tcp.c **** /**
1746:Middlewares/Third_Party/LwIP/src/core/tcp.c ****  * @ingroup tcp_raw
1747:Middlewares/Third_Party/LwIP/src/core/tcp.c ****  * Used to specify the function that should be called when a fatal error
1748:Middlewares/Third_Party/LwIP/src/core/tcp.c ****  * has occurred on the connection.
1749:Middlewares/Third_Party/LwIP/src/core/tcp.c ****  *
1750:Middlewares/Third_Party/LwIP/src/core/tcp.c ****  * @note The corresponding pcb is already freed when this callback is called!
1751:Middlewares/Third_Party/LwIP/src/core/tcp.c ****  * 
1752:Middlewares/Third_Party/LwIP/src/core/tcp.c ****  * @param pcb tcp_pcb to set the err callback
1753:Middlewares/Third_Party/LwIP/src/core/tcp.c ****  * @param err callback function to call for this pcb when a fatal error
1754:Middlewares/Third_Party/LwIP/src/core/tcp.c ****  *        has occurred on the connection
1755:Middlewares/Third_Party/LwIP/src/core/tcp.c ****  */
1756:Middlewares/Third_Party/LwIP/src/core/tcp.c **** void
1757:Middlewares/Third_Party/LwIP/src/core/tcp.c **** tcp_err(struct tcp_pcb *pcb, tcp_err_fn err)
1758:Middlewares/Third_Party/LwIP/src/core/tcp.c **** {
 1604              		.loc 1 1758 1 is_stmt 1 view -0
 1605              		.cfi_startproc
 1606              		@ args = 0, pretend = 0, frame = 0
 1607              		@ frame_needed = 0, uses_anonymous_args = 0
1759:Middlewares/Third_Party/LwIP/src/core/tcp.c ****   if (pcb != NULL) {
 1608              		.loc 1 1759 3 view .LVU426
 1609              		.loc 1 1759 6 is_stmt 0 view .LVU427
 1610 0000 80B1     		cbz	r0, .L171
1758:Middlewares/Third_Party/LwIP/src/core/tcp.c ****   if (pcb != NULL) {
 1611              		.loc 1 1758 1 view .LVU428
 1612 0002 38B5     		push	{r3, r4, r5, lr}
 1613              	.LCFI20:
 1614              		.cfi_def_cfa_offset 16
 1615              		.cfi_offset 3, -16
 1616              		.cfi_offset 4, -12
 1617              		.cfi_offset 5, -8
 1618              		.cfi_offset 14, -4
 1619 0004 0446     		mov	r4, r0
 1620 0006 0D46     		mov	r5, r1
1760:Middlewares/Third_Party/LwIP/src/core/tcp.c ****     LWIP_ASSERT("invalid socket state for err callback", pcb->state != LISTEN);
 1621              		.loc 1 1760 5 is_stmt 1 view .LVU429
 1622              		.loc 1 1760 5 view .LVU430
 1623 0008 037D     		ldrb	r3, [r0, #20]	@ zero_extendqisi2
 1624 000a 012B     		cmp	r3, #1
 1625 000c 02D0     		beq	.L174
 1626              	.LVL148:
 1627              	.L169:
1761:Middlewares/Third_Party/LwIP/src/core/tcp.c ****     pcb->errf = err;
 1628              		.loc 1 1761 5 view .LVU431
 1629              		.loc 1 1761 15 is_stmt 0 view .LVU432
 1630 000e C4F88C50 		str	r5, [r4, #140]
1762:Middlewares/Third_Party/LwIP/src/core/tcp.c ****   }
1763:Middlewares/Third_Party/LwIP/src/core/tcp.c **** }
 1631              		.loc 1 1763 1 view .LVU433
 1632 0012 38BD     		pop	{r3, r4, r5, pc}
 1633              	.LVL149:
 1634              	.L174:
1760:Middlewares/Third_Party/LwIP/src/core/tcp.c ****     pcb->errf = err;
 1635              		.loc 1 1760 5 is_stmt 1 discriminator 1 view .LVU434
1760:Middlewares/Third_Party/LwIP/src/core/tcp.c ****     pcb->errf = err;
ARM GAS  /tmp/cc6by9MY.s 			page 66


 1636              		.loc 1 1760 5 discriminator 1 view .LVU435
 1637 0014 044B     		ldr	r3, .L175
 1638 0016 4FF4DC62 		mov	r2, #1760
 1639 001a 0449     		ldr	r1, .L175+4
 1640              	.LVL150:
1760:Middlewares/Third_Party/LwIP/src/core/tcp.c ****     pcb->errf = err;
 1641              		.loc 1 1760 5 is_stmt 0 discriminator 1 view .LVU436
 1642 001c 0448     		ldr	r0, .L175+8
 1643              	.LVL151:
1760:Middlewares/Third_Party/LwIP/src/core/tcp.c ****     pcb->errf = err;
 1644              		.loc 1 1760 5 discriminator 1 view .LVU437
 1645 001e FFF7FEFF 		bl	printf
 1646              	.LVL152:
 1647 0022 F4E7     		b	.L169
 1648              	.LVL153:
 1649              	.L171:
 1650              	.LCFI21:
 1651              		.cfi_def_cfa_offset 0
 1652              		.cfi_restore 3
 1653              		.cfi_restore 4
 1654              		.cfi_restore 5
 1655              		.cfi_restore 14
1760:Middlewares/Third_Party/LwIP/src/core/tcp.c ****     pcb->errf = err;
 1656              		.loc 1 1760 5 discriminator 1 view .LVU438
 1657 0024 7047     		bx	lr
 1658              	.L176:
 1659 0026 00BF     		.align	2
 1660              	.L175:
 1661 0028 00000000 		.word	.LC0
 1662 002c 00000000 		.word	.LC11
 1663 0030 38000000 		.word	.LC2
 1664              		.cfi_endproc
 1665              	.LFE196:
 1667              		.section	.text.tcp_accept,"ax",%progbits
 1668              		.align	1
 1669              		.global	tcp_accept
 1670              		.syntax unified
 1671              		.thumb
 1672              		.thumb_func
 1673              		.fpu fpv5-sp-d16
 1675              	tcp_accept:
 1676              	.LVL154:
 1677              	.LFB197:
1764:Middlewares/Third_Party/LwIP/src/core/tcp.c **** 
1765:Middlewares/Third_Party/LwIP/src/core/tcp.c **** /**
1766:Middlewares/Third_Party/LwIP/src/core/tcp.c ****  * @ingroup tcp_raw
1767:Middlewares/Third_Party/LwIP/src/core/tcp.c ****  * Used for specifying the function that should be called when a
1768:Middlewares/Third_Party/LwIP/src/core/tcp.c ****  * LISTENing connection has been connected to another host.
1769:Middlewares/Third_Party/LwIP/src/core/tcp.c ****  *
1770:Middlewares/Third_Party/LwIP/src/core/tcp.c ****  * @param pcb tcp_pcb to set the accept callback
1771:Middlewares/Third_Party/LwIP/src/core/tcp.c ****  * @param accept callback function to call for this pcb when LISTENing
1772:Middlewares/Third_Party/LwIP/src/core/tcp.c ****  *        connection has been connected to another host
1773:Middlewares/Third_Party/LwIP/src/core/tcp.c ****  */
1774:Middlewares/Third_Party/LwIP/src/core/tcp.c **** void
1775:Middlewares/Third_Party/LwIP/src/core/tcp.c **** tcp_accept(struct tcp_pcb *pcb, tcp_accept_fn accept)
1776:Middlewares/Third_Party/LwIP/src/core/tcp.c **** {
 1678              		.loc 1 1776 1 is_stmt 1 view -0
ARM GAS  /tmp/cc6by9MY.s 			page 67


 1679              		.cfi_startproc
 1680              		@ args = 0, pretend = 0, frame = 0
 1681              		@ frame_needed = 0, uses_anonymous_args = 0
 1682              		@ link register save eliminated.
1777:Middlewares/Third_Party/LwIP/src/core/tcp.c ****   if ((pcb != NULL) && (pcb->state == LISTEN)) {
 1683              		.loc 1 1777 3 view .LVU440
 1684              		.loc 1 1777 6 is_stmt 0 view .LVU441
 1685 0000 10B1     		cbz	r0, .L177
 1686              		.loc 1 1777 28 discriminator 1 view .LVU442
 1687 0002 027D     		ldrb	r2, [r0, #20]	@ zero_extendqisi2
 1688              		.loc 1 1777 21 discriminator 1 view .LVU443
 1689 0004 012A     		cmp	r2, #1
 1690 0006 00D0     		beq	.L179
 1691              	.L177:
1778:Middlewares/Third_Party/LwIP/src/core/tcp.c ****     struct tcp_pcb_listen *lpcb = (struct tcp_pcb_listen*)pcb;
1779:Middlewares/Third_Party/LwIP/src/core/tcp.c ****     lpcb->accept = accept;
1780:Middlewares/Third_Party/LwIP/src/core/tcp.c ****   }
1781:Middlewares/Third_Party/LwIP/src/core/tcp.c **** }
 1692              		.loc 1 1781 1 view .LVU444
 1693 0008 7047     		bx	lr
 1694              	.L179:
 1695              	.LBB6:
1778:Middlewares/Third_Party/LwIP/src/core/tcp.c ****     struct tcp_pcb_listen *lpcb = (struct tcp_pcb_listen*)pcb;
 1696              		.loc 1 1778 5 is_stmt 1 view .LVU445
 1697              	.LVL155:
1779:Middlewares/Third_Party/LwIP/src/core/tcp.c ****   }
 1698              		.loc 1 1779 5 view .LVU446
1779:Middlewares/Third_Party/LwIP/src/core/tcp.c ****   }
 1699              		.loc 1 1779 18 is_stmt 0 view .LVU447
 1700 000a 8161     		str	r1, [r0, #24]
 1701              	.LBE6:
 1702              		.loc 1 1781 1 view .LVU448
 1703 000c FCE7     		b	.L177
 1704              		.cfi_endproc
 1705              	.LFE197:
