ARM GAS  /tmp/cc6by9MY.s 			page 1


   1              		.cpu cortex-m7
   2              		.eabi_attribute 27, 1
   3              		.eabi_attribute 28, 1
   4              		.eabi_attribute 20, 1
   5              		.eabi_attribute 21, 1
   6              		.eabi_attribute 23, 3
   7              		.eabi_attribute 24, 1
   8              		.eabi_attribute 25, 1
   9              		.eabi_attribute 26, 1
  10              		.eabi_attribute 30, 1
  11              		.eabi_attribute 34, 1
  12              		.eabi_attribute 18, 4
  13              		.file	"tcp.c"
  14              		.text
  15              	.Ltext0:
  16              		.cfi_sections	.debug_frame
  17              		.section	.text.tcp_remove_listener,"ax",%progbits
  18              		.align	1
  19              		.arch armv7e-m
  20              		.syntax unified
  21              		.thumb
  22              		.thumb_func
  23              		.fpu fpv5-sp-d16
  25              	tcp_remove_listener:
  26              	.LVL0:
  27              	.LFB162:
  28              		.file 1 "Middlewares/Third_Party/LwIP/src/core/tcp.c"
   1:Middlewares/Third_Party/LwIP/src/core/tcp.c **** /**
   2:Middlewares/Third_Party/LwIP/src/core/tcp.c ****  * @file 
   3:Middlewares/Third_Party/LwIP/src/core/tcp.c ****  * Transmission Control Protocol for IP
   4:Middlewares/Third_Party/LwIP/src/core/tcp.c ****  * See also @ref tcp_raw
   5:Middlewares/Third_Party/LwIP/src/core/tcp.c ****  *
   6:Middlewares/Third_Party/LwIP/src/core/tcp.c ****  * @defgroup tcp_raw TCP
   7:Middlewares/Third_Party/LwIP/src/core/tcp.c ****  * @ingroup callbackstyle_api
   8:Middlewares/Third_Party/LwIP/src/core/tcp.c ****  * Transmission Control Protocol for IP\n
   9:Middlewares/Third_Party/LwIP/src/core/tcp.c ****  * @see @ref raw_api and @ref netconn
  10:Middlewares/Third_Party/LwIP/src/core/tcp.c ****  *
  11:Middlewares/Third_Party/LwIP/src/core/tcp.c ****  * Common functions for the TCP implementation, such as functinos
  12:Middlewares/Third_Party/LwIP/src/core/tcp.c ****  * for manipulating the data structures and the TCP timer functions. TCP functions
  13:Middlewares/Third_Party/LwIP/src/core/tcp.c ****  * related to input and output is found in tcp_in.c and tcp_out.c respectively.\n
  14:Middlewares/Third_Party/LwIP/src/core/tcp.c ****  */
  15:Middlewares/Third_Party/LwIP/src/core/tcp.c **** 
  16:Middlewares/Third_Party/LwIP/src/core/tcp.c **** /*
  17:Middlewares/Third_Party/LwIP/src/core/tcp.c ****  * Copyright (c) 2001-2004 Swedish Institute of Computer Science.
  18:Middlewares/Third_Party/LwIP/src/core/tcp.c ****  * All rights reserved.
  19:Middlewares/Third_Party/LwIP/src/core/tcp.c ****  *
  20:Middlewares/Third_Party/LwIP/src/core/tcp.c ****  * Redistribution and use in source and binary forms, with or without modification,
  21:Middlewares/Third_Party/LwIP/src/core/tcp.c ****  * are permitted provided that the following conditions are met:
  22:Middlewares/Third_Party/LwIP/src/core/tcp.c ****  *
  23:Middlewares/Third_Party/LwIP/src/core/tcp.c ****  * 1. Redistributions of source code must retain the above copyright notice,
  24:Middlewares/Third_Party/LwIP/src/core/tcp.c ****  *    this list of conditions and the following disclaimer.
  25:Middlewares/Third_Party/LwIP/src/core/tcp.c ****  * 2. Redistributions in binary form must reproduce the above copyright notice,
  26:Middlewares/Third_Party/LwIP/src/core/tcp.c ****  *    this list of conditions and the following disclaimer in the documentation
  27:Middlewares/Third_Party/LwIP/src/core/tcp.c ****  *    and/or other materials provided with the distribution.
  28:Middlewares/Third_Party/LwIP/src/core/tcp.c ****  * 3. The name of the author may not be used to endorse or promote products
  29:Middlewares/Third_Party/LwIP/src/core/tcp.c ****  *    derived from this software without specific prior written permission.
  30:Middlewares/Third_Party/LwIP/src/core/tcp.c ****  *
ARM GAS  /tmp/cc6by9MY.s 			page 2


  31:Middlewares/Third_Party/LwIP/src/core/tcp.c ****  * THIS SOFTWARE IS PROVIDED BY THE AUTHOR ``AS IS'' AND ANY EXPRESS OR IMPLIED
  32:Middlewares/Third_Party/LwIP/src/core/tcp.c ****  * WARRANTIES, INCLUDING, BUT NOT LIMITED TO, THE IMPLIED WARRANTIES OF
  33:Middlewares/Third_Party/LwIP/src/core/tcp.c ****  * MERCHANTABILITY AND FITNESS FOR A PARTICULAR PURPOSE ARE DISCLAIMED. IN NO EVENT
  34:Middlewares/Third_Party/LwIP/src/core/tcp.c ****  * SHALL THE AUTHOR BE LIABLE FOR ANY DIRECT, INDIRECT, INCIDENTAL, SPECIAL,
  35:Middlewares/Third_Party/LwIP/src/core/tcp.c ****  * EXEMPLARY, OR CONSEQUENTIAL DAMAGES (INCLUDING, BUT NOT LIMITED TO, PROCUREMENT
  36:Middlewares/Third_Party/LwIP/src/core/tcp.c ****  * OF SUBSTITUTE GOODS OR SERVICES; LOSS OF USE, DATA, OR PROFITS; OR BUSINESS
  37:Middlewares/Third_Party/LwIP/src/core/tcp.c ****  * INTERRUPTION) HOWEVER CAUSED AND ON ANY THEORY OF LIABILITY, WHETHER IN
  38:Middlewares/Third_Party/LwIP/src/core/tcp.c ****  * CONTRACT, STRICT LIABILITY, OR TORT (INCLUDING NEGLIGENCE OR OTHERWISE) ARISING
  39:Middlewares/Third_Party/LwIP/src/core/tcp.c ****  * IN ANY WAY OUT OF THE USE OF THIS SOFTWARE, EVEN IF ADVISED OF THE POSSIBILITY
  40:Middlewares/Third_Party/LwIP/src/core/tcp.c ****  * OF SUCH DAMAGE.
  41:Middlewares/Third_Party/LwIP/src/core/tcp.c ****  *
  42:Middlewares/Third_Party/LwIP/src/core/tcp.c ****  * This file is part of the lwIP TCP/IP stack.
  43:Middlewares/Third_Party/LwIP/src/core/tcp.c ****  *
  44:Middlewares/Third_Party/LwIP/src/core/tcp.c ****  * Author: Adam Dunkels <adam@sics.se>
  45:Middlewares/Third_Party/LwIP/src/core/tcp.c ****  *
  46:Middlewares/Third_Party/LwIP/src/core/tcp.c ****  */
  47:Middlewares/Third_Party/LwIP/src/core/tcp.c **** 
  48:Middlewares/Third_Party/LwIP/src/core/tcp.c **** #include "lwip/opt.h"
  49:Middlewares/Third_Party/LwIP/src/core/tcp.c **** 
  50:Middlewares/Third_Party/LwIP/src/core/tcp.c **** #if LWIP_TCP /* don't build if not configured for use in lwipopts.h */
  51:Middlewares/Third_Party/LwIP/src/core/tcp.c **** 
  52:Middlewares/Third_Party/LwIP/src/core/tcp.c **** #include "lwip/def.h"
  53:Middlewares/Third_Party/LwIP/src/core/tcp.c **** #include "lwip/mem.h"
  54:Middlewares/Third_Party/LwIP/src/core/tcp.c **** #include "lwip/memp.h"
  55:Middlewares/Third_Party/LwIP/src/core/tcp.c **** #include "lwip/tcp.h"
  56:Middlewares/Third_Party/LwIP/src/core/tcp.c **** #include "lwip/priv/tcp_priv.h"
  57:Middlewares/Third_Party/LwIP/src/core/tcp.c **** #include "lwip/debug.h"
  58:Middlewares/Third_Party/LwIP/src/core/tcp.c **** #include "lwip/stats.h"
  59:Middlewares/Third_Party/LwIP/src/core/tcp.c **** #include "lwip/ip6.h"
  60:Middlewares/Third_Party/LwIP/src/core/tcp.c **** #include "lwip/ip6_addr.h"
  61:Middlewares/Third_Party/LwIP/src/core/tcp.c **** #include "lwip/nd6.h"
  62:Middlewares/Third_Party/LwIP/src/core/tcp.c **** 
  63:Middlewares/Third_Party/LwIP/src/core/tcp.c **** #include <string.h>
  64:Middlewares/Third_Party/LwIP/src/core/tcp.c **** 
  65:Middlewares/Third_Party/LwIP/src/core/tcp.c **** #ifdef LWIP_HOOK_FILENAME
  66:Middlewares/Third_Party/LwIP/src/core/tcp.c **** #include LWIP_HOOK_FILENAME
  67:Middlewares/Third_Party/LwIP/src/core/tcp.c **** #endif
  68:Middlewares/Third_Party/LwIP/src/core/tcp.c **** 
  69:Middlewares/Third_Party/LwIP/src/core/tcp.c **** #ifndef TCP_LOCAL_PORT_RANGE_START
  70:Middlewares/Third_Party/LwIP/src/core/tcp.c **** /* From http://www.iana.org/assignments/port-numbers:
  71:Middlewares/Third_Party/LwIP/src/core/tcp.c ****    "The Dynamic and/or Private Ports are those from 49152 through 65535" */
  72:Middlewares/Third_Party/LwIP/src/core/tcp.c **** #define TCP_LOCAL_PORT_RANGE_START        0xc000
  73:Middlewares/Third_Party/LwIP/src/core/tcp.c **** #define TCP_LOCAL_PORT_RANGE_END          0xffff
  74:Middlewares/Third_Party/LwIP/src/core/tcp.c **** #define TCP_ENSURE_LOCAL_PORT_RANGE(port) ((u16_t)(((port) & ~TCP_LOCAL_PORT_RANGE_START) + TCP_LOC
  75:Middlewares/Third_Party/LwIP/src/core/tcp.c **** #endif
  76:Middlewares/Third_Party/LwIP/src/core/tcp.c **** 
  77:Middlewares/Third_Party/LwIP/src/core/tcp.c **** #if LWIP_TCP_KEEPALIVE
  78:Middlewares/Third_Party/LwIP/src/core/tcp.c **** #define TCP_KEEP_DUR(pcb)   ((pcb)->keep_cnt * (pcb)->keep_intvl)
  79:Middlewares/Third_Party/LwIP/src/core/tcp.c **** #define TCP_KEEP_INTVL(pcb) ((pcb)->keep_intvl)
  80:Middlewares/Third_Party/LwIP/src/core/tcp.c **** #else /* LWIP_TCP_KEEPALIVE */
  81:Middlewares/Third_Party/LwIP/src/core/tcp.c **** #define TCP_KEEP_DUR(pcb)   TCP_MAXIDLE
  82:Middlewares/Third_Party/LwIP/src/core/tcp.c **** #define TCP_KEEP_INTVL(pcb) TCP_KEEPINTVL_DEFAULT
  83:Middlewares/Third_Party/LwIP/src/core/tcp.c **** #endif /* LWIP_TCP_KEEPALIVE */
  84:Middlewares/Third_Party/LwIP/src/core/tcp.c **** 
  85:Middlewares/Third_Party/LwIP/src/core/tcp.c **** /* As initial send MSS, we use TCP_MSS but limit it to 536. */
  86:Middlewares/Third_Party/LwIP/src/core/tcp.c **** #if TCP_MSS > 536
  87:Middlewares/Third_Party/LwIP/src/core/tcp.c **** #define INITIAL_MSS 536
ARM GAS  /tmp/cc6by9MY.s 			page 3


  88:Middlewares/Third_Party/LwIP/src/core/tcp.c **** #else
  89:Middlewares/Third_Party/LwIP/src/core/tcp.c **** #define INITIAL_MSS TCP_MSS
  90:Middlewares/Third_Party/LwIP/src/core/tcp.c **** #endif
  91:Middlewares/Third_Party/LwIP/src/core/tcp.c **** 
  92:Middlewares/Third_Party/LwIP/src/core/tcp.c **** static const char * const tcp_state_str[] = {
  93:Middlewares/Third_Party/LwIP/src/core/tcp.c ****   "CLOSED",
  94:Middlewares/Third_Party/LwIP/src/core/tcp.c ****   "LISTEN",
  95:Middlewares/Third_Party/LwIP/src/core/tcp.c ****   "SYN_SENT",
  96:Middlewares/Third_Party/LwIP/src/core/tcp.c ****   "SYN_RCVD",
  97:Middlewares/Third_Party/LwIP/src/core/tcp.c ****   "ESTABLISHED",
  98:Middlewares/Third_Party/LwIP/src/core/tcp.c ****   "FIN_WAIT_1",
  99:Middlewares/Third_Party/LwIP/src/core/tcp.c ****   "FIN_WAIT_2",
 100:Middlewares/Third_Party/LwIP/src/core/tcp.c ****   "CLOSE_WAIT",
 101:Middlewares/Third_Party/LwIP/src/core/tcp.c ****   "CLOSING",
 102:Middlewares/Third_Party/LwIP/src/core/tcp.c ****   "LAST_ACK",
 103:Middlewares/Third_Party/LwIP/src/core/tcp.c ****   "TIME_WAIT"
 104:Middlewares/Third_Party/LwIP/src/core/tcp.c **** };
 105:Middlewares/Third_Party/LwIP/src/core/tcp.c **** 
 106:Middlewares/Third_Party/LwIP/src/core/tcp.c **** /* last local TCP port */
 107:Middlewares/Third_Party/LwIP/src/core/tcp.c **** static u16_t tcp_port = TCP_LOCAL_PORT_RANGE_START;
 108:Middlewares/Third_Party/LwIP/src/core/tcp.c **** 
 109:Middlewares/Third_Party/LwIP/src/core/tcp.c **** /* Incremented every coarse grained timer shot (typically every 500 ms). */
 110:Middlewares/Third_Party/LwIP/src/core/tcp.c **** u32_t tcp_ticks;
 111:Middlewares/Third_Party/LwIP/src/core/tcp.c **** static const u8_t tcp_backoff[13] =
 112:Middlewares/Third_Party/LwIP/src/core/tcp.c ****     { 1, 2, 3, 4, 5, 6, 7, 7, 7, 7, 7, 7, 7};
 113:Middlewares/Third_Party/LwIP/src/core/tcp.c ****  /* Times per slowtmr hits */
 114:Middlewares/Third_Party/LwIP/src/core/tcp.c **** static const u8_t tcp_persist_backoff[7] = { 3, 6, 12, 24, 48, 96, 120 };
 115:Middlewares/Third_Party/LwIP/src/core/tcp.c **** 
 116:Middlewares/Third_Party/LwIP/src/core/tcp.c **** /* The TCP PCB lists. */
 117:Middlewares/Third_Party/LwIP/src/core/tcp.c **** 
 118:Middlewares/Third_Party/LwIP/src/core/tcp.c **** /** List of all TCP PCBs bound but not yet (connected || listening) */
 119:Middlewares/Third_Party/LwIP/src/core/tcp.c **** struct tcp_pcb *tcp_bound_pcbs;
 120:Middlewares/Third_Party/LwIP/src/core/tcp.c **** /** List of all TCP PCBs in LISTEN state */
 121:Middlewares/Third_Party/LwIP/src/core/tcp.c **** union tcp_listen_pcbs_t tcp_listen_pcbs;
 122:Middlewares/Third_Party/LwIP/src/core/tcp.c **** /** List of all TCP PCBs that are in a state in which
 123:Middlewares/Third_Party/LwIP/src/core/tcp.c ****  * they accept or send data. */
 124:Middlewares/Third_Party/LwIP/src/core/tcp.c **** struct tcp_pcb *tcp_active_pcbs;
 125:Middlewares/Third_Party/LwIP/src/core/tcp.c **** /** List of all TCP PCBs in TIME-WAIT state */
 126:Middlewares/Third_Party/LwIP/src/core/tcp.c **** struct tcp_pcb *tcp_tw_pcbs;
 127:Middlewares/Third_Party/LwIP/src/core/tcp.c **** 
 128:Middlewares/Third_Party/LwIP/src/core/tcp.c **** /** An array with all (non-temporary) PCB lists, mainly used for smaller code size */
 129:Middlewares/Third_Party/LwIP/src/core/tcp.c **** struct tcp_pcb ** const tcp_pcb_lists[] = {&tcp_listen_pcbs.pcbs, &tcp_bound_pcbs,
 130:Middlewares/Third_Party/LwIP/src/core/tcp.c ****   &tcp_active_pcbs, &tcp_tw_pcbs};
 131:Middlewares/Third_Party/LwIP/src/core/tcp.c **** 
 132:Middlewares/Third_Party/LwIP/src/core/tcp.c **** u8_t tcp_active_pcbs_changed;
 133:Middlewares/Third_Party/LwIP/src/core/tcp.c **** 
 134:Middlewares/Third_Party/LwIP/src/core/tcp.c **** /** Timer counter to handle calling slow-timer from tcp_tmr() */
 135:Middlewares/Third_Party/LwIP/src/core/tcp.c **** static u8_t tcp_timer;
 136:Middlewares/Third_Party/LwIP/src/core/tcp.c **** static u8_t tcp_timer_ctr;
 137:Middlewares/Third_Party/LwIP/src/core/tcp.c **** static u16_t tcp_new_port(void);
 138:Middlewares/Third_Party/LwIP/src/core/tcp.c **** 
 139:Middlewares/Third_Party/LwIP/src/core/tcp.c **** static err_t tcp_close_shutdown_fin(struct tcp_pcb *pcb);
 140:Middlewares/Third_Party/LwIP/src/core/tcp.c **** 
 141:Middlewares/Third_Party/LwIP/src/core/tcp.c **** /**
 142:Middlewares/Third_Party/LwIP/src/core/tcp.c ****  * Initialize this module.
 143:Middlewares/Third_Party/LwIP/src/core/tcp.c ****  */
 144:Middlewares/Third_Party/LwIP/src/core/tcp.c **** void
ARM GAS  /tmp/cc6by9MY.s 			page 4


 145:Middlewares/Third_Party/LwIP/src/core/tcp.c **** tcp_init(void)
 146:Middlewares/Third_Party/LwIP/src/core/tcp.c **** {
 147:Middlewares/Third_Party/LwIP/src/core/tcp.c **** #if LWIP_RANDOMIZE_INITIAL_LOCAL_PORTS && defined(LWIP_RAND)
 148:Middlewares/Third_Party/LwIP/src/core/tcp.c ****   tcp_port = TCP_ENSURE_LOCAL_PORT_RANGE(LWIP_RAND());
 149:Middlewares/Third_Party/LwIP/src/core/tcp.c **** #endif /* LWIP_RANDOMIZE_INITIAL_LOCAL_PORTS && defined(LWIP_RAND) */
 150:Middlewares/Third_Party/LwIP/src/core/tcp.c **** }
 151:Middlewares/Third_Party/LwIP/src/core/tcp.c **** 
 152:Middlewares/Third_Party/LwIP/src/core/tcp.c **** /**
 153:Middlewares/Third_Party/LwIP/src/core/tcp.c ****  * Called periodically to dispatch TCP timers.
 154:Middlewares/Third_Party/LwIP/src/core/tcp.c ****  */
 155:Middlewares/Third_Party/LwIP/src/core/tcp.c **** void
 156:Middlewares/Third_Party/LwIP/src/core/tcp.c **** tcp_tmr(void)
 157:Middlewares/Third_Party/LwIP/src/core/tcp.c **** {
 158:Middlewares/Third_Party/LwIP/src/core/tcp.c ****   /* Call tcp_fasttmr() every 250 ms */
 159:Middlewares/Third_Party/LwIP/src/core/tcp.c ****   tcp_fasttmr();
 160:Middlewares/Third_Party/LwIP/src/core/tcp.c **** 
 161:Middlewares/Third_Party/LwIP/src/core/tcp.c ****   if (++tcp_timer & 1) {
 162:Middlewares/Third_Party/LwIP/src/core/tcp.c ****     /* Call tcp_slowtmr() every 500 ms, i.e., every other timer
 163:Middlewares/Third_Party/LwIP/src/core/tcp.c ****        tcp_tmr() is called. */
 164:Middlewares/Third_Party/LwIP/src/core/tcp.c ****     tcp_slowtmr();
 165:Middlewares/Third_Party/LwIP/src/core/tcp.c ****   }
 166:Middlewares/Third_Party/LwIP/src/core/tcp.c **** }
 167:Middlewares/Third_Party/LwIP/src/core/tcp.c **** 
 168:Middlewares/Third_Party/LwIP/src/core/tcp.c **** #if LWIP_CALLBACK_API || TCP_LISTEN_BACKLOG
 169:Middlewares/Third_Party/LwIP/src/core/tcp.c **** /** Called when a listen pcb is closed. Iterates one pcb list and removes the
 170:Middlewares/Third_Party/LwIP/src/core/tcp.c ****  * closed listener pcb from pcb->listener if matching.
 171:Middlewares/Third_Party/LwIP/src/core/tcp.c ****  */
 172:Middlewares/Third_Party/LwIP/src/core/tcp.c **** static void
 173:Middlewares/Third_Party/LwIP/src/core/tcp.c **** tcp_remove_listener(struct tcp_pcb *list, struct tcp_pcb_listen *lpcb)
 174:Middlewares/Third_Party/LwIP/src/core/tcp.c **** {
  29              		.loc 1 174 1 view -0
  30              		.cfi_startproc
  31              		@ args = 0, pretend = 0, frame = 0
  32              		@ frame_needed = 0, uses_anonymous_args = 0
  33              		@ link register save eliminated.
 175:Middlewares/Third_Party/LwIP/src/core/tcp.c ****    struct tcp_pcb *pcb;
  34              		.loc 1 175 4 view .LVU1
 176:Middlewares/Third_Party/LwIP/src/core/tcp.c ****    for (pcb = list; pcb != NULL; pcb = pcb->next) {
  35              		.loc 1 176 4 view .LVU2
  36              		.loc 1 176 4 is_stmt 0 view .LVU3
  37 0000 02E0     		b	.L2
  38              	.LVL1:
  39              	.L6:
 177:Middlewares/Third_Party/LwIP/src/core/tcp.c ****       if (pcb->listener == lpcb) {
 178:Middlewares/Third_Party/LwIP/src/core/tcp.c ****          pcb->listener = NULL;
  40              		.loc 1 178 10 is_stmt 1 view .LVU4
  41              		.loc 1 178 24 is_stmt 0 view .LVU5
  42 0002 0023     		movs	r3, #0
  43 0004 8367     		str	r3, [r0, #120]
  44              	.L3:
 176:Middlewares/Third_Party/LwIP/src/core/tcp.c ****    for (pcb = list; pcb != NULL; pcb = pcb->next) {
  45              		.loc 1 176 38 discriminator 2 view .LVU6
  46 0006 C068     		ldr	r0, [r0, #12]
  47              	.LVL2:
  48              	.L2:
 176:Middlewares/Third_Party/LwIP/src/core/tcp.c ****    for (pcb = list; pcb != NULL; pcb = pcb->next) {
  49              		.loc 1 176 4 discriminator 1 view .LVU7
ARM GAS  /tmp/cc6by9MY.s 			page 5


  50 0008 18B1     		cbz	r0, .L5
 177:Middlewares/Third_Party/LwIP/src/core/tcp.c ****       if (pcb->listener == lpcb) {
  51              		.loc 1 177 7 is_stmt 1 view .LVU8
 177:Middlewares/Third_Party/LwIP/src/core/tcp.c ****       if (pcb->listener == lpcb) {
  52              		.loc 1 177 14 is_stmt 0 view .LVU9
  53 000a 836F     		ldr	r3, [r0, #120]
 177:Middlewares/Third_Party/LwIP/src/core/tcp.c ****       if (pcb->listener == lpcb) {
  54              		.loc 1 177 10 view .LVU10
  55 000c 8B42     		cmp	r3, r1
  56 000e FAD1     		bne	.L3
  57 0010 F7E7     		b	.L6
  58              	.L5:
 179:Middlewares/Third_Party/LwIP/src/core/tcp.c ****       }
 180:Middlewares/Third_Party/LwIP/src/core/tcp.c ****    }
 181:Middlewares/Third_Party/LwIP/src/core/tcp.c **** }
  59              		.loc 1 181 1 view .LVU11
  60 0012 7047     		bx	lr
  61              		.cfi_endproc
  62              	.LFE162:
  64              		.section	.text.tcp_new_port,"ax",%progbits
  65              		.align	1
  66              		.syntax unified
  67              		.thumb
  68              		.thumb_func
  69              		.fpu fpv5-sp-d16
  71              	tcp_new_port:
  72              	.LFB176:
 182:Middlewares/Third_Party/LwIP/src/core/tcp.c **** #endif
 183:Middlewares/Third_Party/LwIP/src/core/tcp.c **** 
 184:Middlewares/Third_Party/LwIP/src/core/tcp.c **** /** Called when a listen pcb is closed. Iterates all pcb lists and removes the
 185:Middlewares/Third_Party/LwIP/src/core/tcp.c ****  * closed listener pcb from pcb->listener if matching.
 186:Middlewares/Third_Party/LwIP/src/core/tcp.c ****  */
 187:Middlewares/Third_Party/LwIP/src/core/tcp.c **** static void
 188:Middlewares/Third_Party/LwIP/src/core/tcp.c **** tcp_listen_closed(struct tcp_pcb *pcb)
 189:Middlewares/Third_Party/LwIP/src/core/tcp.c **** {
 190:Middlewares/Third_Party/LwIP/src/core/tcp.c **** #if LWIP_CALLBACK_API || TCP_LISTEN_BACKLOG
 191:Middlewares/Third_Party/LwIP/src/core/tcp.c ****   size_t i;
 192:Middlewares/Third_Party/LwIP/src/core/tcp.c ****   LWIP_ASSERT("pcb != NULL", pcb != NULL);
 193:Middlewares/Third_Party/LwIP/src/core/tcp.c ****   LWIP_ASSERT("pcb->state == LISTEN", pcb->state == LISTEN);
 194:Middlewares/Third_Party/LwIP/src/core/tcp.c ****   for (i = 1; i < LWIP_ARRAYSIZE(tcp_pcb_lists); i++) {
 195:Middlewares/Third_Party/LwIP/src/core/tcp.c ****     tcp_remove_listener(*tcp_pcb_lists[i], (struct tcp_pcb_listen*)pcb);
 196:Middlewares/Third_Party/LwIP/src/core/tcp.c ****   }
 197:Middlewares/Third_Party/LwIP/src/core/tcp.c **** #endif
 198:Middlewares/Third_Party/LwIP/src/core/tcp.c ****   LWIP_UNUSED_ARG(pcb);
 199:Middlewares/Third_Party/LwIP/src/core/tcp.c **** }
 200:Middlewares/Third_Party/LwIP/src/core/tcp.c **** 
 201:Middlewares/Third_Party/LwIP/src/core/tcp.c **** #if TCP_LISTEN_BACKLOG
 202:Middlewares/Third_Party/LwIP/src/core/tcp.c **** /** @ingroup tcp_raw
 203:Middlewares/Third_Party/LwIP/src/core/tcp.c ****  * Delay accepting a connection in respect to the listen backlog:
 204:Middlewares/Third_Party/LwIP/src/core/tcp.c ****  * the number of outstanding connections is increased until
 205:Middlewares/Third_Party/LwIP/src/core/tcp.c ****  * tcp_backlog_accepted() is called.
 206:Middlewares/Third_Party/LwIP/src/core/tcp.c ****  *
 207:Middlewares/Third_Party/LwIP/src/core/tcp.c ****  * ATTENTION: the caller is responsible for calling tcp_backlog_accepted()
 208:Middlewares/Third_Party/LwIP/src/core/tcp.c ****  * or else the backlog feature will get out of sync!
 209:Middlewares/Third_Party/LwIP/src/core/tcp.c ****  *
 210:Middlewares/Third_Party/LwIP/src/core/tcp.c ****  * @param pcb the connection pcb which is not fully accepted yet
 211:Middlewares/Third_Party/LwIP/src/core/tcp.c ****  */
ARM GAS  /tmp/cc6by9MY.s 			page 6


 212:Middlewares/Third_Party/LwIP/src/core/tcp.c **** void
 213:Middlewares/Third_Party/LwIP/src/core/tcp.c **** tcp_backlog_delayed(struct tcp_pcb* pcb)
 214:Middlewares/Third_Party/LwIP/src/core/tcp.c **** {
 215:Middlewares/Third_Party/LwIP/src/core/tcp.c ****   LWIP_ASSERT("pcb != NULL", pcb != NULL);
 216:Middlewares/Third_Party/LwIP/src/core/tcp.c ****   if ((pcb->flags & TF_BACKLOGPEND) == 0) {
 217:Middlewares/Third_Party/LwIP/src/core/tcp.c ****     if (pcb->listener != NULL) {
 218:Middlewares/Third_Party/LwIP/src/core/tcp.c ****       pcb->listener->accepts_pending++;
 219:Middlewares/Third_Party/LwIP/src/core/tcp.c ****       LWIP_ASSERT("accepts_pending != 0", pcb->listener->accepts_pending != 0);
 220:Middlewares/Third_Party/LwIP/src/core/tcp.c ****       pcb->flags |= TF_BACKLOGPEND;
 221:Middlewares/Third_Party/LwIP/src/core/tcp.c ****     }
 222:Middlewares/Third_Party/LwIP/src/core/tcp.c ****   }
 223:Middlewares/Third_Party/LwIP/src/core/tcp.c **** }
 224:Middlewares/Third_Party/LwIP/src/core/tcp.c **** 
 225:Middlewares/Third_Party/LwIP/src/core/tcp.c **** /** @ingroup tcp_raw
 226:Middlewares/Third_Party/LwIP/src/core/tcp.c ****  * A delayed-accept a connection is accepted (or closed/aborted): decreases
 227:Middlewares/Third_Party/LwIP/src/core/tcp.c ****  * the number of outstanding connections after calling tcp_backlog_delayed().
 228:Middlewares/Third_Party/LwIP/src/core/tcp.c ****  *
 229:Middlewares/Third_Party/LwIP/src/core/tcp.c ****  * ATTENTION: the caller is responsible for calling tcp_backlog_accepted()
 230:Middlewares/Third_Party/LwIP/src/core/tcp.c ****  * or else the backlog feature will get out of sync!
 231:Middlewares/Third_Party/LwIP/src/core/tcp.c ****  *
 232:Middlewares/Third_Party/LwIP/src/core/tcp.c ****  * @param pcb the connection pcb which is now fully accepted (or closed/aborted)
 233:Middlewares/Third_Party/LwIP/src/core/tcp.c ****  */
 234:Middlewares/Third_Party/LwIP/src/core/tcp.c **** void
 235:Middlewares/Third_Party/LwIP/src/core/tcp.c **** tcp_backlog_accepted(struct tcp_pcb* pcb)
 236:Middlewares/Third_Party/LwIP/src/core/tcp.c **** {
 237:Middlewares/Third_Party/LwIP/src/core/tcp.c ****   LWIP_ASSERT("pcb != NULL", pcb != NULL);
 238:Middlewares/Third_Party/LwIP/src/core/tcp.c ****   if ((pcb->flags & TF_BACKLOGPEND) != 0) {
 239:Middlewares/Third_Party/LwIP/src/core/tcp.c ****     if (pcb->listener != NULL) {
 240:Middlewares/Third_Party/LwIP/src/core/tcp.c ****       LWIP_ASSERT("accepts_pending != 0", pcb->listener->accepts_pending != 0);
 241:Middlewares/Third_Party/LwIP/src/core/tcp.c ****       pcb->listener->accepts_pending--;
 242:Middlewares/Third_Party/LwIP/src/core/tcp.c ****       pcb->flags &= ~TF_BACKLOGPEND;
 243:Middlewares/Third_Party/LwIP/src/core/tcp.c ****     }
 244:Middlewares/Third_Party/LwIP/src/core/tcp.c ****   }
 245:Middlewares/Third_Party/LwIP/src/core/tcp.c **** }
 246:Middlewares/Third_Party/LwIP/src/core/tcp.c **** #endif /* TCP_LISTEN_BACKLOG */
 247:Middlewares/Third_Party/LwIP/src/core/tcp.c **** 
 248:Middlewares/Third_Party/LwIP/src/core/tcp.c **** /**
 249:Middlewares/Third_Party/LwIP/src/core/tcp.c ****  * Closes the TX side of a connection held by the PCB.
 250:Middlewares/Third_Party/LwIP/src/core/tcp.c ****  * For tcp_close(), a RST is sent if the application didn't receive all data
 251:Middlewares/Third_Party/LwIP/src/core/tcp.c ****  * (tcp_recved() not called for all data passed to recv callback).
 252:Middlewares/Third_Party/LwIP/src/core/tcp.c ****  *
 253:Middlewares/Third_Party/LwIP/src/core/tcp.c ****  * Listening pcbs are freed and may not be referenced any more.
 254:Middlewares/Third_Party/LwIP/src/core/tcp.c ****  * Connection pcbs are freed if not yet connected and may not be referenced
 255:Middlewares/Third_Party/LwIP/src/core/tcp.c ****  * any more. If a connection is established (at least SYN received or in
 256:Middlewares/Third_Party/LwIP/src/core/tcp.c ****  * a closing state), the connection is closed, and put in a closing state.
 257:Middlewares/Third_Party/LwIP/src/core/tcp.c ****  * The pcb is then automatically freed in tcp_slowtmr(). It is therefore
 258:Middlewares/Third_Party/LwIP/src/core/tcp.c ****  * unsafe to reference it.
 259:Middlewares/Third_Party/LwIP/src/core/tcp.c ****  *
 260:Middlewares/Third_Party/LwIP/src/core/tcp.c ****  * @param pcb the tcp_pcb to close
 261:Middlewares/Third_Party/LwIP/src/core/tcp.c ****  * @return ERR_OK if connection has been closed
 262:Middlewares/Third_Party/LwIP/src/core/tcp.c ****  *         another err_t if closing failed and pcb is not freed
 263:Middlewares/Third_Party/LwIP/src/core/tcp.c ****  */
 264:Middlewares/Third_Party/LwIP/src/core/tcp.c **** static err_t
 265:Middlewares/Third_Party/LwIP/src/core/tcp.c **** tcp_close_shutdown(struct tcp_pcb *pcb, u8_t rst_on_unacked_data)
 266:Middlewares/Third_Party/LwIP/src/core/tcp.c **** {
 267:Middlewares/Third_Party/LwIP/src/core/tcp.c ****   if (rst_on_unacked_data && ((pcb->state == ESTABLISHED) || (pcb->state == CLOSE_WAIT))) {
 268:Middlewares/Third_Party/LwIP/src/core/tcp.c ****     if ((pcb->refused_data != NULL) || (pcb->rcv_wnd != TCP_WND_MAX(pcb))) {
ARM GAS  /tmp/cc6by9MY.s 			page 7


 269:Middlewares/Third_Party/LwIP/src/core/tcp.c ****       /* Not all data received by application, send RST to tell the remote
 270:Middlewares/Third_Party/LwIP/src/core/tcp.c ****          side about this. */
 271:Middlewares/Third_Party/LwIP/src/core/tcp.c ****       LWIP_ASSERT("pcb->flags & TF_RXCLOSED", pcb->flags & TF_RXCLOSED);
 272:Middlewares/Third_Party/LwIP/src/core/tcp.c **** 
 273:Middlewares/Third_Party/LwIP/src/core/tcp.c ****       /* don't call tcp_abort here: we must not deallocate the pcb since
 274:Middlewares/Third_Party/LwIP/src/core/tcp.c ****          that might not be expected when calling tcp_close */
 275:Middlewares/Third_Party/LwIP/src/core/tcp.c ****       tcp_rst(pcb->snd_nxt, pcb->rcv_nxt, &pcb->local_ip, &pcb->remote_ip,
 276:Middlewares/Third_Party/LwIP/src/core/tcp.c ****                pcb->local_port, pcb->remote_port);
 277:Middlewares/Third_Party/LwIP/src/core/tcp.c **** 
 278:Middlewares/Third_Party/LwIP/src/core/tcp.c ****       tcp_pcb_purge(pcb);
 279:Middlewares/Third_Party/LwIP/src/core/tcp.c ****       TCP_RMV_ACTIVE(pcb);
 280:Middlewares/Third_Party/LwIP/src/core/tcp.c ****       if (pcb->state == ESTABLISHED) {
 281:Middlewares/Third_Party/LwIP/src/core/tcp.c ****         /* move to TIME_WAIT since we close actively */
 282:Middlewares/Third_Party/LwIP/src/core/tcp.c ****         pcb->state = TIME_WAIT;
 283:Middlewares/Third_Party/LwIP/src/core/tcp.c ****         TCP_REG(&tcp_tw_pcbs, pcb);
 284:Middlewares/Third_Party/LwIP/src/core/tcp.c ****       } else {
 285:Middlewares/Third_Party/LwIP/src/core/tcp.c ****         /* CLOSE_WAIT: deallocate the pcb since we already sent a RST for it */
 286:Middlewares/Third_Party/LwIP/src/core/tcp.c ****         if (tcp_input_pcb == pcb) {
 287:Middlewares/Third_Party/LwIP/src/core/tcp.c ****           /* prevent using a deallocated pcb: free it from tcp_input later */
 288:Middlewares/Third_Party/LwIP/src/core/tcp.c ****           tcp_trigger_input_pcb_close();
 289:Middlewares/Third_Party/LwIP/src/core/tcp.c ****         } else {
 290:Middlewares/Third_Party/LwIP/src/core/tcp.c ****           memp_free(MEMP_TCP_PCB, pcb);
 291:Middlewares/Third_Party/LwIP/src/core/tcp.c ****         }
 292:Middlewares/Third_Party/LwIP/src/core/tcp.c ****       }
 293:Middlewares/Third_Party/LwIP/src/core/tcp.c ****       return ERR_OK;
 294:Middlewares/Third_Party/LwIP/src/core/tcp.c ****     }
 295:Middlewares/Third_Party/LwIP/src/core/tcp.c ****   }
 296:Middlewares/Third_Party/LwIP/src/core/tcp.c **** 
 297:Middlewares/Third_Party/LwIP/src/core/tcp.c ****   /* - states which free the pcb are handled here,
 298:Middlewares/Third_Party/LwIP/src/core/tcp.c ****      - states which send FIN and change state are handled in tcp_close_shutdown_fin() */
 299:Middlewares/Third_Party/LwIP/src/core/tcp.c ****   switch (pcb->state) {
 300:Middlewares/Third_Party/LwIP/src/core/tcp.c ****   case CLOSED:
 301:Middlewares/Third_Party/LwIP/src/core/tcp.c ****     /* Closing a pcb in the CLOSED state might seem erroneous,
 302:Middlewares/Third_Party/LwIP/src/core/tcp.c ****      * however, it is in this state once allocated and as yet unused
 303:Middlewares/Third_Party/LwIP/src/core/tcp.c ****      * and the user needs some way to free it should the need arise.
 304:Middlewares/Third_Party/LwIP/src/core/tcp.c ****      * Calling tcp_close() with a pcb that has already been closed, (i.e. twice)
 305:Middlewares/Third_Party/LwIP/src/core/tcp.c ****      * or for a pcb that has been used and then entered the CLOSED state
 306:Middlewares/Third_Party/LwIP/src/core/tcp.c ****      * is erroneous, but this should never happen as the pcb has in those cases
 307:Middlewares/Third_Party/LwIP/src/core/tcp.c ****      * been freed, and so any remaining handles are bogus. */
 308:Middlewares/Third_Party/LwIP/src/core/tcp.c ****     if (pcb->local_port != 0) {
 309:Middlewares/Third_Party/LwIP/src/core/tcp.c ****       TCP_RMV(&tcp_bound_pcbs, pcb);
 310:Middlewares/Third_Party/LwIP/src/core/tcp.c ****     }
 311:Middlewares/Third_Party/LwIP/src/core/tcp.c ****     memp_free(MEMP_TCP_PCB, pcb);
 312:Middlewares/Third_Party/LwIP/src/core/tcp.c ****     break;
 313:Middlewares/Third_Party/LwIP/src/core/tcp.c ****   case LISTEN:
 314:Middlewares/Third_Party/LwIP/src/core/tcp.c ****     tcp_listen_closed(pcb);
 315:Middlewares/Third_Party/LwIP/src/core/tcp.c ****     tcp_pcb_remove(&tcp_listen_pcbs.pcbs, pcb);
 316:Middlewares/Third_Party/LwIP/src/core/tcp.c ****     memp_free(MEMP_TCP_PCB_LISTEN, pcb);
 317:Middlewares/Third_Party/LwIP/src/core/tcp.c ****     break;
 318:Middlewares/Third_Party/LwIP/src/core/tcp.c ****   case SYN_SENT:
 319:Middlewares/Third_Party/LwIP/src/core/tcp.c ****     TCP_PCB_REMOVE_ACTIVE(pcb);
 320:Middlewares/Third_Party/LwIP/src/core/tcp.c ****     memp_free(MEMP_TCP_PCB, pcb);
 321:Middlewares/Third_Party/LwIP/src/core/tcp.c ****     MIB2_STATS_INC(mib2.tcpattemptfails);
 322:Middlewares/Third_Party/LwIP/src/core/tcp.c ****     break;
 323:Middlewares/Third_Party/LwIP/src/core/tcp.c ****   default:
 324:Middlewares/Third_Party/LwIP/src/core/tcp.c ****     return tcp_close_shutdown_fin(pcb);
 325:Middlewares/Third_Party/LwIP/src/core/tcp.c ****   }
ARM GAS  /tmp/cc6by9MY.s 			page 8


 326:Middlewares/Third_Party/LwIP/src/core/tcp.c ****   return ERR_OK;
 327:Middlewares/Third_Party/LwIP/src/core/tcp.c **** }
 328:Middlewares/Third_Party/LwIP/src/core/tcp.c **** 
 329:Middlewares/Third_Party/LwIP/src/core/tcp.c **** static err_t
 330:Middlewares/Third_Party/LwIP/src/core/tcp.c **** tcp_close_shutdown_fin(struct tcp_pcb *pcb)
 331:Middlewares/Third_Party/LwIP/src/core/tcp.c **** {
 332:Middlewares/Third_Party/LwIP/src/core/tcp.c ****   err_t err;
 333:Middlewares/Third_Party/LwIP/src/core/tcp.c ****   LWIP_ASSERT("pcb != NULL", pcb != NULL);
 334:Middlewares/Third_Party/LwIP/src/core/tcp.c **** 
 335:Middlewares/Third_Party/LwIP/src/core/tcp.c ****   switch (pcb->state) {
 336:Middlewares/Third_Party/LwIP/src/core/tcp.c ****   case SYN_RCVD:
 337:Middlewares/Third_Party/LwIP/src/core/tcp.c ****     err = tcp_send_fin(pcb);
 338:Middlewares/Third_Party/LwIP/src/core/tcp.c ****     if (err == ERR_OK) {
 339:Middlewares/Third_Party/LwIP/src/core/tcp.c ****       tcp_backlog_accepted(pcb);
 340:Middlewares/Third_Party/LwIP/src/core/tcp.c ****       MIB2_STATS_INC(mib2.tcpattemptfails);
 341:Middlewares/Third_Party/LwIP/src/core/tcp.c ****       pcb->state = FIN_WAIT_1;
 342:Middlewares/Third_Party/LwIP/src/core/tcp.c ****     }
 343:Middlewares/Third_Party/LwIP/src/core/tcp.c ****     break;
 344:Middlewares/Third_Party/LwIP/src/core/tcp.c ****   case ESTABLISHED:
 345:Middlewares/Third_Party/LwIP/src/core/tcp.c ****     err = tcp_send_fin(pcb);
 346:Middlewares/Third_Party/LwIP/src/core/tcp.c ****     if (err == ERR_OK) {
 347:Middlewares/Third_Party/LwIP/src/core/tcp.c ****       MIB2_STATS_INC(mib2.tcpestabresets);
 348:Middlewares/Third_Party/LwIP/src/core/tcp.c ****       pcb->state = FIN_WAIT_1;
 349:Middlewares/Third_Party/LwIP/src/core/tcp.c ****     }
 350:Middlewares/Third_Party/LwIP/src/core/tcp.c ****     break;
 351:Middlewares/Third_Party/LwIP/src/core/tcp.c ****   case CLOSE_WAIT:
 352:Middlewares/Third_Party/LwIP/src/core/tcp.c ****     err = tcp_send_fin(pcb);
 353:Middlewares/Third_Party/LwIP/src/core/tcp.c ****     if (err == ERR_OK) {
 354:Middlewares/Third_Party/LwIP/src/core/tcp.c ****       MIB2_STATS_INC(mib2.tcpestabresets);
 355:Middlewares/Third_Party/LwIP/src/core/tcp.c ****       pcb->state = LAST_ACK;
 356:Middlewares/Third_Party/LwIP/src/core/tcp.c ****     }
 357:Middlewares/Third_Party/LwIP/src/core/tcp.c ****     break;
 358:Middlewares/Third_Party/LwIP/src/core/tcp.c ****   default:
 359:Middlewares/Third_Party/LwIP/src/core/tcp.c ****     /* Has already been closed, do nothing. */
 360:Middlewares/Third_Party/LwIP/src/core/tcp.c ****     return ERR_OK;
 361:Middlewares/Third_Party/LwIP/src/core/tcp.c ****   }
 362:Middlewares/Third_Party/LwIP/src/core/tcp.c **** 
 363:Middlewares/Third_Party/LwIP/src/core/tcp.c ****   if (err == ERR_OK) {
 364:Middlewares/Third_Party/LwIP/src/core/tcp.c ****     /* To ensure all data has been sent when tcp_close returns, we have
 365:Middlewares/Third_Party/LwIP/src/core/tcp.c ****        to make sure tcp_output doesn't fail.
 366:Middlewares/Third_Party/LwIP/src/core/tcp.c ****        Since we don't really have to ensure all data has been sent when tcp_close
 367:Middlewares/Third_Party/LwIP/src/core/tcp.c ****        returns (unsent data is sent from tcp timer functions, also), we don't care
 368:Middlewares/Third_Party/LwIP/src/core/tcp.c ****        for the return value of tcp_output for now. */
 369:Middlewares/Third_Party/LwIP/src/core/tcp.c ****     tcp_output(pcb);
 370:Middlewares/Third_Party/LwIP/src/core/tcp.c ****   } else if (err == ERR_MEM) {
 371:Middlewares/Third_Party/LwIP/src/core/tcp.c ****     /* Mark this pcb for closing. Closing is retried from tcp_tmr. */
 372:Middlewares/Third_Party/LwIP/src/core/tcp.c ****     pcb->flags |= TF_CLOSEPEND;
 373:Middlewares/Third_Party/LwIP/src/core/tcp.c ****     /* We have to return ERR_OK from here to indicate to the callers that this
 374:Middlewares/Third_Party/LwIP/src/core/tcp.c ****        pcb should not be used any more as it will be freed soon via tcp_tmr.
 375:Middlewares/Third_Party/LwIP/src/core/tcp.c ****        This is OK here since sending FIN does not guarantee a time frime for
 376:Middlewares/Third_Party/LwIP/src/core/tcp.c ****        actually freeing the pcb, either (it is left in closure states for
 377:Middlewares/Third_Party/LwIP/src/core/tcp.c ****        remote ACK or timeout) */
 378:Middlewares/Third_Party/LwIP/src/core/tcp.c ****     return ERR_OK;
 379:Middlewares/Third_Party/LwIP/src/core/tcp.c ****   }
 380:Middlewares/Third_Party/LwIP/src/core/tcp.c ****   return err;
 381:Middlewares/Third_Party/LwIP/src/core/tcp.c **** }
 382:Middlewares/Third_Party/LwIP/src/core/tcp.c **** 
ARM GAS  /tmp/cc6by9MY.s 			page 9


 383:Middlewares/Third_Party/LwIP/src/core/tcp.c **** /**
 384:Middlewares/Third_Party/LwIP/src/core/tcp.c ****  * @ingroup tcp_raw
 385:Middlewares/Third_Party/LwIP/src/core/tcp.c ****  * Closes the connection held by the PCB.
 386:Middlewares/Third_Party/LwIP/src/core/tcp.c ****  *
 387:Middlewares/Third_Party/LwIP/src/core/tcp.c ****  * Listening pcbs are freed and may not be referenced any more.
 388:Middlewares/Third_Party/LwIP/src/core/tcp.c ****  * Connection pcbs are freed if not yet connected and may not be referenced
 389:Middlewares/Third_Party/LwIP/src/core/tcp.c ****  * any more. If a connection is established (at least SYN received or in
 390:Middlewares/Third_Party/LwIP/src/core/tcp.c ****  * a closing state), the connection is closed, and put in a closing state.
 391:Middlewares/Third_Party/LwIP/src/core/tcp.c ****  * The pcb is then automatically freed in tcp_slowtmr(). It is therefore
 392:Middlewares/Third_Party/LwIP/src/core/tcp.c ****  * unsafe to reference it (unless an error is returned).
 393:Middlewares/Third_Party/LwIP/src/core/tcp.c ****  *
 394:Middlewares/Third_Party/LwIP/src/core/tcp.c ****  * @param pcb the tcp_pcb to close
 395:Middlewares/Third_Party/LwIP/src/core/tcp.c ****  * @return ERR_OK if connection has been closed
 396:Middlewares/Third_Party/LwIP/src/core/tcp.c ****  *         another err_t if closing failed and pcb is not freed
 397:Middlewares/Third_Party/LwIP/src/core/tcp.c ****  */
 398:Middlewares/Third_Party/LwIP/src/core/tcp.c **** err_t
 399:Middlewares/Third_Party/LwIP/src/core/tcp.c **** tcp_close(struct tcp_pcb *pcb)
 400:Middlewares/Third_Party/LwIP/src/core/tcp.c **** {
 401:Middlewares/Third_Party/LwIP/src/core/tcp.c ****   LWIP_DEBUGF(TCP_DEBUG, ("tcp_close: closing in "));
 402:Middlewares/Third_Party/LwIP/src/core/tcp.c ****   tcp_debug_print_state(pcb->state);
 403:Middlewares/Third_Party/LwIP/src/core/tcp.c **** 
 404:Middlewares/Third_Party/LwIP/src/core/tcp.c ****   if (pcb->state != LISTEN) {
 405:Middlewares/Third_Party/LwIP/src/core/tcp.c ****     /* Set a flag not to receive any more data... */
 406:Middlewares/Third_Party/LwIP/src/core/tcp.c ****     pcb->flags |= TF_RXCLOSED;
 407:Middlewares/Third_Party/LwIP/src/core/tcp.c ****   }
 408:Middlewares/Third_Party/LwIP/src/core/tcp.c ****   /* ... and close */
 409:Middlewares/Third_Party/LwIP/src/core/tcp.c ****   return tcp_close_shutdown(pcb, 1);
 410:Middlewares/Third_Party/LwIP/src/core/tcp.c **** }
 411:Middlewares/Third_Party/LwIP/src/core/tcp.c **** 
 412:Middlewares/Third_Party/LwIP/src/core/tcp.c **** /**
 413:Middlewares/Third_Party/LwIP/src/core/tcp.c ****  * @ingroup tcp_raw
 414:Middlewares/Third_Party/LwIP/src/core/tcp.c ****  * Causes all or part of a full-duplex connection of this PCB to be shut down.
 415:Middlewares/Third_Party/LwIP/src/core/tcp.c ****  * This doesn't deallocate the PCB unless shutting down both sides!
 416:Middlewares/Third_Party/LwIP/src/core/tcp.c ****  * Shutting down both sides is the same as calling tcp_close, so if it succeds
 417:Middlewares/Third_Party/LwIP/src/core/tcp.c ****  * (i.e. returns ER_OK), the PCB must not be referenced any more!
 418:Middlewares/Third_Party/LwIP/src/core/tcp.c ****  *
 419:Middlewares/Third_Party/LwIP/src/core/tcp.c ****  * @param pcb PCB to shutdown
 420:Middlewares/Third_Party/LwIP/src/core/tcp.c ****  * @param shut_rx shut down receive side if this is != 0
 421:Middlewares/Third_Party/LwIP/src/core/tcp.c ****  * @param shut_tx shut down send side if this is != 0
 422:Middlewares/Third_Party/LwIP/src/core/tcp.c ****  * @return ERR_OK if shutdown succeeded (or the PCB has already been shut down)
 423:Middlewares/Third_Party/LwIP/src/core/tcp.c ****  *         another err_t on error.
 424:Middlewares/Third_Party/LwIP/src/core/tcp.c ****  */
 425:Middlewares/Third_Party/LwIP/src/core/tcp.c **** err_t
 426:Middlewares/Third_Party/LwIP/src/core/tcp.c **** tcp_shutdown(struct tcp_pcb *pcb, int shut_rx, int shut_tx)
 427:Middlewares/Third_Party/LwIP/src/core/tcp.c **** {
 428:Middlewares/Third_Party/LwIP/src/core/tcp.c ****   if (pcb->state == LISTEN) {
 429:Middlewares/Third_Party/LwIP/src/core/tcp.c ****     return ERR_CONN;
 430:Middlewares/Third_Party/LwIP/src/core/tcp.c ****   }
 431:Middlewares/Third_Party/LwIP/src/core/tcp.c ****   if (shut_rx) {
 432:Middlewares/Third_Party/LwIP/src/core/tcp.c ****     /* shut down the receive side: set a flag not to receive any more data... */
 433:Middlewares/Third_Party/LwIP/src/core/tcp.c ****     pcb->flags |= TF_RXCLOSED;
 434:Middlewares/Third_Party/LwIP/src/core/tcp.c ****     if (shut_tx) {
 435:Middlewares/Third_Party/LwIP/src/core/tcp.c ****       /* shutting down the tx AND rx side is the same as closing for the raw API */
 436:Middlewares/Third_Party/LwIP/src/core/tcp.c ****       return tcp_close_shutdown(pcb, 1);
 437:Middlewares/Third_Party/LwIP/src/core/tcp.c ****     }
 438:Middlewares/Third_Party/LwIP/src/core/tcp.c ****     /* ... and free buffered data */
 439:Middlewares/Third_Party/LwIP/src/core/tcp.c ****     if (pcb->refused_data != NULL) {
ARM GAS  /tmp/cc6by9MY.s 			page 10


 440:Middlewares/Third_Party/LwIP/src/core/tcp.c ****       pbuf_free(pcb->refused_data);
 441:Middlewares/Third_Party/LwIP/src/core/tcp.c ****       pcb->refused_data = NULL;
 442:Middlewares/Third_Party/LwIP/src/core/tcp.c ****     }
 443:Middlewares/Third_Party/LwIP/src/core/tcp.c ****   }
 444:Middlewares/Third_Party/LwIP/src/core/tcp.c ****   if (shut_tx) {
 445:Middlewares/Third_Party/LwIP/src/core/tcp.c ****     /* This can't happen twice since if it succeeds, the pcb's state is changed.
 446:Middlewares/Third_Party/LwIP/src/core/tcp.c ****        Only close in these states as the others directly deallocate the PCB */
 447:Middlewares/Third_Party/LwIP/src/core/tcp.c ****     switch (pcb->state) {
 448:Middlewares/Third_Party/LwIP/src/core/tcp.c ****     case SYN_RCVD:
 449:Middlewares/Third_Party/LwIP/src/core/tcp.c ****     case ESTABLISHED:
 450:Middlewares/Third_Party/LwIP/src/core/tcp.c ****     case CLOSE_WAIT:
 451:Middlewares/Third_Party/LwIP/src/core/tcp.c ****       return tcp_close_shutdown(pcb, (u8_t)shut_rx);
 452:Middlewares/Third_Party/LwIP/src/core/tcp.c ****     default:
 453:Middlewares/Third_Party/LwIP/src/core/tcp.c ****       /* Not (yet?) connected, cannot shutdown the TX side as that would bring us
 454:Middlewares/Third_Party/LwIP/src/core/tcp.c ****         into CLOSED state, where the PCB is deallocated. */
 455:Middlewares/Third_Party/LwIP/src/core/tcp.c ****       return ERR_CONN;
 456:Middlewares/Third_Party/LwIP/src/core/tcp.c ****     }
 457:Middlewares/Third_Party/LwIP/src/core/tcp.c ****   }
 458:Middlewares/Third_Party/LwIP/src/core/tcp.c ****   return ERR_OK;
 459:Middlewares/Third_Party/LwIP/src/core/tcp.c **** }
 460:Middlewares/Third_Party/LwIP/src/core/tcp.c **** 
 461:Middlewares/Third_Party/LwIP/src/core/tcp.c **** /**
 462:Middlewares/Third_Party/LwIP/src/core/tcp.c ****  * Abandons a connection and optionally sends a RST to the remote
 463:Middlewares/Third_Party/LwIP/src/core/tcp.c ****  * host.  Deletes the local protocol control block. This is done when
 464:Middlewares/Third_Party/LwIP/src/core/tcp.c ****  * a connection is killed because of shortage of memory.
 465:Middlewares/Third_Party/LwIP/src/core/tcp.c ****  *
 466:Middlewares/Third_Party/LwIP/src/core/tcp.c ****  * @param pcb the tcp_pcb to abort
 467:Middlewares/Third_Party/LwIP/src/core/tcp.c ****  * @param reset boolean to indicate whether a reset should be sent
 468:Middlewares/Third_Party/LwIP/src/core/tcp.c ****  */
 469:Middlewares/Third_Party/LwIP/src/core/tcp.c **** void
 470:Middlewares/Third_Party/LwIP/src/core/tcp.c **** tcp_abandon(struct tcp_pcb *pcb, int reset)
 471:Middlewares/Third_Party/LwIP/src/core/tcp.c **** {
 472:Middlewares/Third_Party/LwIP/src/core/tcp.c ****   u32_t seqno, ackno;
 473:Middlewares/Third_Party/LwIP/src/core/tcp.c **** #if LWIP_CALLBACK_API
 474:Middlewares/Third_Party/LwIP/src/core/tcp.c ****   tcp_err_fn errf;
 475:Middlewares/Third_Party/LwIP/src/core/tcp.c **** #endif /* LWIP_CALLBACK_API */
 476:Middlewares/Third_Party/LwIP/src/core/tcp.c ****   void *errf_arg;
 477:Middlewares/Third_Party/LwIP/src/core/tcp.c **** 
 478:Middlewares/Third_Party/LwIP/src/core/tcp.c ****   /* pcb->state LISTEN not allowed here */
 479:Middlewares/Third_Party/LwIP/src/core/tcp.c ****   LWIP_ASSERT("don't call tcp_abort/tcp_abandon for listen-pcbs",
 480:Middlewares/Third_Party/LwIP/src/core/tcp.c ****     pcb->state != LISTEN);
 481:Middlewares/Third_Party/LwIP/src/core/tcp.c ****   /* Figure out on which TCP PCB list we are, and remove us. If we
 482:Middlewares/Third_Party/LwIP/src/core/tcp.c ****      are in an active state, call the receive function associated with
 483:Middlewares/Third_Party/LwIP/src/core/tcp.c ****      the PCB with a NULL argument, and send an RST to the remote end. */
 484:Middlewares/Third_Party/LwIP/src/core/tcp.c ****   if (pcb->state == TIME_WAIT) {
 485:Middlewares/Third_Party/LwIP/src/core/tcp.c ****     tcp_pcb_remove(&tcp_tw_pcbs, pcb);
 486:Middlewares/Third_Party/LwIP/src/core/tcp.c ****     memp_free(MEMP_TCP_PCB, pcb);
 487:Middlewares/Third_Party/LwIP/src/core/tcp.c ****   } else {
 488:Middlewares/Third_Party/LwIP/src/core/tcp.c ****     int send_rst = 0;
 489:Middlewares/Third_Party/LwIP/src/core/tcp.c ****     u16_t local_port = 0;
 490:Middlewares/Third_Party/LwIP/src/core/tcp.c ****     enum tcp_state last_state;
 491:Middlewares/Third_Party/LwIP/src/core/tcp.c ****     seqno = pcb->snd_nxt;
 492:Middlewares/Third_Party/LwIP/src/core/tcp.c ****     ackno = pcb->rcv_nxt;
 493:Middlewares/Third_Party/LwIP/src/core/tcp.c **** #if LWIP_CALLBACK_API
 494:Middlewares/Third_Party/LwIP/src/core/tcp.c ****     errf = pcb->errf;
 495:Middlewares/Third_Party/LwIP/src/core/tcp.c **** #endif /* LWIP_CALLBACK_API */
 496:Middlewares/Third_Party/LwIP/src/core/tcp.c ****     errf_arg = pcb->callback_arg;
ARM GAS  /tmp/cc6by9MY.s 			page 11


 497:Middlewares/Third_Party/LwIP/src/core/tcp.c ****     if (pcb->state == CLOSED) {
 498:Middlewares/Third_Party/LwIP/src/core/tcp.c ****       if (pcb->local_port != 0) {
 499:Middlewares/Third_Party/LwIP/src/core/tcp.c ****         /* bound, not yet opened */
 500:Middlewares/Third_Party/LwIP/src/core/tcp.c ****         TCP_RMV(&tcp_bound_pcbs, pcb);
 501:Middlewares/Third_Party/LwIP/src/core/tcp.c ****       }
 502:Middlewares/Third_Party/LwIP/src/core/tcp.c ****     } else {
 503:Middlewares/Third_Party/LwIP/src/core/tcp.c ****       send_rst = reset;
 504:Middlewares/Third_Party/LwIP/src/core/tcp.c ****       local_port = pcb->local_port;
 505:Middlewares/Third_Party/LwIP/src/core/tcp.c ****       TCP_PCB_REMOVE_ACTIVE(pcb);
 506:Middlewares/Third_Party/LwIP/src/core/tcp.c ****     }
 507:Middlewares/Third_Party/LwIP/src/core/tcp.c ****     if (pcb->unacked != NULL) {
 508:Middlewares/Third_Party/LwIP/src/core/tcp.c ****       tcp_segs_free(pcb->unacked);
 509:Middlewares/Third_Party/LwIP/src/core/tcp.c ****     }
 510:Middlewares/Third_Party/LwIP/src/core/tcp.c ****     if (pcb->unsent != NULL) {
 511:Middlewares/Third_Party/LwIP/src/core/tcp.c ****       tcp_segs_free(pcb->unsent);
 512:Middlewares/Third_Party/LwIP/src/core/tcp.c ****     }
 513:Middlewares/Third_Party/LwIP/src/core/tcp.c **** #if TCP_QUEUE_OOSEQ
 514:Middlewares/Third_Party/LwIP/src/core/tcp.c ****     if (pcb->ooseq != NULL) {
 515:Middlewares/Third_Party/LwIP/src/core/tcp.c ****       tcp_segs_free(pcb->ooseq);
 516:Middlewares/Third_Party/LwIP/src/core/tcp.c ****     }
 517:Middlewares/Third_Party/LwIP/src/core/tcp.c **** #endif /* TCP_QUEUE_OOSEQ */
 518:Middlewares/Third_Party/LwIP/src/core/tcp.c ****     tcp_backlog_accepted(pcb);
 519:Middlewares/Third_Party/LwIP/src/core/tcp.c ****     if (send_rst) {
 520:Middlewares/Third_Party/LwIP/src/core/tcp.c ****       LWIP_DEBUGF(TCP_RST_DEBUG, ("tcp_abandon: sending RST\n"));
 521:Middlewares/Third_Party/LwIP/src/core/tcp.c ****       tcp_rst(seqno, ackno, &pcb->local_ip, &pcb->remote_ip, local_port, pcb->remote_port);
 522:Middlewares/Third_Party/LwIP/src/core/tcp.c ****     }
 523:Middlewares/Third_Party/LwIP/src/core/tcp.c ****     last_state = pcb->state;
 524:Middlewares/Third_Party/LwIP/src/core/tcp.c ****     memp_free(MEMP_TCP_PCB, pcb);
 525:Middlewares/Third_Party/LwIP/src/core/tcp.c ****     TCP_EVENT_ERR(last_state, errf, errf_arg, ERR_ABRT);
 526:Middlewares/Third_Party/LwIP/src/core/tcp.c ****   }
 527:Middlewares/Third_Party/LwIP/src/core/tcp.c **** }
 528:Middlewares/Third_Party/LwIP/src/core/tcp.c **** 
 529:Middlewares/Third_Party/LwIP/src/core/tcp.c **** /**
 530:Middlewares/Third_Party/LwIP/src/core/tcp.c ****  * @ingroup tcp_raw
 531:Middlewares/Third_Party/LwIP/src/core/tcp.c ****  * Aborts the connection by sending a RST (reset) segment to the remote
 532:Middlewares/Third_Party/LwIP/src/core/tcp.c ****  * host. The pcb is deallocated. This function never fails.
 533:Middlewares/Third_Party/LwIP/src/core/tcp.c ****  *
 534:Middlewares/Third_Party/LwIP/src/core/tcp.c ****  * ATTENTION: When calling this from one of the TCP callbacks, make
 535:Middlewares/Third_Party/LwIP/src/core/tcp.c ****  * sure you always return ERR_ABRT (and never return ERR_ABRT otherwise
 536:Middlewares/Third_Party/LwIP/src/core/tcp.c ****  * or you will risk accessing deallocated memory or memory leaks!
 537:Middlewares/Third_Party/LwIP/src/core/tcp.c ****  *
 538:Middlewares/Third_Party/LwIP/src/core/tcp.c ****  * @param pcb the tcp pcb to abort
 539:Middlewares/Third_Party/LwIP/src/core/tcp.c ****  */
 540:Middlewares/Third_Party/LwIP/src/core/tcp.c **** void
 541:Middlewares/Third_Party/LwIP/src/core/tcp.c **** tcp_abort(struct tcp_pcb *pcb)
 542:Middlewares/Third_Party/LwIP/src/core/tcp.c **** {
 543:Middlewares/Third_Party/LwIP/src/core/tcp.c ****   tcp_abandon(pcb, 1);
 544:Middlewares/Third_Party/LwIP/src/core/tcp.c **** }
 545:Middlewares/Third_Party/LwIP/src/core/tcp.c **** 
 546:Middlewares/Third_Party/LwIP/src/core/tcp.c **** /**
 547:Middlewares/Third_Party/LwIP/src/core/tcp.c ****  * @ingroup tcp_raw
 548:Middlewares/Third_Party/LwIP/src/core/tcp.c ****  * Binds the connection to a local port number and IP address. If the
 549:Middlewares/Third_Party/LwIP/src/core/tcp.c ****  * IP address is not given (i.e., ipaddr == NULL), the IP address of
 550:Middlewares/Third_Party/LwIP/src/core/tcp.c ****  * the outgoing network interface is used instead.
 551:Middlewares/Third_Party/LwIP/src/core/tcp.c ****  *
 552:Middlewares/Third_Party/LwIP/src/core/tcp.c ****  * @param pcb the tcp_pcb to bind (no check is done whether this pcb is
 553:Middlewares/Third_Party/LwIP/src/core/tcp.c ****  *        already bound!)
ARM GAS  /tmp/cc6by9MY.s 			page 12


 554:Middlewares/Third_Party/LwIP/src/core/tcp.c ****  * @param ipaddr the local ip address to bind to (use IP4_ADDR_ANY to bind
 555:Middlewares/Third_Party/LwIP/src/core/tcp.c ****  *        to any local address
 556:Middlewares/Third_Party/LwIP/src/core/tcp.c ****  * @param port the local port to bind to
 557:Middlewares/Third_Party/LwIP/src/core/tcp.c ****  * @return ERR_USE if the port is already in use
 558:Middlewares/Third_Party/LwIP/src/core/tcp.c ****  *         ERR_VAL if bind failed because the PCB is not in a valid state
 559:Middlewares/Third_Party/LwIP/src/core/tcp.c ****  *         ERR_OK if bound
 560:Middlewares/Third_Party/LwIP/src/core/tcp.c ****  */
 561:Middlewares/Third_Party/LwIP/src/core/tcp.c **** err_t
 562:Middlewares/Third_Party/LwIP/src/core/tcp.c **** tcp_bind(struct tcp_pcb *pcb, const ip_addr_t *ipaddr, u16_t port)
 563:Middlewares/Third_Party/LwIP/src/core/tcp.c **** {
 564:Middlewares/Third_Party/LwIP/src/core/tcp.c ****   int i;
 565:Middlewares/Third_Party/LwIP/src/core/tcp.c ****   int max_pcb_list = NUM_TCP_PCB_LISTS;
 566:Middlewares/Third_Party/LwIP/src/core/tcp.c ****   struct tcp_pcb *cpcb;
 567:Middlewares/Third_Party/LwIP/src/core/tcp.c **** 
 568:Middlewares/Third_Party/LwIP/src/core/tcp.c **** #if LWIP_IPV4
 569:Middlewares/Third_Party/LwIP/src/core/tcp.c ****   /* Don't propagate NULL pointer (IPv4 ANY) to subsequent functions */
 570:Middlewares/Third_Party/LwIP/src/core/tcp.c ****   if (ipaddr == NULL) {
 571:Middlewares/Third_Party/LwIP/src/core/tcp.c ****     ipaddr = IP4_ADDR_ANY;
 572:Middlewares/Third_Party/LwIP/src/core/tcp.c ****   }
 573:Middlewares/Third_Party/LwIP/src/core/tcp.c **** #endif /* LWIP_IPV4 */
 574:Middlewares/Third_Party/LwIP/src/core/tcp.c **** 
 575:Middlewares/Third_Party/LwIP/src/core/tcp.c ****   /* still need to check for ipaddr == NULL in IPv6 only case */
 576:Middlewares/Third_Party/LwIP/src/core/tcp.c ****   if ((pcb == NULL) || (ipaddr == NULL)) {
 577:Middlewares/Third_Party/LwIP/src/core/tcp.c ****     return ERR_VAL;
 578:Middlewares/Third_Party/LwIP/src/core/tcp.c ****   }
 579:Middlewares/Third_Party/LwIP/src/core/tcp.c **** 
 580:Middlewares/Third_Party/LwIP/src/core/tcp.c ****   LWIP_ERROR("tcp_bind: can only bind in state CLOSED", pcb->state == CLOSED, return ERR_VAL);
 581:Middlewares/Third_Party/LwIP/src/core/tcp.c **** 
 582:Middlewares/Third_Party/LwIP/src/core/tcp.c **** #if SO_REUSE
 583:Middlewares/Third_Party/LwIP/src/core/tcp.c ****   /* Unless the REUSEADDR flag is set,
 584:Middlewares/Third_Party/LwIP/src/core/tcp.c ****      we have to check the pcbs in TIME-WAIT state, also.
 585:Middlewares/Third_Party/LwIP/src/core/tcp.c ****      We do not dump TIME_WAIT pcb's; they can still be matched by incoming
 586:Middlewares/Third_Party/LwIP/src/core/tcp.c ****      packets using both local and remote IP addresses and ports to distinguish.
 587:Middlewares/Third_Party/LwIP/src/core/tcp.c ****    */
 588:Middlewares/Third_Party/LwIP/src/core/tcp.c ****   if (ip_get_option(pcb, SOF_REUSEADDR)) {
 589:Middlewares/Third_Party/LwIP/src/core/tcp.c ****     max_pcb_list = NUM_TCP_PCB_LISTS_NO_TIME_WAIT;
 590:Middlewares/Third_Party/LwIP/src/core/tcp.c ****   }
 591:Middlewares/Third_Party/LwIP/src/core/tcp.c **** #endif /* SO_REUSE */
 592:Middlewares/Third_Party/LwIP/src/core/tcp.c **** 
 593:Middlewares/Third_Party/LwIP/src/core/tcp.c ****   if (port == 0) {
 594:Middlewares/Third_Party/LwIP/src/core/tcp.c ****     port = tcp_new_port();
 595:Middlewares/Third_Party/LwIP/src/core/tcp.c ****     if (port == 0) {
 596:Middlewares/Third_Party/LwIP/src/core/tcp.c ****       return ERR_BUF;
 597:Middlewares/Third_Party/LwIP/src/core/tcp.c ****     }
 598:Middlewares/Third_Party/LwIP/src/core/tcp.c ****   } else {
 599:Middlewares/Third_Party/LwIP/src/core/tcp.c ****     /* Check if the address already is in use (on all lists) */
 600:Middlewares/Third_Party/LwIP/src/core/tcp.c ****     for (i = 0; i < max_pcb_list; i++) {
 601:Middlewares/Third_Party/LwIP/src/core/tcp.c ****       for (cpcb = *tcp_pcb_lists[i]; cpcb != NULL; cpcb = cpcb->next) {
 602:Middlewares/Third_Party/LwIP/src/core/tcp.c ****         if (cpcb->local_port == port) {
 603:Middlewares/Third_Party/LwIP/src/core/tcp.c **** #if SO_REUSE
 604:Middlewares/Third_Party/LwIP/src/core/tcp.c ****           /* Omit checking for the same port if both pcbs have REUSEADDR set.
 605:Middlewares/Third_Party/LwIP/src/core/tcp.c ****              For SO_REUSEADDR, the duplicate-check for a 5-tuple is done in
 606:Middlewares/Third_Party/LwIP/src/core/tcp.c ****              tcp_connect. */
 607:Middlewares/Third_Party/LwIP/src/core/tcp.c ****           if (!ip_get_option(pcb, SOF_REUSEADDR) ||
 608:Middlewares/Third_Party/LwIP/src/core/tcp.c ****               !ip_get_option(cpcb, SOF_REUSEADDR))
 609:Middlewares/Third_Party/LwIP/src/core/tcp.c **** #endif /* SO_REUSE */
 610:Middlewares/Third_Party/LwIP/src/core/tcp.c ****           {
ARM GAS  /tmp/cc6by9MY.s 			page 13


 611:Middlewares/Third_Party/LwIP/src/core/tcp.c ****             /* @todo: check accept_any_ip_version */
 612:Middlewares/Third_Party/LwIP/src/core/tcp.c ****             if ((IP_IS_V6(ipaddr) == IP_IS_V6_VAL(cpcb->local_ip)) &&
 613:Middlewares/Third_Party/LwIP/src/core/tcp.c ****                 (ip_addr_isany(&cpcb->local_ip) ||
 614:Middlewares/Third_Party/LwIP/src/core/tcp.c ****                 ip_addr_isany(ipaddr) ||
 615:Middlewares/Third_Party/LwIP/src/core/tcp.c ****                 ip_addr_cmp(&cpcb->local_ip, ipaddr))) {
 616:Middlewares/Third_Party/LwIP/src/core/tcp.c ****               return ERR_USE;
 617:Middlewares/Third_Party/LwIP/src/core/tcp.c ****             }
 618:Middlewares/Third_Party/LwIP/src/core/tcp.c ****           }
 619:Middlewares/Third_Party/LwIP/src/core/tcp.c ****         }
 620:Middlewares/Third_Party/LwIP/src/core/tcp.c ****       }
 621:Middlewares/Third_Party/LwIP/src/core/tcp.c ****     }
 622:Middlewares/Third_Party/LwIP/src/core/tcp.c ****   }
 623:Middlewares/Third_Party/LwIP/src/core/tcp.c **** 
 624:Middlewares/Third_Party/LwIP/src/core/tcp.c ****   if (!ip_addr_isany(ipaddr)) {
 625:Middlewares/Third_Party/LwIP/src/core/tcp.c ****     ip_addr_set(&pcb->local_ip, ipaddr);
 626:Middlewares/Third_Party/LwIP/src/core/tcp.c ****   }
 627:Middlewares/Third_Party/LwIP/src/core/tcp.c ****   pcb->local_port = port;
 628:Middlewares/Third_Party/LwIP/src/core/tcp.c ****   TCP_REG(&tcp_bound_pcbs, pcb);
 629:Middlewares/Third_Party/LwIP/src/core/tcp.c ****   LWIP_DEBUGF(TCP_DEBUG, ("tcp_bind: bind to port %"U16_F"\n", port));
 630:Middlewares/Third_Party/LwIP/src/core/tcp.c ****   return ERR_OK;
 631:Middlewares/Third_Party/LwIP/src/core/tcp.c **** }
 632:Middlewares/Third_Party/LwIP/src/core/tcp.c **** #if LWIP_CALLBACK_API
 633:Middlewares/Third_Party/LwIP/src/core/tcp.c **** /**
 634:Middlewares/Third_Party/LwIP/src/core/tcp.c ****  * Default accept callback if no accept callback is specified by the user.
 635:Middlewares/Third_Party/LwIP/src/core/tcp.c ****  */
 636:Middlewares/Third_Party/LwIP/src/core/tcp.c **** static err_t
 637:Middlewares/Third_Party/LwIP/src/core/tcp.c **** tcp_accept_null(void *arg, struct tcp_pcb *pcb, err_t err)
 638:Middlewares/Third_Party/LwIP/src/core/tcp.c **** {
 639:Middlewares/Third_Party/LwIP/src/core/tcp.c ****   LWIP_UNUSED_ARG(arg);
 640:Middlewares/Third_Party/LwIP/src/core/tcp.c ****   LWIP_UNUSED_ARG(err);
 641:Middlewares/Third_Party/LwIP/src/core/tcp.c **** 
 642:Middlewares/Third_Party/LwIP/src/core/tcp.c ****   tcp_abort(pcb);
 643:Middlewares/Third_Party/LwIP/src/core/tcp.c **** 
 644:Middlewares/Third_Party/LwIP/src/core/tcp.c ****   return ERR_ABRT;
 645:Middlewares/Third_Party/LwIP/src/core/tcp.c **** }
 646:Middlewares/Third_Party/LwIP/src/core/tcp.c **** #endif /* LWIP_CALLBACK_API */
 647:Middlewares/Third_Party/LwIP/src/core/tcp.c **** 
 648:Middlewares/Third_Party/LwIP/src/core/tcp.c **** /**
 649:Middlewares/Third_Party/LwIP/src/core/tcp.c ****  * @ingroup tcp_raw
 650:Middlewares/Third_Party/LwIP/src/core/tcp.c ****  * Set the state of the connection to be LISTEN, which means that it
 651:Middlewares/Third_Party/LwIP/src/core/tcp.c ****  * is able to accept incoming connections. The protocol control block
 652:Middlewares/Third_Party/LwIP/src/core/tcp.c ****  * is reallocated in order to consume less memory. Setting the
 653:Middlewares/Third_Party/LwIP/src/core/tcp.c ****  * connection to LISTEN is an irreversible process.
 654:Middlewares/Third_Party/LwIP/src/core/tcp.c ****  *
 655:Middlewares/Third_Party/LwIP/src/core/tcp.c ****  * @param pcb the original tcp_pcb
 656:Middlewares/Third_Party/LwIP/src/core/tcp.c ****  * @param backlog the incoming connections queue limit
 657:Middlewares/Third_Party/LwIP/src/core/tcp.c ****  * @return tcp_pcb used for listening, consumes less memory.
 658:Middlewares/Third_Party/LwIP/src/core/tcp.c ****  *
 659:Middlewares/Third_Party/LwIP/src/core/tcp.c ****  * @note The original tcp_pcb is freed. This function therefore has to be
 660:Middlewares/Third_Party/LwIP/src/core/tcp.c ****  *       called like this:
 661:Middlewares/Third_Party/LwIP/src/core/tcp.c ****  *             tpcb = tcp_listen_with_backlog(tpcb, backlog);
 662:Middlewares/Third_Party/LwIP/src/core/tcp.c ****  */
 663:Middlewares/Third_Party/LwIP/src/core/tcp.c **** struct tcp_pcb *
 664:Middlewares/Third_Party/LwIP/src/core/tcp.c **** tcp_listen_with_backlog(struct tcp_pcb *pcb, u8_t backlog)
 665:Middlewares/Third_Party/LwIP/src/core/tcp.c **** {
 666:Middlewares/Third_Party/LwIP/src/core/tcp.c ****   return tcp_listen_with_backlog_and_err(pcb, backlog, NULL);
 667:Middlewares/Third_Party/LwIP/src/core/tcp.c **** }
ARM GAS  /tmp/cc6by9MY.s 			page 14


 668:Middlewares/Third_Party/LwIP/src/core/tcp.c **** 
 669:Middlewares/Third_Party/LwIP/src/core/tcp.c **** /**
 670:Middlewares/Third_Party/LwIP/src/core/tcp.c ****  * @ingroup tcp_raw
 671:Middlewares/Third_Party/LwIP/src/core/tcp.c ****  * Set the state of the connection to be LISTEN, which means that it
 672:Middlewares/Third_Party/LwIP/src/core/tcp.c ****  * is able to accept incoming connections. The protocol control block
 673:Middlewares/Third_Party/LwIP/src/core/tcp.c ****  * is reallocated in order to consume less memory. Setting the
 674:Middlewares/Third_Party/LwIP/src/core/tcp.c ****  * connection to LISTEN is an irreversible process.
 675:Middlewares/Third_Party/LwIP/src/core/tcp.c ****  *
 676:Middlewares/Third_Party/LwIP/src/core/tcp.c ****  * @param pcb the original tcp_pcb
 677:Middlewares/Third_Party/LwIP/src/core/tcp.c ****  * @param backlog the incoming connections queue limit
 678:Middlewares/Third_Party/LwIP/src/core/tcp.c ****  * @param err when NULL is returned, this contains the error reason
 679:Middlewares/Third_Party/LwIP/src/core/tcp.c ****  * @return tcp_pcb used for listening, consumes less memory.
 680:Middlewares/Third_Party/LwIP/src/core/tcp.c ****  *
 681:Middlewares/Third_Party/LwIP/src/core/tcp.c ****  * @note The original tcp_pcb is freed. This function therefore has to be
 682:Middlewares/Third_Party/LwIP/src/core/tcp.c ****  *       called like this:
 683:Middlewares/Third_Party/LwIP/src/core/tcp.c ****  *             tpcb = tcp_listen_with_backlog_and_err(tpcb, backlog, &err);
 684:Middlewares/Third_Party/LwIP/src/core/tcp.c ****  */
 685:Middlewares/Third_Party/LwIP/src/core/tcp.c **** struct tcp_pcb *
 686:Middlewares/Third_Party/LwIP/src/core/tcp.c **** tcp_listen_with_backlog_and_err(struct tcp_pcb *pcb, u8_t backlog, err_t *err)
 687:Middlewares/Third_Party/LwIP/src/core/tcp.c **** {
 688:Middlewares/Third_Party/LwIP/src/core/tcp.c ****   struct tcp_pcb_listen *lpcb = NULL;
 689:Middlewares/Third_Party/LwIP/src/core/tcp.c ****   err_t res;
 690:Middlewares/Third_Party/LwIP/src/core/tcp.c **** 
 691:Middlewares/Third_Party/LwIP/src/core/tcp.c ****   LWIP_UNUSED_ARG(backlog);
 692:Middlewares/Third_Party/LwIP/src/core/tcp.c ****   LWIP_ERROR("tcp_listen: pcb already connected", pcb->state == CLOSED, res = ERR_CLSD; goto done);
 693:Middlewares/Third_Party/LwIP/src/core/tcp.c **** 
 694:Middlewares/Third_Party/LwIP/src/core/tcp.c ****   /* already listening? */
 695:Middlewares/Third_Party/LwIP/src/core/tcp.c ****   if (pcb->state == LISTEN) {
 696:Middlewares/Third_Party/LwIP/src/core/tcp.c ****     lpcb = (struct tcp_pcb_listen*)pcb;
 697:Middlewares/Third_Party/LwIP/src/core/tcp.c ****     res = ERR_ALREADY;
 698:Middlewares/Third_Party/LwIP/src/core/tcp.c ****     goto done;
 699:Middlewares/Third_Party/LwIP/src/core/tcp.c ****   }
 700:Middlewares/Third_Party/LwIP/src/core/tcp.c **** #if SO_REUSE
 701:Middlewares/Third_Party/LwIP/src/core/tcp.c ****   if (ip_get_option(pcb, SOF_REUSEADDR)) {
 702:Middlewares/Third_Party/LwIP/src/core/tcp.c ****     /* Since SOF_REUSEADDR allows reusing a local address before the pcb's usage
 703:Middlewares/Third_Party/LwIP/src/core/tcp.c ****        is declared (listen-/connection-pcb), we have to make sure now that
 704:Middlewares/Third_Party/LwIP/src/core/tcp.c ****        this port is only used once for every local IP. */
 705:Middlewares/Third_Party/LwIP/src/core/tcp.c ****     for (lpcb = tcp_listen_pcbs.listen_pcbs; lpcb != NULL; lpcb = lpcb->next) {
 706:Middlewares/Third_Party/LwIP/src/core/tcp.c ****       if ((lpcb->local_port == pcb->local_port) &&
 707:Middlewares/Third_Party/LwIP/src/core/tcp.c ****           ip_addr_cmp(&lpcb->local_ip, &pcb->local_ip)) {
 708:Middlewares/Third_Party/LwIP/src/core/tcp.c ****         /* this address/port is already used */
 709:Middlewares/Third_Party/LwIP/src/core/tcp.c ****         lpcb = NULL;
 710:Middlewares/Third_Party/LwIP/src/core/tcp.c ****         res = ERR_USE;
 711:Middlewares/Third_Party/LwIP/src/core/tcp.c ****         goto done;
 712:Middlewares/Third_Party/LwIP/src/core/tcp.c ****       }
 713:Middlewares/Third_Party/LwIP/src/core/tcp.c ****     }
 714:Middlewares/Third_Party/LwIP/src/core/tcp.c ****   }
 715:Middlewares/Third_Party/LwIP/src/core/tcp.c **** #endif /* SO_REUSE */
 716:Middlewares/Third_Party/LwIP/src/core/tcp.c ****   lpcb = (struct tcp_pcb_listen *)memp_malloc(MEMP_TCP_PCB_LISTEN);
 717:Middlewares/Third_Party/LwIP/src/core/tcp.c ****   if (lpcb == NULL) {
 718:Middlewares/Third_Party/LwIP/src/core/tcp.c ****     res = ERR_MEM;
 719:Middlewares/Third_Party/LwIP/src/core/tcp.c ****     goto done;
 720:Middlewares/Third_Party/LwIP/src/core/tcp.c ****   }
 721:Middlewares/Third_Party/LwIP/src/core/tcp.c ****   lpcb->callback_arg = pcb->callback_arg;
 722:Middlewares/Third_Party/LwIP/src/core/tcp.c ****   lpcb->local_port = pcb->local_port;
 723:Middlewares/Third_Party/LwIP/src/core/tcp.c ****   lpcb->state = LISTEN;
 724:Middlewares/Third_Party/LwIP/src/core/tcp.c ****   lpcb->prio = pcb->prio;
ARM GAS  /tmp/cc6by9MY.s 			page 15


 725:Middlewares/Third_Party/LwIP/src/core/tcp.c ****   lpcb->so_options = pcb->so_options;
 726:Middlewares/Third_Party/LwIP/src/core/tcp.c ****   lpcb->ttl = pcb->ttl;
 727:Middlewares/Third_Party/LwIP/src/core/tcp.c ****   lpcb->tos = pcb->tos;
 728:Middlewares/Third_Party/LwIP/src/core/tcp.c **** #if LWIP_IPV4 && LWIP_IPV6
 729:Middlewares/Third_Party/LwIP/src/core/tcp.c ****   IP_SET_TYPE_VAL(lpcb->remote_ip, pcb->local_ip.type);
 730:Middlewares/Third_Party/LwIP/src/core/tcp.c **** #endif /* LWIP_IPV4 && LWIP_IPV6 */
 731:Middlewares/Third_Party/LwIP/src/core/tcp.c ****   ip_addr_copy(lpcb->local_ip, pcb->local_ip);
 732:Middlewares/Third_Party/LwIP/src/core/tcp.c ****   if (pcb->local_port != 0) {
 733:Middlewares/Third_Party/LwIP/src/core/tcp.c ****     TCP_RMV(&tcp_bound_pcbs, pcb);
 734:Middlewares/Third_Party/LwIP/src/core/tcp.c ****   }
 735:Middlewares/Third_Party/LwIP/src/core/tcp.c ****   memp_free(MEMP_TCP_PCB, pcb);
 736:Middlewares/Third_Party/LwIP/src/core/tcp.c **** #if LWIP_CALLBACK_API
 737:Middlewares/Third_Party/LwIP/src/core/tcp.c ****   lpcb->accept = tcp_accept_null;
 738:Middlewares/Third_Party/LwIP/src/core/tcp.c **** #endif /* LWIP_CALLBACK_API */
 739:Middlewares/Third_Party/LwIP/src/core/tcp.c **** #if TCP_LISTEN_BACKLOG
 740:Middlewares/Third_Party/LwIP/src/core/tcp.c ****   lpcb->accepts_pending = 0;
 741:Middlewares/Third_Party/LwIP/src/core/tcp.c ****   tcp_backlog_set(lpcb, backlog);
 742:Middlewares/Third_Party/LwIP/src/core/tcp.c **** #endif /* TCP_LISTEN_BACKLOG */
 743:Middlewares/Third_Party/LwIP/src/core/tcp.c ****   TCP_REG(&tcp_listen_pcbs.pcbs, (struct tcp_pcb *)lpcb);
 744:Middlewares/Third_Party/LwIP/src/core/tcp.c ****   res = ERR_OK;
 745:Middlewares/Third_Party/LwIP/src/core/tcp.c **** done:
 746:Middlewares/Third_Party/LwIP/src/core/tcp.c ****   if (err != NULL) {
 747:Middlewares/Third_Party/LwIP/src/core/tcp.c ****     *err = res;
 748:Middlewares/Third_Party/LwIP/src/core/tcp.c ****   }
 749:Middlewares/Third_Party/LwIP/src/core/tcp.c ****   return (struct tcp_pcb *)lpcb;
 750:Middlewares/Third_Party/LwIP/src/core/tcp.c **** }
 751:Middlewares/Third_Party/LwIP/src/core/tcp.c **** 
 752:Middlewares/Third_Party/LwIP/src/core/tcp.c **** /**
 753:Middlewares/Third_Party/LwIP/src/core/tcp.c ****  * Update the state that tracks the available window space to advertise.
 754:Middlewares/Third_Party/LwIP/src/core/tcp.c ****  *
 755:Middlewares/Third_Party/LwIP/src/core/tcp.c ****  * Returns how much extra window would be advertised if we sent an
 756:Middlewares/Third_Party/LwIP/src/core/tcp.c ****  * update now.
 757:Middlewares/Third_Party/LwIP/src/core/tcp.c ****  */
 758:Middlewares/Third_Party/LwIP/src/core/tcp.c **** u32_t
 759:Middlewares/Third_Party/LwIP/src/core/tcp.c **** tcp_update_rcv_ann_wnd(struct tcp_pcb *pcb)
 760:Middlewares/Third_Party/LwIP/src/core/tcp.c **** {
 761:Middlewares/Third_Party/LwIP/src/core/tcp.c ****   u32_t new_right_edge = pcb->rcv_nxt + pcb->rcv_wnd;
 762:Middlewares/Third_Party/LwIP/src/core/tcp.c **** 
 763:Middlewares/Third_Party/LwIP/src/core/tcp.c ****   if (TCP_SEQ_GEQ(new_right_edge, pcb->rcv_ann_right_edge + LWIP_MIN((TCP_WND / 2), pcb->mss))) {
 764:Middlewares/Third_Party/LwIP/src/core/tcp.c ****     /* we can advertise more window */
 765:Middlewares/Third_Party/LwIP/src/core/tcp.c ****     pcb->rcv_ann_wnd = pcb->rcv_wnd;
 766:Middlewares/Third_Party/LwIP/src/core/tcp.c ****     return new_right_edge - pcb->rcv_ann_right_edge;
 767:Middlewares/Third_Party/LwIP/src/core/tcp.c ****   } else {
 768:Middlewares/Third_Party/LwIP/src/core/tcp.c ****     if (TCP_SEQ_GT(pcb->rcv_nxt, pcb->rcv_ann_right_edge)) {
 769:Middlewares/Third_Party/LwIP/src/core/tcp.c ****       /* Can happen due to other end sending out of advertised window,
 770:Middlewares/Third_Party/LwIP/src/core/tcp.c ****        * but within actual available (but not yet advertised) window */
 771:Middlewares/Third_Party/LwIP/src/core/tcp.c ****       pcb->rcv_ann_wnd = 0;
 772:Middlewares/Third_Party/LwIP/src/core/tcp.c ****     } else {
 773:Middlewares/Third_Party/LwIP/src/core/tcp.c ****       /* keep the right edge of window constant */
 774:Middlewares/Third_Party/LwIP/src/core/tcp.c ****       u32_t new_rcv_ann_wnd = pcb->rcv_ann_right_edge - pcb->rcv_nxt;
 775:Middlewares/Third_Party/LwIP/src/core/tcp.c **** #if !LWIP_WND_SCALE
 776:Middlewares/Third_Party/LwIP/src/core/tcp.c ****       LWIP_ASSERT("new_rcv_ann_wnd <= 0xffff", new_rcv_ann_wnd <= 0xffff);
 777:Middlewares/Third_Party/LwIP/src/core/tcp.c **** #endif
 778:Middlewares/Third_Party/LwIP/src/core/tcp.c ****       pcb->rcv_ann_wnd = (tcpwnd_size_t)new_rcv_ann_wnd;
 779:Middlewares/Third_Party/LwIP/src/core/tcp.c ****     }
 780:Middlewares/Third_Party/LwIP/src/core/tcp.c ****     return 0;
 781:Middlewares/Third_Party/LwIP/src/core/tcp.c ****   }
ARM GAS  /tmp/cc6by9MY.s 			page 16


 782:Middlewares/Third_Party/LwIP/src/core/tcp.c **** }
 783:Middlewares/Third_Party/LwIP/src/core/tcp.c **** 
 784:Middlewares/Third_Party/LwIP/src/core/tcp.c **** /**
 785:Middlewares/Third_Party/LwIP/src/core/tcp.c ****  * @ingroup tcp_raw
 786:Middlewares/Third_Party/LwIP/src/core/tcp.c ****  * This function should be called by the application when it has
 787:Middlewares/Third_Party/LwIP/src/core/tcp.c ****  * processed the data. The purpose is to advertise a larger window
 788:Middlewares/Third_Party/LwIP/src/core/tcp.c ****  * when the data has been processed.
 789:Middlewares/Third_Party/LwIP/src/core/tcp.c ****  *
 790:Middlewares/Third_Party/LwIP/src/core/tcp.c ****  * @param pcb the tcp_pcb for which data is read
 791:Middlewares/Third_Party/LwIP/src/core/tcp.c ****  * @param len the amount of bytes that have been read by the application
 792:Middlewares/Third_Party/LwIP/src/core/tcp.c ****  */
 793:Middlewares/Third_Party/LwIP/src/core/tcp.c **** void
 794:Middlewares/Third_Party/LwIP/src/core/tcp.c **** tcp_recved(struct tcp_pcb *pcb, u16_t len)
 795:Middlewares/Third_Party/LwIP/src/core/tcp.c **** {
 796:Middlewares/Third_Party/LwIP/src/core/tcp.c ****   int wnd_inflation;
 797:Middlewares/Third_Party/LwIP/src/core/tcp.c **** 
 798:Middlewares/Third_Party/LwIP/src/core/tcp.c ****   /* pcb->state LISTEN not allowed here */
 799:Middlewares/Third_Party/LwIP/src/core/tcp.c ****   LWIP_ASSERT("don't call tcp_recved for listen-pcbs",
 800:Middlewares/Third_Party/LwIP/src/core/tcp.c ****     pcb->state != LISTEN);
 801:Middlewares/Third_Party/LwIP/src/core/tcp.c **** 
 802:Middlewares/Third_Party/LwIP/src/core/tcp.c ****   pcb->rcv_wnd += len;
 803:Middlewares/Third_Party/LwIP/src/core/tcp.c ****   if (pcb->rcv_wnd > TCP_WND_MAX(pcb)) {
 804:Middlewares/Third_Party/LwIP/src/core/tcp.c ****     pcb->rcv_wnd = TCP_WND_MAX(pcb);
 805:Middlewares/Third_Party/LwIP/src/core/tcp.c ****   } else if (pcb->rcv_wnd == 0) {
 806:Middlewares/Third_Party/LwIP/src/core/tcp.c ****     /* rcv_wnd overflowed */
 807:Middlewares/Third_Party/LwIP/src/core/tcp.c ****     if ((pcb->state == CLOSE_WAIT) || (pcb->state == LAST_ACK)) {
 808:Middlewares/Third_Party/LwIP/src/core/tcp.c ****       /* In passive close, we allow this, since the FIN bit is added to rcv_wnd
 809:Middlewares/Third_Party/LwIP/src/core/tcp.c ****          by the stack itself, since it is not mandatory for an application
 810:Middlewares/Third_Party/LwIP/src/core/tcp.c ****          to call tcp_recved() for the FIN bit, but e.g. the netconn API does so. */
 811:Middlewares/Third_Party/LwIP/src/core/tcp.c ****       pcb->rcv_wnd = TCP_WND_MAX(pcb);
 812:Middlewares/Third_Party/LwIP/src/core/tcp.c ****     } else {
 813:Middlewares/Third_Party/LwIP/src/core/tcp.c ****       LWIP_ASSERT("tcp_recved: len wrapped rcv_wnd\n", 0);
 814:Middlewares/Third_Party/LwIP/src/core/tcp.c ****     }
 815:Middlewares/Third_Party/LwIP/src/core/tcp.c ****   }
 816:Middlewares/Third_Party/LwIP/src/core/tcp.c **** 
 817:Middlewares/Third_Party/LwIP/src/core/tcp.c ****   wnd_inflation = tcp_update_rcv_ann_wnd(pcb);
 818:Middlewares/Third_Party/LwIP/src/core/tcp.c **** 
 819:Middlewares/Third_Party/LwIP/src/core/tcp.c ****   /* If the change in the right edge of window is significant (default
 820:Middlewares/Third_Party/LwIP/src/core/tcp.c ****    * watermark is TCP_WND/4), then send an explicit update now.
 821:Middlewares/Third_Party/LwIP/src/core/tcp.c ****    * Otherwise wait for a packet to be sent in the normal course of
 822:Middlewares/Third_Party/LwIP/src/core/tcp.c ****    * events (or more window to be available later) */
 823:Middlewares/Third_Party/LwIP/src/core/tcp.c ****   if (wnd_inflation >= TCP_WND_UPDATE_THRESHOLD) {
 824:Middlewares/Third_Party/LwIP/src/core/tcp.c ****     tcp_ack_now(pcb);
 825:Middlewares/Third_Party/LwIP/src/core/tcp.c ****     tcp_output(pcb);
 826:Middlewares/Third_Party/LwIP/src/core/tcp.c ****   }
 827:Middlewares/Third_Party/LwIP/src/core/tcp.c **** 
 828:Middlewares/Third_Party/LwIP/src/core/tcp.c ****   LWIP_DEBUGF(TCP_DEBUG, ("tcp_recved: received %"U16_F" bytes, wnd %"TCPWNDSIZE_F" (%"TCPWNDSIZE_F
 829:Middlewares/Third_Party/LwIP/src/core/tcp.c ****          len, pcb->rcv_wnd, (u16_t)(TCP_WND_MAX(pcb) - pcb->rcv_wnd)));
 830:Middlewares/Third_Party/LwIP/src/core/tcp.c **** }
 831:Middlewares/Third_Party/LwIP/src/core/tcp.c **** 
 832:Middlewares/Third_Party/LwIP/src/core/tcp.c **** /**
 833:Middlewares/Third_Party/LwIP/src/core/tcp.c ****  * Allocate a new local TCP port.
 834:Middlewares/Third_Party/LwIP/src/core/tcp.c ****  *
 835:Middlewares/Third_Party/LwIP/src/core/tcp.c ****  * @return a new (free) local TCP port number
 836:Middlewares/Third_Party/LwIP/src/core/tcp.c ****  */
 837:Middlewares/Third_Party/LwIP/src/core/tcp.c **** static u16_t
 838:Middlewares/Third_Party/LwIP/src/core/tcp.c **** tcp_new_port(void)
ARM GAS  /tmp/cc6by9MY.s 			page 17


 839:Middlewares/Third_Party/LwIP/src/core/tcp.c **** {
  73              		.loc 1 839 1 is_stmt 1 view -0
  74              		.cfi_startproc
  75              		@ args = 0, pretend = 0, frame = 0
  76              		@ frame_needed = 0, uses_anonymous_args = 0
  77              		@ link register save eliminated.
  78 0000 10B4     		push	{r4}
  79              	.LCFI0:
  80              		.cfi_def_cfa_offset 4
  81              		.cfi_offset 4, -4
 840:Middlewares/Third_Party/LwIP/src/core/tcp.c ****   u8_t i;
  82              		.loc 1 840 3 view .LVU13
 841:Middlewares/Third_Party/LwIP/src/core/tcp.c ****   u16_t n = 0;
  83              		.loc 1 841 3 view .LVU14
  84              	.LVL3:
  85              		.loc 1 841 9 is_stmt 0 view .LVU15
  86 0002 0024     		movs	r4, #0
  87 0004 09E0     		b	.L8
  88              	.LVL4:
  89              	.L19:
 842:Middlewares/Third_Party/LwIP/src/core/tcp.c ****   struct tcp_pcb *pcb;
 843:Middlewares/Third_Party/LwIP/src/core/tcp.c **** 
 844:Middlewares/Third_Party/LwIP/src/core/tcp.c **** again:
 845:Middlewares/Third_Party/LwIP/src/core/tcp.c ****   if (tcp_port++ == TCP_LOCAL_PORT_RANGE_END) {
 846:Middlewares/Third_Party/LwIP/src/core/tcp.c ****     tcp_port = TCP_LOCAL_PORT_RANGE_START;
  90              		.loc 1 846 5 is_stmt 1 view .LVU16
  91              		.loc 1 846 14 is_stmt 0 view .LVU17
  92 0006 154B     		ldr	r3, .L23
  93 0008 4FF44042 		mov	r2, #49152
  94 000c 1A80     		strh	r2, [r3]	@ movhi
  95 000e 0CE0     		b	.L9
  96              	.LVL5:
  97              	.L22:
 847:Middlewares/Third_Party/LwIP/src/core/tcp.c ****   }
 848:Middlewares/Third_Party/LwIP/src/core/tcp.c ****   /* Check all PCB lists. */
 849:Middlewares/Third_Party/LwIP/src/core/tcp.c ****   for (i = 0; i < NUM_TCP_PCB_LISTS; i++) {
 850:Middlewares/Third_Party/LwIP/src/core/tcp.c ****     for (pcb = *tcp_pcb_lists[i]; pcb != NULL; pcb = pcb->next) {
 851:Middlewares/Third_Party/LwIP/src/core/tcp.c ****       if (pcb->local_port == tcp_port) {
 852:Middlewares/Third_Party/LwIP/src/core/tcp.c ****         if (++n > (TCP_LOCAL_PORT_RANGE_END - TCP_LOCAL_PORT_RANGE_START)) {
  98              		.loc 1 852 9 is_stmt 1 view .LVU18
  99              		.loc 1 852 12 is_stmt 0 view .LVU19
 100 0010 0134     		adds	r4, r4, #1
 101              	.LVL6:
 102              		.loc 1 852 12 view .LVU20
 103 0012 A4B2     		uxth	r4, r4
 104              	.LVL7:
 105              		.loc 1 852 12 view .LVU21
 106 0014 B4F5804F 		cmp	r4, #16384
 107 0018 1ED2     		bcs	.L18
 108              	.LVL8:
 109              	.L8:
 842:Middlewares/Third_Party/LwIP/src/core/tcp.c ****   struct tcp_pcb *pcb;
 110              		.loc 1 842 3 is_stmt 1 view .LVU22
 845:Middlewares/Third_Party/LwIP/src/core/tcp.c ****     tcp_port = TCP_LOCAL_PORT_RANGE_START;
 111              		.loc 1 845 3 view .LVU23
 845:Middlewares/Third_Party/LwIP/src/core/tcp.c ****     tcp_port = TCP_LOCAL_PORT_RANGE_START;
 112              		.loc 1 845 15 is_stmt 0 view .LVU24
ARM GAS  /tmp/cc6by9MY.s 			page 18


 113 001a 104A     		ldr	r2, .L23
 114 001c 1388     		ldrh	r3, [r2]
 115 001e 591C     		adds	r1, r3, #1
 116 0020 1180     		strh	r1, [r2]	@ movhi
 845:Middlewares/Third_Party/LwIP/src/core/tcp.c ****     tcp_port = TCP_LOCAL_PORT_RANGE_START;
 117              		.loc 1 845 6 view .LVU25
 118 0022 4FF6FF72 		movw	r2, #65535
 119 0026 9342     		cmp	r3, r2
 120 0028 EDD0     		beq	.L19
 121              	.L9:
 849:Middlewares/Third_Party/LwIP/src/core/tcp.c ****     for (pcb = *tcp_pcb_lists[i]; pcb != NULL; pcb = pcb->next) {
 122              		.loc 1 849 3 is_stmt 1 view .LVU26
 123              	.LVL9:
 849:Middlewares/Third_Party/LwIP/src/core/tcp.c ****     for (pcb = *tcp_pcb_lists[i]; pcb != NULL; pcb = pcb->next) {
 124              		.loc 1 849 10 is_stmt 0 view .LVU27
 125 002a 0020     		movs	r0, #0
 126              	.LVL10:
 127              	.L10:
 849:Middlewares/Third_Party/LwIP/src/core/tcp.c ****     for (pcb = *tcp_pcb_lists[i]; pcb != NULL; pcb = pcb->next) {
 128              		.loc 1 849 3 discriminator 1 view .LVU28
 129 002c 0328     		cmp	r0, #3
 130 002e 0ED8     		bhi	.L20
 850:Middlewares/Third_Party/LwIP/src/core/tcp.c ****       if (pcb->local_port == tcp_port) {
 131              		.loc 1 850 5 is_stmt 1 view .LVU29
 850:Middlewares/Third_Party/LwIP/src/core/tcp.c ****       if (pcb->local_port == tcp_port) {
 132              		.loc 1 850 30 is_stmt 0 view .LVU30
 133 0030 0B4B     		ldr	r3, .L23+4
 134 0032 53F82030 		ldr	r3, [r3, r0, lsl #2]
 850:Middlewares/Third_Party/LwIP/src/core/tcp.c ****       if (pcb->local_port == tcp_port) {
 135              		.loc 1 850 14 view .LVU31
 136 0036 1B68     		ldr	r3, [r3]
 137              	.LVL11:
 138              	.L11:
 850:Middlewares/Third_Party/LwIP/src/core/tcp.c ****       if (pcb->local_port == tcp_port) {
 139              		.loc 1 850 5 discriminator 1 view .LVU32
 140 0038 33B1     		cbz	r3, .L21
 851:Middlewares/Third_Party/LwIP/src/core/tcp.c ****         if (++n > (TCP_LOCAL_PORT_RANGE_END - TCP_LOCAL_PORT_RANGE_START)) {
 141              		.loc 1 851 7 is_stmt 1 view .LVU33
 851:Middlewares/Third_Party/LwIP/src/core/tcp.c ****         if (++n > (TCP_LOCAL_PORT_RANGE_END - TCP_LOCAL_PORT_RANGE_START)) {
 142              		.loc 1 851 14 is_stmt 0 view .LVU34
 143 003a D98A     		ldrh	r1, [r3, #22]
 851:Middlewares/Third_Party/LwIP/src/core/tcp.c ****         if (++n > (TCP_LOCAL_PORT_RANGE_END - TCP_LOCAL_PORT_RANGE_START)) {
 144              		.loc 1 851 27 view .LVU35
 145 003c 074A     		ldr	r2, .L23
 146 003e 1288     		ldrh	r2, [r2]
 851:Middlewares/Third_Party/LwIP/src/core/tcp.c ****         if (++n > (TCP_LOCAL_PORT_RANGE_END - TCP_LOCAL_PORT_RANGE_START)) {
 147              		.loc 1 851 10 view .LVU36
 148 0040 9142     		cmp	r1, r2
 149 0042 E5D0     		beq	.L22
 850:Middlewares/Third_Party/LwIP/src/core/tcp.c ****       if (pcb->local_port == tcp_port) {
 150              		.loc 1 850 52 discriminator 2 view .LVU37
 151 0044 DB68     		ldr	r3, [r3, #12]
 152              	.LVL12:
 850:Middlewares/Third_Party/LwIP/src/core/tcp.c ****       if (pcb->local_port == tcp_port) {
 153              		.loc 1 850 52 discriminator 2 view .LVU38
 154 0046 F7E7     		b	.L11
 155              	.L21:
ARM GAS  /tmp/cc6by9MY.s 			page 19


 849:Middlewares/Third_Party/LwIP/src/core/tcp.c ****     for (pcb = *tcp_pcb_lists[i]; pcb != NULL; pcb = pcb->next) {
 156              		.loc 1 849 39 discriminator 2 view .LVU39
 157 0048 0130     		adds	r0, r0, #1
 158              	.LVL13:
 849:Middlewares/Third_Party/LwIP/src/core/tcp.c ****     for (pcb = *tcp_pcb_lists[i]; pcb != NULL; pcb = pcb->next) {
 159              		.loc 1 849 39 discriminator 2 view .LVU40
 160 004a C0B2     		uxtb	r0, r0
 161              	.LVL14:
 849:Middlewares/Third_Party/LwIP/src/core/tcp.c ****     for (pcb = *tcp_pcb_lists[i]; pcb != NULL; pcb = pcb->next) {
 162              		.loc 1 849 39 discriminator 2 view .LVU41
 163 004c EEE7     		b	.L10
 164              	.LVL15:
 165              	.L20:
 853:Middlewares/Third_Party/LwIP/src/core/tcp.c ****           return 0;
 854:Middlewares/Third_Party/LwIP/src/core/tcp.c ****         }
 855:Middlewares/Third_Party/LwIP/src/core/tcp.c ****         goto again;
 856:Middlewares/Third_Party/LwIP/src/core/tcp.c ****       }
 857:Middlewares/Third_Party/LwIP/src/core/tcp.c ****     }
 858:Middlewares/Third_Party/LwIP/src/core/tcp.c ****   }
 859:Middlewares/Third_Party/LwIP/src/core/tcp.c ****   return tcp_port;
 166              		.loc 1 859 3 is_stmt 1 view .LVU42
 167              		.loc 1 859 10 is_stmt 0 view .LVU43
 168 004e 034B     		ldr	r3, .L23
 169 0050 1888     		ldrh	r0, [r3]
 170              	.LVL16:
 171              	.L13:
 860:Middlewares/Third_Party/LwIP/src/core/tcp.c **** }
 172              		.loc 1 860 1 view .LVU44
 173 0052 5DF8044B 		ldr	r4, [sp], #4
 174              	.LCFI1:
 175              		.cfi_remember_state
 176              		.cfi_restore 4
 177              		.cfi_def_cfa_offset 0
 178              	.LVL17:
 179              		.loc 1 860 1 view .LVU45
 180 0056 7047     		bx	lr
 181              	.LVL18:
 182              	.L18:
 183              	.LCFI2:
 184              		.cfi_restore_state
 853:Middlewares/Third_Party/LwIP/src/core/tcp.c ****           return 0;
 185              		.loc 1 853 18 view .LVU46
 186 0058 0020     		movs	r0, #0
 187              	.LVL19:
 853:Middlewares/Third_Party/LwIP/src/core/tcp.c ****           return 0;
 188              		.loc 1 853 18 view .LVU47
 189 005a FAE7     		b	.L13
 190              	.L24:
 191              		.align	2
 192              	.L23:
 193 005c 00000000 		.word	.LANCHOR0
 194 0060 00000000 		.word	.LANCHOR1
 195              		.cfi_endproc
 196              	.LFE176:
 198              		.section	.text.tcp_listen_closed,"ax",%progbits
 199              		.align	1
 200              		.syntax unified
ARM GAS  /tmp/cc6by9MY.s 			page 20


 201              		.thumb
 202              		.thumb_func
 203              		.fpu fpv5-sp-d16
 205              	tcp_listen_closed:
 206              	.LVL20:
 207              	.LFB163:
 189:Middlewares/Third_Party/LwIP/src/core/tcp.c **** #if LWIP_CALLBACK_API || TCP_LISTEN_BACKLOG
 208              		.loc 1 189 1 is_stmt 1 view -0
 209              		.cfi_startproc
 210              		@ args = 0, pretend = 0, frame = 0
 211              		@ frame_needed = 0, uses_anonymous_args = 0
 189:Middlewares/Third_Party/LwIP/src/core/tcp.c **** #if LWIP_CALLBACK_API || TCP_LISTEN_BACKLOG
 212              		.loc 1 189 1 is_stmt 0 view .LVU49
 213 0000 38B5     		push	{r3, r4, r5, lr}
 214              	.LCFI3:
 215              		.cfi_def_cfa_offset 16
 216              		.cfi_offset 3, -16
 217              		.cfi_offset 4, -12
 218              		.cfi_offset 5, -8
 219              		.cfi_offset 14, -4
 191:Middlewares/Third_Party/LwIP/src/core/tcp.c ****   LWIP_ASSERT("pcb != NULL", pcb != NULL);
 220              		.loc 1 191 3 is_stmt 1 view .LVU50
 192:Middlewares/Third_Party/LwIP/src/core/tcp.c ****   LWIP_ASSERT("pcb->state == LISTEN", pcb->state == LISTEN);
 221              		.loc 1 192 3 view .LVU51
 192:Middlewares/Third_Party/LwIP/src/core/tcp.c ****   LWIP_ASSERT("pcb->state == LISTEN", pcb->state == LISTEN);
 222              		.loc 1 192 3 view .LVU52
 223 0002 0546     		mov	r5, r0
 224 0004 70B1     		cbz	r0, .L31
 225              	.LVL21:
 226              	.L26:
 193:Middlewares/Third_Party/LwIP/src/core/tcp.c ****   for (i = 1; i < LWIP_ARRAYSIZE(tcp_pcb_lists); i++) {
 227              		.loc 1 193 3 view .LVU53
 193:Middlewares/Third_Party/LwIP/src/core/tcp.c ****   for (i = 1; i < LWIP_ARRAYSIZE(tcp_pcb_lists); i++) {
 228              		.loc 1 193 3 view .LVU54
 229 0006 2B7D     		ldrb	r3, [r5, #20]	@ zero_extendqisi2
 230 0008 012B     		cmp	r3, #1
 231 000a 12D1     		bne	.L32
 232              	.L27:
 189:Middlewares/Third_Party/LwIP/src/core/tcp.c **** #if LWIP_CALLBACK_API || TCP_LISTEN_BACKLOG
 233              		.loc 1 189 1 is_stmt 0 discriminator 1 view .LVU55
 234 000c 0124     		movs	r4, #1
 235              	.L28:
 236              	.LVL22:
 194:Middlewares/Third_Party/LwIP/src/core/tcp.c ****     tcp_remove_listener(*tcp_pcb_lists[i], (struct tcp_pcb_listen*)pcb);
 237              		.loc 1 194 3 discriminator 1 view .LVU56
 238 000e 032C     		cmp	r4, #3
 239 0010 16D8     		bhi	.L33
 195:Middlewares/Third_Party/LwIP/src/core/tcp.c ****   }
 240              		.loc 1 195 5 is_stmt 1 discriminator 3 view .LVU57
 195:Middlewares/Third_Party/LwIP/src/core/tcp.c ****   }
 241              		.loc 1 195 39 is_stmt 0 discriminator 3 view .LVU58
 242 0012 0C4B     		ldr	r3, .L34
 243 0014 53F82430 		ldr	r3, [r3, r4, lsl #2]
 195:Middlewares/Third_Party/LwIP/src/core/tcp.c ****   }
 244              		.loc 1 195 5 discriminator 3 view .LVU59
 245 0018 2946     		mov	r1, r5
 246 001a 1868     		ldr	r0, [r3]
ARM GAS  /tmp/cc6by9MY.s 			page 21


 247 001c FFF7FEFF 		bl	tcp_remove_listener
 248              	.LVL23:
 194:Middlewares/Third_Party/LwIP/src/core/tcp.c ****     tcp_remove_listener(*tcp_pcb_lists[i], (struct tcp_pcb_listen*)pcb);
 249              		.loc 1 194 51 discriminator 3 view .LVU60
 250 0020 0134     		adds	r4, r4, #1
 251              	.LVL24:
 194:Middlewares/Third_Party/LwIP/src/core/tcp.c ****     tcp_remove_listener(*tcp_pcb_lists[i], (struct tcp_pcb_listen*)pcb);
 252              		.loc 1 194 51 discriminator 3 view .LVU61
 253 0022 F4E7     		b	.L28
 254              	.LVL25:
 255              	.L31:
 192:Middlewares/Third_Party/LwIP/src/core/tcp.c ****   LWIP_ASSERT("pcb->state == LISTEN", pcb->state == LISTEN);
 256              		.loc 1 192 3 is_stmt 1 discriminator 1 view .LVU62
 192:Middlewares/Third_Party/LwIP/src/core/tcp.c ****   LWIP_ASSERT("pcb->state == LISTEN", pcb->state == LISTEN);
 257              		.loc 1 192 3 discriminator 1 view .LVU63
 258 0024 084B     		ldr	r3, .L34+4
 259 0026 C022     		movs	r2, #192
 260 0028 0849     		ldr	r1, .L34+8
 261 002a 0948     		ldr	r0, .L34+12
 262              	.LVL26:
 192:Middlewares/Third_Party/LwIP/src/core/tcp.c ****   LWIP_ASSERT("pcb->state == LISTEN", pcb->state == LISTEN);
 263              		.loc 1 192 3 is_stmt 0 discriminator 1 view .LVU64
 264 002c FFF7FEFF 		bl	printf
 265              	.LVL27:
 266 0030 E9E7     		b	.L26
 267              	.L32:
 193:Middlewares/Third_Party/LwIP/src/core/tcp.c ****   for (i = 1; i < LWIP_ARRAYSIZE(tcp_pcb_lists); i++) {
 268              		.loc 1 193 3 is_stmt 1 discriminator 1 view .LVU65
 193:Middlewares/Third_Party/LwIP/src/core/tcp.c ****   for (i = 1; i < LWIP_ARRAYSIZE(tcp_pcb_lists); i++) {
 269              		.loc 1 193 3 discriminator 1 view .LVU66
 270 0032 054B     		ldr	r3, .L34+4
 271 0034 C122     		movs	r2, #193
 272 0036 0749     		ldr	r1, .L34+16
 273 0038 0548     		ldr	r0, .L34+12
 274 003a FFF7FEFF 		bl	printf
 275              	.LVL28:
 276 003e E5E7     		b	.L27
 277              	.LVL29:
 278              	.L33:
 199:Middlewares/Third_Party/LwIP/src/core/tcp.c **** 
 279              		.loc 1 199 1 is_stmt 0 view .LVU67
 280 0040 38BD     		pop	{r3, r4, r5, pc}
 281              	.LVL30:
 282              	.L35:
 199:Middlewares/Third_Party/LwIP/src/core/tcp.c **** 
 283              		.loc 1 199 1 view .LVU68
 284 0042 00BF     		.align	2
 285              	.L34:
 286 0044 00000000 		.word	.LANCHOR1
 287 0048 00000000 		.word	.LC0
 288 004c 2C000000 		.word	.LC1
 289 0050 38000000 		.word	.LC2
 290 0054 60000000 		.word	.LC3
 291              		.cfi_endproc
 292              	.LFE163:
 294              		.section	.text.tcp_close_shutdown_fin,"ax",%progbits
 295              		.align	1
ARM GAS  /tmp/cc6by9MY.s 			page 22


 296              		.syntax unified
 297              		.thumb
 298              		.thumb_func
 299              		.fpu fpv5-sp-d16
 301              	tcp_close_shutdown_fin:
 302              	.LVL31:
 303              	.LFB165:
 331:Middlewares/Third_Party/LwIP/src/core/tcp.c ****   err_t err;
 304              		.loc 1 331 1 is_stmt 1 view -0
 305              		.cfi_startproc
 306              		@ args = 0, pretend = 0, frame = 0
 307              		@ frame_needed = 0, uses_anonymous_args = 0
 331:Middlewares/Third_Party/LwIP/src/core/tcp.c ****   err_t err;
 308              		.loc 1 331 1 is_stmt 0 view .LVU70
 309 0000 38B5     		push	{r3, r4, r5, lr}
 310              	.LCFI4:
 311              		.cfi_def_cfa_offset 16
 312              		.cfi_offset 3, -16
 313              		.cfi_offset 4, -12
 314              		.cfi_offset 5, -8
 315              		.cfi_offset 14, -4
 332:Middlewares/Third_Party/LwIP/src/core/tcp.c ****   LWIP_ASSERT("pcb != NULL", pcb != NULL);
 316              		.loc 1 332 3 is_stmt 1 view .LVU71
 333:Middlewares/Third_Party/LwIP/src/core/tcp.c **** 
 317              		.loc 1 333 3 view .LVU72
 333:Middlewares/Third_Party/LwIP/src/core/tcp.c **** 
 318              		.loc 1 333 3 view .LVU73
 319 0002 0546     		mov	r5, r0
 320 0004 48B1     		cbz	r0, .L45
 321              	.LVL32:
 322              	.L37:
 335:Middlewares/Third_Party/LwIP/src/core/tcp.c ****   case SYN_RCVD:
 323              		.loc 1 335 3 view .LVU74
 335:Middlewares/Third_Party/LwIP/src/core/tcp.c ****   case SYN_RCVD:
 324              		.loc 1 335 14 is_stmt 0 view .LVU75
 325 0006 2B7D     		ldrb	r3, [r5, #20]	@ zero_extendqisi2
 335:Middlewares/Third_Party/LwIP/src/core/tcp.c ****   case SYN_RCVD:
 326              		.loc 1 335 3 view .LVU76
 327 0008 042B     		cmp	r3, #4
 328 000a 1FD0     		beq	.L38
 329 000c 072B     		cmp	r3, #7
 330 000e 26D0     		beq	.L39
 331 0010 032B     		cmp	r3, #3
 332 0012 0AD0     		beq	.L46
 360:Middlewares/Third_Party/LwIP/src/core/tcp.c ****   }
 333              		.loc 1 360 12 view .LVU77
 334 0014 0024     		movs	r4, #0
 335              	.L40:
 381:Middlewares/Third_Party/LwIP/src/core/tcp.c **** 
 336              		.loc 1 381 1 view .LVU78
 337 0016 2046     		mov	r0, r4
 338 0018 38BD     		pop	{r3, r4, r5, pc}
 339              	.LVL33:
 340              	.L45:
 333:Middlewares/Third_Party/LwIP/src/core/tcp.c **** 
 341              		.loc 1 333 3 is_stmt 1 discriminator 1 view .LVU79
 333:Middlewares/Third_Party/LwIP/src/core/tcp.c **** 
ARM GAS  /tmp/cc6by9MY.s 			page 23


 342              		.loc 1 333 3 discriminator 1 view .LVU80
 343 001a 174B     		ldr	r3, .L48
 344 001c 40F24D12 		movw	r2, #333
 345 0020 1649     		ldr	r1, .L48+4
 346 0022 1748     		ldr	r0, .L48+8
 347              	.LVL34:
 333:Middlewares/Third_Party/LwIP/src/core/tcp.c **** 
 348              		.loc 1 333 3 is_stmt 0 discriminator 1 view .LVU81
 349 0024 FFF7FEFF 		bl	printf
 350              	.LVL35:
 351 0028 EDE7     		b	.L37
 352              	.L46:
 337:Middlewares/Third_Party/LwIP/src/core/tcp.c ****     if (err == ERR_OK) {
 353              		.loc 1 337 5 is_stmt 1 view .LVU82
 337:Middlewares/Third_Party/LwIP/src/core/tcp.c ****     if (err == ERR_OK) {
 354              		.loc 1 337 11 is_stmt 0 view .LVU83
 355 002a 2846     		mov	r0, r5
 356 002c FFF7FEFF 		bl	tcp_send_fin
 357              	.LVL36:
 338:Middlewares/Third_Party/LwIP/src/core/tcp.c ****       tcp_backlog_accepted(pcb);
 358              		.loc 1 338 5 is_stmt 1 view .LVU84
 338:Middlewares/Third_Party/LwIP/src/core/tcp.c ****       tcp_backlog_accepted(pcb);
 359              		.loc 1 338 8 is_stmt 0 view .LVU85
 360 0030 0446     		mov	r4, r0
 361 0032 08B9     		cbnz	r0, .L41
 339:Middlewares/Third_Party/LwIP/src/core/tcp.c ****       MIB2_STATS_INC(mib2.tcpattemptfails);
 362              		.loc 1 339 32 is_stmt 1 view .LVU86
 340:Middlewares/Third_Party/LwIP/src/core/tcp.c ****       pcb->state = FIN_WAIT_1;
 363              		.loc 1 340 43 view .LVU87
 341:Middlewares/Third_Party/LwIP/src/core/tcp.c ****     }
 364              		.loc 1 341 7 view .LVU88
 341:Middlewares/Third_Party/LwIP/src/core/tcp.c ****     }
 365              		.loc 1 341 18 is_stmt 0 view .LVU89
 366 0034 0523     		movs	r3, #5
 367 0036 2B75     		strb	r3, [r5, #20]
 368              	.L41:
 369              	.LVL37:
 363:Middlewares/Third_Party/LwIP/src/core/tcp.c ****     /* To ensure all data has been sent when tcp_close returns, we have
 370              		.loc 1 363 3 is_stmt 1 view .LVU90
 363:Middlewares/Third_Party/LwIP/src/core/tcp.c ****     /* To ensure all data has been sent when tcp_close returns, we have
 371              		.loc 1 363 6 is_stmt 0 view .LVU91
 372 0038 D4B1     		cbz	r4, .L47
 370:Middlewares/Third_Party/LwIP/src/core/tcp.c ****     /* Mark this pcb for closing. Closing is retried from tcp_tmr. */
 373              		.loc 1 370 10 is_stmt 1 view .LVU92
 370:Middlewares/Third_Party/LwIP/src/core/tcp.c ****     /* Mark this pcb for closing. Closing is retried from tcp_tmr. */
 374              		.loc 1 370 13 is_stmt 0 view .LVU93
 375 003a B4F1FF3F 		cmp	r4, #-1
 376 003e EAD1     		bne	.L40
 372:Middlewares/Third_Party/LwIP/src/core/tcp.c ****     /* We have to return ERR_OK from here to indicate to the callers that this
 377              		.loc 1 372 5 is_stmt 1 view .LVU94
 372:Middlewares/Third_Party/LwIP/src/core/tcp.c ****     /* We have to return ERR_OK from here to indicate to the callers that this
 378              		.loc 1 372 16 is_stmt 0 view .LVU95
 379 0040 AB7E     		ldrb	r3, [r5, #26]	@ zero_extendqisi2
 380 0042 43F00803 		orr	r3, r3, #8
 381 0046 AB76     		strb	r3, [r5, #26]
 378:Middlewares/Third_Party/LwIP/src/core/tcp.c ****   }
 382              		.loc 1 378 5 is_stmt 1 view .LVU96
ARM GAS  /tmp/cc6by9MY.s 			page 24


 378:Middlewares/Third_Party/LwIP/src/core/tcp.c ****   }
 383              		.loc 1 378 12 is_stmt 0 view .LVU97
 384 0048 0024     		movs	r4, #0
 385              	.LVL38:
 378:Middlewares/Third_Party/LwIP/src/core/tcp.c ****   }
 386              		.loc 1 378 12 view .LVU98
 387 004a E4E7     		b	.L40
 388              	.L38:
 345:Middlewares/Third_Party/LwIP/src/core/tcp.c ****     if (err == ERR_OK) {
 389              		.loc 1 345 5 is_stmt 1 view .LVU99
 345:Middlewares/Third_Party/LwIP/src/core/tcp.c ****     if (err == ERR_OK) {
 390              		.loc 1 345 11 is_stmt 0 view .LVU100
 391 004c 2846     		mov	r0, r5
 392 004e FFF7FEFF 		bl	tcp_send_fin
 393              	.LVL39:
 346:Middlewares/Third_Party/LwIP/src/core/tcp.c ****       MIB2_STATS_INC(mib2.tcpestabresets);
 394              		.loc 1 346 5 is_stmt 1 view .LVU101
 346:Middlewares/Third_Party/LwIP/src/core/tcp.c ****       MIB2_STATS_INC(mib2.tcpestabresets);
 395              		.loc 1 346 8 is_stmt 0 view .LVU102
 396 0052 0446     		mov	r4, r0
 397 0054 0028     		cmp	r0, #0
 398 0056 EFD1     		bne	.L41
 347:Middlewares/Third_Party/LwIP/src/core/tcp.c ****       pcb->state = FIN_WAIT_1;
 399              		.loc 1 347 42 is_stmt 1 view .LVU103
 348:Middlewares/Third_Party/LwIP/src/core/tcp.c ****     }
 400              		.loc 1 348 7 view .LVU104
 348:Middlewares/Third_Party/LwIP/src/core/tcp.c ****     }
 401              		.loc 1 348 18 is_stmt 0 view .LVU105
 402 0058 0523     		movs	r3, #5
 403 005a 2B75     		strb	r3, [r5, #20]
 404 005c ECE7     		b	.L41
 405              	.LVL40:
 406              	.L39:
 352:Middlewares/Third_Party/LwIP/src/core/tcp.c ****     if (err == ERR_OK) {
 407              		.loc 1 352 5 is_stmt 1 view .LVU106
 352:Middlewares/Third_Party/LwIP/src/core/tcp.c ****     if (err == ERR_OK) {
 408              		.loc 1 352 11 is_stmt 0 view .LVU107
 409 005e 2846     		mov	r0, r5
 410 0060 FFF7FEFF 		bl	tcp_send_fin
 411              	.LVL41:
 353:Middlewares/Third_Party/LwIP/src/core/tcp.c ****       MIB2_STATS_INC(mib2.tcpestabresets);
 412              		.loc 1 353 5 is_stmt 1 view .LVU108
 353:Middlewares/Third_Party/LwIP/src/core/tcp.c ****       MIB2_STATS_INC(mib2.tcpestabresets);
 413              		.loc 1 353 8 is_stmt 0 view .LVU109
 414 0064 0446     		mov	r4, r0
 415 0066 0028     		cmp	r0, #0
 416 0068 E6D1     		bne	.L41
 354:Middlewares/Third_Party/LwIP/src/core/tcp.c ****       pcb->state = LAST_ACK;
 417              		.loc 1 354 42 is_stmt 1 view .LVU110
 355:Middlewares/Third_Party/LwIP/src/core/tcp.c ****     }
 418              		.loc 1 355 7 view .LVU111
 355:Middlewares/Third_Party/LwIP/src/core/tcp.c ****     }
 419              		.loc 1 355 18 is_stmt 0 view .LVU112
 420 006a 0923     		movs	r3, #9
 421 006c 2B75     		strb	r3, [r5, #20]
 422 006e E3E7     		b	.L41
 423              	.LVL42:
ARM GAS  /tmp/cc6by9MY.s 			page 25


 424              	.L47:
 369:Middlewares/Third_Party/LwIP/src/core/tcp.c ****   } else if (err == ERR_MEM) {
 425              		.loc 1 369 5 is_stmt 1 view .LVU113
 426 0070 2846     		mov	r0, r5
 427 0072 FFF7FEFF 		bl	tcp_output
 428              	.LVL43:
 429 0076 CEE7     		b	.L40
 430              	.L49:
 431              		.align	2
 432              	.L48:
 433 0078 00000000 		.word	.LC0
 434 007c 2C000000 		.word	.LC1
 435 0080 38000000 		.word	.LC2
 436              		.cfi_endproc
 437              	.LFE165:
 439              		.section	.text.tcp_init,"ax",%progbits
 440              		.align	1
 441              		.global	tcp_init
 442              		.syntax unified
 443              		.thumb
 444              		.thumb_func
 445              		.fpu fpv5-sp-d16
 447              	tcp_init:
 448              	.LFB160:
 146:Middlewares/Third_Party/LwIP/src/core/tcp.c **** #if LWIP_RANDOMIZE_INITIAL_LOCAL_PORTS && defined(LWIP_RAND)
 449              		.loc 1 146 1 view -0
 450              		.cfi_startproc
 451              		@ args = 0, pretend = 0, frame = 0
 452              		@ frame_needed = 0, uses_anonymous_args = 0
 453              		@ link register save eliminated.
 150:Middlewares/Third_Party/LwIP/src/core/tcp.c **** 
 454              		.loc 1 150 1 view .LVU115
 455 0000 7047     		bx	lr
 456              		.cfi_endproc
 457              	.LFE160:
 459              		.section	.text.tcp_bind,"ax",%progbits
 460              		.align	1
 461              		.global	tcp_bind
 462              		.syntax unified
 463              		.thumb
 464              		.thumb_func
 465              		.fpu fpv5-sp-d16
 467              	tcp_bind:
 468              	.LVL44:
 469              	.LFB170:
 563:Middlewares/Third_Party/LwIP/src/core/tcp.c ****   int i;
 470              		.loc 1 563 1 view -0
 471              		.cfi_startproc
 472              		@ args = 0, pretend = 0, frame = 0
 473              		@ frame_needed = 0, uses_anonymous_args = 0
 563:Middlewares/Third_Party/LwIP/src/core/tcp.c ****   int i;
 474              		.loc 1 563 1 is_stmt 0 view .LVU117
 475 0000 70B5     		push	{r4, r5, r6, lr}
 476              	.LCFI5:
 477              		.cfi_def_cfa_offset 16
 478              		.cfi_offset 4, -16
 479              		.cfi_offset 5, -12
ARM GAS  /tmp/cc6by9MY.s 			page 26


 480              		.cfi_offset 6, -8
 481              		.cfi_offset 14, -4
 482 0002 0546     		mov	r5, r0
 564:Middlewares/Third_Party/LwIP/src/core/tcp.c ****   int max_pcb_list = NUM_TCP_PCB_LISTS;
 483              		.loc 1 564 3 is_stmt 1 view .LVU118
 565:Middlewares/Third_Party/LwIP/src/core/tcp.c ****   struct tcp_pcb *cpcb;
 484              		.loc 1 565 3 view .LVU119
 485              	.LVL45:
 566:Middlewares/Third_Party/LwIP/src/core/tcp.c **** 
 486              		.loc 1 566 3 view .LVU120
 570:Middlewares/Third_Party/LwIP/src/core/tcp.c ****     ipaddr = IP4_ADDR_ANY;
 487              		.loc 1 570 3 view .LVU121
 570:Middlewares/Third_Party/LwIP/src/core/tcp.c ****     ipaddr = IP4_ADDR_ANY;
 488              		.loc 1 570 6 is_stmt 0 view .LVU122
 489 0004 0C46     		mov	r4, r1
 490 0006 91B1     		cbz	r1, .L72
 491              	.L52:
 492              	.LVL46:
 576:Middlewares/Third_Party/LwIP/src/core/tcp.c ****     return ERR_VAL;
 493              		.loc 1 576 3 is_stmt 1 view .LVU123
 576:Middlewares/Third_Party/LwIP/src/core/tcp.c ****     return ERR_VAL;
 494              		.loc 1 576 32 is_stmt 0 view .LVU124
 495 0008 B4FA84F3 		clz	r3, r4
 496 000c 5B09     		lsrs	r3, r3, #5
 576:Middlewares/Third_Party/LwIP/src/core/tcp.c ****     return ERR_VAL;
 497              		.loc 1 576 21 view .LVU125
 498 000e 002D     		cmp	r5, #0
 499 0010 08BF     		it	eq
 500 0012 0123     		moveq	r3, #1
 576:Middlewares/Third_Party/LwIP/src/core/tcp.c ****     return ERR_VAL;
 501              		.loc 1 576 6 view .LVU126
 502 0014 002B     		cmp	r3, #0
 503 0016 39D1     		bne	.L63
 580:Middlewares/Third_Party/LwIP/src/core/tcp.c **** 
 504              		.loc 1 580 3 is_stmt 1 view .LVU127
 580:Middlewares/Third_Party/LwIP/src/core/tcp.c **** 
 505              		.loc 1 580 3 view .LVU128
 506 0018 2B7D     		ldrb	r3, [r5, #20]	@ zero_extendqisi2
 507 001a 53B9     		cbnz	r3, .L73
 593:Middlewares/Third_Party/LwIP/src/core/tcp.c ****     port = tcp_new_port();
 508              		.loc 1 593 3 view .LVU129
 593:Middlewares/Third_Party/LwIP/src/core/tcp.c ****     port = tcp_new_port();
 509              		.loc 1 593 6 is_stmt 0 view .LVU130
 510 001c 9AB1     		cbz	r2, .L74
 600:Middlewares/Third_Party/LwIP/src/core/tcp.c ****       for (cpcb = *tcp_pcb_lists[i]; cpcb != NULL; cpcb = cpcb->next) {
 511              		.loc 1 600 12 view .LVU131
 512 001e 0026     		movs	r6, #0
 513              	.LVL47:
 514              	.L55:
 600:Middlewares/Third_Party/LwIP/src/core/tcp.c ****       for (cpcb = *tcp_pcb_lists[i]; cpcb != NULL; cpcb = cpcb->next) {
 515              		.loc 1 600 5 discriminator 1 view .LVU132
 516 0020 032E     		cmp	r6, #3
 517 0022 14DC     		bgt	.L56
 601:Middlewares/Third_Party/LwIP/src/core/tcp.c ****         if (cpcb->local_port == port) {
 518              		.loc 1 601 7 is_stmt 1 view .LVU133
 601:Middlewares/Third_Party/LwIP/src/core/tcp.c ****         if (cpcb->local_port == port) {
 519              		.loc 1 601 33 is_stmt 0 view .LVU134
ARM GAS  /tmp/cc6by9MY.s 			page 27


 520 0024 224B     		ldr	r3, .L77
 521 0026 53F82630 		ldr	r3, [r3, r6, lsl #2]
 601:Middlewares/Third_Party/LwIP/src/core/tcp.c ****         if (cpcb->local_port == port) {
 522              		.loc 1 601 17 view .LVU135
 523 002a 1B68     		ldr	r3, [r3]
 524              	.LVL48:
 601:Middlewares/Third_Party/LwIP/src/core/tcp.c ****         if (cpcb->local_port == port) {
 525              		.loc 1 601 7 view .LVU136
 526 002c 1DE0     		b	.L57
 527              	.LVL49:
 528              	.L72:
 571:Middlewares/Third_Party/LwIP/src/core/tcp.c ****   }
 529              		.loc 1 571 12 view .LVU137
 530 002e 214C     		ldr	r4, .L77+4
 531 0030 EAE7     		b	.L52
 532              	.LVL50:
 533              	.L73:
 580:Middlewares/Third_Party/LwIP/src/core/tcp.c **** 
 534              		.loc 1 580 3 is_stmt 1 discriminator 1 view .LVU138
 580:Middlewares/Third_Party/LwIP/src/core/tcp.c **** 
 535              		.loc 1 580 3 discriminator 1 view .LVU139
 536 0032 214B     		ldr	r3, .L77+8
 537 0034 4FF41172 		mov	r2, #580
 538              	.LVL51:
 580:Middlewares/Third_Party/LwIP/src/core/tcp.c **** 
 539              		.loc 1 580 3 is_stmt 0 discriminator 1 view .LVU140
 540 0038 2049     		ldr	r1, .L77+12
 541 003a 2148     		ldr	r0, .L77+16
 542              	.LVL52:
 580:Middlewares/Third_Party/LwIP/src/core/tcp.c **** 
 543              		.loc 1 580 3 discriminator 1 view .LVU141
 544 003c FFF7FEFF 		bl	printf
 545              	.LVL53:
 580:Middlewares/Third_Party/LwIP/src/core/tcp.c **** 
 546              		.loc 1 580 3 is_stmt 1 discriminator 1 view .LVU142
 547 0040 6FF00500 		mvn	r0, #5
 548 0044 0FE0     		b	.L53
 549              	.LVL54:
 550              	.L74:
 594:Middlewares/Third_Party/LwIP/src/core/tcp.c ****     if (port == 0) {
 551              		.loc 1 594 5 view .LVU143
 594:Middlewares/Third_Party/LwIP/src/core/tcp.c ****     if (port == 0) {
 552              		.loc 1 594 12 is_stmt 0 view .LVU144
 553 0046 FFF7FEFF 		bl	tcp_new_port
 554              	.LVL55:
 595:Middlewares/Third_Party/LwIP/src/core/tcp.c ****       return ERR_BUF;
 555              		.loc 1 595 5 is_stmt 1 view .LVU145
 595:Middlewares/Third_Party/LwIP/src/core/tcp.c ****       return ERR_BUF;
 556              		.loc 1 595 8 is_stmt 0 view .LVU146
 557 004a 0246     		mov	r2, r0
 558 004c 08B3     		cbz	r0, .L75
 559              	.LVL56:
 560              	.L56:
 624:Middlewares/Third_Party/LwIP/src/core/tcp.c ****     ip_addr_set(&pcb->local_ip, ipaddr);
 561              		.loc 1 624 3 is_stmt 1 view .LVU147
 624:Middlewares/Third_Party/LwIP/src/core/tcp.c ****     ip_addr_set(&pcb->local_ip, ipaddr);
 562              		.loc 1 624 6 is_stmt 0 view .LVU148
ARM GAS  /tmp/cc6by9MY.s 			page 28


 563 004e 14B1     		cbz	r4, .L61
 624:Middlewares/Third_Party/LwIP/src/core/tcp.c ****     ip_addr_set(&pcb->local_ip, ipaddr);
 564              		.loc 1 624 8 discriminator 1 view .LVU149
 565 0050 2368     		ldr	r3, [r4]
 624:Middlewares/Third_Party/LwIP/src/core/tcp.c ****     ip_addr_set(&pcb->local_ip, ipaddr);
 566              		.loc 1 624 7 discriminator 1 view .LVU150
 567 0052 03B1     		cbz	r3, .L61
 625:Middlewares/Third_Party/LwIP/src/core/tcp.c ****   }
 568              		.loc 1 625 5 is_stmt 1 discriminator 4 view .LVU151
 569 0054 2B60     		str	r3, [r5]
 570              	.L61:
 627:Middlewares/Third_Party/LwIP/src/core/tcp.c ****   TCP_REG(&tcp_bound_pcbs, pcb);
 571              		.loc 1 627 3 view .LVU152
 627:Middlewares/Third_Party/LwIP/src/core/tcp.c ****   TCP_REG(&tcp_bound_pcbs, pcb);
 572              		.loc 1 627 19 is_stmt 0 view .LVU153
 573 0056 EA82     		strh	r2, [r5, #22]	@ movhi
 628:Middlewares/Third_Party/LwIP/src/core/tcp.c ****   LWIP_DEBUGF(TCP_DEBUG, ("tcp_bind: bind to port %"U16_F"\n", port));
 574              		.loc 1 628 3 is_stmt 1 view .LVU154
 628:Middlewares/Third_Party/LwIP/src/core/tcp.c ****   LWIP_DEBUGF(TCP_DEBUG, ("tcp_bind: bind to port %"U16_F"\n", port));
 575              		.loc 1 628 3 view .LVU155
 576 0058 1A4B     		ldr	r3, .L77+20
 577 005a 1A68     		ldr	r2, [r3]
 578              	.LVL57:
 628:Middlewares/Third_Party/LwIP/src/core/tcp.c ****   LWIP_DEBUGF(TCP_DEBUG, ("tcp_bind: bind to port %"U16_F"\n", port));
 579              		.loc 1 628 3 is_stmt 0 view .LVU156
 580 005c EA60     		str	r2, [r5, #12]
 628:Middlewares/Third_Party/LwIP/src/core/tcp.c ****   LWIP_DEBUGF(TCP_DEBUG, ("tcp_bind: bind to port %"U16_F"\n", port));
 581              		.loc 1 628 3 is_stmt 1 view .LVU157
 582 005e 1D60     		str	r5, [r3]
 628:Middlewares/Third_Party/LwIP/src/core/tcp.c ****   LWIP_DEBUGF(TCP_DEBUG, ("tcp_bind: bind to port %"U16_F"\n", port));
 583              		.loc 1 628 3 view .LVU158
 584 0060 FFF7FEFF 		bl	tcp_timer_needed
 585              	.LVL58:
 629:Middlewares/Third_Party/LwIP/src/core/tcp.c ****   return ERR_OK;
 586              		.loc 1 629 70 view .LVU159
 630:Middlewares/Third_Party/LwIP/src/core/tcp.c **** }
 587              		.loc 1 630 3 view .LVU160
 630:Middlewares/Third_Party/LwIP/src/core/tcp.c **** }
 588              		.loc 1 630 10 is_stmt 0 view .LVU161
 589 0064 0020     		movs	r0, #0
 590              	.L53:
 631:Middlewares/Third_Party/LwIP/src/core/tcp.c **** #if LWIP_CALLBACK_API
 591              		.loc 1 631 1 view .LVU162
 592 0066 70BD     		pop	{r4, r5, r6, pc}
 593              	.LVL59:
 594              	.L58:
 601:Middlewares/Third_Party/LwIP/src/core/tcp.c ****         if (cpcb->local_port == port) {
 595              		.loc 1 601 57 discriminator 2 view .LVU163
 596 0068 DB68     		ldr	r3, [r3, #12]
 597              	.LVL60:
 598              	.L57:
 601:Middlewares/Third_Party/LwIP/src/core/tcp.c ****         if (cpcb->local_port == port) {
 599              		.loc 1 601 7 discriminator 1 view .LVU164
 600 006a 6BB1     		cbz	r3, .L76
 602:Middlewares/Third_Party/LwIP/src/core/tcp.c **** #if SO_REUSE
 601              		.loc 1 602 9 is_stmt 1 view .LVU165
 602:Middlewares/Third_Party/LwIP/src/core/tcp.c **** #if SO_REUSE
ARM GAS  /tmp/cc6by9MY.s 			page 29


 602              		.loc 1 602 17 is_stmt 0 view .LVU166
 603 006c D98A     		ldrh	r1, [r3, #22]
 602:Middlewares/Third_Party/LwIP/src/core/tcp.c **** #if SO_REUSE
 604              		.loc 1 602 12 view .LVU167
 605 006e 9142     		cmp	r1, r2
 606 0070 FAD1     		bne	.L58
 612:Middlewares/Third_Party/LwIP/src/core/tcp.c ****                 (ip_addr_isany(&cpcb->local_ip) ||
 607              		.loc 1 612 13 is_stmt 1 view .LVU168
 612:Middlewares/Third_Party/LwIP/src/core/tcp.c ****                 (ip_addr_isany(&cpcb->local_ip) ||
 608              		.loc 1 612 16 is_stmt 0 view .LVU169
 609 0072 8BB1     		cbz	r3, .L66
 613:Middlewares/Third_Party/LwIP/src/core/tcp.c ****                 ip_addr_isany(ipaddr) ||
 610              		.loc 1 613 18 view .LVU170
 611 0074 1968     		ldr	r1, [r3]
 612 0076 91B1     		cbz	r1, .L67
 613:Middlewares/Third_Party/LwIP/src/core/tcp.c ****                 ip_addr_isany(ipaddr) ||
 613              		.loc 1 613 49 discriminator 1 view .LVU171
 614 0078 A4B1     		cbz	r4, .L68
 614:Middlewares/Third_Party/LwIP/src/core/tcp.c ****                 ip_addr_cmp(&cpcb->local_ip, ipaddr))) {
 615              		.loc 1 614 17 view .LVU172
 616 007a 2068     		ldr	r0, [r4]
 617 007c A8B1     		cbz	r0, .L69
 612:Middlewares/Third_Party/LwIP/src/core/tcp.c ****                 (ip_addr_isany(&cpcb->local_ip) ||
 618              		.loc 1 612 68 view .LVU173
 619 007e 8142     		cmp	r1, r0
 620 0080 F2D1     		bne	.L58
 616:Middlewares/Third_Party/LwIP/src/core/tcp.c ****             }
 621              		.loc 1 616 22 view .LVU174
 622 0082 6FF00700 		mvn	r0, #7
 623 0086 EEE7     		b	.L53
 624              	.L76:
 600:Middlewares/Third_Party/LwIP/src/core/tcp.c ****       for (cpcb = *tcp_pcb_lists[i]; cpcb != NULL; cpcb = cpcb->next) {
 625              		.loc 1 600 36 discriminator 2 view .LVU175
 626 0088 0136     		adds	r6, r6, #1
 627              	.LVL61:
 600:Middlewares/Third_Party/LwIP/src/core/tcp.c ****       for (cpcb = *tcp_pcb_lists[i]; cpcb != NULL; cpcb = cpcb->next) {
 628              		.loc 1 600 36 discriminator 2 view .LVU176
 629 008a C9E7     		b	.L55
 630              	.LVL62:
 631              	.L63:
 577:Middlewares/Third_Party/LwIP/src/core/tcp.c ****   }
 632              		.loc 1 577 12 view .LVU177
 633 008c 6FF00500 		mvn	r0, #5
 634              	.LVL63:
 577:Middlewares/Third_Party/LwIP/src/core/tcp.c ****   }
 635              		.loc 1 577 12 view .LVU178
 636 0090 E9E7     		b	.L53
 637              	.LVL64:
 638              	.L75:
 596:Middlewares/Third_Party/LwIP/src/core/tcp.c ****     }
 639              		.loc 1 596 14 view .LVU179
 640 0092 6FF00100 		mvn	r0, #1
 641              	.LVL65:
 596:Middlewares/Third_Party/LwIP/src/core/tcp.c ****     }
 642              		.loc 1 596 14 view .LVU180
 643 0096 E6E7     		b	.L53
 644              	.LVL66:
ARM GAS  /tmp/cc6by9MY.s 			page 30


 645              	.L66:
 616:Middlewares/Third_Party/LwIP/src/core/tcp.c ****             }
 646              		.loc 1 616 22 view .LVU181
 647 0098 6FF00700 		mvn	r0, #7
 648 009c E3E7     		b	.L53
 649              	.L67:
 650 009e 6FF00700 		mvn	r0, #7
 651 00a2 E0E7     		b	.L53
 652              	.L68:
 653 00a4 6FF00700 		mvn	r0, #7
 654 00a8 DDE7     		b	.L53
 655              	.L69:
 616:Middlewares/Third_Party/LwIP/src/core/tcp.c ****             }
 656              		.loc 1 616 22 view .LVU182
 657 00aa 6FF00700 		mvn	r0, #7
 658 00ae DAE7     		b	.L53
 659              	.L78:
 660              		.align	2
 661              	.L77:
 662 00b0 00000000 		.word	.LANCHOR1
 663 00b4 00000000 		.word	ip_addr_any
 664 00b8 00000000 		.word	.LC0
 665 00bc 00000000 		.word	.LC4
 666 00c0 38000000 		.word	.LC2
 667 00c4 00000000 		.word	tcp_bound_pcbs
 668              		.cfi_endproc
 669              	.LFE170:
 671              		.section	.text.tcp_listen_with_backlog_and_err,"ax",%progbits
 672              		.align	1
 673              		.global	tcp_listen_with_backlog_and_err
 674              		.syntax unified
 675              		.thumb
 676              		.thumb_func
 677              		.fpu fpv5-sp-d16
 679              	tcp_listen_with_backlog_and_err:
 680              	.LVL67:
 681              	.LFB173:
 687:Middlewares/Third_Party/LwIP/src/core/tcp.c ****   struct tcp_pcb_listen *lpcb = NULL;
 682              		.loc 1 687 1 is_stmt 1 view -0
 683              		.cfi_startproc
 684              		@ args = 0, pretend = 0, frame = 0
 685              		@ frame_needed = 0, uses_anonymous_args = 0
 687:Middlewares/Third_Party/LwIP/src/core/tcp.c ****   struct tcp_pcb_listen *lpcb = NULL;
 686              		.loc 1 687 1 is_stmt 0 view .LVU184
 687 0000 70B5     		push	{r4, r5, r6, lr}
 688              	.LCFI6:
 689              		.cfi_def_cfa_offset 16
 690              		.cfi_offset 4, -16
 691              		.cfi_offset 5, -12
 692              		.cfi_offset 6, -8
 693              		.cfi_offset 14, -4
 694 0002 1646     		mov	r6, r2
 688:Middlewares/Third_Party/LwIP/src/core/tcp.c ****   err_t res;
 695              		.loc 1 688 3 is_stmt 1 view .LVU185
 696              	.LVL68:
 689:Middlewares/Third_Party/LwIP/src/core/tcp.c **** 
 697              		.loc 1 689 3 view .LVU186
ARM GAS  /tmp/cc6by9MY.s 			page 31


 691:Middlewares/Third_Party/LwIP/src/core/tcp.c ****   LWIP_ERROR("tcp_listen: pcb already connected", pcb->state == CLOSED, res = ERR_CLSD; goto done);
 698              		.loc 1 691 3 view .LVU187
 692:Middlewares/Third_Party/LwIP/src/core/tcp.c **** 
 699              		.loc 1 692 3 view .LVU188
 692:Middlewares/Third_Party/LwIP/src/core/tcp.c **** 
 700              		.loc 1 692 3 view .LVU189
 701 0004 037D     		ldrb	r3, [r0, #20]	@ zero_extendqisi2
 702 0006 23BB     		cbnz	r3, .L91
 703 0008 0446     		mov	r4, r0
 695:Middlewares/Third_Party/LwIP/src/core/tcp.c ****     lpcb = (struct tcp_pcb_listen*)pcb;
 704              		.loc 1 695 3 view .LVU190
 695:Middlewares/Third_Party/LwIP/src/core/tcp.c ****     lpcb = (struct tcp_pcb_listen*)pcb;
 705              		.loc 1 695 6 is_stmt 0 view .LVU191
 706 000a 012B     		cmp	r3, #1
 707 000c 45D0     		beq	.L87
 716:Middlewares/Third_Party/LwIP/src/core/tcp.c ****   if (lpcb == NULL) {
 708              		.loc 1 716 3 is_stmt 1 view .LVU192
 716:Middlewares/Third_Party/LwIP/src/core/tcp.c ****   if (lpcb == NULL) {
 709              		.loc 1 716 35 is_stmt 0 view .LVU193
 710 000e 0220     		movs	r0, #2
 711              	.LVL69:
 716:Middlewares/Third_Party/LwIP/src/core/tcp.c ****   if (lpcb == NULL) {
 712              		.loc 1 716 35 view .LVU194
 713 0010 FFF7FEFF 		bl	memp_malloc
 714              	.LVL70:
 717:Middlewares/Third_Party/LwIP/src/core/tcp.c ****     res = ERR_MEM;
 715              		.loc 1 717 3 is_stmt 1 view .LVU195
 717:Middlewares/Third_Party/LwIP/src/core/tcp.c ****     res = ERR_MEM;
 716              		.loc 1 717 6 is_stmt 0 view .LVU196
 717 0014 0546     		mov	r5, r0
 718 0016 0028     		cmp	r0, #0
 719 0018 43D0     		beq	.L88
 721:Middlewares/Third_Party/LwIP/src/core/tcp.c ****   lpcb->local_port = pcb->local_port;
 720              		.loc 1 721 3 is_stmt 1 view .LVU197
 721:Middlewares/Third_Party/LwIP/src/core/tcp.c ****   lpcb->local_port = pcb->local_port;
 721              		.loc 1 721 27 is_stmt 0 view .LVU198
 722 001a 2369     		ldr	r3, [r4, #16]
 721:Middlewares/Third_Party/LwIP/src/core/tcp.c ****   lpcb->local_port = pcb->local_port;
 723              		.loc 1 721 22 view .LVU199
 724 001c 0361     		str	r3, [r0, #16]
 722:Middlewares/Third_Party/LwIP/src/core/tcp.c ****   lpcb->state = LISTEN;
 725              		.loc 1 722 3 is_stmt 1 view .LVU200
 722:Middlewares/Third_Party/LwIP/src/core/tcp.c ****   lpcb->state = LISTEN;
 726              		.loc 1 722 25 is_stmt 0 view .LVU201
 727 001e E38A     		ldrh	r3, [r4, #22]
 722:Middlewares/Third_Party/LwIP/src/core/tcp.c ****   lpcb->state = LISTEN;
 728              		.loc 1 722 20 view .LVU202
 729 0020 C382     		strh	r3, [r0, #22]	@ movhi
 723:Middlewares/Third_Party/LwIP/src/core/tcp.c ****   lpcb->prio = pcb->prio;
 730              		.loc 1 723 3 is_stmt 1 view .LVU203
 723:Middlewares/Third_Party/LwIP/src/core/tcp.c ****   lpcb->prio = pcb->prio;
 731              		.loc 1 723 15 is_stmt 0 view .LVU204
 732 0022 0123     		movs	r3, #1
 733 0024 0375     		strb	r3, [r0, #20]
 724:Middlewares/Third_Party/LwIP/src/core/tcp.c ****   lpcb->so_options = pcb->so_options;
 734              		.loc 1 724 3 is_stmt 1 view .LVU205
 724:Middlewares/Third_Party/LwIP/src/core/tcp.c ****   lpcb->so_options = pcb->so_options;
ARM GAS  /tmp/cc6by9MY.s 			page 32


 735              		.loc 1 724 19 is_stmt 0 view .LVU206
 736 0026 637D     		ldrb	r3, [r4, #21]	@ zero_extendqisi2
 724:Middlewares/Third_Party/LwIP/src/core/tcp.c ****   lpcb->so_options = pcb->so_options;
 737              		.loc 1 724 14 view .LVU207
 738 0028 4375     		strb	r3, [r0, #21]
 725:Middlewares/Third_Party/LwIP/src/core/tcp.c ****   lpcb->ttl = pcb->ttl;
 739              		.loc 1 725 3 is_stmt 1 view .LVU208
 725:Middlewares/Third_Party/LwIP/src/core/tcp.c ****   lpcb->ttl = pcb->ttl;
 740              		.loc 1 725 25 is_stmt 0 view .LVU209
 741 002a 237A     		ldrb	r3, [r4, #8]	@ zero_extendqisi2
 725:Middlewares/Third_Party/LwIP/src/core/tcp.c ****   lpcb->ttl = pcb->ttl;
 742              		.loc 1 725 20 view .LVU210
 743 002c 0372     		strb	r3, [r0, #8]
 726:Middlewares/Third_Party/LwIP/src/core/tcp.c ****   lpcb->tos = pcb->tos;
 744              		.loc 1 726 3 is_stmt 1 view .LVU211
 726:Middlewares/Third_Party/LwIP/src/core/tcp.c ****   lpcb->tos = pcb->tos;
 745              		.loc 1 726 18 is_stmt 0 view .LVU212
 746 002e A37A     		ldrb	r3, [r4, #10]	@ zero_extendqisi2
 726:Middlewares/Third_Party/LwIP/src/core/tcp.c ****   lpcb->tos = pcb->tos;
 747              		.loc 1 726 13 view .LVU213
 748 0030 8372     		strb	r3, [r0, #10]
 727:Middlewares/Third_Party/LwIP/src/core/tcp.c **** #if LWIP_IPV4 && LWIP_IPV6
 749              		.loc 1 727 3 is_stmt 1 view .LVU214
 727:Middlewares/Third_Party/LwIP/src/core/tcp.c **** #if LWIP_IPV4 && LWIP_IPV6
 750              		.loc 1 727 18 is_stmt 0 view .LVU215
 751 0032 637A     		ldrb	r3, [r4, #9]	@ zero_extendqisi2
 727:Middlewares/Third_Party/LwIP/src/core/tcp.c **** #if LWIP_IPV4 && LWIP_IPV6
 752              		.loc 1 727 13 view .LVU216
 753 0034 4372     		strb	r3, [r0, #9]
 731:Middlewares/Third_Party/LwIP/src/core/tcp.c ****   if (pcb->local_port != 0) {
 754              		.loc 1 731 3 is_stmt 1 view .LVU217
 755 0036 2368     		ldr	r3, [r4]
 756 0038 0360     		str	r3, [r0]
 732:Middlewares/Third_Party/LwIP/src/core/tcp.c ****     TCP_RMV(&tcp_bound_pcbs, pcb);
 757              		.loc 1 732 3 view .LVU218
 732:Middlewares/Third_Party/LwIP/src/core/tcp.c ****     TCP_RMV(&tcp_bound_pcbs, pcb);
 758              		.loc 1 732 10 is_stmt 0 view .LVU219
 759 003a E38A     		ldrh	r3, [r4, #22]
 732:Middlewares/Third_Party/LwIP/src/core/tcp.c ****     TCP_RMV(&tcp_bound_pcbs, pcb);
 760              		.loc 1 732 6 view .LVU220
 761 003c E3B1     		cbz	r3, .L82
 733:Middlewares/Third_Party/LwIP/src/core/tcp.c ****   }
 762              		.loc 1 733 5 is_stmt 1 view .LVU221
 733:Middlewares/Third_Party/LwIP/src/core/tcp.c ****   }
 763              		.loc 1 733 5 view .LVU222
 764 003e 1A4B     		ldr	r3, .L94
 765 0040 1B68     		ldr	r3, [r3]
 766 0042 A342     		cmp	r3, r4
 767 0044 10D0     		beq	.L92
 768              	.L83:
 769              	.LVL71:
 770              	.LBB2:
 733:Middlewares/Third_Party/LwIP/src/core/tcp.c ****   }
 771              		.loc 1 733 5 is_stmt 0 discriminator 8 view .LVU223
 772 0046 ABB1     		cbz	r3, .L84
 733:Middlewares/Third_Party/LwIP/src/core/tcp.c ****   }
 773              		.loc 1 733 5 is_stmt 1 discriminator 9 view .LVU224
ARM GAS  /tmp/cc6by9MY.s 			page 33


 774 0048 DA68     		ldr	r2, [r3, #12]
 775 004a A242     		cmp	r2, r4
 776 004c 10D0     		beq	.L93
 733:Middlewares/Third_Party/LwIP/src/core/tcp.c ****   }
 777              		.loc 1 733 5 is_stmt 0 view .LVU225
 778 004e 1346     		mov	r3, r2
 779              	.LVL72:
 733:Middlewares/Third_Party/LwIP/src/core/tcp.c ****   }
 780              		.loc 1 733 5 view .LVU226
 781 0050 F9E7     		b	.L83
 782              	.LVL73:
 783              	.L91:
 733:Middlewares/Third_Party/LwIP/src/core/tcp.c ****   }
 784              		.loc 1 733 5 view .LVU227
 785              	.LBE2:
 692:Middlewares/Third_Party/LwIP/src/core/tcp.c **** 
 786              		.loc 1 692 3 is_stmt 1 discriminator 1 view .LVU228
 692:Middlewares/Third_Party/LwIP/src/core/tcp.c **** 
 787              		.loc 1 692 3 discriminator 1 view .LVU229
 788 0052 164B     		ldr	r3, .L94+4
 789 0054 4FF42D72 		mov	r2, #692
 790              	.LVL74:
 692:Middlewares/Third_Party/LwIP/src/core/tcp.c **** 
 791              		.loc 1 692 3 is_stmt 0 discriminator 1 view .LVU230
 792 0058 1549     		ldr	r1, .L94+8
 793              	.LVL75:
 692:Middlewares/Third_Party/LwIP/src/core/tcp.c **** 
 794              		.loc 1 692 3 discriminator 1 view .LVU231
 795 005a 1648     		ldr	r0, .L94+12
 796              	.LVL76:
 692:Middlewares/Third_Party/LwIP/src/core/tcp.c **** 
 797              		.loc 1 692 3 discriminator 1 view .LVU232
 798 005c FFF7FEFF 		bl	printf
 799              	.LVL77:
 692:Middlewares/Third_Party/LwIP/src/core/tcp.c **** 
 800              		.loc 1 692 3 is_stmt 1 discriminator 1 view .LVU233
 692:Middlewares/Third_Party/LwIP/src/core/tcp.c **** 
 801              		.loc 1 692 3 discriminator 1 view .LVU234
 802 0060 6FF00E03 		mvn	r3, #14
 688:Middlewares/Third_Party/LwIP/src/core/tcp.c ****   err_t res;
 803              		.loc 1 688 26 is_stmt 0 discriminator 1 view .LVU235
 804 0064 0025     		movs	r5, #0
 692:Middlewares/Third_Party/LwIP/src/core/tcp.c **** 
 805              		.loc 1 692 3 discriminator 1 view .LVU236
 806 0066 14E0     		b	.L81
 807              	.LVL78:
 808              	.L92:
 733:Middlewares/Third_Party/LwIP/src/core/tcp.c ****   }
 809              		.loc 1 733 5 is_stmt 1 discriminator 1 view .LVU237
 810 0068 DA68     		ldr	r2, [r3, #12]
 811 006a 0F4B     		ldr	r3, .L94
 812 006c 1A60     		str	r2, [r3]
 813 006e 01E0     		b	.L84
 814              	.LVL79:
 815              	.L93:
 816              	.LBB3:
 733:Middlewares/Third_Party/LwIP/src/core/tcp.c ****   }
ARM GAS  /tmp/cc6by9MY.s 			page 34


 817              		.loc 1 733 5 discriminator 5 view .LVU238
 818 0070 E268     		ldr	r2, [r4, #12]
 819 0072 DA60     		str	r2, [r3, #12]
 733:Middlewares/Third_Party/LwIP/src/core/tcp.c ****   }
 820              		.loc 1 733 5 discriminator 5 view .LVU239
 821              	.LVL80:
 822              	.L84:
 733:Middlewares/Third_Party/LwIP/src/core/tcp.c ****   }
 823              		.loc 1 733 5 is_stmt 0 discriminator 5 view .LVU240
 824              	.LBE3:
 733:Middlewares/Third_Party/LwIP/src/core/tcp.c ****   }
 825              		.loc 1 733 5 is_stmt 1 discriminator 10 view .LVU241
 826 0074 0023     		movs	r3, #0
 827 0076 E360     		str	r3, [r4, #12]
 828              	.L82:
 735:Middlewares/Third_Party/LwIP/src/core/tcp.c **** #if LWIP_CALLBACK_API
 829              		.loc 1 735 3 view .LVU242
 830 0078 2146     		mov	r1, r4
 831 007a 0120     		movs	r0, #1
 832              	.LVL81:
 735:Middlewares/Third_Party/LwIP/src/core/tcp.c **** #if LWIP_CALLBACK_API
 833              		.loc 1 735 3 is_stmt 0 view .LVU243
 834 007c FFF7FEFF 		bl	memp_free
 835              	.LVL82:
 737:Middlewares/Third_Party/LwIP/src/core/tcp.c **** #endif /* LWIP_CALLBACK_API */
 836              		.loc 1 737 3 is_stmt 1 view .LVU244
 737:Middlewares/Third_Party/LwIP/src/core/tcp.c **** #endif /* LWIP_CALLBACK_API */
 837              		.loc 1 737 16 is_stmt 0 view .LVU245
 838 0080 0D4B     		ldr	r3, .L94+16
 839 0082 AB61     		str	r3, [r5, #24]
 743:Middlewares/Third_Party/LwIP/src/core/tcp.c ****   res = ERR_OK;
 840              		.loc 1 743 3 is_stmt 1 view .LVU246
 743:Middlewares/Third_Party/LwIP/src/core/tcp.c ****   res = ERR_OK;
 841              		.loc 1 743 3 view .LVU247
 842 0084 0D4B     		ldr	r3, .L94+20
 843 0086 1A68     		ldr	r2, [r3]
 844 0088 EA60     		str	r2, [r5, #12]
 743:Middlewares/Third_Party/LwIP/src/core/tcp.c ****   res = ERR_OK;
 845              		.loc 1 743 3 view .LVU248
 846 008a 1D60     		str	r5, [r3]
 743:Middlewares/Third_Party/LwIP/src/core/tcp.c ****   res = ERR_OK;
 847              		.loc 1 743 3 view .LVU249
 848 008c FFF7FEFF 		bl	tcp_timer_needed
 849              	.LVL83:
 744:Middlewares/Third_Party/LwIP/src/core/tcp.c **** done:
 850              		.loc 1 744 3 view .LVU250
 744:Middlewares/Third_Party/LwIP/src/core/tcp.c **** done:
 851              		.loc 1 744 7 is_stmt 0 view .LVU251
 852 0090 0023     		movs	r3, #0
 853              	.LVL84:
 854              	.L81:
 746:Middlewares/Third_Party/LwIP/src/core/tcp.c ****     *err = res;
 855              		.loc 1 746 3 is_stmt 1 view .LVU252
 746:Middlewares/Third_Party/LwIP/src/core/tcp.c ****     *err = res;
 856              		.loc 1 746 6 is_stmt 0 view .LVU253
 857 0092 06B1     		cbz	r6, .L79
 747:Middlewares/Third_Party/LwIP/src/core/tcp.c ****   }
ARM GAS  /tmp/cc6by9MY.s 			page 35


 858              		.loc 1 747 5 is_stmt 1 view .LVU254
 747:Middlewares/Third_Party/LwIP/src/core/tcp.c ****   }
 859              		.loc 1 747 10 is_stmt 0 view .LVU255
 860 0094 3370     		strb	r3, [r6]
 749:Middlewares/Third_Party/LwIP/src/core/tcp.c **** }
 861              		.loc 1 749 3 is_stmt 1 view .LVU256
 862              	.L79:
 750:Middlewares/Third_Party/LwIP/src/core/tcp.c **** 
 863              		.loc 1 750 1 is_stmt 0 view .LVU257
 864 0096 2846     		mov	r0, r5
 865 0098 70BD     		pop	{r4, r5, r6, pc}
 866              	.LVL85:
 867              	.L87:
 696:Middlewares/Third_Party/LwIP/src/core/tcp.c ****     res = ERR_ALREADY;
 868              		.loc 1 696 10 view .LVU258
 869 009a 0546     		mov	r5, r0
 697:Middlewares/Third_Party/LwIP/src/core/tcp.c ****     goto done;
 870              		.loc 1 697 9 view .LVU259
 871 009c 6FF00803 		mvn	r3, #8
 872 00a0 F7E7     		b	.L81
 873              	.LVL86:
 874              	.L88:
 718:Middlewares/Third_Party/LwIP/src/core/tcp.c ****     goto done;
 875              		.loc 1 718 9 view .LVU260
 876 00a2 4FF0FF33 		mov	r3, #-1
 877 00a6 F4E7     		b	.L81
 878              	.L95:
 879              		.align	2
 880              	.L94:
 881 00a8 00000000 		.word	tcp_bound_pcbs
 882 00ac 00000000 		.word	.LC0
 883 00b0 00000000 		.word	.LC5
 884 00b4 38000000 		.word	.LC2
 885 00b8 00000000 		.word	tcp_accept_null
 886 00bc 00000000 		.word	tcp_listen_pcbs
 887              		.cfi_endproc
 888              	.LFE173:
 890              		.section	.text.tcp_listen_with_backlog,"ax",%progbits
 891              		.align	1
 892              		.global	tcp_listen_with_backlog
 893              		.syntax unified
 894              		.thumb
 895              		.thumb_func
 896              		.fpu fpv5-sp-d16
 898              	tcp_listen_with_backlog:
 899              	.LVL87:
 900              	.LFB172:
 665:Middlewares/Third_Party/LwIP/src/core/tcp.c ****   return tcp_listen_with_backlog_and_err(pcb, backlog, NULL);
 901              		.loc 1 665 1 is_stmt 1 view -0
 902              		.cfi_startproc
 903              		@ args = 0, pretend = 0, frame = 0
 904              		@ frame_needed = 0, uses_anonymous_args = 0
 665:Middlewares/Third_Party/LwIP/src/core/tcp.c ****   return tcp_listen_with_backlog_and_err(pcb, backlog, NULL);
 905              		.loc 1 665 1 is_stmt 0 view .LVU262
 906 0000 08B5     		push	{r3, lr}
 907              	.LCFI7:
 908              		.cfi_def_cfa_offset 8
ARM GAS  /tmp/cc6by9MY.s 			page 36


 909              		.cfi_offset 3, -8
 910              		.cfi_offset 14, -4
 666:Middlewares/Third_Party/LwIP/src/core/tcp.c **** }
 911              		.loc 1 666 3 is_stmt 1 view .LVU263
 666:Middlewares/Third_Party/LwIP/src/core/tcp.c **** }
 912              		.loc 1 666 10 is_stmt 0 view .LVU264
 913 0002 0022     		movs	r2, #0
 914 0004 FFF7FEFF 		bl	tcp_listen_with_backlog_and_err
 915              	.LVL88:
 667:Middlewares/Third_Party/LwIP/src/core/tcp.c **** 
 916              		.loc 1 667 1 view .LVU265
 917 0008 08BD     		pop	{r3, pc}
 918              		.cfi_endproc
 919              	.LFE172:
 921              		.section	.text.tcp_update_rcv_ann_wnd,"ax",%progbits
 922              		.align	1
 923              		.global	tcp_update_rcv_ann_wnd
 924              		.syntax unified
 925              		.thumb
 926              		.thumb_func
 927              		.fpu fpv5-sp-d16
 929              	tcp_update_rcv_ann_wnd:
 930              	.LVL89:
 931              	.LFB174:
 760:Middlewares/Third_Party/LwIP/src/core/tcp.c ****   u32_t new_right_edge = pcb->rcv_nxt + pcb->rcv_wnd;
 932              		.loc 1 760 1 is_stmt 1 view -0
 933              		.cfi_startproc
 934              		@ args = 0, pretend = 0, frame = 0
 935              		@ frame_needed = 0, uses_anonymous_args = 0
 760:Middlewares/Third_Party/LwIP/src/core/tcp.c ****   u32_t new_right_edge = pcb->rcv_nxt + pcb->rcv_wnd;
 936              		.loc 1 760 1 is_stmt 0 view .LVU267
 937 0000 38B5     		push	{r3, r4, r5, lr}
 938              	.LCFI8:
 939              		.cfi_def_cfa_offset 16
 940              		.cfi_offset 3, -16
 941              		.cfi_offset 4, -12
 942              		.cfi_offset 5, -8
 943              		.cfi_offset 14, -4
 761:Middlewares/Third_Party/LwIP/src/core/tcp.c **** 
 944              		.loc 1 761 3 is_stmt 1 view .LVU268
 761:Middlewares/Third_Party/LwIP/src/core/tcp.c **** 
 945              		.loc 1 761 29 is_stmt 0 view .LVU269
 946 0002 456A     		ldr	r5, [r0, #36]
 761:Middlewares/Third_Party/LwIP/src/core/tcp.c **** 
 947              		.loc 1 761 44 view .LVU270
 948 0004 048D     		ldrh	r4, [r0, #40]
 761:Middlewares/Third_Party/LwIP/src/core/tcp.c **** 
 949              		.loc 1 761 9 view .LVU271
 950 0006 2A19     		adds	r2, r5, r4
 951              	.LVL90:
 763:Middlewares/Third_Party/LwIP/src/core/tcp.c ****     /* we can advertise more window */
 952              		.loc 1 763 3 is_stmt 1 view .LVU272
 763:Middlewares/Third_Party/LwIP/src/core/tcp.c ****     /* we can advertise more window */
 953              		.loc 1 763 7 is_stmt 0 view .LVU273
 954 0008 C16A     		ldr	r1, [r0, #44]
 955 000a 438E     		ldrh	r3, [r0, #50]
 956 000c B3F5866F 		cmp	r3, #1072
ARM GAS  /tmp/cc6by9MY.s 			page 37


 957 0010 94BF     		ite	ls
 958 0012 CB18     		addls	r3, r1, r3
 959 0014 01F58663 		addhi	r3, r1, #1072
 960 0018 D31A     		subs	r3, r2, r3
 763:Middlewares/Third_Party/LwIP/src/core/tcp.c ****     /* we can advertise more window */
 961              		.loc 1 763 6 view .LVU274
 962 001a 002B     		cmp	r3, #0
 963 001c 02DB     		blt	.L99
 765:Middlewares/Third_Party/LwIP/src/core/tcp.c ****     return new_right_edge - pcb->rcv_ann_right_edge;
 964              		.loc 1 765 5 is_stmt 1 view .LVU275
 765:Middlewares/Third_Party/LwIP/src/core/tcp.c ****     return new_right_edge - pcb->rcv_ann_right_edge;
 965              		.loc 1 765 22 is_stmt 0 view .LVU276
 966 001e 4485     		strh	r4, [r0, #42]	@ movhi
 766:Middlewares/Third_Party/LwIP/src/core/tcp.c ****   } else {
 967              		.loc 1 766 5 is_stmt 1 view .LVU277
 766:Middlewares/Third_Party/LwIP/src/core/tcp.c ****   } else {
 968              		.loc 1 766 27 is_stmt 0 view .LVU278
 969 0020 501A     		subs	r0, r2, r1
 970              	.LVL91:
 971              	.L98:
 782:Middlewares/Third_Party/LwIP/src/core/tcp.c **** 
 972              		.loc 1 782 1 view .LVU279
 973 0022 38BD     		pop	{r3, r4, r5, pc}
 974              	.LVL92:
 975              	.L99:
 768:Middlewares/Third_Party/LwIP/src/core/tcp.c ****       /* Can happen due to other end sending out of advertised window,
 976              		.loc 1 768 5 is_stmt 1 view .LVU280
 768:Middlewares/Third_Party/LwIP/src/core/tcp.c ****       /* Can happen due to other end sending out of advertised window,
 977              		.loc 1 768 9 is_stmt 0 view .LVU281
 978 0024 6B1A     		subs	r3, r5, r1
 768:Middlewares/Third_Party/LwIP/src/core/tcp.c ****       /* Can happen due to other end sending out of advertised window,
 979              		.loc 1 768 8 view .LVU282
 980 0026 002B     		cmp	r3, #0
 981 0028 03DD     		ble	.L101
 771:Middlewares/Third_Party/LwIP/src/core/tcp.c ****     } else {
 982              		.loc 1 771 7 is_stmt 1 view .LVU283
 771:Middlewares/Third_Party/LwIP/src/core/tcp.c ****     } else {
 983              		.loc 1 771 24 is_stmt 0 view .LVU284
 984 002a 0023     		movs	r3, #0
 985 002c 4385     		strh	r3, [r0, #42]	@ movhi
 986              	.LVL93:
 987              	.L102:
 780:Middlewares/Third_Party/LwIP/src/core/tcp.c ****   }
 988              		.loc 1 780 5 is_stmt 1 view .LVU285
 780:Middlewares/Third_Party/LwIP/src/core/tcp.c ****   }
 989              		.loc 1 780 12 is_stmt 0 view .LVU286
 990 002e 0020     		movs	r0, #0
 991 0030 F7E7     		b	.L98
 992              	.LVL94:
 993              	.L101:
 780:Middlewares/Third_Party/LwIP/src/core/tcp.c ****   }
 994              		.loc 1 780 12 view .LVU287
 995 0032 0446     		mov	r4, r0
 996              	.LBB4:
 774:Middlewares/Third_Party/LwIP/src/core/tcp.c **** #if !LWIP_WND_SCALE
 997              		.loc 1 774 7 is_stmt 1 view .LVU288
 774:Middlewares/Third_Party/LwIP/src/core/tcp.c **** #if !LWIP_WND_SCALE
ARM GAS  /tmp/cc6by9MY.s 			page 38


 998              		.loc 1 774 13 is_stmt 0 view .LVU289
 999 0034 4D1B     		subs	r5, r1, r5
 1000              	.LVL95:
 776:Middlewares/Third_Party/LwIP/src/core/tcp.c **** #endif
 1001              		.loc 1 776 7 is_stmt 1 view .LVU290
 776:Middlewares/Third_Party/LwIP/src/core/tcp.c **** #endif
 1002              		.loc 1 776 7 view .LVU291
 1003 0036 B5F5803F 		cmp	r5, #65536
 1004 003a 01D2     		bcs	.L105
 1005              	.LVL96:
 1006              	.L103:
 778:Middlewares/Third_Party/LwIP/src/core/tcp.c ****     }
 1007              		.loc 1 778 7 view .LVU292
 778:Middlewares/Third_Party/LwIP/src/core/tcp.c ****     }
 1008              		.loc 1 778 24 is_stmt 0 view .LVU293
 1009 003c 6585     		strh	r5, [r4, #42]	@ movhi
 1010 003e F6E7     		b	.L102
 1011              	.LVL97:
 1012              	.L105:
 776:Middlewares/Third_Party/LwIP/src/core/tcp.c **** #endif
 1013              		.loc 1 776 7 is_stmt 1 discriminator 1 view .LVU294
 776:Middlewares/Third_Party/LwIP/src/core/tcp.c **** #endif
 1014              		.loc 1 776 7 discriminator 1 view .LVU295
 1015 0040 034B     		ldr	r3, .L106
 1016 0042 4FF44272 		mov	r2, #776
 1017              	.LVL98:
 776:Middlewares/Third_Party/LwIP/src/core/tcp.c **** #endif
 1018              		.loc 1 776 7 is_stmt 0 discriminator 1 view .LVU296
 1019 0046 0349     		ldr	r1, .L106+4
 1020 0048 0348     		ldr	r0, .L106+8
 1021              	.LVL99:
 776:Middlewares/Third_Party/LwIP/src/core/tcp.c **** #endif
 1022              		.loc 1 776 7 discriminator 1 view .LVU297
 1023 004a FFF7FEFF 		bl	printf
 1024              	.LVL100:
 776:Middlewares/Third_Party/LwIP/src/core/tcp.c **** #endif
 1025              		.loc 1 776 7 discriminator 1 view .LVU298
 1026 004e F5E7     		b	.L103
 1027              	.L107:
 1028              		.align	2
 1029              	.L106:
 1030 0050 00000000 		.word	.LC0
 1031 0054 00000000 		.word	.LC6
 1032 0058 38000000 		.word	.LC2
 1033              	.LBE4:
 1034              		.cfi_endproc
 1035              	.LFE174:
 1037              		.section	.text.tcp_recved,"ax",%progbits
 1038              		.align	1
 1039              		.global	tcp_recved
 1040              		.syntax unified
 1041              		.thumb
 1042              		.thumb_func
 1043              		.fpu fpv5-sp-d16
 1045              	tcp_recved:
 1046              	.LVL101:
 1047              	.LFB175:
ARM GAS  /tmp/cc6by9MY.s 			page 39


 795:Middlewares/Third_Party/LwIP/src/core/tcp.c ****   int wnd_inflation;
 1048              		.loc 1 795 1 is_stmt 1 view -0
 1049              		.cfi_startproc
 1050              		@ args = 0, pretend = 0, frame = 0
 1051              		@ frame_needed = 0, uses_anonymous_args = 0
 795:Middlewares/Third_Party/LwIP/src/core/tcp.c ****   int wnd_inflation;
 1052              		.loc 1 795 1 is_stmt 0 view .LVU300
 1053 0000 38B5     		push	{r3, r4, r5, lr}
 1054              	.LCFI9:
 1055              		.cfi_def_cfa_offset 16
 1056              		.cfi_offset 3, -16
 1057              		.cfi_offset 4, -12
 1058              		.cfi_offset 5, -8
 1059              		.cfi_offset 14, -4
 1060 0002 0546     		mov	r5, r0
 1061 0004 0C46     		mov	r4, r1
 796:Middlewares/Third_Party/LwIP/src/core/tcp.c **** 
 1062              		.loc 1 796 3 is_stmt 1 view .LVU301
 799:Middlewares/Third_Party/LwIP/src/core/tcp.c ****     pcb->state != LISTEN);
 1063              		.loc 1 799 3 view .LVU302
 799:Middlewares/Third_Party/LwIP/src/core/tcp.c ****     pcb->state != LISTEN);
 1064              		.loc 1 799 3 view .LVU303
 1065 0006 037D     		ldrb	r3, [r0, #20]	@ zero_extendqisi2
 1066 0008 012B     		cmp	r3, #1
 1067 000a 10D0     		beq	.L115
 1068              	.LVL102:
 1069              	.L109:
 802:Middlewares/Third_Party/LwIP/src/core/tcp.c ****   if (pcb->rcv_wnd > TCP_WND_MAX(pcb)) {
 1070              		.loc 1 802 3 view .LVU304
 802:Middlewares/Third_Party/LwIP/src/core/tcp.c ****   if (pcb->rcv_wnd > TCP_WND_MAX(pcb)) {
 1071              		.loc 1 802 16 is_stmt 0 view .LVU305
 1072 000c 298D     		ldrh	r1, [r5, #40]
 1073 000e 2144     		add	r1, r1, r4
 1074 0010 89B2     		uxth	r1, r1
 1075 0012 2985     		strh	r1, [r5, #40]	@ movhi
 803:Middlewares/Third_Party/LwIP/src/core/tcp.c ****     pcb->rcv_wnd = TCP_WND_MAX(pcb);
 1076              		.loc 1 803 3 is_stmt 1 view .LVU306
 803:Middlewares/Third_Party/LwIP/src/core/tcp.c ****     pcb->rcv_wnd = TCP_WND_MAX(pcb);
 1077              		.loc 1 803 6 is_stmt 0 view .LVU307
 1078 0014 B1F5066F 		cmp	r1, #2144
 1079 0018 11D9     		bls	.L110
 804:Middlewares/Third_Party/LwIP/src/core/tcp.c ****   } else if (pcb->rcv_wnd == 0) {
 1080              		.loc 1 804 5 is_stmt 1 view .LVU308
 804:Middlewares/Third_Party/LwIP/src/core/tcp.c ****   } else if (pcb->rcv_wnd == 0) {
 1081              		.loc 1 804 18 is_stmt 0 view .LVU309
 1082 001a 4FF40663 		mov	r3, #2144
 1083 001e 2B85     		strh	r3, [r5, #40]	@ movhi
 1084              	.L111:
 817:Middlewares/Third_Party/LwIP/src/core/tcp.c **** 
 1085              		.loc 1 817 3 is_stmt 1 view .LVU310
 817:Middlewares/Third_Party/LwIP/src/core/tcp.c **** 
 1086              		.loc 1 817 19 is_stmt 0 view .LVU311
 1087 0020 2846     		mov	r0, r5
 1088 0022 FFF7FEFF 		bl	tcp_update_rcv_ann_wnd
 1089              	.LVL103:
 823:Middlewares/Third_Party/LwIP/src/core/tcp.c ****     tcp_ack_now(pcb);
 1090              		.loc 1 823 3 is_stmt 1 view .LVU312
ARM GAS  /tmp/cc6by9MY.s 			page 40


 823:Middlewares/Third_Party/LwIP/src/core/tcp.c ****     tcp_ack_now(pcb);
 1091              		.loc 1 823 6 is_stmt 0 view .LVU313
 1092 0026 B0F5067F 		cmp	r0, #536
 1093 002a 1BDA     		bge	.L116
 1094              	.LVL104:
 1095              	.L108:
 830:Middlewares/Third_Party/LwIP/src/core/tcp.c **** 
 1096              		.loc 1 830 1 view .LVU314
 1097 002c 38BD     		pop	{r3, r4, r5, pc}
 1098              	.LVL105:
 1099              	.L115:
 799:Middlewares/Third_Party/LwIP/src/core/tcp.c ****     pcb->state != LISTEN);
 1100              		.loc 1 799 3 is_stmt 1 discriminator 1 view .LVU315
 799:Middlewares/Third_Party/LwIP/src/core/tcp.c ****     pcb->state != LISTEN);
 1101              		.loc 1 799 3 discriminator 1 view .LVU316
 1102 002e 114B     		ldr	r3, .L117
 1103 0030 4FF44872 		mov	r2, #800
 1104 0034 1049     		ldr	r1, .L117+4
 1105              	.LVL106:
 799:Middlewares/Third_Party/LwIP/src/core/tcp.c ****     pcb->state != LISTEN);
 1106              		.loc 1 799 3 is_stmt 0 discriminator 1 view .LVU317
 1107 0036 1148     		ldr	r0, .L117+8
 1108              	.LVL107:
 799:Middlewares/Third_Party/LwIP/src/core/tcp.c ****     pcb->state != LISTEN);
 1109              		.loc 1 799 3 discriminator 1 view .LVU318
 1110 0038 FFF7FEFF 		bl	printf
 1111              	.LVL108:
 1112 003c E6E7     		b	.L109
 1113              	.L110:
 805:Middlewares/Third_Party/LwIP/src/core/tcp.c ****     /* rcv_wnd overflowed */
 1114              		.loc 1 805 10 is_stmt 1 view .LVU319
 805:Middlewares/Third_Party/LwIP/src/core/tcp.c ****     /* rcv_wnd overflowed */
 1115              		.loc 1 805 13 is_stmt 0 view .LVU320
 1116 003e 0029     		cmp	r1, #0
 1117 0040 EED1     		bne	.L111
 807:Middlewares/Third_Party/LwIP/src/core/tcp.c ****       /* In passive close, we allow this, since the FIN bit is added to rcv_wnd
 1118              		.loc 1 807 5 is_stmt 1 view .LVU321
 807:Middlewares/Third_Party/LwIP/src/core/tcp.c ****       /* In passive close, we allow this, since the FIN bit is added to rcv_wnd
 1119              		.loc 1 807 13 is_stmt 0 view .LVU322
 1120 0042 2B7D     		ldrb	r3, [r5, #20]	@ zero_extendqisi2
 807:Middlewares/Third_Party/LwIP/src/core/tcp.c ****       /* In passive close, we allow this, since the FIN bit is added to rcv_wnd
 1121              		.loc 1 807 8 view .LVU323
 1122 0044 092B     		cmp	r3, #9
 1123 0046 18BF     		it	ne
 1124 0048 072B     		cmpne	r3, #7
 1125 004a 03D1     		bne	.L112
 811:Middlewares/Third_Party/LwIP/src/core/tcp.c ****     } else {
 1126              		.loc 1 811 7 is_stmt 1 view .LVU324
 811:Middlewares/Third_Party/LwIP/src/core/tcp.c ****     } else {
 1127              		.loc 1 811 20 is_stmt 0 view .LVU325
 1128 004c 4FF40663 		mov	r3, #2144
 1129 0050 2B85     		strh	r3, [r5, #40]	@ movhi
 1130 0052 E5E7     		b	.L111
 1131              	.L112:
 813:Middlewares/Third_Party/LwIP/src/core/tcp.c ****     }
 1132              		.loc 1 813 7 is_stmt 1 discriminator 1 view .LVU326
 813:Middlewares/Third_Party/LwIP/src/core/tcp.c ****     }
ARM GAS  /tmp/cc6by9MY.s 			page 41


 1133              		.loc 1 813 7 discriminator 1 view .LVU327
 813:Middlewares/Third_Party/LwIP/src/core/tcp.c ****     }
 1134              		.loc 1 813 7 discriminator 1 view .LVU328
 813:Middlewares/Third_Party/LwIP/src/core/tcp.c ****     }
 1135              		.loc 1 813 7 discriminator 1 view .LVU329
 1136 0054 074B     		ldr	r3, .L117
 1137 0056 40F22D32 		movw	r2, #813
 1138 005a 0949     		ldr	r1, .L117+12
 1139 005c 0748     		ldr	r0, .L117+8
 1140 005e FFF7FEFF 		bl	printf
 1141              	.LVL109:
 1142 0062 DDE7     		b	.L111
 1143              	.LVL110:
 1144              	.L116:
 824:Middlewares/Third_Party/LwIP/src/core/tcp.c ****     tcp_output(pcb);
 1145              		.loc 1 824 5 view .LVU330
 824:Middlewares/Third_Party/LwIP/src/core/tcp.c ****     tcp_output(pcb);
 1146              		.loc 1 824 5 view .LVU331
 1147 0064 AB7E     		ldrb	r3, [r5, #26]	@ zero_extendqisi2
 1148 0066 43F00203 		orr	r3, r3, #2
 1149 006a AB76     		strb	r3, [r5, #26]
 825:Middlewares/Third_Party/LwIP/src/core/tcp.c ****   }
 1150              		.loc 1 825 5 view .LVU332
 1151 006c 2846     		mov	r0, r5
 1152              	.LVL111:
 825:Middlewares/Third_Party/LwIP/src/core/tcp.c ****   }
 1153              		.loc 1 825 5 is_stmt 0 view .LVU333
 1154 006e FFF7FEFF 		bl	tcp_output
 1155              	.LVL112:
 829:Middlewares/Third_Party/LwIP/src/core/tcp.c **** }
 1156              		.loc 1 829 71 is_stmt 1 view .LVU334
 830:Middlewares/Third_Party/LwIP/src/core/tcp.c **** 
 1157              		.loc 1 830 1 is_stmt 0 view .LVU335
 1158 0072 DBE7     		b	.L108
 1159              	.L118:
 1160              		.align	2
 1161              	.L117:
 1162 0074 00000000 		.word	.LC0
 1163 0078 00000000 		.word	.LC7
 1164 007c 38000000 		.word	.LC2
 1165 0080 28000000 		.word	.LC8
 1166              		.cfi_endproc
 1167              	.LFE175:
 1169              		.section	.text.tcp_txnow,"ax",%progbits
 1170              		.align	1
 1171              		.global	tcp_txnow
 1172              		.syntax unified
 1173              		.thumb
 1174              		.thumb_func
 1175              		.fpu fpv5-sp-d16
 1177              	tcp_txnow:
 1178              	.LFB180:
 861:Middlewares/Third_Party/LwIP/src/core/tcp.c **** 
 862:Middlewares/Third_Party/LwIP/src/core/tcp.c **** /**
 863:Middlewares/Third_Party/LwIP/src/core/tcp.c ****  * @ingroup tcp_raw
 864:Middlewares/Third_Party/LwIP/src/core/tcp.c ****  * Connects to another host. The function given as the "connected"
 865:Middlewares/Third_Party/LwIP/src/core/tcp.c ****  * argument will be called when the connection has been established.
ARM GAS  /tmp/cc6by9MY.s 			page 42


 866:Middlewares/Third_Party/LwIP/src/core/tcp.c ****  *
 867:Middlewares/Third_Party/LwIP/src/core/tcp.c ****  * @param pcb the tcp_pcb used to establish the connection
 868:Middlewares/Third_Party/LwIP/src/core/tcp.c ****  * @param ipaddr the remote ip address to connect to
 869:Middlewares/Third_Party/LwIP/src/core/tcp.c ****  * @param port the remote tcp port to connect to
 870:Middlewares/Third_Party/LwIP/src/core/tcp.c ****  * @param connected callback function to call when connected (on error,
 871:Middlewares/Third_Party/LwIP/src/core/tcp.c ****                     the err calback will be called)
 872:Middlewares/Third_Party/LwIP/src/core/tcp.c ****  * @return ERR_VAL if invalid arguments are given
 873:Middlewares/Third_Party/LwIP/src/core/tcp.c ****  *         ERR_OK if connect request has been sent
 874:Middlewares/Third_Party/LwIP/src/core/tcp.c ****  *         other err_t values if connect request couldn't be sent
 875:Middlewares/Third_Party/LwIP/src/core/tcp.c ****  */
 876:Middlewares/Third_Party/LwIP/src/core/tcp.c **** err_t
 877:Middlewares/Third_Party/LwIP/src/core/tcp.c **** tcp_connect(struct tcp_pcb *pcb, const ip_addr_t *ipaddr, u16_t port,
 878:Middlewares/Third_Party/LwIP/src/core/tcp.c ****       tcp_connected_fn connected)
 879:Middlewares/Third_Party/LwIP/src/core/tcp.c **** {
 880:Middlewares/Third_Party/LwIP/src/core/tcp.c ****   err_t ret;
 881:Middlewares/Third_Party/LwIP/src/core/tcp.c ****   u32_t iss;
 882:Middlewares/Third_Party/LwIP/src/core/tcp.c ****   u16_t old_local_port;
 883:Middlewares/Third_Party/LwIP/src/core/tcp.c **** 
 884:Middlewares/Third_Party/LwIP/src/core/tcp.c ****   if ((pcb == NULL) || (ipaddr == NULL)) {
 885:Middlewares/Third_Party/LwIP/src/core/tcp.c ****     return ERR_VAL;
 886:Middlewares/Third_Party/LwIP/src/core/tcp.c ****   }
 887:Middlewares/Third_Party/LwIP/src/core/tcp.c **** 
 888:Middlewares/Third_Party/LwIP/src/core/tcp.c ****   LWIP_ERROR("tcp_connect: can only connect from state CLOSED", pcb->state == CLOSED, return ERR_IS
 889:Middlewares/Third_Party/LwIP/src/core/tcp.c **** 
 890:Middlewares/Third_Party/LwIP/src/core/tcp.c ****   LWIP_DEBUGF(TCP_DEBUG, ("tcp_connect to port %"U16_F"\n", port));
 891:Middlewares/Third_Party/LwIP/src/core/tcp.c ****   ip_addr_set(&pcb->remote_ip, ipaddr);
 892:Middlewares/Third_Party/LwIP/src/core/tcp.c ****   pcb->remote_port = port;
 893:Middlewares/Third_Party/LwIP/src/core/tcp.c **** 
 894:Middlewares/Third_Party/LwIP/src/core/tcp.c ****   /* check if we have a route to the remote host */
 895:Middlewares/Third_Party/LwIP/src/core/tcp.c ****   if (ip_addr_isany(&pcb->local_ip)) {
 896:Middlewares/Third_Party/LwIP/src/core/tcp.c ****     /* no local IP address set, yet. */
 897:Middlewares/Third_Party/LwIP/src/core/tcp.c ****     struct netif *netif;
 898:Middlewares/Third_Party/LwIP/src/core/tcp.c ****     const ip_addr_t *local_ip;
 899:Middlewares/Third_Party/LwIP/src/core/tcp.c ****     ip_route_get_local_ip(&pcb->local_ip, &pcb->remote_ip, netif, local_ip);
 900:Middlewares/Third_Party/LwIP/src/core/tcp.c ****     if ((netif == NULL) || (local_ip == NULL)) {
 901:Middlewares/Third_Party/LwIP/src/core/tcp.c ****       /* Don't even try to send a SYN packet if we have no route
 902:Middlewares/Third_Party/LwIP/src/core/tcp.c ****          since that will fail. */
 903:Middlewares/Third_Party/LwIP/src/core/tcp.c ****       return ERR_RTE;
 904:Middlewares/Third_Party/LwIP/src/core/tcp.c ****     }
 905:Middlewares/Third_Party/LwIP/src/core/tcp.c ****     /* Use the address as local address of the pcb. */
 906:Middlewares/Third_Party/LwIP/src/core/tcp.c ****     ip_addr_copy(pcb->local_ip, *local_ip);
 907:Middlewares/Third_Party/LwIP/src/core/tcp.c ****   }
 908:Middlewares/Third_Party/LwIP/src/core/tcp.c **** 
 909:Middlewares/Third_Party/LwIP/src/core/tcp.c ****   old_local_port = pcb->local_port;
 910:Middlewares/Third_Party/LwIP/src/core/tcp.c ****   if (pcb->local_port == 0) {
 911:Middlewares/Third_Party/LwIP/src/core/tcp.c ****     pcb->local_port = tcp_new_port();
 912:Middlewares/Third_Party/LwIP/src/core/tcp.c ****     if (pcb->local_port == 0) {
 913:Middlewares/Third_Party/LwIP/src/core/tcp.c ****       return ERR_BUF;
 914:Middlewares/Third_Party/LwIP/src/core/tcp.c ****     }
 915:Middlewares/Third_Party/LwIP/src/core/tcp.c ****   } else {
 916:Middlewares/Third_Party/LwIP/src/core/tcp.c **** #if SO_REUSE
 917:Middlewares/Third_Party/LwIP/src/core/tcp.c ****     if (ip_get_option(pcb, SOF_REUSEADDR)) {
 918:Middlewares/Third_Party/LwIP/src/core/tcp.c ****       /* Since SOF_REUSEADDR allows reusing a local address, we have to make sure
 919:Middlewares/Third_Party/LwIP/src/core/tcp.c ****          now that the 5-tuple is unique. */
 920:Middlewares/Third_Party/LwIP/src/core/tcp.c ****       struct tcp_pcb *cpcb;
 921:Middlewares/Third_Party/LwIP/src/core/tcp.c ****       int i;
 922:Middlewares/Third_Party/LwIP/src/core/tcp.c ****       /* Don't check listen- and bound-PCBs, check active- and TIME-WAIT PCBs. */
ARM GAS  /tmp/cc6by9MY.s 			page 43


 923:Middlewares/Third_Party/LwIP/src/core/tcp.c ****       for (i = 2; i < NUM_TCP_PCB_LISTS; i++) {
 924:Middlewares/Third_Party/LwIP/src/core/tcp.c ****         for (cpcb = *tcp_pcb_lists[i]; cpcb != NULL; cpcb = cpcb->next) {
 925:Middlewares/Third_Party/LwIP/src/core/tcp.c ****           if ((cpcb->local_port == pcb->local_port) &&
 926:Middlewares/Third_Party/LwIP/src/core/tcp.c ****               (cpcb->remote_port == port) &&
 927:Middlewares/Third_Party/LwIP/src/core/tcp.c ****               ip_addr_cmp(&cpcb->local_ip, &pcb->local_ip) &&
 928:Middlewares/Third_Party/LwIP/src/core/tcp.c ****               ip_addr_cmp(&cpcb->remote_ip, ipaddr)) {
 929:Middlewares/Third_Party/LwIP/src/core/tcp.c ****             /* linux returns EISCONN here, but ERR_USE should be OK for us */
 930:Middlewares/Third_Party/LwIP/src/core/tcp.c ****             return ERR_USE;
 931:Middlewares/Third_Party/LwIP/src/core/tcp.c ****           }
 932:Middlewares/Third_Party/LwIP/src/core/tcp.c ****         }
 933:Middlewares/Third_Party/LwIP/src/core/tcp.c ****       }
 934:Middlewares/Third_Party/LwIP/src/core/tcp.c ****     }
 935:Middlewares/Third_Party/LwIP/src/core/tcp.c **** #endif /* SO_REUSE */
 936:Middlewares/Third_Party/LwIP/src/core/tcp.c ****   }
 937:Middlewares/Third_Party/LwIP/src/core/tcp.c **** 
 938:Middlewares/Third_Party/LwIP/src/core/tcp.c ****   iss = tcp_next_iss(pcb);
 939:Middlewares/Third_Party/LwIP/src/core/tcp.c ****   pcb->rcv_nxt = 0;
 940:Middlewares/Third_Party/LwIP/src/core/tcp.c ****   pcb->snd_nxt = iss;
 941:Middlewares/Third_Party/LwIP/src/core/tcp.c ****   pcb->lastack = iss - 1;
 942:Middlewares/Third_Party/LwIP/src/core/tcp.c ****   pcb->snd_wl2 = iss - 1;
 943:Middlewares/Third_Party/LwIP/src/core/tcp.c ****   pcb->snd_lbb = iss - 1;
 944:Middlewares/Third_Party/LwIP/src/core/tcp.c ****   /* Start with a window that does not need scaling. When window scaling is
 945:Middlewares/Third_Party/LwIP/src/core/tcp.c ****      enabled and used, the window is enlarged when both sides agree on scaling. */
 946:Middlewares/Third_Party/LwIP/src/core/tcp.c ****   pcb->rcv_wnd = pcb->rcv_ann_wnd = TCPWND_MIN16(TCP_WND);
 947:Middlewares/Third_Party/LwIP/src/core/tcp.c ****   pcb->rcv_ann_right_edge = pcb->rcv_nxt;
 948:Middlewares/Third_Party/LwIP/src/core/tcp.c ****   pcb->snd_wnd = TCP_WND;
 949:Middlewares/Third_Party/LwIP/src/core/tcp.c ****   /* As initial send MSS, we use TCP_MSS but limit it to 536.
 950:Middlewares/Third_Party/LwIP/src/core/tcp.c ****      The send MSS is updated when an MSS option is received. */
 951:Middlewares/Third_Party/LwIP/src/core/tcp.c ****   pcb->mss = INITIAL_MSS;
 952:Middlewares/Third_Party/LwIP/src/core/tcp.c **** #if TCP_CALCULATE_EFF_SEND_MSS
 953:Middlewares/Third_Party/LwIP/src/core/tcp.c ****   pcb->mss = tcp_eff_send_mss(pcb->mss, &pcb->local_ip, &pcb->remote_ip);
 954:Middlewares/Third_Party/LwIP/src/core/tcp.c **** #endif /* TCP_CALCULATE_EFF_SEND_MSS */
 955:Middlewares/Third_Party/LwIP/src/core/tcp.c ****   pcb->cwnd = 1;
 956:Middlewares/Third_Party/LwIP/src/core/tcp.c **** #if LWIP_CALLBACK_API
 957:Middlewares/Third_Party/LwIP/src/core/tcp.c ****   pcb->connected = connected;
 958:Middlewares/Third_Party/LwIP/src/core/tcp.c **** #else /* LWIP_CALLBACK_API */
 959:Middlewares/Third_Party/LwIP/src/core/tcp.c ****   LWIP_UNUSED_ARG(connected);
 960:Middlewares/Third_Party/LwIP/src/core/tcp.c **** #endif /* LWIP_CALLBACK_API */
 961:Middlewares/Third_Party/LwIP/src/core/tcp.c **** 
 962:Middlewares/Third_Party/LwIP/src/core/tcp.c ****   /* Send a SYN together with the MSS option. */
 963:Middlewares/Third_Party/LwIP/src/core/tcp.c ****   ret = tcp_enqueue_flags(pcb, TCP_SYN);
 964:Middlewares/Third_Party/LwIP/src/core/tcp.c ****   if (ret == ERR_OK) {
 965:Middlewares/Third_Party/LwIP/src/core/tcp.c ****     /* SYN segment was enqueued, changed the pcbs state now */
 966:Middlewares/Third_Party/LwIP/src/core/tcp.c ****     pcb->state = SYN_SENT;
 967:Middlewares/Third_Party/LwIP/src/core/tcp.c ****     if (old_local_port != 0) {
 968:Middlewares/Third_Party/LwIP/src/core/tcp.c ****       TCP_RMV(&tcp_bound_pcbs, pcb);
 969:Middlewares/Third_Party/LwIP/src/core/tcp.c ****     }
 970:Middlewares/Third_Party/LwIP/src/core/tcp.c ****     TCP_REG_ACTIVE(pcb);
 971:Middlewares/Third_Party/LwIP/src/core/tcp.c ****     MIB2_STATS_INC(mib2.tcpactiveopens);
 972:Middlewares/Third_Party/LwIP/src/core/tcp.c **** 
 973:Middlewares/Third_Party/LwIP/src/core/tcp.c ****     tcp_output(pcb);
 974:Middlewares/Third_Party/LwIP/src/core/tcp.c ****   }
 975:Middlewares/Third_Party/LwIP/src/core/tcp.c ****   return ret;
 976:Middlewares/Third_Party/LwIP/src/core/tcp.c **** }
 977:Middlewares/Third_Party/LwIP/src/core/tcp.c **** 
 978:Middlewares/Third_Party/LwIP/src/core/tcp.c **** /**
 979:Middlewares/Third_Party/LwIP/src/core/tcp.c ****  * Called every 500 ms and implements the retransmission timer and the timer that
ARM GAS  /tmp/cc6by9MY.s 			page 44


 980:Middlewares/Third_Party/LwIP/src/core/tcp.c ****  * removes PCBs that have been in TIME-WAIT for enough time. It also increments
 981:Middlewares/Third_Party/LwIP/src/core/tcp.c ****  * various timers such as the inactivity timer in each PCB.
 982:Middlewares/Third_Party/LwIP/src/core/tcp.c ****  *
 983:Middlewares/Third_Party/LwIP/src/core/tcp.c ****  * Automatically called from tcp_tmr().
 984:Middlewares/Third_Party/LwIP/src/core/tcp.c ****  */
 985:Middlewares/Third_Party/LwIP/src/core/tcp.c **** void
 986:Middlewares/Third_Party/LwIP/src/core/tcp.c **** tcp_slowtmr(void)
 987:Middlewares/Third_Party/LwIP/src/core/tcp.c **** {
 988:Middlewares/Third_Party/LwIP/src/core/tcp.c ****   struct tcp_pcb *pcb, *prev;
 989:Middlewares/Third_Party/LwIP/src/core/tcp.c ****   tcpwnd_size_t eff_wnd;
 990:Middlewares/Third_Party/LwIP/src/core/tcp.c ****   u8_t pcb_remove;      /* flag if a PCB should be removed */
 991:Middlewares/Third_Party/LwIP/src/core/tcp.c ****   u8_t pcb_reset;       /* flag if a RST should be sent when removing */
 992:Middlewares/Third_Party/LwIP/src/core/tcp.c ****   err_t err;
 993:Middlewares/Third_Party/LwIP/src/core/tcp.c **** 
 994:Middlewares/Third_Party/LwIP/src/core/tcp.c ****   err = ERR_OK;
 995:Middlewares/Third_Party/LwIP/src/core/tcp.c **** 
 996:Middlewares/Third_Party/LwIP/src/core/tcp.c ****   ++tcp_ticks;
 997:Middlewares/Third_Party/LwIP/src/core/tcp.c ****   ++tcp_timer_ctr;
 998:Middlewares/Third_Party/LwIP/src/core/tcp.c **** 
 999:Middlewares/Third_Party/LwIP/src/core/tcp.c **** tcp_slowtmr_start:
1000:Middlewares/Third_Party/LwIP/src/core/tcp.c ****   /* Steps through all of the active PCBs. */
1001:Middlewares/Third_Party/LwIP/src/core/tcp.c ****   prev = NULL;
1002:Middlewares/Third_Party/LwIP/src/core/tcp.c ****   pcb = tcp_active_pcbs;
1003:Middlewares/Third_Party/LwIP/src/core/tcp.c ****   if (pcb == NULL) {
1004:Middlewares/Third_Party/LwIP/src/core/tcp.c ****     LWIP_DEBUGF(TCP_DEBUG, ("tcp_slowtmr: no active pcbs\n"));
1005:Middlewares/Third_Party/LwIP/src/core/tcp.c ****   }
1006:Middlewares/Third_Party/LwIP/src/core/tcp.c ****   while (pcb != NULL) {
1007:Middlewares/Third_Party/LwIP/src/core/tcp.c ****     LWIP_DEBUGF(TCP_DEBUG, ("tcp_slowtmr: processing active pcb\n"));
1008:Middlewares/Third_Party/LwIP/src/core/tcp.c ****     LWIP_ASSERT("tcp_slowtmr: active pcb->state != CLOSED\n", pcb->state != CLOSED);
1009:Middlewares/Third_Party/LwIP/src/core/tcp.c ****     LWIP_ASSERT("tcp_slowtmr: active pcb->state != LISTEN\n", pcb->state != LISTEN);
1010:Middlewares/Third_Party/LwIP/src/core/tcp.c ****     LWIP_ASSERT("tcp_slowtmr: active pcb->state != TIME-WAIT\n", pcb->state != TIME_WAIT);
1011:Middlewares/Third_Party/LwIP/src/core/tcp.c ****     if (pcb->last_timer == tcp_timer_ctr) {
1012:Middlewares/Third_Party/LwIP/src/core/tcp.c ****       /* skip this pcb, we have already processed it */
1013:Middlewares/Third_Party/LwIP/src/core/tcp.c ****       pcb = pcb->next;
1014:Middlewares/Third_Party/LwIP/src/core/tcp.c ****       continue;
1015:Middlewares/Third_Party/LwIP/src/core/tcp.c ****     }
1016:Middlewares/Third_Party/LwIP/src/core/tcp.c ****     pcb->last_timer = tcp_timer_ctr;
1017:Middlewares/Third_Party/LwIP/src/core/tcp.c **** 
1018:Middlewares/Third_Party/LwIP/src/core/tcp.c ****     pcb_remove = 0;
1019:Middlewares/Third_Party/LwIP/src/core/tcp.c ****     pcb_reset = 0;
1020:Middlewares/Third_Party/LwIP/src/core/tcp.c **** 
1021:Middlewares/Third_Party/LwIP/src/core/tcp.c ****     if (pcb->state == SYN_SENT && pcb->nrtx >= TCP_SYNMAXRTX) {
1022:Middlewares/Third_Party/LwIP/src/core/tcp.c ****       ++pcb_remove;
1023:Middlewares/Third_Party/LwIP/src/core/tcp.c ****       LWIP_DEBUGF(TCP_DEBUG, ("tcp_slowtmr: max SYN retries reached\n"));
1024:Middlewares/Third_Party/LwIP/src/core/tcp.c ****     }
1025:Middlewares/Third_Party/LwIP/src/core/tcp.c ****     else if (pcb->nrtx >= TCP_MAXRTX) {
1026:Middlewares/Third_Party/LwIP/src/core/tcp.c ****       ++pcb_remove;
1027:Middlewares/Third_Party/LwIP/src/core/tcp.c ****       LWIP_DEBUGF(TCP_DEBUG, ("tcp_slowtmr: max DATA retries reached\n"));
1028:Middlewares/Third_Party/LwIP/src/core/tcp.c ****     } else {
1029:Middlewares/Third_Party/LwIP/src/core/tcp.c ****       if (pcb->persist_backoff > 0) {
1030:Middlewares/Third_Party/LwIP/src/core/tcp.c ****         /* If snd_wnd is zero, use persist timer to send 1 byte probes
1031:Middlewares/Third_Party/LwIP/src/core/tcp.c ****          * instead of using the standard retransmission mechanism. */
1032:Middlewares/Third_Party/LwIP/src/core/tcp.c ****         u8_t backoff_cnt = tcp_persist_backoff[pcb->persist_backoff-1];
1033:Middlewares/Third_Party/LwIP/src/core/tcp.c ****         if (pcb->persist_cnt < backoff_cnt) {
1034:Middlewares/Third_Party/LwIP/src/core/tcp.c ****           pcb->persist_cnt++;
1035:Middlewares/Third_Party/LwIP/src/core/tcp.c ****         }
1036:Middlewares/Third_Party/LwIP/src/core/tcp.c ****         if (pcb->persist_cnt >= backoff_cnt) {
ARM GAS  /tmp/cc6by9MY.s 			page 45


1037:Middlewares/Third_Party/LwIP/src/core/tcp.c ****           if (tcp_zero_window_probe(pcb) == ERR_OK) {
1038:Middlewares/Third_Party/LwIP/src/core/tcp.c ****             pcb->persist_cnt = 0;
1039:Middlewares/Third_Party/LwIP/src/core/tcp.c ****             if (pcb->persist_backoff < sizeof(tcp_persist_backoff)) {
1040:Middlewares/Third_Party/LwIP/src/core/tcp.c ****               pcb->persist_backoff++;
1041:Middlewares/Third_Party/LwIP/src/core/tcp.c ****             }
1042:Middlewares/Third_Party/LwIP/src/core/tcp.c ****           }
1043:Middlewares/Third_Party/LwIP/src/core/tcp.c ****         }
1044:Middlewares/Third_Party/LwIP/src/core/tcp.c ****       } else {
1045:Middlewares/Third_Party/LwIP/src/core/tcp.c ****         /* Increase the retransmission timer if it is running */
1046:Middlewares/Third_Party/LwIP/src/core/tcp.c ****         if (pcb->rtime >= 0) {
1047:Middlewares/Third_Party/LwIP/src/core/tcp.c ****           ++pcb->rtime;
1048:Middlewares/Third_Party/LwIP/src/core/tcp.c ****         }
1049:Middlewares/Third_Party/LwIP/src/core/tcp.c **** 
1050:Middlewares/Third_Party/LwIP/src/core/tcp.c ****         if (pcb->unacked != NULL && pcb->rtime >= pcb->rto) {
1051:Middlewares/Third_Party/LwIP/src/core/tcp.c ****           /* Time for a retransmission. */
1052:Middlewares/Third_Party/LwIP/src/core/tcp.c ****           LWIP_DEBUGF(TCP_RTO_DEBUG, ("tcp_slowtmr: rtime %"S16_F
1053:Middlewares/Third_Party/LwIP/src/core/tcp.c ****                                       " pcb->rto %"S16_F"\n",
1054:Middlewares/Third_Party/LwIP/src/core/tcp.c ****                                       pcb->rtime, pcb->rto));
1055:Middlewares/Third_Party/LwIP/src/core/tcp.c **** 
1056:Middlewares/Third_Party/LwIP/src/core/tcp.c ****           /* Double retransmission time-out unless we are trying to
1057:Middlewares/Third_Party/LwIP/src/core/tcp.c ****            * connect to somebody (i.e., we are in SYN_SENT). */
1058:Middlewares/Third_Party/LwIP/src/core/tcp.c ****           if (pcb->state != SYN_SENT) {
1059:Middlewares/Third_Party/LwIP/src/core/tcp.c ****             u8_t backoff_idx = LWIP_MIN(pcb->nrtx, sizeof(tcp_backoff)-1);
1060:Middlewares/Third_Party/LwIP/src/core/tcp.c ****             pcb->rto = ((pcb->sa >> 3) + pcb->sv) << tcp_backoff[backoff_idx];
1061:Middlewares/Third_Party/LwIP/src/core/tcp.c ****           }
1062:Middlewares/Third_Party/LwIP/src/core/tcp.c **** 
1063:Middlewares/Third_Party/LwIP/src/core/tcp.c ****           /* Reset the retransmission timer. */
1064:Middlewares/Third_Party/LwIP/src/core/tcp.c ****           pcb->rtime = 0;
1065:Middlewares/Third_Party/LwIP/src/core/tcp.c **** 
1066:Middlewares/Third_Party/LwIP/src/core/tcp.c ****           /* Reduce congestion window and ssthresh. */
1067:Middlewares/Third_Party/LwIP/src/core/tcp.c ****           eff_wnd = LWIP_MIN(pcb->cwnd, pcb->snd_wnd);
1068:Middlewares/Third_Party/LwIP/src/core/tcp.c ****           pcb->ssthresh = eff_wnd >> 1;
1069:Middlewares/Third_Party/LwIP/src/core/tcp.c ****           if (pcb->ssthresh < (tcpwnd_size_t)(pcb->mss << 1)) {
1070:Middlewares/Third_Party/LwIP/src/core/tcp.c ****             pcb->ssthresh = (pcb->mss << 1);
1071:Middlewares/Third_Party/LwIP/src/core/tcp.c ****           }
1072:Middlewares/Third_Party/LwIP/src/core/tcp.c ****           pcb->cwnd = pcb->mss;
1073:Middlewares/Third_Party/LwIP/src/core/tcp.c ****           LWIP_DEBUGF(TCP_CWND_DEBUG, ("tcp_slowtmr: cwnd %"TCPWNDSIZE_F
1074:Middlewares/Third_Party/LwIP/src/core/tcp.c ****                                        " ssthresh %"TCPWNDSIZE_F"\n",
1075:Middlewares/Third_Party/LwIP/src/core/tcp.c ****                                        pcb->cwnd, pcb->ssthresh));
1076:Middlewares/Third_Party/LwIP/src/core/tcp.c **** 
1077:Middlewares/Third_Party/LwIP/src/core/tcp.c ****           /* The following needs to be called AFTER cwnd is set to one
1078:Middlewares/Third_Party/LwIP/src/core/tcp.c ****              mss - STJ */
1079:Middlewares/Third_Party/LwIP/src/core/tcp.c ****           tcp_rexmit_rto(pcb);
1080:Middlewares/Third_Party/LwIP/src/core/tcp.c ****         }
1081:Middlewares/Third_Party/LwIP/src/core/tcp.c ****       }
1082:Middlewares/Third_Party/LwIP/src/core/tcp.c ****     }
1083:Middlewares/Third_Party/LwIP/src/core/tcp.c ****     /* Check if this PCB has stayed too long in FIN-WAIT-2 */
1084:Middlewares/Third_Party/LwIP/src/core/tcp.c ****     if (pcb->state == FIN_WAIT_2) {
1085:Middlewares/Third_Party/LwIP/src/core/tcp.c ****       /* If this PCB is in FIN_WAIT_2 because of SHUT_WR don't let it time out. */
1086:Middlewares/Third_Party/LwIP/src/core/tcp.c ****       if (pcb->flags & TF_RXCLOSED) {
1087:Middlewares/Third_Party/LwIP/src/core/tcp.c ****         /* PCB was fully closed (either through close() or SHUT_RDWR):
1088:Middlewares/Third_Party/LwIP/src/core/tcp.c ****            normal FIN-WAIT timeout handling. */
1089:Middlewares/Third_Party/LwIP/src/core/tcp.c ****         if ((u32_t)(tcp_ticks - pcb->tmr) >
1090:Middlewares/Third_Party/LwIP/src/core/tcp.c ****             TCP_FIN_WAIT_TIMEOUT / TCP_SLOW_INTERVAL) {
1091:Middlewares/Third_Party/LwIP/src/core/tcp.c ****           ++pcb_remove;
1092:Middlewares/Third_Party/LwIP/src/core/tcp.c ****           LWIP_DEBUGF(TCP_DEBUG, ("tcp_slowtmr: removing pcb stuck in FIN-WAIT-2\n"));
1093:Middlewares/Third_Party/LwIP/src/core/tcp.c ****         }
ARM GAS  /tmp/cc6by9MY.s 			page 46


1094:Middlewares/Third_Party/LwIP/src/core/tcp.c ****       }
1095:Middlewares/Third_Party/LwIP/src/core/tcp.c ****     }
1096:Middlewares/Third_Party/LwIP/src/core/tcp.c **** 
1097:Middlewares/Third_Party/LwIP/src/core/tcp.c ****     /* Check if KEEPALIVE should be sent */
1098:Middlewares/Third_Party/LwIP/src/core/tcp.c ****     if (ip_get_option(pcb, SOF_KEEPALIVE) &&
1099:Middlewares/Third_Party/LwIP/src/core/tcp.c ****        ((pcb->state == ESTABLISHED) ||
1100:Middlewares/Third_Party/LwIP/src/core/tcp.c ****         (pcb->state == CLOSE_WAIT))) {
1101:Middlewares/Third_Party/LwIP/src/core/tcp.c ****       if ((u32_t)(tcp_ticks - pcb->tmr) >
1102:Middlewares/Third_Party/LwIP/src/core/tcp.c ****          (pcb->keep_idle + TCP_KEEP_DUR(pcb)) / TCP_SLOW_INTERVAL)
1103:Middlewares/Third_Party/LwIP/src/core/tcp.c ****       {
1104:Middlewares/Third_Party/LwIP/src/core/tcp.c ****         LWIP_DEBUGF(TCP_DEBUG, ("tcp_slowtmr: KEEPALIVE timeout. Aborting connection to "));
1105:Middlewares/Third_Party/LwIP/src/core/tcp.c ****         ip_addr_debug_print(TCP_DEBUG, &pcb->remote_ip);
1106:Middlewares/Third_Party/LwIP/src/core/tcp.c ****         LWIP_DEBUGF(TCP_DEBUG, ("\n"));
1107:Middlewares/Third_Party/LwIP/src/core/tcp.c **** 
1108:Middlewares/Third_Party/LwIP/src/core/tcp.c ****         ++pcb_remove;
1109:Middlewares/Third_Party/LwIP/src/core/tcp.c ****         ++pcb_reset;
1110:Middlewares/Third_Party/LwIP/src/core/tcp.c ****       } else if ((u32_t)(tcp_ticks - pcb->tmr) >
1111:Middlewares/Third_Party/LwIP/src/core/tcp.c ****                 (pcb->keep_idle + pcb->keep_cnt_sent * TCP_KEEP_INTVL(pcb))
1112:Middlewares/Third_Party/LwIP/src/core/tcp.c ****                 / TCP_SLOW_INTERVAL)
1113:Middlewares/Third_Party/LwIP/src/core/tcp.c ****       {
1114:Middlewares/Third_Party/LwIP/src/core/tcp.c ****         err = tcp_keepalive(pcb);
1115:Middlewares/Third_Party/LwIP/src/core/tcp.c ****         if (err == ERR_OK) {
1116:Middlewares/Third_Party/LwIP/src/core/tcp.c ****           pcb->keep_cnt_sent++;
1117:Middlewares/Third_Party/LwIP/src/core/tcp.c ****         }
1118:Middlewares/Third_Party/LwIP/src/core/tcp.c ****       }
1119:Middlewares/Third_Party/LwIP/src/core/tcp.c ****     }
1120:Middlewares/Third_Party/LwIP/src/core/tcp.c **** 
1121:Middlewares/Third_Party/LwIP/src/core/tcp.c ****     /* If this PCB has queued out of sequence data, but has been
1122:Middlewares/Third_Party/LwIP/src/core/tcp.c ****        inactive for too long, will drop the data (it will eventually
1123:Middlewares/Third_Party/LwIP/src/core/tcp.c ****        be retransmitted). */
1124:Middlewares/Third_Party/LwIP/src/core/tcp.c **** #if TCP_QUEUE_OOSEQ
1125:Middlewares/Third_Party/LwIP/src/core/tcp.c ****     if (pcb->ooseq != NULL &&
1126:Middlewares/Third_Party/LwIP/src/core/tcp.c ****         (u32_t)tcp_ticks - pcb->tmr >= pcb->rto * TCP_OOSEQ_TIMEOUT) {
1127:Middlewares/Third_Party/LwIP/src/core/tcp.c ****       tcp_segs_free(pcb->ooseq);
1128:Middlewares/Third_Party/LwIP/src/core/tcp.c ****       pcb->ooseq = NULL;
1129:Middlewares/Third_Party/LwIP/src/core/tcp.c ****       LWIP_DEBUGF(TCP_CWND_DEBUG, ("tcp_slowtmr: dropping OOSEQ queued data\n"));
1130:Middlewares/Third_Party/LwIP/src/core/tcp.c ****     }
1131:Middlewares/Third_Party/LwIP/src/core/tcp.c **** #endif /* TCP_QUEUE_OOSEQ */
1132:Middlewares/Third_Party/LwIP/src/core/tcp.c **** 
1133:Middlewares/Third_Party/LwIP/src/core/tcp.c ****     /* Check if this PCB has stayed too long in SYN-RCVD */
1134:Middlewares/Third_Party/LwIP/src/core/tcp.c ****     if (pcb->state == SYN_RCVD) {
1135:Middlewares/Third_Party/LwIP/src/core/tcp.c ****       if ((u32_t)(tcp_ticks - pcb->tmr) >
1136:Middlewares/Third_Party/LwIP/src/core/tcp.c ****           TCP_SYN_RCVD_TIMEOUT / TCP_SLOW_INTERVAL) {
1137:Middlewares/Third_Party/LwIP/src/core/tcp.c ****         ++pcb_remove;
1138:Middlewares/Third_Party/LwIP/src/core/tcp.c ****         LWIP_DEBUGF(TCP_DEBUG, ("tcp_slowtmr: removing pcb stuck in SYN-RCVD\n"));
1139:Middlewares/Third_Party/LwIP/src/core/tcp.c ****       }
1140:Middlewares/Third_Party/LwIP/src/core/tcp.c ****     }
1141:Middlewares/Third_Party/LwIP/src/core/tcp.c **** 
1142:Middlewares/Third_Party/LwIP/src/core/tcp.c ****     /* Check if this PCB has stayed too long in LAST-ACK */
1143:Middlewares/Third_Party/LwIP/src/core/tcp.c ****     if (pcb->state == LAST_ACK) {
1144:Middlewares/Third_Party/LwIP/src/core/tcp.c ****       if ((u32_t)(tcp_ticks - pcb->tmr) > 2 * TCP_MSL / TCP_SLOW_INTERVAL) {
1145:Middlewares/Third_Party/LwIP/src/core/tcp.c ****         ++pcb_remove;
1146:Middlewares/Third_Party/LwIP/src/core/tcp.c ****         LWIP_DEBUGF(TCP_DEBUG, ("tcp_slowtmr: removing pcb stuck in LAST-ACK\n"));
1147:Middlewares/Third_Party/LwIP/src/core/tcp.c ****       }
1148:Middlewares/Third_Party/LwIP/src/core/tcp.c ****     }
1149:Middlewares/Third_Party/LwIP/src/core/tcp.c **** 
1150:Middlewares/Third_Party/LwIP/src/core/tcp.c ****     /* If the PCB should be removed, do it. */
ARM GAS  /tmp/cc6by9MY.s 			page 47


1151:Middlewares/Third_Party/LwIP/src/core/tcp.c ****     if (pcb_remove) {
1152:Middlewares/Third_Party/LwIP/src/core/tcp.c ****       struct tcp_pcb *pcb2;
1153:Middlewares/Third_Party/LwIP/src/core/tcp.c **** #if LWIP_CALLBACK_API
1154:Middlewares/Third_Party/LwIP/src/core/tcp.c ****       tcp_err_fn err_fn = pcb->errf;
1155:Middlewares/Third_Party/LwIP/src/core/tcp.c **** #endif /* LWIP_CALLBACK_API */
1156:Middlewares/Third_Party/LwIP/src/core/tcp.c ****       void *err_arg;
1157:Middlewares/Third_Party/LwIP/src/core/tcp.c ****       enum tcp_state last_state;
1158:Middlewares/Third_Party/LwIP/src/core/tcp.c ****       tcp_pcb_purge(pcb);
1159:Middlewares/Third_Party/LwIP/src/core/tcp.c ****       /* Remove PCB from tcp_active_pcbs list. */
1160:Middlewares/Third_Party/LwIP/src/core/tcp.c ****       if (prev != NULL) {
1161:Middlewares/Third_Party/LwIP/src/core/tcp.c ****         LWIP_ASSERT("tcp_slowtmr: middle tcp != tcp_active_pcbs", pcb != tcp_active_pcbs);
1162:Middlewares/Third_Party/LwIP/src/core/tcp.c ****         prev->next = pcb->next;
1163:Middlewares/Third_Party/LwIP/src/core/tcp.c ****       } else {
1164:Middlewares/Third_Party/LwIP/src/core/tcp.c ****         /* This PCB was the first. */
1165:Middlewares/Third_Party/LwIP/src/core/tcp.c ****         LWIP_ASSERT("tcp_slowtmr: first pcb == tcp_active_pcbs", tcp_active_pcbs == pcb);
1166:Middlewares/Third_Party/LwIP/src/core/tcp.c ****         tcp_active_pcbs = pcb->next;
1167:Middlewares/Third_Party/LwIP/src/core/tcp.c ****       }
1168:Middlewares/Third_Party/LwIP/src/core/tcp.c **** 
1169:Middlewares/Third_Party/LwIP/src/core/tcp.c ****       if (pcb_reset) {
1170:Middlewares/Third_Party/LwIP/src/core/tcp.c ****         tcp_rst(pcb->snd_nxt, pcb->rcv_nxt, &pcb->local_ip, &pcb->remote_ip,
1171:Middlewares/Third_Party/LwIP/src/core/tcp.c ****                  pcb->local_port, pcb->remote_port);
1172:Middlewares/Third_Party/LwIP/src/core/tcp.c ****       }
1173:Middlewares/Third_Party/LwIP/src/core/tcp.c **** 
1174:Middlewares/Third_Party/LwIP/src/core/tcp.c ****       err_arg = pcb->callback_arg;
1175:Middlewares/Third_Party/LwIP/src/core/tcp.c ****       last_state = pcb->state;
1176:Middlewares/Third_Party/LwIP/src/core/tcp.c ****       pcb2 = pcb;
1177:Middlewares/Third_Party/LwIP/src/core/tcp.c ****       pcb = pcb->next;
1178:Middlewares/Third_Party/LwIP/src/core/tcp.c ****       memp_free(MEMP_TCP_PCB, pcb2);
1179:Middlewares/Third_Party/LwIP/src/core/tcp.c **** 
1180:Middlewares/Third_Party/LwIP/src/core/tcp.c ****       tcp_active_pcbs_changed = 0;
1181:Middlewares/Third_Party/LwIP/src/core/tcp.c ****       TCP_EVENT_ERR(last_state, err_fn, err_arg, ERR_ABRT);
1182:Middlewares/Third_Party/LwIP/src/core/tcp.c ****       if (tcp_active_pcbs_changed) {
1183:Middlewares/Third_Party/LwIP/src/core/tcp.c ****         goto tcp_slowtmr_start;
1184:Middlewares/Third_Party/LwIP/src/core/tcp.c ****       }
1185:Middlewares/Third_Party/LwIP/src/core/tcp.c ****     } else {
1186:Middlewares/Third_Party/LwIP/src/core/tcp.c ****       /* get the 'next' element now and work with 'prev' below (in case of abort) */
1187:Middlewares/Third_Party/LwIP/src/core/tcp.c ****       prev = pcb;
1188:Middlewares/Third_Party/LwIP/src/core/tcp.c ****       pcb = pcb->next;
1189:Middlewares/Third_Party/LwIP/src/core/tcp.c **** 
1190:Middlewares/Third_Party/LwIP/src/core/tcp.c ****       /* We check if we should poll the connection. */
1191:Middlewares/Third_Party/LwIP/src/core/tcp.c ****       ++prev->polltmr;
1192:Middlewares/Third_Party/LwIP/src/core/tcp.c ****       if (prev->polltmr >= prev->pollinterval) {
1193:Middlewares/Third_Party/LwIP/src/core/tcp.c ****         prev->polltmr = 0;
1194:Middlewares/Third_Party/LwIP/src/core/tcp.c ****         LWIP_DEBUGF(TCP_DEBUG, ("tcp_slowtmr: polling application\n"));
1195:Middlewares/Third_Party/LwIP/src/core/tcp.c ****         tcp_active_pcbs_changed = 0;
1196:Middlewares/Third_Party/LwIP/src/core/tcp.c ****         TCP_EVENT_POLL(prev, err);
1197:Middlewares/Third_Party/LwIP/src/core/tcp.c ****         if (tcp_active_pcbs_changed) {
1198:Middlewares/Third_Party/LwIP/src/core/tcp.c ****           goto tcp_slowtmr_start;
1199:Middlewares/Third_Party/LwIP/src/core/tcp.c ****         }
1200:Middlewares/Third_Party/LwIP/src/core/tcp.c ****         /* if err == ERR_ABRT, 'prev' is already deallocated */
1201:Middlewares/Third_Party/LwIP/src/core/tcp.c ****         if (err == ERR_OK) {
1202:Middlewares/Third_Party/LwIP/src/core/tcp.c ****           tcp_output(prev);
1203:Middlewares/Third_Party/LwIP/src/core/tcp.c ****         }
1204:Middlewares/Third_Party/LwIP/src/core/tcp.c ****       }
1205:Middlewares/Third_Party/LwIP/src/core/tcp.c ****     }
1206:Middlewares/Third_Party/LwIP/src/core/tcp.c ****   }
1207:Middlewares/Third_Party/LwIP/src/core/tcp.c **** 
ARM GAS  /tmp/cc6by9MY.s 			page 48


1208:Middlewares/Third_Party/LwIP/src/core/tcp.c **** 
1209:Middlewares/Third_Party/LwIP/src/core/tcp.c ****   /* Steps through all of the TIME-WAIT PCBs. */
1210:Middlewares/Third_Party/LwIP/src/core/tcp.c ****   prev = NULL;
1211:Middlewares/Third_Party/LwIP/src/core/tcp.c ****   pcb = tcp_tw_pcbs;
1212:Middlewares/Third_Party/LwIP/src/core/tcp.c ****   while (pcb != NULL) {
1213:Middlewares/Third_Party/LwIP/src/core/tcp.c ****     LWIP_ASSERT("tcp_slowtmr: TIME-WAIT pcb->state == TIME-WAIT", pcb->state == TIME_WAIT);
1214:Middlewares/Third_Party/LwIP/src/core/tcp.c ****     pcb_remove = 0;
1215:Middlewares/Third_Party/LwIP/src/core/tcp.c **** 
1216:Middlewares/Third_Party/LwIP/src/core/tcp.c ****     /* Check if this PCB has stayed long enough in TIME-WAIT */
1217:Middlewares/Third_Party/LwIP/src/core/tcp.c ****     if ((u32_t)(tcp_ticks - pcb->tmr) > 2 * TCP_MSL / TCP_SLOW_INTERVAL) {
1218:Middlewares/Third_Party/LwIP/src/core/tcp.c ****       ++pcb_remove;
1219:Middlewares/Third_Party/LwIP/src/core/tcp.c ****     }
1220:Middlewares/Third_Party/LwIP/src/core/tcp.c **** 
1221:Middlewares/Third_Party/LwIP/src/core/tcp.c ****     /* If the PCB should be removed, do it. */
1222:Middlewares/Third_Party/LwIP/src/core/tcp.c ****     if (pcb_remove) {
1223:Middlewares/Third_Party/LwIP/src/core/tcp.c ****       struct tcp_pcb *pcb2;
1224:Middlewares/Third_Party/LwIP/src/core/tcp.c ****       tcp_pcb_purge(pcb);
1225:Middlewares/Third_Party/LwIP/src/core/tcp.c ****       /* Remove PCB from tcp_tw_pcbs list. */
1226:Middlewares/Third_Party/LwIP/src/core/tcp.c ****       if (prev != NULL) {
1227:Middlewares/Third_Party/LwIP/src/core/tcp.c ****         LWIP_ASSERT("tcp_slowtmr: middle tcp != tcp_tw_pcbs", pcb != tcp_tw_pcbs);
1228:Middlewares/Third_Party/LwIP/src/core/tcp.c ****         prev->next = pcb->next;
1229:Middlewares/Third_Party/LwIP/src/core/tcp.c ****       } else {
1230:Middlewares/Third_Party/LwIP/src/core/tcp.c ****         /* This PCB was the first. */
1231:Middlewares/Third_Party/LwIP/src/core/tcp.c ****         LWIP_ASSERT("tcp_slowtmr: first pcb == tcp_tw_pcbs", tcp_tw_pcbs == pcb);
1232:Middlewares/Third_Party/LwIP/src/core/tcp.c ****         tcp_tw_pcbs = pcb->next;
1233:Middlewares/Third_Party/LwIP/src/core/tcp.c ****       }
1234:Middlewares/Third_Party/LwIP/src/core/tcp.c ****       pcb2 = pcb;
1235:Middlewares/Third_Party/LwIP/src/core/tcp.c ****       pcb = pcb->next;
1236:Middlewares/Third_Party/LwIP/src/core/tcp.c ****       memp_free(MEMP_TCP_PCB, pcb2);
1237:Middlewares/Third_Party/LwIP/src/core/tcp.c ****     } else {
1238:Middlewares/Third_Party/LwIP/src/core/tcp.c ****       prev = pcb;
1239:Middlewares/Third_Party/LwIP/src/core/tcp.c ****       pcb = pcb->next;
1240:Middlewares/Third_Party/LwIP/src/core/tcp.c ****     }
1241:Middlewares/Third_Party/LwIP/src/core/tcp.c ****   }
1242:Middlewares/Third_Party/LwIP/src/core/tcp.c **** }
1243:Middlewares/Third_Party/LwIP/src/core/tcp.c **** 
1244:Middlewares/Third_Party/LwIP/src/core/tcp.c **** /**
1245:Middlewares/Third_Party/LwIP/src/core/tcp.c ****  * Is called every TCP_FAST_INTERVAL (250 ms) and process data previously
1246:Middlewares/Third_Party/LwIP/src/core/tcp.c ****  * "refused" by upper layer (application) and sends delayed ACKs.
1247:Middlewares/Third_Party/LwIP/src/core/tcp.c ****  *
1248:Middlewares/Third_Party/LwIP/src/core/tcp.c ****  * Automatically called from tcp_tmr().
1249:Middlewares/Third_Party/LwIP/src/core/tcp.c ****  */
1250:Middlewares/Third_Party/LwIP/src/core/tcp.c **** void
1251:Middlewares/Third_Party/LwIP/src/core/tcp.c **** tcp_fasttmr(void)
1252:Middlewares/Third_Party/LwIP/src/core/tcp.c **** {
1253:Middlewares/Third_Party/LwIP/src/core/tcp.c ****   struct tcp_pcb *pcb;
1254:Middlewares/Third_Party/LwIP/src/core/tcp.c **** 
1255:Middlewares/Third_Party/LwIP/src/core/tcp.c ****   ++tcp_timer_ctr;
1256:Middlewares/Third_Party/LwIP/src/core/tcp.c **** 
1257:Middlewares/Third_Party/LwIP/src/core/tcp.c **** tcp_fasttmr_start:
1258:Middlewares/Third_Party/LwIP/src/core/tcp.c ****   pcb = tcp_active_pcbs;
1259:Middlewares/Third_Party/LwIP/src/core/tcp.c **** 
1260:Middlewares/Third_Party/LwIP/src/core/tcp.c ****   while (pcb != NULL) {
1261:Middlewares/Third_Party/LwIP/src/core/tcp.c ****     if (pcb->last_timer != tcp_timer_ctr) {
1262:Middlewares/Third_Party/LwIP/src/core/tcp.c ****       struct tcp_pcb *next;
1263:Middlewares/Third_Party/LwIP/src/core/tcp.c ****       pcb->last_timer = tcp_timer_ctr;
1264:Middlewares/Third_Party/LwIP/src/core/tcp.c ****       /* send delayed ACKs */
ARM GAS  /tmp/cc6by9MY.s 			page 49


1265:Middlewares/Third_Party/LwIP/src/core/tcp.c ****       if (pcb->flags & TF_ACK_DELAY) {
1266:Middlewares/Third_Party/LwIP/src/core/tcp.c ****         LWIP_DEBUGF(TCP_DEBUG, ("tcp_fasttmr: delayed ACK\n"));
1267:Middlewares/Third_Party/LwIP/src/core/tcp.c ****         tcp_ack_now(pcb);
1268:Middlewares/Third_Party/LwIP/src/core/tcp.c ****         tcp_output(pcb);
1269:Middlewares/Third_Party/LwIP/src/core/tcp.c ****         pcb->flags &= ~(TF_ACK_DELAY | TF_ACK_NOW);
1270:Middlewares/Third_Party/LwIP/src/core/tcp.c ****       }
1271:Middlewares/Third_Party/LwIP/src/core/tcp.c ****       /* send pending FIN */
1272:Middlewares/Third_Party/LwIP/src/core/tcp.c ****       if (pcb->flags & TF_CLOSEPEND) {
1273:Middlewares/Third_Party/LwIP/src/core/tcp.c ****         LWIP_DEBUGF(TCP_DEBUG, ("tcp_fasttmr: pending FIN\n"));
1274:Middlewares/Third_Party/LwIP/src/core/tcp.c ****         pcb->flags &= ~(TF_CLOSEPEND);
1275:Middlewares/Third_Party/LwIP/src/core/tcp.c ****         tcp_close_shutdown_fin(pcb);
1276:Middlewares/Third_Party/LwIP/src/core/tcp.c ****       }
1277:Middlewares/Third_Party/LwIP/src/core/tcp.c **** 
1278:Middlewares/Third_Party/LwIP/src/core/tcp.c ****       next = pcb->next;
1279:Middlewares/Third_Party/LwIP/src/core/tcp.c **** 
1280:Middlewares/Third_Party/LwIP/src/core/tcp.c ****       /* If there is data which was previously "refused" by upper layer */
1281:Middlewares/Third_Party/LwIP/src/core/tcp.c ****       if (pcb->refused_data != NULL) {
1282:Middlewares/Third_Party/LwIP/src/core/tcp.c ****         tcp_active_pcbs_changed = 0;
1283:Middlewares/Third_Party/LwIP/src/core/tcp.c ****         tcp_process_refused_data(pcb);
1284:Middlewares/Third_Party/LwIP/src/core/tcp.c ****         if (tcp_active_pcbs_changed) {
1285:Middlewares/Third_Party/LwIP/src/core/tcp.c ****           /* application callback has changed the pcb list: restart the loop */
1286:Middlewares/Third_Party/LwIP/src/core/tcp.c ****           goto tcp_fasttmr_start;
1287:Middlewares/Third_Party/LwIP/src/core/tcp.c ****         }
1288:Middlewares/Third_Party/LwIP/src/core/tcp.c ****       }
1289:Middlewares/Third_Party/LwIP/src/core/tcp.c ****       pcb = next;
1290:Middlewares/Third_Party/LwIP/src/core/tcp.c ****     } else {
1291:Middlewares/Third_Party/LwIP/src/core/tcp.c ****       pcb = pcb->next;
1292:Middlewares/Third_Party/LwIP/src/core/tcp.c ****     }
1293:Middlewares/Third_Party/LwIP/src/core/tcp.c ****   }
1294:Middlewares/Third_Party/LwIP/src/core/tcp.c **** }
1295:Middlewares/Third_Party/LwIP/src/core/tcp.c **** 
1296:Middlewares/Third_Party/LwIP/src/core/tcp.c **** /** Call tcp_output for all active pcbs that have TF_NAGLEMEMERR set */
1297:Middlewares/Third_Party/LwIP/src/core/tcp.c **** void
1298:Middlewares/Third_Party/LwIP/src/core/tcp.c **** tcp_txnow(void)
1299:Middlewares/Third_Party/LwIP/src/core/tcp.c **** {
 1179              		.loc 1 1299 1 is_stmt 1 view -0
 1180              		.cfi_startproc
 1181              		@ args = 0, pretend = 0, frame = 0
 1182              		@ frame_needed = 0, uses_anonymous_args = 0
 1183 0000 10B5     		push	{r4, lr}
 1184              	.LCFI10:
 1185              		.cfi_def_cfa_offset 8
 1186              		.cfi_offset 4, -8
 1187              		.cfi_offset 14, -4
1300:Middlewares/Third_Party/LwIP/src/core/tcp.c ****   struct tcp_pcb *pcb;
 1188              		.loc 1 1300 3 view .LVU337
1301:Middlewares/Third_Party/LwIP/src/core/tcp.c **** 
1302:Middlewares/Third_Party/LwIP/src/core/tcp.c ****   for (pcb = tcp_active_pcbs; pcb != NULL; pcb = pcb->next) {
 1189              		.loc 1 1302 3 view .LVU338
 1190              		.loc 1 1302 12 is_stmt 0 view .LVU339
 1191 0002 074B     		ldr	r3, .L125
 1192 0004 1C68     		ldr	r4, [r3]
 1193              	.LVL113:
 1194              		.loc 1 1302 3 view .LVU340
 1195 0006 00E0     		b	.L120
 1196              	.L121:
 1197              		.loc 1 1302 48 discriminator 2 view .LVU341
ARM GAS  /tmp/cc6by9MY.s 			page 50


 1198 0008 E468     		ldr	r4, [r4, #12]
 1199              	.LVL114:
 1200              	.L120:
 1201              		.loc 1 1302 3 discriminator 1 view .LVU342
 1202 000a 3CB1     		cbz	r4, .L124
1303:Middlewares/Third_Party/LwIP/src/core/tcp.c ****     if (pcb->flags & TF_NAGLEMEMERR) {
 1203              		.loc 1 1303 5 is_stmt 1 view .LVU343
 1204              		.loc 1 1303 9 is_stmt 0 view .LVU344
 1205 000c 94F91A30 		ldrsb	r3, [r4, #26]
 1206              		.loc 1 1303 8 view .LVU345
 1207 0010 002B     		cmp	r3, #0
 1208 0012 F9DA     		bge	.L121
1304:Middlewares/Third_Party/LwIP/src/core/tcp.c ****       tcp_output(pcb);
 1209              		.loc 1 1304 7 is_stmt 1 view .LVU346
 1210 0014 2046     		mov	r0, r4
 1211 0016 FFF7FEFF 		bl	tcp_output
 1212              	.LVL115:
 1213 001a F5E7     		b	.L121
 1214              	.L124:
1305:Middlewares/Third_Party/LwIP/src/core/tcp.c ****     }
1306:Middlewares/Third_Party/LwIP/src/core/tcp.c ****   }
1307:Middlewares/Third_Party/LwIP/src/core/tcp.c **** }
 1215              		.loc 1 1307 1 is_stmt 0 view .LVU347
 1216 001c 10BD     		pop	{r4, pc}
 1217              	.LVL116:
 1218              	.L126:
 1219              		.loc 1 1307 1 view .LVU348
 1220 001e 00BF     		.align	2
 1221              	.L125:
 1222 0020 00000000 		.word	tcp_active_pcbs
 1223              		.cfi_endproc
 1224              	.LFE180:
 1226              		.section	.text.tcp_seg_free,"ax",%progbits
 1227              		.align	1
 1228              		.global	tcp_seg_free
 1229              		.syntax unified
 1230              		.thumb
 1231              		.thumb_func
 1232              		.fpu fpv5-sp-d16
 1234              	tcp_seg_free:
 1235              	.LVL117:
 1236              	.LFB183:
1308:Middlewares/Third_Party/LwIP/src/core/tcp.c **** 
1309:Middlewares/Third_Party/LwIP/src/core/tcp.c **** /** Pass pcb->refused_data to the recv callback */
1310:Middlewares/Third_Party/LwIP/src/core/tcp.c **** err_t
1311:Middlewares/Third_Party/LwIP/src/core/tcp.c **** tcp_process_refused_data(struct tcp_pcb *pcb)
1312:Middlewares/Third_Party/LwIP/src/core/tcp.c **** {
1313:Middlewares/Third_Party/LwIP/src/core/tcp.c **** #if TCP_QUEUE_OOSEQ && LWIP_WND_SCALE
1314:Middlewares/Third_Party/LwIP/src/core/tcp.c ****   struct pbuf *rest;
1315:Middlewares/Third_Party/LwIP/src/core/tcp.c ****   while (pcb->refused_data != NULL)
1316:Middlewares/Third_Party/LwIP/src/core/tcp.c **** #endif /* TCP_QUEUE_OOSEQ && LWIP_WND_SCALE */
1317:Middlewares/Third_Party/LwIP/src/core/tcp.c ****   {
1318:Middlewares/Third_Party/LwIP/src/core/tcp.c ****     err_t err;
1319:Middlewares/Third_Party/LwIP/src/core/tcp.c ****     u8_t refused_flags = pcb->refused_data->flags;
1320:Middlewares/Third_Party/LwIP/src/core/tcp.c ****     /* set pcb->refused_data to NULL in case the callback frees it and then
1321:Middlewares/Third_Party/LwIP/src/core/tcp.c ****        closes the pcb */
1322:Middlewares/Third_Party/LwIP/src/core/tcp.c ****     struct pbuf *refused_data = pcb->refused_data;
ARM GAS  /tmp/cc6by9MY.s 			page 51


1323:Middlewares/Third_Party/LwIP/src/core/tcp.c **** #if TCP_QUEUE_OOSEQ && LWIP_WND_SCALE
1324:Middlewares/Third_Party/LwIP/src/core/tcp.c ****     pbuf_split_64k(refused_data, &rest);
1325:Middlewares/Third_Party/LwIP/src/core/tcp.c ****     pcb->refused_data = rest;
1326:Middlewares/Third_Party/LwIP/src/core/tcp.c **** #else /* TCP_QUEUE_OOSEQ && LWIP_WND_SCALE */
1327:Middlewares/Third_Party/LwIP/src/core/tcp.c ****     pcb->refused_data = NULL;
1328:Middlewares/Third_Party/LwIP/src/core/tcp.c **** #endif /* TCP_QUEUE_OOSEQ && LWIP_WND_SCALE */
1329:Middlewares/Third_Party/LwIP/src/core/tcp.c ****     /* Notify again application with data previously received. */
1330:Middlewares/Third_Party/LwIP/src/core/tcp.c ****     LWIP_DEBUGF(TCP_INPUT_DEBUG, ("tcp_input: notify kept packet\n"));
1331:Middlewares/Third_Party/LwIP/src/core/tcp.c ****     TCP_EVENT_RECV(pcb, refused_data, ERR_OK, err);
1332:Middlewares/Third_Party/LwIP/src/core/tcp.c ****     if (err == ERR_OK) {
1333:Middlewares/Third_Party/LwIP/src/core/tcp.c ****       /* did refused_data include a FIN? */
1334:Middlewares/Third_Party/LwIP/src/core/tcp.c ****       if (refused_flags & PBUF_FLAG_TCP_FIN
1335:Middlewares/Third_Party/LwIP/src/core/tcp.c **** #if TCP_QUEUE_OOSEQ && LWIP_WND_SCALE
1336:Middlewares/Third_Party/LwIP/src/core/tcp.c ****           && (rest == NULL)
1337:Middlewares/Third_Party/LwIP/src/core/tcp.c **** #endif /* TCP_QUEUE_OOSEQ && LWIP_WND_SCALE */
1338:Middlewares/Third_Party/LwIP/src/core/tcp.c ****          ) {
1339:Middlewares/Third_Party/LwIP/src/core/tcp.c ****         /* correct rcv_wnd as the application won't call tcp_recved()
1340:Middlewares/Third_Party/LwIP/src/core/tcp.c ****            for the FIN's seqno */
1341:Middlewares/Third_Party/LwIP/src/core/tcp.c ****         if (pcb->rcv_wnd != TCP_WND_MAX(pcb)) {
1342:Middlewares/Third_Party/LwIP/src/core/tcp.c ****           pcb->rcv_wnd++;
1343:Middlewares/Third_Party/LwIP/src/core/tcp.c ****         }
1344:Middlewares/Third_Party/LwIP/src/core/tcp.c ****         TCP_EVENT_CLOSED(pcb, err);
1345:Middlewares/Third_Party/LwIP/src/core/tcp.c ****         if (err == ERR_ABRT) {
1346:Middlewares/Third_Party/LwIP/src/core/tcp.c ****           return ERR_ABRT;
1347:Middlewares/Third_Party/LwIP/src/core/tcp.c ****         }
1348:Middlewares/Third_Party/LwIP/src/core/tcp.c ****       }
1349:Middlewares/Third_Party/LwIP/src/core/tcp.c ****     } else if (err == ERR_ABRT) {
1350:Middlewares/Third_Party/LwIP/src/core/tcp.c ****       /* if err == ERR_ABRT, 'pcb' is already deallocated */
1351:Middlewares/Third_Party/LwIP/src/core/tcp.c ****       /* Drop incoming packets because pcb is "full" (only if the incoming
1352:Middlewares/Third_Party/LwIP/src/core/tcp.c ****          segment contains data). */
1353:Middlewares/Third_Party/LwIP/src/core/tcp.c ****       LWIP_DEBUGF(TCP_INPUT_DEBUG, ("tcp_input: drop incoming packets, because pcb is \"full\"\n"))
1354:Middlewares/Third_Party/LwIP/src/core/tcp.c ****       return ERR_ABRT;
1355:Middlewares/Third_Party/LwIP/src/core/tcp.c ****     } else {
1356:Middlewares/Third_Party/LwIP/src/core/tcp.c ****       /* data is still refused, pbuf is still valid (go on for ACK-only packets) */
1357:Middlewares/Third_Party/LwIP/src/core/tcp.c **** #if TCP_QUEUE_OOSEQ && LWIP_WND_SCALE
1358:Middlewares/Third_Party/LwIP/src/core/tcp.c ****       if (rest != NULL) {
1359:Middlewares/Third_Party/LwIP/src/core/tcp.c ****         pbuf_cat(refused_data, rest);
1360:Middlewares/Third_Party/LwIP/src/core/tcp.c ****       }
1361:Middlewares/Third_Party/LwIP/src/core/tcp.c **** #endif /* TCP_QUEUE_OOSEQ && LWIP_WND_SCALE */
1362:Middlewares/Third_Party/LwIP/src/core/tcp.c ****       pcb->refused_data = refused_data;
1363:Middlewares/Third_Party/LwIP/src/core/tcp.c ****       return ERR_INPROGRESS;
1364:Middlewares/Third_Party/LwIP/src/core/tcp.c ****     }
1365:Middlewares/Third_Party/LwIP/src/core/tcp.c ****   }
1366:Middlewares/Third_Party/LwIP/src/core/tcp.c ****   return ERR_OK;
1367:Middlewares/Third_Party/LwIP/src/core/tcp.c **** }
1368:Middlewares/Third_Party/LwIP/src/core/tcp.c **** 
1369:Middlewares/Third_Party/LwIP/src/core/tcp.c **** /**
1370:Middlewares/Third_Party/LwIP/src/core/tcp.c ****  * Deallocates a list of TCP segments (tcp_seg structures).
1371:Middlewares/Third_Party/LwIP/src/core/tcp.c ****  *
1372:Middlewares/Third_Party/LwIP/src/core/tcp.c ****  * @param seg tcp_seg list of TCP segments to free
1373:Middlewares/Third_Party/LwIP/src/core/tcp.c ****  */
1374:Middlewares/Third_Party/LwIP/src/core/tcp.c **** void
1375:Middlewares/Third_Party/LwIP/src/core/tcp.c **** tcp_segs_free(struct tcp_seg *seg)
1376:Middlewares/Third_Party/LwIP/src/core/tcp.c **** {
1377:Middlewares/Third_Party/LwIP/src/core/tcp.c ****   while (seg != NULL) {
1378:Middlewares/Third_Party/LwIP/src/core/tcp.c ****     struct tcp_seg *next = seg->next;
1379:Middlewares/Third_Party/LwIP/src/core/tcp.c ****     tcp_seg_free(seg);
ARM GAS  /tmp/cc6by9MY.s 			page 52


1380:Middlewares/Third_Party/LwIP/src/core/tcp.c ****     seg = next;
1381:Middlewares/Third_Party/LwIP/src/core/tcp.c ****   }
1382:Middlewares/Third_Party/LwIP/src/core/tcp.c **** }
1383:Middlewares/Third_Party/LwIP/src/core/tcp.c **** 
1384:Middlewares/Third_Party/LwIP/src/core/tcp.c **** /**
1385:Middlewares/Third_Party/LwIP/src/core/tcp.c ****  * Frees a TCP segment (tcp_seg structure).
1386:Middlewares/Third_Party/LwIP/src/core/tcp.c ****  *
1387:Middlewares/Third_Party/LwIP/src/core/tcp.c ****  * @param seg single tcp_seg to free
1388:Middlewares/Third_Party/LwIP/src/core/tcp.c ****  */
1389:Middlewares/Third_Party/LwIP/src/core/tcp.c **** void
1390:Middlewares/Third_Party/LwIP/src/core/tcp.c **** tcp_seg_free(struct tcp_seg *seg)
1391:Middlewares/Third_Party/LwIP/src/core/tcp.c **** {
 1237              		.loc 1 1391 1 is_stmt 1 view -0
 1238              		.cfi_startproc
 1239              		@ args = 0, pretend = 0, frame = 0
 1240              		@ frame_needed = 0, uses_anonymous_args = 0
1392:Middlewares/Third_Party/LwIP/src/core/tcp.c ****   if (seg != NULL) {
 1241              		.loc 1 1392 3 view .LVU350
 1242              		.loc 1 1392 6 is_stmt 0 view .LVU351
 1243 0000 50B1     		cbz	r0, .L131
1391:Middlewares/Third_Party/LwIP/src/core/tcp.c ****   if (seg != NULL) {
 1244              		.loc 1 1391 1 view .LVU352
 1245 0002 10B5     		push	{r4, lr}
 1246              	.LCFI11:
 1247              		.cfi_def_cfa_offset 8
 1248              		.cfi_offset 4, -8
 1249              		.cfi_offset 14, -4
 1250 0004 0446     		mov	r4, r0
1393:Middlewares/Third_Party/LwIP/src/core/tcp.c ****     if (seg->p != NULL) {
 1251              		.loc 1 1393 5 is_stmt 1 view .LVU353
 1252              		.loc 1 1393 12 is_stmt 0 view .LVU354
 1253 0006 4068     		ldr	r0, [r0, #4]
 1254              	.LVL118:
 1255              		.loc 1 1393 8 view .LVU355
 1256 0008 08B1     		cbz	r0, .L129
1394:Middlewares/Third_Party/LwIP/src/core/tcp.c ****       pbuf_free(seg->p);
 1257              		.loc 1 1394 7 is_stmt 1 view .LVU356
 1258 000a FFF7FEFF 		bl	pbuf_free
 1259              	.LVL119:
 1260              	.L129:
1395:Middlewares/Third_Party/LwIP/src/core/tcp.c **** #if TCP_DEBUG
1396:Middlewares/Third_Party/LwIP/src/core/tcp.c ****       seg->p = NULL;
1397:Middlewares/Third_Party/LwIP/src/core/tcp.c **** #endif /* TCP_DEBUG */
1398:Middlewares/Third_Party/LwIP/src/core/tcp.c ****     }
1399:Middlewares/Third_Party/LwIP/src/core/tcp.c ****     memp_free(MEMP_TCP_SEG, seg);
 1261              		.loc 1 1399 5 view .LVU357
 1262 000e 2146     		mov	r1, r4
 1263 0010 0320     		movs	r0, #3
 1264 0012 FFF7FEFF 		bl	memp_free
 1265              	.LVL120:
1400:Middlewares/Third_Party/LwIP/src/core/tcp.c ****   }
1401:Middlewares/Third_Party/LwIP/src/core/tcp.c **** }
 1266              		.loc 1 1401 1 is_stmt 0 view .LVU358
 1267 0016 10BD     		pop	{r4, pc}
 1268              	.LVL121:
 1269              	.L131:
 1270              	.LCFI12:
ARM GAS  /tmp/cc6by9MY.s 			page 53


 1271              		.cfi_def_cfa_offset 0
 1272              		.cfi_restore 4
 1273              		.cfi_restore 14
 1274              		.loc 1 1401 1 view .LVU359
 1275 0018 7047     		bx	lr
 1276              		.cfi_endproc
 1277              	.LFE183:
 1279              		.section	.text.tcp_segs_free,"ax",%progbits
 1280              		.align	1
 1281              		.global	tcp_segs_free
 1282              		.syntax unified
 1283              		.thumb
 1284              		.thumb_func
 1285              		.fpu fpv5-sp-d16
 1287              	tcp_segs_free:
 1288              	.LVL122:
 1289              	.LFB182:
1376:Middlewares/Third_Party/LwIP/src/core/tcp.c ****   while (seg != NULL) {
 1290              		.loc 1 1376 1 is_stmt 1 view -0
 1291              		.cfi_startproc
 1292              		@ args = 0, pretend = 0, frame = 0
 1293              		@ frame_needed = 0, uses_anonymous_args = 0
1377:Middlewares/Third_Party/LwIP/src/core/tcp.c ****     struct tcp_seg *next = seg->next;
 1294              		.loc 1 1377 3 view .LVU361
1377:Middlewares/Third_Party/LwIP/src/core/tcp.c ****     struct tcp_seg *next = seg->next;
 1295              		.loc 1 1377 9 is_stmt 0 view .LVU362
 1296 0000 38B1     		cbz	r0, .L140
1376:Middlewares/Third_Party/LwIP/src/core/tcp.c ****   while (seg != NULL) {
 1297              		.loc 1 1376 1 view .LVU363
 1298 0002 10B5     		push	{r4, lr}
 1299              	.LCFI13:
 1300              		.cfi_def_cfa_offset 8
 1301              		.cfi_offset 4, -8
 1302              		.cfi_offset 14, -4
 1303              	.L136:
 1304              	.LBB5:
1378:Middlewares/Third_Party/LwIP/src/core/tcp.c ****     tcp_seg_free(seg);
 1305              		.loc 1 1378 5 is_stmt 1 view .LVU364
1378:Middlewares/Third_Party/LwIP/src/core/tcp.c ****     tcp_seg_free(seg);
 1306              		.loc 1 1378 21 is_stmt 0 view .LVU365
 1307 0004 0468     		ldr	r4, [r0]
 1308              	.LVL123:
1379:Middlewares/Third_Party/LwIP/src/core/tcp.c ****     seg = next;
 1309              		.loc 1 1379 5 is_stmt 1 view .LVU366
 1310 0006 FFF7FEFF 		bl	tcp_seg_free
 1311              	.LVL124:
1380:Middlewares/Third_Party/LwIP/src/core/tcp.c ****   }
 1312              		.loc 1 1380 5 view .LVU367
1380:Middlewares/Third_Party/LwIP/src/core/tcp.c ****   }
 1313              		.loc 1 1380 9 is_stmt 0 view .LVU368
 1314 000a 2046     		mov	r0, r4
1380:Middlewares/Third_Party/LwIP/src/core/tcp.c ****   }
 1315              		.loc 1 1380 9 view .LVU369
 1316              	.LBE5:
1377:Middlewares/Third_Party/LwIP/src/core/tcp.c ****     struct tcp_seg *next = seg->next;
 1317              		.loc 1 1377 9 view .LVU370
 1318 000c 002C     		cmp	r4, #0
ARM GAS  /tmp/cc6by9MY.s 			page 54


 1319 000e F9D1     		bne	.L136
1382:Middlewares/Third_Party/LwIP/src/core/tcp.c **** 
 1320              		.loc 1 1382 1 view .LVU371
 1321 0010 10BD     		pop	{r4, pc}
 1322              	.LVL125:
 1323              	.L140:
 1324              	.LCFI14:
 1325              		.cfi_def_cfa_offset 0
 1326              		.cfi_restore 4
 1327              		.cfi_restore 14
1382:Middlewares/Third_Party/LwIP/src/core/tcp.c **** 
 1328              		.loc 1 1382 1 view .LVU372
 1329 0012 7047     		bx	lr
 1330              		.cfi_endproc
 1331              	.LFE182:
 1333              		.section	.text.tcp_setprio,"ax",%progbits
 1334              		.align	1
 1335              		.global	tcp_setprio
 1336              		.syntax unified
 1337              		.thumb
 1338              		.thumb_func
 1339              		.fpu fpv5-sp-d16
 1341              	tcp_setprio:
 1342              	.LVL126:
 1343              	.LFB184:
1402:Middlewares/Third_Party/LwIP/src/core/tcp.c **** 
1403:Middlewares/Third_Party/LwIP/src/core/tcp.c **** /**
1404:Middlewares/Third_Party/LwIP/src/core/tcp.c ****  * Sets the priority of a connection.
1405:Middlewares/Third_Party/LwIP/src/core/tcp.c ****  *
1406:Middlewares/Third_Party/LwIP/src/core/tcp.c ****  * @param pcb the tcp_pcb to manipulate
1407:Middlewares/Third_Party/LwIP/src/core/tcp.c ****  * @param prio new priority
1408:Middlewares/Third_Party/LwIP/src/core/tcp.c ****  */
1409:Middlewares/Third_Party/LwIP/src/core/tcp.c **** void
1410:Middlewares/Third_Party/LwIP/src/core/tcp.c **** tcp_setprio(struct tcp_pcb *pcb, u8_t prio)
1411:Middlewares/Third_Party/LwIP/src/core/tcp.c **** {
 1344              		.loc 1 1411 1 is_stmt 1 view -0
 1345              		.cfi_startproc
 1346              		@ args = 0, pretend = 0, frame = 0
 1347              		@ frame_needed = 0, uses_anonymous_args = 0
 1348              		@ link register save eliminated.
1412:Middlewares/Third_Party/LwIP/src/core/tcp.c ****   pcb->prio = prio;
 1349              		.loc 1 1412 3 view .LVU374
 1350              		.loc 1 1412 13 is_stmt 0 view .LVU375
 1351 0000 4175     		strb	r1, [r0, #21]
1413:Middlewares/Third_Party/LwIP/src/core/tcp.c **** }
 1352              		.loc 1 1413 1 view .LVU376
 1353 0002 7047     		bx	lr
 1354              		.cfi_endproc
 1355              	.LFE184:
 1357              		.section	.text.tcp_seg_copy,"ax",%progbits
 1358              		.align	1
 1359              		.global	tcp_seg_copy
 1360              		.syntax unified
 1361              		.thumb
 1362              		.thumb_func
 1363              		.fpu fpv5-sp-d16
 1365              	tcp_seg_copy:
ARM GAS  /tmp/cc6by9MY.s 			page 55


 1366              	.LVL127:
 1367              	.LFB185:
1414:Middlewares/Third_Party/LwIP/src/core/tcp.c **** 
1415:Middlewares/Third_Party/LwIP/src/core/tcp.c **** #if TCP_QUEUE_OOSEQ
1416:Middlewares/Third_Party/LwIP/src/core/tcp.c **** /**
1417:Middlewares/Third_Party/LwIP/src/core/tcp.c ****  * Returns a copy of the given TCP segment.
1418:Middlewares/Third_Party/LwIP/src/core/tcp.c ****  * The pbuf and data are not copied, only the pointers
1419:Middlewares/Third_Party/LwIP/src/core/tcp.c ****  *
1420:Middlewares/Third_Party/LwIP/src/core/tcp.c ****  * @param seg the old tcp_seg
1421:Middlewares/Third_Party/LwIP/src/core/tcp.c ****  * @return a copy of seg
1422:Middlewares/Third_Party/LwIP/src/core/tcp.c ****  */
1423:Middlewares/Third_Party/LwIP/src/core/tcp.c **** struct tcp_seg *
1424:Middlewares/Third_Party/LwIP/src/core/tcp.c **** tcp_seg_copy(struct tcp_seg *seg)
1425:Middlewares/Third_Party/LwIP/src/core/tcp.c **** {
 1368              		.loc 1 1425 1 is_stmt 1 view -0
 1369              		.cfi_startproc
 1370              		@ args = 0, pretend = 0, frame = 0
 1371              		@ frame_needed = 0, uses_anonymous_args = 0
 1372              		.loc 1 1425 1 is_stmt 0 view .LVU378
 1373 0000 38B5     		push	{r3, r4, r5, lr}
 1374              	.LCFI15:
 1375              		.cfi_def_cfa_offset 16
 1376              		.cfi_offset 3, -16
 1377              		.cfi_offset 4, -12
 1378              		.cfi_offset 5, -8
 1379              		.cfi_offset 14, -4
 1380 0002 0546     		mov	r5, r0
1426:Middlewares/Third_Party/LwIP/src/core/tcp.c ****   struct tcp_seg *cseg;
 1381              		.loc 1 1426 3 is_stmt 1 view .LVU379
1427:Middlewares/Third_Party/LwIP/src/core/tcp.c **** 
1428:Middlewares/Third_Party/LwIP/src/core/tcp.c ****   cseg = (struct tcp_seg *)memp_malloc(MEMP_TCP_SEG);
 1382              		.loc 1 1428 3 view .LVU380
 1383              		.loc 1 1428 28 is_stmt 0 view .LVU381
 1384 0004 0320     		movs	r0, #3
 1385              	.LVL128:
 1386              		.loc 1 1428 28 view .LVU382
 1387 0006 FFF7FEFF 		bl	memp_malloc
 1388              	.LVL129:
1429:Middlewares/Third_Party/LwIP/src/core/tcp.c ****   if (cseg == NULL) {
 1389              		.loc 1 1429 3 is_stmt 1 view .LVU383
 1390              		.loc 1 1429 6 is_stmt 0 view .LVU384
 1391 000a 0446     		mov	r4, r0
 1392 000c 50B1     		cbz	r0, .L142
1430:Middlewares/Third_Party/LwIP/src/core/tcp.c ****     return NULL;
1431:Middlewares/Third_Party/LwIP/src/core/tcp.c ****   }
1432:Middlewares/Third_Party/LwIP/src/core/tcp.c ****   SMEMCPY((u8_t *)cseg, (const u8_t *)seg, sizeof(struct tcp_seg));
 1393              		.loc 1 1432 3 is_stmt 1 view .LVU385
 1394 000e 2868     		ldr	r0, [r5]	@ unaligned
 1395              	.LVL130:
 1396              		.loc 1 1432 3 is_stmt 0 view .LVU386
 1397 0010 6968     		ldr	r1, [r5, #4]	@ unaligned
 1398 0012 AA68     		ldr	r2, [r5, #8]	@ unaligned
 1399 0014 EB68     		ldr	r3, [r5, #12]	@ unaligned
 1400 0016 2060     		str	r0, [r4]	@ unaligned
 1401 0018 6160     		str	r1, [r4, #4]	@ unaligned
 1402 001a A260     		str	r2, [r4, #8]	@ unaligned
 1403 001c E360     		str	r3, [r4, #12]	@ unaligned
ARM GAS  /tmp/cc6by9MY.s 			page 56


1433:Middlewares/Third_Party/LwIP/src/core/tcp.c ****   pbuf_ref(cseg->p);
 1404              		.loc 1 1433 3 is_stmt 1 view .LVU387
 1405 001e 6068     		ldr	r0, [r4, #4]
 1406 0020 FFF7FEFF 		bl	pbuf_ref
 1407              	.LVL131:
1434:Middlewares/Third_Party/LwIP/src/core/tcp.c ****   return cseg;
 1408              		.loc 1 1434 3 view .LVU388
 1409              	.L142:
1435:Middlewares/Third_Party/LwIP/src/core/tcp.c **** }
 1410              		.loc 1 1435 1 is_stmt 0 view .LVU389
 1411 0024 2046     		mov	r0, r4
 1412 0026 38BD     		pop	{r3, r4, r5, pc}
 1413              		.loc 1 1435 1 view .LVU390
 1414              		.cfi_endproc
 1415              	.LFE185:
 1417              		.section	.text.tcp_arg,"ax",%progbits
 1418              		.align	1
 1419              		.global	tcp_arg
 1420              		.syntax unified
 1421              		.thumb
 1422              		.thumb_func
 1423              		.fpu fpv5-sp-d16
 1425              	tcp_arg:
 1426              	.LVL132:
 1427              	.LFB193:
1436:Middlewares/Third_Party/LwIP/src/core/tcp.c **** #endif /* TCP_QUEUE_OOSEQ */
1437:Middlewares/Third_Party/LwIP/src/core/tcp.c **** 
1438:Middlewares/Third_Party/LwIP/src/core/tcp.c **** #if LWIP_CALLBACK_API
1439:Middlewares/Third_Party/LwIP/src/core/tcp.c **** /**
1440:Middlewares/Third_Party/LwIP/src/core/tcp.c ****  * Default receive callback that is called if the user didn't register
1441:Middlewares/Third_Party/LwIP/src/core/tcp.c ****  * a recv callback for the pcb.
1442:Middlewares/Third_Party/LwIP/src/core/tcp.c ****  */
1443:Middlewares/Third_Party/LwIP/src/core/tcp.c **** err_t
1444:Middlewares/Third_Party/LwIP/src/core/tcp.c **** tcp_recv_null(void *arg, struct tcp_pcb *pcb, struct pbuf *p, err_t err)
1445:Middlewares/Third_Party/LwIP/src/core/tcp.c **** {
1446:Middlewares/Third_Party/LwIP/src/core/tcp.c ****   LWIP_UNUSED_ARG(arg);
1447:Middlewares/Third_Party/LwIP/src/core/tcp.c ****   if (p != NULL) {
1448:Middlewares/Third_Party/LwIP/src/core/tcp.c ****     tcp_recved(pcb, p->tot_len);
1449:Middlewares/Third_Party/LwIP/src/core/tcp.c ****     pbuf_free(p);
1450:Middlewares/Third_Party/LwIP/src/core/tcp.c ****   } else if (err == ERR_OK) {
1451:Middlewares/Third_Party/LwIP/src/core/tcp.c ****     return tcp_close(pcb);
1452:Middlewares/Third_Party/LwIP/src/core/tcp.c ****   }
1453:Middlewares/Third_Party/LwIP/src/core/tcp.c ****   return ERR_OK;
1454:Middlewares/Third_Party/LwIP/src/core/tcp.c **** }
1455:Middlewares/Third_Party/LwIP/src/core/tcp.c **** #endif /* LWIP_CALLBACK_API */
1456:Middlewares/Third_Party/LwIP/src/core/tcp.c **** 
1457:Middlewares/Third_Party/LwIP/src/core/tcp.c **** /**
1458:Middlewares/Third_Party/LwIP/src/core/tcp.c ****  * Kills the oldest active connection that has the same or lower priority than
1459:Middlewares/Third_Party/LwIP/src/core/tcp.c ****  * 'prio'.
1460:Middlewares/Third_Party/LwIP/src/core/tcp.c ****  *
1461:Middlewares/Third_Party/LwIP/src/core/tcp.c ****  * @param prio minimum priority
1462:Middlewares/Third_Party/LwIP/src/core/tcp.c ****  */
1463:Middlewares/Third_Party/LwIP/src/core/tcp.c **** static void
1464:Middlewares/Third_Party/LwIP/src/core/tcp.c **** tcp_kill_prio(u8_t prio)
1465:Middlewares/Third_Party/LwIP/src/core/tcp.c **** {
1466:Middlewares/Third_Party/LwIP/src/core/tcp.c ****   struct tcp_pcb *pcb, *inactive;
1467:Middlewares/Third_Party/LwIP/src/core/tcp.c ****   u32_t inactivity;
ARM GAS  /tmp/cc6by9MY.s 			page 57


1468:Middlewares/Third_Party/LwIP/src/core/tcp.c ****   u8_t mprio;
1469:Middlewares/Third_Party/LwIP/src/core/tcp.c **** 
1470:Middlewares/Third_Party/LwIP/src/core/tcp.c ****   mprio = LWIP_MIN(TCP_PRIO_MAX, prio);
1471:Middlewares/Third_Party/LwIP/src/core/tcp.c **** 
1472:Middlewares/Third_Party/LwIP/src/core/tcp.c ****   /* We kill the oldest active connection that has lower priority than prio. */
1473:Middlewares/Third_Party/LwIP/src/core/tcp.c ****   inactivity = 0;
1474:Middlewares/Third_Party/LwIP/src/core/tcp.c ****   inactive = NULL;
1475:Middlewares/Third_Party/LwIP/src/core/tcp.c ****   for (pcb = tcp_active_pcbs; pcb != NULL; pcb = pcb->next) {
1476:Middlewares/Third_Party/LwIP/src/core/tcp.c ****     if (pcb->prio <= mprio &&
1477:Middlewares/Third_Party/LwIP/src/core/tcp.c ****        (u32_t)(tcp_ticks - pcb->tmr) >= inactivity) {
1478:Middlewares/Third_Party/LwIP/src/core/tcp.c ****       inactivity = tcp_ticks - pcb->tmr;
1479:Middlewares/Third_Party/LwIP/src/core/tcp.c ****       inactive = pcb;
1480:Middlewares/Third_Party/LwIP/src/core/tcp.c ****       mprio = pcb->prio;
1481:Middlewares/Third_Party/LwIP/src/core/tcp.c ****     }
1482:Middlewares/Third_Party/LwIP/src/core/tcp.c ****   }
1483:Middlewares/Third_Party/LwIP/src/core/tcp.c ****   if (inactive != NULL) {
1484:Middlewares/Third_Party/LwIP/src/core/tcp.c ****     LWIP_DEBUGF(TCP_DEBUG, ("tcp_kill_prio: killing oldest PCB %p (%"S32_F")\n",
1485:Middlewares/Third_Party/LwIP/src/core/tcp.c ****            (void *)inactive, inactivity));
1486:Middlewares/Third_Party/LwIP/src/core/tcp.c ****     tcp_abort(inactive);
1487:Middlewares/Third_Party/LwIP/src/core/tcp.c ****   }
1488:Middlewares/Third_Party/LwIP/src/core/tcp.c **** }
1489:Middlewares/Third_Party/LwIP/src/core/tcp.c **** 
1490:Middlewares/Third_Party/LwIP/src/core/tcp.c **** /**
1491:Middlewares/Third_Party/LwIP/src/core/tcp.c ****  * Kills the oldest connection that is in specific state.
1492:Middlewares/Third_Party/LwIP/src/core/tcp.c ****  * Called from tcp_alloc() for LAST_ACK and CLOSING if no more connections are available.
1493:Middlewares/Third_Party/LwIP/src/core/tcp.c ****  */
1494:Middlewares/Third_Party/LwIP/src/core/tcp.c **** static void
1495:Middlewares/Third_Party/LwIP/src/core/tcp.c **** tcp_kill_state(enum tcp_state state)
1496:Middlewares/Third_Party/LwIP/src/core/tcp.c **** {
1497:Middlewares/Third_Party/LwIP/src/core/tcp.c ****   struct tcp_pcb *pcb, *inactive;
1498:Middlewares/Third_Party/LwIP/src/core/tcp.c ****   u32_t inactivity;
1499:Middlewares/Third_Party/LwIP/src/core/tcp.c **** 
1500:Middlewares/Third_Party/LwIP/src/core/tcp.c ****   LWIP_ASSERT("invalid state", (state == CLOSING) || (state == LAST_ACK));
1501:Middlewares/Third_Party/LwIP/src/core/tcp.c **** 
1502:Middlewares/Third_Party/LwIP/src/core/tcp.c ****   inactivity = 0;
1503:Middlewares/Third_Party/LwIP/src/core/tcp.c ****   inactive = NULL;
1504:Middlewares/Third_Party/LwIP/src/core/tcp.c ****   /* Go through the list of active pcbs and get the oldest pcb that is in state
1505:Middlewares/Third_Party/LwIP/src/core/tcp.c ****      CLOSING/LAST_ACK. */
1506:Middlewares/Third_Party/LwIP/src/core/tcp.c ****   for (pcb = tcp_active_pcbs; pcb != NULL; pcb = pcb->next) {
1507:Middlewares/Third_Party/LwIP/src/core/tcp.c ****     if (pcb->state == state) {
1508:Middlewares/Third_Party/LwIP/src/core/tcp.c ****       if ((u32_t)(tcp_ticks - pcb->tmr) >= inactivity) {
1509:Middlewares/Third_Party/LwIP/src/core/tcp.c ****         inactivity = tcp_ticks - pcb->tmr;
1510:Middlewares/Third_Party/LwIP/src/core/tcp.c ****         inactive = pcb;
1511:Middlewares/Third_Party/LwIP/src/core/tcp.c ****       }
1512:Middlewares/Third_Party/LwIP/src/core/tcp.c ****     }
1513:Middlewares/Third_Party/LwIP/src/core/tcp.c ****   }
1514:Middlewares/Third_Party/LwIP/src/core/tcp.c ****   if (inactive != NULL) {
1515:Middlewares/Third_Party/LwIP/src/core/tcp.c ****     LWIP_DEBUGF(TCP_DEBUG, ("tcp_kill_closing: killing oldest %s PCB %p (%"S32_F")\n",
1516:Middlewares/Third_Party/LwIP/src/core/tcp.c ****            tcp_state_str[state], (void *)inactive, inactivity));
1517:Middlewares/Third_Party/LwIP/src/core/tcp.c ****     /* Don't send a RST, since no data is lost. */
1518:Middlewares/Third_Party/LwIP/src/core/tcp.c ****     tcp_abandon(inactive, 0);
1519:Middlewares/Third_Party/LwIP/src/core/tcp.c ****   }
1520:Middlewares/Third_Party/LwIP/src/core/tcp.c **** }
1521:Middlewares/Third_Party/LwIP/src/core/tcp.c **** 
1522:Middlewares/Third_Party/LwIP/src/core/tcp.c **** /**
1523:Middlewares/Third_Party/LwIP/src/core/tcp.c ****  * Kills the oldest connection that is in TIME_WAIT state.
1524:Middlewares/Third_Party/LwIP/src/core/tcp.c ****  * Called from tcp_alloc() if no more connections are available.
ARM GAS  /tmp/cc6by9MY.s 			page 58


1525:Middlewares/Third_Party/LwIP/src/core/tcp.c ****  */
1526:Middlewares/Third_Party/LwIP/src/core/tcp.c **** static void
1527:Middlewares/Third_Party/LwIP/src/core/tcp.c **** tcp_kill_timewait(void)
1528:Middlewares/Third_Party/LwIP/src/core/tcp.c **** {
1529:Middlewares/Third_Party/LwIP/src/core/tcp.c ****   struct tcp_pcb *pcb, *inactive;
1530:Middlewares/Third_Party/LwIP/src/core/tcp.c ****   u32_t inactivity;
1531:Middlewares/Third_Party/LwIP/src/core/tcp.c **** 
1532:Middlewares/Third_Party/LwIP/src/core/tcp.c ****   inactivity = 0;
1533:Middlewares/Third_Party/LwIP/src/core/tcp.c ****   inactive = NULL;
1534:Middlewares/Third_Party/LwIP/src/core/tcp.c ****   /* Go through the list of TIME_WAIT pcbs and get the oldest pcb. */
1535:Middlewares/Third_Party/LwIP/src/core/tcp.c ****   for (pcb = tcp_tw_pcbs; pcb != NULL; pcb = pcb->next) {
1536:Middlewares/Third_Party/LwIP/src/core/tcp.c ****     if ((u32_t)(tcp_ticks - pcb->tmr) >= inactivity) {
1537:Middlewares/Third_Party/LwIP/src/core/tcp.c ****       inactivity = tcp_ticks - pcb->tmr;
1538:Middlewares/Third_Party/LwIP/src/core/tcp.c ****       inactive = pcb;
1539:Middlewares/Third_Party/LwIP/src/core/tcp.c ****     }
1540:Middlewares/Third_Party/LwIP/src/core/tcp.c ****   }
1541:Middlewares/Third_Party/LwIP/src/core/tcp.c ****   if (inactive != NULL) {
1542:Middlewares/Third_Party/LwIP/src/core/tcp.c ****     LWIP_DEBUGF(TCP_DEBUG, ("tcp_kill_timewait: killing oldest TIME-WAIT PCB %p (%"S32_F")\n",
1543:Middlewares/Third_Party/LwIP/src/core/tcp.c ****            (void *)inactive, inactivity));
1544:Middlewares/Third_Party/LwIP/src/core/tcp.c ****     tcp_abort(inactive);
1545:Middlewares/Third_Party/LwIP/src/core/tcp.c ****   }
1546:Middlewares/Third_Party/LwIP/src/core/tcp.c **** }
1547:Middlewares/Third_Party/LwIP/src/core/tcp.c **** 
1548:Middlewares/Third_Party/LwIP/src/core/tcp.c **** /**
1549:Middlewares/Third_Party/LwIP/src/core/tcp.c ****  * Allocate a new tcp_pcb structure.
1550:Middlewares/Third_Party/LwIP/src/core/tcp.c ****  *
1551:Middlewares/Third_Party/LwIP/src/core/tcp.c ****  * @param prio priority for the new pcb
1552:Middlewares/Third_Party/LwIP/src/core/tcp.c ****  * @return a new tcp_pcb that initially is in state CLOSED
1553:Middlewares/Third_Party/LwIP/src/core/tcp.c ****  */
1554:Middlewares/Third_Party/LwIP/src/core/tcp.c **** struct tcp_pcb *
1555:Middlewares/Third_Party/LwIP/src/core/tcp.c **** tcp_alloc(u8_t prio)
1556:Middlewares/Third_Party/LwIP/src/core/tcp.c **** {
1557:Middlewares/Third_Party/LwIP/src/core/tcp.c ****   struct tcp_pcb *pcb;
1558:Middlewares/Third_Party/LwIP/src/core/tcp.c **** 
1559:Middlewares/Third_Party/LwIP/src/core/tcp.c ****   pcb = (struct tcp_pcb *)memp_malloc(MEMP_TCP_PCB);
1560:Middlewares/Third_Party/LwIP/src/core/tcp.c ****   if (pcb == NULL) {
1561:Middlewares/Third_Party/LwIP/src/core/tcp.c ****     /* Try killing oldest connection in TIME-WAIT. */
1562:Middlewares/Third_Party/LwIP/src/core/tcp.c ****     LWIP_DEBUGF(TCP_DEBUG, ("tcp_alloc: killing off oldest TIME-WAIT connection\n"));
1563:Middlewares/Third_Party/LwIP/src/core/tcp.c ****     tcp_kill_timewait();
1564:Middlewares/Third_Party/LwIP/src/core/tcp.c ****     /* Try to allocate a tcp_pcb again. */
1565:Middlewares/Third_Party/LwIP/src/core/tcp.c ****     pcb = (struct tcp_pcb *)memp_malloc(MEMP_TCP_PCB);
1566:Middlewares/Third_Party/LwIP/src/core/tcp.c ****     if (pcb == NULL) {
1567:Middlewares/Third_Party/LwIP/src/core/tcp.c ****       /* Try killing oldest connection in LAST-ACK (these wouldn't go to TIME-WAIT). */
1568:Middlewares/Third_Party/LwIP/src/core/tcp.c ****       LWIP_DEBUGF(TCP_DEBUG, ("tcp_alloc: killing off oldest LAST-ACK connection\n"));
1569:Middlewares/Third_Party/LwIP/src/core/tcp.c ****       tcp_kill_state(LAST_ACK);
1570:Middlewares/Third_Party/LwIP/src/core/tcp.c ****       /* Try to allocate a tcp_pcb again. */
1571:Middlewares/Third_Party/LwIP/src/core/tcp.c ****       pcb = (struct tcp_pcb *)memp_malloc(MEMP_TCP_PCB);
1572:Middlewares/Third_Party/LwIP/src/core/tcp.c ****       if (pcb == NULL) {
1573:Middlewares/Third_Party/LwIP/src/core/tcp.c ****         /* Try killing oldest connection in CLOSING. */
1574:Middlewares/Third_Party/LwIP/src/core/tcp.c ****         LWIP_DEBUGF(TCP_DEBUG, ("tcp_alloc: killing off oldest CLOSING connection\n"));
1575:Middlewares/Third_Party/LwIP/src/core/tcp.c ****         tcp_kill_state(CLOSING);
1576:Middlewares/Third_Party/LwIP/src/core/tcp.c ****         /* Try to allocate a tcp_pcb again. */
1577:Middlewares/Third_Party/LwIP/src/core/tcp.c ****         pcb = (struct tcp_pcb *)memp_malloc(MEMP_TCP_PCB);
1578:Middlewares/Third_Party/LwIP/src/core/tcp.c ****         if (pcb == NULL) {
1579:Middlewares/Third_Party/LwIP/src/core/tcp.c ****           /* Try killing active connections with lower priority than the new one. */
1580:Middlewares/Third_Party/LwIP/src/core/tcp.c ****           LWIP_DEBUGF(TCP_DEBUG, ("tcp_alloc: killing connection with prio lower than %d\n", prio))
1581:Middlewares/Third_Party/LwIP/src/core/tcp.c ****           tcp_kill_prio(prio);
ARM GAS  /tmp/cc6by9MY.s 			page 59


1582:Middlewares/Third_Party/LwIP/src/core/tcp.c ****           /* Try to allocate a tcp_pcb again. */
1583:Middlewares/Third_Party/LwIP/src/core/tcp.c ****           pcb = (struct tcp_pcb *)memp_malloc(MEMP_TCP_PCB);
1584:Middlewares/Third_Party/LwIP/src/core/tcp.c ****           if (pcb != NULL) {
1585:Middlewares/Third_Party/LwIP/src/core/tcp.c ****             /* adjust err stats: memp_malloc failed multiple times before */
1586:Middlewares/Third_Party/LwIP/src/core/tcp.c ****             MEMP_STATS_DEC(err, MEMP_TCP_PCB);
1587:Middlewares/Third_Party/LwIP/src/core/tcp.c ****           }
1588:Middlewares/Third_Party/LwIP/src/core/tcp.c ****         }
1589:Middlewares/Third_Party/LwIP/src/core/tcp.c ****         if (pcb != NULL) {
1590:Middlewares/Third_Party/LwIP/src/core/tcp.c ****           /* adjust err stats: memp_malloc failed multiple times before */
1591:Middlewares/Third_Party/LwIP/src/core/tcp.c ****           MEMP_STATS_DEC(err, MEMP_TCP_PCB);
1592:Middlewares/Third_Party/LwIP/src/core/tcp.c ****         }
1593:Middlewares/Third_Party/LwIP/src/core/tcp.c ****       }
1594:Middlewares/Third_Party/LwIP/src/core/tcp.c ****       if (pcb != NULL) {
1595:Middlewares/Third_Party/LwIP/src/core/tcp.c ****         /* adjust err stats: memp_malloc failed multiple times before */
1596:Middlewares/Third_Party/LwIP/src/core/tcp.c ****         MEMP_STATS_DEC(err, MEMP_TCP_PCB);
1597:Middlewares/Third_Party/LwIP/src/core/tcp.c ****       }
1598:Middlewares/Third_Party/LwIP/src/core/tcp.c ****     }
1599:Middlewares/Third_Party/LwIP/src/core/tcp.c ****     if (pcb != NULL) {
1600:Middlewares/Third_Party/LwIP/src/core/tcp.c ****       /* adjust err stats: memp_malloc failed above */
1601:Middlewares/Third_Party/LwIP/src/core/tcp.c ****       MEMP_STATS_DEC(err, MEMP_TCP_PCB);
1602:Middlewares/Third_Party/LwIP/src/core/tcp.c ****     }
1603:Middlewares/Third_Party/LwIP/src/core/tcp.c ****   }
1604:Middlewares/Third_Party/LwIP/src/core/tcp.c ****   if (pcb != NULL) {
1605:Middlewares/Third_Party/LwIP/src/core/tcp.c ****     /* zero out the whole pcb, so there is no need to initialize members to zero */
1606:Middlewares/Third_Party/LwIP/src/core/tcp.c ****     memset(pcb, 0, sizeof(struct tcp_pcb));
1607:Middlewares/Third_Party/LwIP/src/core/tcp.c ****     pcb->prio = prio;
1608:Middlewares/Third_Party/LwIP/src/core/tcp.c ****     pcb->snd_buf = TCP_SND_BUF;
1609:Middlewares/Third_Party/LwIP/src/core/tcp.c ****     /* Start with a window that does not need scaling. When window scaling is
1610:Middlewares/Third_Party/LwIP/src/core/tcp.c ****        enabled and used, the window is enlarged when both sides agree on scaling. */
1611:Middlewares/Third_Party/LwIP/src/core/tcp.c ****     pcb->rcv_wnd = pcb->rcv_ann_wnd = TCPWND_MIN16(TCP_WND);
1612:Middlewares/Third_Party/LwIP/src/core/tcp.c ****     pcb->ttl = TCP_TTL;
1613:Middlewares/Third_Party/LwIP/src/core/tcp.c ****     /* As initial send MSS, we use TCP_MSS but limit it to 536.
1614:Middlewares/Third_Party/LwIP/src/core/tcp.c ****        The send MSS is updated when an MSS option is received. */
1615:Middlewares/Third_Party/LwIP/src/core/tcp.c ****     pcb->mss = INITIAL_MSS;
1616:Middlewares/Third_Party/LwIP/src/core/tcp.c ****     pcb->rto = 3000 / TCP_SLOW_INTERVAL;
1617:Middlewares/Third_Party/LwIP/src/core/tcp.c ****     pcb->sv = 3000 / TCP_SLOW_INTERVAL;
1618:Middlewares/Third_Party/LwIP/src/core/tcp.c ****     pcb->rtime = -1;
1619:Middlewares/Third_Party/LwIP/src/core/tcp.c ****     pcb->cwnd = 1;
1620:Middlewares/Third_Party/LwIP/src/core/tcp.c ****     pcb->tmr = tcp_ticks;
1621:Middlewares/Third_Party/LwIP/src/core/tcp.c ****     pcb->last_timer = tcp_timer_ctr;
1622:Middlewares/Third_Party/LwIP/src/core/tcp.c **** 
1623:Middlewares/Third_Party/LwIP/src/core/tcp.c ****     /* RFC 5681 recommends setting ssthresh abritrarily high and gives an example
1624:Middlewares/Third_Party/LwIP/src/core/tcp.c ****     of using the largest advertised receive window.  We've seen complications with
1625:Middlewares/Third_Party/LwIP/src/core/tcp.c ****     receiving TCPs that use window scaling and/or window auto-tuning where the
1626:Middlewares/Third_Party/LwIP/src/core/tcp.c ****     initial advertised window is very small and then grows rapidly once the
1627:Middlewares/Third_Party/LwIP/src/core/tcp.c ****     connection is established. To avoid these complications, we set ssthresh to the
1628:Middlewares/Third_Party/LwIP/src/core/tcp.c ****     largest effective cwnd (amount of in-flight data) that the sender can have. */
1629:Middlewares/Third_Party/LwIP/src/core/tcp.c ****     pcb->ssthresh = TCP_SND_BUF;
1630:Middlewares/Third_Party/LwIP/src/core/tcp.c **** 
1631:Middlewares/Third_Party/LwIP/src/core/tcp.c **** #if LWIP_CALLBACK_API
1632:Middlewares/Third_Party/LwIP/src/core/tcp.c ****     pcb->recv = tcp_recv_null;
1633:Middlewares/Third_Party/LwIP/src/core/tcp.c **** #endif /* LWIP_CALLBACK_API */
1634:Middlewares/Third_Party/LwIP/src/core/tcp.c **** 
1635:Middlewares/Third_Party/LwIP/src/core/tcp.c ****     /* Init KEEPALIVE timer */
1636:Middlewares/Third_Party/LwIP/src/core/tcp.c ****     pcb->keep_idle  = TCP_KEEPIDLE_DEFAULT;
1637:Middlewares/Third_Party/LwIP/src/core/tcp.c **** 
1638:Middlewares/Third_Party/LwIP/src/core/tcp.c **** #if LWIP_TCP_KEEPALIVE
ARM GAS  /tmp/cc6by9MY.s 			page 60


1639:Middlewares/Third_Party/LwIP/src/core/tcp.c ****     pcb->keep_intvl = TCP_KEEPINTVL_DEFAULT;
1640:Middlewares/Third_Party/LwIP/src/core/tcp.c ****     pcb->keep_cnt   = TCP_KEEPCNT_DEFAULT;
1641:Middlewares/Third_Party/LwIP/src/core/tcp.c **** #endif /* LWIP_TCP_KEEPALIVE */
1642:Middlewares/Third_Party/LwIP/src/core/tcp.c ****   }
1643:Middlewares/Third_Party/LwIP/src/core/tcp.c ****   return pcb;
1644:Middlewares/Third_Party/LwIP/src/core/tcp.c **** }
1645:Middlewares/Third_Party/LwIP/src/core/tcp.c **** 
1646:Middlewares/Third_Party/LwIP/src/core/tcp.c **** /**
1647:Middlewares/Third_Party/LwIP/src/core/tcp.c ****  * @ingroup tcp_raw
1648:Middlewares/Third_Party/LwIP/src/core/tcp.c ****  * Creates a new TCP protocol control block but doesn't place it on
1649:Middlewares/Third_Party/LwIP/src/core/tcp.c ****  * any of the TCP PCB lists.
1650:Middlewares/Third_Party/LwIP/src/core/tcp.c ****  * The pcb is not put on any list until binding using tcp_bind().
1651:Middlewares/Third_Party/LwIP/src/core/tcp.c ****  *
1652:Middlewares/Third_Party/LwIP/src/core/tcp.c ****  * @internal: Maybe there should be a idle TCP PCB list where these
1653:Middlewares/Third_Party/LwIP/src/core/tcp.c ****  * PCBs are put on. Port reservation using tcp_bind() is implemented but
1654:Middlewares/Third_Party/LwIP/src/core/tcp.c ****  * allocated pcbs that are not bound can't be killed automatically if wanting
1655:Middlewares/Third_Party/LwIP/src/core/tcp.c ****  * to allocate a pcb with higher prio (@see tcp_kill_prio())
1656:Middlewares/Third_Party/LwIP/src/core/tcp.c ****  *
1657:Middlewares/Third_Party/LwIP/src/core/tcp.c ****  * @return a new tcp_pcb that initially is in state CLOSED
1658:Middlewares/Third_Party/LwIP/src/core/tcp.c ****  */
1659:Middlewares/Third_Party/LwIP/src/core/tcp.c **** struct tcp_pcb *
1660:Middlewares/Third_Party/LwIP/src/core/tcp.c **** tcp_new(void)
1661:Middlewares/Third_Party/LwIP/src/core/tcp.c **** {
1662:Middlewares/Third_Party/LwIP/src/core/tcp.c ****   return tcp_alloc(TCP_PRIO_NORMAL);
1663:Middlewares/Third_Party/LwIP/src/core/tcp.c **** }
1664:Middlewares/Third_Party/LwIP/src/core/tcp.c **** 
1665:Middlewares/Third_Party/LwIP/src/core/tcp.c **** /**
1666:Middlewares/Third_Party/LwIP/src/core/tcp.c ****  * @ingroup tcp_raw
1667:Middlewares/Third_Party/LwIP/src/core/tcp.c ****  * Creates a new TCP protocol control block but doesn't
1668:Middlewares/Third_Party/LwIP/src/core/tcp.c ****  * place it on any of the TCP PCB lists.
1669:Middlewares/Third_Party/LwIP/src/core/tcp.c ****  * The pcb is not put on any list until binding using tcp_bind().
1670:Middlewares/Third_Party/LwIP/src/core/tcp.c ****  *
1671:Middlewares/Third_Party/LwIP/src/core/tcp.c ****  * @param type IP address type, see @ref lwip_ip_addr_type definitions.
1672:Middlewares/Third_Party/LwIP/src/core/tcp.c ****  * If you want to listen to IPv4 and IPv6 (dual-stack) connections,
1673:Middlewares/Third_Party/LwIP/src/core/tcp.c ****  * supply @ref IPADDR_TYPE_ANY as argument and bind to @ref IP_ANY_TYPE.
1674:Middlewares/Third_Party/LwIP/src/core/tcp.c ****  * @return a new tcp_pcb that initially is in state CLOSED
1675:Middlewares/Third_Party/LwIP/src/core/tcp.c ****  */
1676:Middlewares/Third_Party/LwIP/src/core/tcp.c **** struct tcp_pcb *
1677:Middlewares/Third_Party/LwIP/src/core/tcp.c **** tcp_new_ip_type(u8_t type)
1678:Middlewares/Third_Party/LwIP/src/core/tcp.c **** {
1679:Middlewares/Third_Party/LwIP/src/core/tcp.c ****   struct tcp_pcb * pcb;
1680:Middlewares/Third_Party/LwIP/src/core/tcp.c ****   pcb = tcp_alloc(TCP_PRIO_NORMAL);
1681:Middlewares/Third_Party/LwIP/src/core/tcp.c **** #if LWIP_IPV4 && LWIP_IPV6
1682:Middlewares/Third_Party/LwIP/src/core/tcp.c ****   if (pcb != NULL) {
1683:Middlewares/Third_Party/LwIP/src/core/tcp.c ****     IP_SET_TYPE_VAL(pcb->local_ip, type);
1684:Middlewares/Third_Party/LwIP/src/core/tcp.c ****     IP_SET_TYPE_VAL(pcb->remote_ip, type);
1685:Middlewares/Third_Party/LwIP/src/core/tcp.c ****   }
1686:Middlewares/Third_Party/LwIP/src/core/tcp.c **** #else
1687:Middlewares/Third_Party/LwIP/src/core/tcp.c ****   LWIP_UNUSED_ARG(type);
1688:Middlewares/Third_Party/LwIP/src/core/tcp.c **** #endif /* LWIP_IPV4 && LWIP_IPV6 */
1689:Middlewares/Third_Party/LwIP/src/core/tcp.c ****   return pcb;
1690:Middlewares/Third_Party/LwIP/src/core/tcp.c **** }
1691:Middlewares/Third_Party/LwIP/src/core/tcp.c **** 
1692:Middlewares/Third_Party/LwIP/src/core/tcp.c **** /**
1693:Middlewares/Third_Party/LwIP/src/core/tcp.c ****  * @ingroup tcp_raw
1694:Middlewares/Third_Party/LwIP/src/core/tcp.c ****  * Used to specify the argument that should be passed callback
1695:Middlewares/Third_Party/LwIP/src/core/tcp.c ****  * functions.
ARM GAS  /tmp/cc6by9MY.s 			page 61


1696:Middlewares/Third_Party/LwIP/src/core/tcp.c ****  *
1697:Middlewares/Third_Party/LwIP/src/core/tcp.c ****  * @param pcb tcp_pcb to set the callback argument
1698:Middlewares/Third_Party/LwIP/src/core/tcp.c ****  * @param arg void pointer argument to pass to callback functions
1699:Middlewares/Third_Party/LwIP/src/core/tcp.c ****  */
1700:Middlewares/Third_Party/LwIP/src/core/tcp.c **** void
1701:Middlewares/Third_Party/LwIP/src/core/tcp.c **** tcp_arg(struct tcp_pcb *pcb, void *arg)
1702:Middlewares/Third_Party/LwIP/src/core/tcp.c **** {
 1428              		.loc 1 1702 1 is_stmt 1 view -0
 1429              		.cfi_startproc
 1430              		@ args = 0, pretend = 0, frame = 0
 1431              		@ frame_needed = 0, uses_anonymous_args = 0
 1432              		@ link register save eliminated.
1703:Middlewares/Third_Party/LwIP/src/core/tcp.c ****   /* This function is allowed to be called for both listen pcbs and
1704:Middlewares/Third_Party/LwIP/src/core/tcp.c ****      connection pcbs. */
1705:Middlewares/Third_Party/LwIP/src/core/tcp.c ****   if (pcb != NULL) {
 1433              		.loc 1 1705 3 view .LVU392
 1434              		.loc 1 1705 6 is_stmt 0 view .LVU393
 1435 0000 00B1     		cbz	r0, .L145
1706:Middlewares/Third_Party/LwIP/src/core/tcp.c ****     pcb->callback_arg = arg;
 1436              		.loc 1 1706 5 is_stmt 1 view .LVU394
 1437              		.loc 1 1706 23 is_stmt 0 view .LVU395
 1438 0002 0161     		str	r1, [r0, #16]
 1439              	.L145:
1707:Middlewares/Third_Party/LwIP/src/core/tcp.c ****   }
1708:Middlewares/Third_Party/LwIP/src/core/tcp.c **** }
 1440              		.loc 1 1708 1 view .LVU396
 1441 0004 7047     		bx	lr
 1442              		.cfi_endproc
 1443              	.LFE193:
 1445              		.section	.text.tcp_recv,"ax",%progbits
 1446              		.align	1
 1447              		.global	tcp_recv
 1448              		.syntax unified
 1449              		.thumb
 1450              		.thumb_func
 1451              		.fpu fpv5-sp-d16
 1453              	tcp_recv:
 1454              	.LVL133:
 1455              	.LFB194:
1709:Middlewares/Third_Party/LwIP/src/core/tcp.c **** #if LWIP_CALLBACK_API
1710:Middlewares/Third_Party/LwIP/src/core/tcp.c **** 
1711:Middlewares/Third_Party/LwIP/src/core/tcp.c **** /**
1712:Middlewares/Third_Party/LwIP/src/core/tcp.c ****  * @ingroup tcp_raw
1713:Middlewares/Third_Party/LwIP/src/core/tcp.c ****  * Used to specify the function that should be called when a TCP
1714:Middlewares/Third_Party/LwIP/src/core/tcp.c ****  * connection receives data.
1715:Middlewares/Third_Party/LwIP/src/core/tcp.c ****  *
1716:Middlewares/Third_Party/LwIP/src/core/tcp.c ****  * @param pcb tcp_pcb to set the recv callback
1717:Middlewares/Third_Party/LwIP/src/core/tcp.c ****  * @param recv callback function to call for this pcb when data is received
1718:Middlewares/Third_Party/LwIP/src/core/tcp.c ****  */
1719:Middlewares/Third_Party/LwIP/src/core/tcp.c **** void
1720:Middlewares/Third_Party/LwIP/src/core/tcp.c **** tcp_recv(struct tcp_pcb *pcb, tcp_recv_fn recv)
1721:Middlewares/Third_Party/LwIP/src/core/tcp.c **** {
 1456              		.loc 1 1721 1 is_stmt 1 view -0
 1457              		.cfi_startproc
 1458              		@ args = 0, pretend = 0, frame = 0
 1459              		@ frame_needed = 0, uses_anonymous_args = 0
1722:Middlewares/Third_Party/LwIP/src/core/tcp.c ****   if (pcb != NULL) {
ARM GAS  /tmp/cc6by9MY.s 			page 62


 1460              		.loc 1 1722 3 view .LVU398
 1461              		.loc 1 1722 6 is_stmt 0 view .LVU399
 1462 0000 80B1     		cbz	r0, .L151
1721:Middlewares/Third_Party/LwIP/src/core/tcp.c ****   if (pcb != NULL) {
 1463              		.loc 1 1721 1 view .LVU400
 1464 0002 38B5     		push	{r3, r4, r5, lr}
 1465              	.LCFI16:
 1466              		.cfi_def_cfa_offset 16
 1467              		.cfi_offset 3, -16
 1468              		.cfi_offset 4, -12
 1469              		.cfi_offset 5, -8
 1470              		.cfi_offset 14, -4
 1471 0004 0446     		mov	r4, r0
 1472 0006 0D46     		mov	r5, r1
1723:Middlewares/Third_Party/LwIP/src/core/tcp.c ****     LWIP_ASSERT("invalid socket state for recv callback", pcb->state != LISTEN);
 1473              		.loc 1 1723 5 is_stmt 1 view .LVU401
 1474              		.loc 1 1723 5 view .LVU402
 1475 0008 037D     		ldrb	r3, [r0, #20]	@ zero_extendqisi2
 1476 000a 012B     		cmp	r3, #1
 1477 000c 02D0     		beq	.L154
 1478              	.LVL134:
 1479              	.L149:
1724:Middlewares/Third_Party/LwIP/src/core/tcp.c ****     pcb->recv = recv;
 1480              		.loc 1 1724 5 view .LVU403
 1481              		.loc 1 1724 15 is_stmt 0 view .LVU404
 1482 000e C4F88050 		str	r5, [r4, #128]
1725:Middlewares/Third_Party/LwIP/src/core/tcp.c ****   }
1726:Middlewares/Third_Party/LwIP/src/core/tcp.c **** }
 1483              		.loc 1 1726 1 view .LVU405
 1484 0012 38BD     		pop	{r3, r4, r5, pc}
 1485              	.LVL135:
 1486              	.L154:
1723:Middlewares/Third_Party/LwIP/src/core/tcp.c ****     pcb->recv = recv;
 1487              		.loc 1 1723 5 is_stmt 1 discriminator 1 view .LVU406
1723:Middlewares/Third_Party/LwIP/src/core/tcp.c ****     pcb->recv = recv;
 1488              		.loc 1 1723 5 discriminator 1 view .LVU407
 1489 0014 044B     		ldr	r3, .L155
 1490 0016 40F2BB62 		movw	r2, #1723
 1491 001a 0449     		ldr	r1, .L155+4
 1492              	.LVL136:
1723:Middlewares/Third_Party/LwIP/src/core/tcp.c ****     pcb->recv = recv;
 1493              		.loc 1 1723 5 is_stmt 0 discriminator 1 view .LVU408
 1494 001c 0448     		ldr	r0, .L155+8
 1495              	.LVL137:
1723:Middlewares/Third_Party/LwIP/src/core/tcp.c ****     pcb->recv = recv;
 1496              		.loc 1 1723 5 discriminator 1 view .LVU409
 1497 001e FFF7FEFF 		bl	printf
 1498              	.LVL138:
 1499 0022 F4E7     		b	.L149
 1500              	.LVL139:
 1501              	.L151:
 1502              	.LCFI17:
 1503              		.cfi_def_cfa_offset 0
 1504              		.cfi_restore 3
 1505              		.cfi_restore 4
 1506              		.cfi_restore 5
 1507              		.cfi_restore 14
ARM GAS  /tmp/cc6by9MY.s 			page 63


1723:Middlewares/Third_Party/LwIP/src/core/tcp.c ****     pcb->recv = recv;
 1508              		.loc 1 1723 5 discriminator 1 view .LVU410
 1509 0024 7047     		bx	lr
 1510              	.L156:
 1511 0026 00BF     		.align	2
 1512              	.L155:
 1513 0028 00000000 		.word	.LC0
 1514 002c 00000000 		.word	.LC9
 1515 0030 38000000 		.word	.LC2
 1516              		.cfi_endproc
 1517              	.LFE194:
 1519              		.section	.text.tcp_sent,"ax",%progbits
 1520              		.align	1
 1521              		.global	tcp_sent
 1522              		.syntax unified
 1523              		.thumb
 1524              		.thumb_func
 1525              		.fpu fpv5-sp-d16
 1527              	tcp_sent:
 1528              	.LVL140:
 1529              	.LFB195:
1727:Middlewares/Third_Party/LwIP/src/core/tcp.c **** 
1728:Middlewares/Third_Party/LwIP/src/core/tcp.c **** /**
1729:Middlewares/Third_Party/LwIP/src/core/tcp.c ****  * @ingroup tcp_raw
1730:Middlewares/Third_Party/LwIP/src/core/tcp.c ****  * Used to specify the function that should be called when TCP data
1731:Middlewares/Third_Party/LwIP/src/core/tcp.c ****  * has been successfully delivered to the remote host.
1732:Middlewares/Third_Party/LwIP/src/core/tcp.c ****  *
1733:Middlewares/Third_Party/LwIP/src/core/tcp.c ****  * @param pcb tcp_pcb to set the sent callback
1734:Middlewares/Third_Party/LwIP/src/core/tcp.c ****  * @param sent callback function to call for this pcb when data is successfully sent
1735:Middlewares/Third_Party/LwIP/src/core/tcp.c ****  */
1736:Middlewares/Third_Party/LwIP/src/core/tcp.c **** void
1737:Middlewares/Third_Party/LwIP/src/core/tcp.c **** tcp_sent(struct tcp_pcb *pcb, tcp_sent_fn sent)
1738:Middlewares/Third_Party/LwIP/src/core/tcp.c **** {
 1530              		.loc 1 1738 1 is_stmt 1 view -0
 1531              		.cfi_startproc
 1532              		@ args = 0, pretend = 0, frame = 0
 1533              		@ frame_needed = 0, uses_anonymous_args = 0
1739:Middlewares/Third_Party/LwIP/src/core/tcp.c ****   if (pcb != NULL) {
 1534              		.loc 1 1739 3 view .LVU412
 1535              		.loc 1 1739 6 is_stmt 0 view .LVU413
 1536 0000 78B1     		cbz	r0, .L161
1738:Middlewares/Third_Party/LwIP/src/core/tcp.c ****   if (pcb != NULL) {
 1537              		.loc 1 1738 1 view .LVU414
 1538 0002 38B5     		push	{r3, r4, r5, lr}
 1539              	.LCFI18:
 1540              		.cfi_def_cfa_offset 16
 1541              		.cfi_offset 3, -16
 1542              		.cfi_offset 4, -12
 1543              		.cfi_offset 5, -8
 1544              		.cfi_offset 14, -4
 1545 0004 0446     		mov	r4, r0
 1546 0006 0D46     		mov	r5, r1
1740:Middlewares/Third_Party/LwIP/src/core/tcp.c ****     LWIP_ASSERT("invalid socket state for sent callback", pcb->state != LISTEN);
 1547              		.loc 1 1740 5 is_stmt 1 view .LVU415
 1548              		.loc 1 1740 5 view .LVU416
 1549 0008 037D     		ldrb	r3, [r0, #20]	@ zero_extendqisi2
 1550 000a 012B     		cmp	r3, #1
ARM GAS  /tmp/cc6by9MY.s 			page 64


 1551 000c 01D0     		beq	.L164
 1552              	.LVL141:
 1553              	.L159:
1741:Middlewares/Third_Party/LwIP/src/core/tcp.c ****     pcb->sent = sent;
 1554              		.loc 1 1741 5 view .LVU417
 1555              		.loc 1 1741 15 is_stmt 0 view .LVU418
 1556 000e E567     		str	r5, [r4, #124]
1742:Middlewares/Third_Party/LwIP/src/core/tcp.c ****   }
1743:Middlewares/Third_Party/LwIP/src/core/tcp.c **** }
 1557              		.loc 1 1743 1 view .LVU419
 1558 0010 38BD     		pop	{r3, r4, r5, pc}
 1559              	.LVL142:
 1560              	.L164:
1740:Middlewares/Third_Party/LwIP/src/core/tcp.c ****     pcb->sent = sent;
 1561              		.loc 1 1740 5 is_stmt 1 discriminator 1 view .LVU420
1740:Middlewares/Third_Party/LwIP/src/core/tcp.c ****     pcb->sent = sent;
 1562              		.loc 1 1740 5 discriminator 1 view .LVU421
 1563 0012 044B     		ldr	r3, .L165
 1564 0014 40F2CC62 		movw	r2, #1740
 1565 0018 0349     		ldr	r1, .L165+4
 1566              	.LVL143:
1740:Middlewares/Third_Party/LwIP/src/core/tcp.c ****     pcb->sent = sent;
 1567              		.loc 1 1740 5 is_stmt 0 discriminator 1 view .LVU422
 1568 001a 0448     		ldr	r0, .L165+8
 1569              	.LVL144:
1740:Middlewares/Third_Party/LwIP/src/core/tcp.c ****     pcb->sent = sent;
 1570              		.loc 1 1740 5 discriminator 1 view .LVU423
 1571 001c FFF7FEFF 		bl	printf
 1572              	.LVL145:
 1573 0020 F5E7     		b	.L159
 1574              	.LVL146:
 1575              	.L161:
 1576              	.LCFI19:
 1577              		.cfi_def_cfa_offset 0
 1578              		.cfi_restore 3
 1579              		.cfi_restore 4
 1580              		.cfi_restore 5
 1581              		.cfi_restore 14
1740:Middlewares/Third_Party/LwIP/src/core/tcp.c ****     pcb->sent = sent;
 1582              		.loc 1 1740 5 discriminator 1 view .LVU424
 1583 0022 7047     		bx	lr
 1584              	.L166:
 1585              		.align	2
 1586              	.L165:
 1587 0024 00000000 		.word	.LC0
 1588 0028 00000000 		.word	.LC10
 1589 002c 38000000 		.word	.LC2
 1590              		.cfi_endproc
 1591              	.LFE195:
 1593              		.section	.text.tcp_err,"ax",%progbits
 1594              		.align	1
 1595              		.global	tcp_err
 1596              		.syntax unified
 1597              		.thumb
 1598              		.thumb_func
 1599              		.fpu fpv5-sp-d16
 1601              	tcp_err:
ARM GAS  /tmp/cc6by9MY.s 			page 65


 1602              	.LVL147:
 1603              	.LFB196:
1744:Middlewares/Third_Party/LwIP/src/core/tcp.c **** 
1745:Middlewares/Third_Party/LwIP/src/core/tcp.c **** /**
1746:Middlewares/Third_Party/LwIP/src/core/tcp.c ****  * @ingroup tcp_raw
1747:Middlewares/Third_Party/LwIP/src/core/tcp.c ****  * Used to specify the function that should be called when a fatal error
1748:Middlewares/Third_Party/LwIP/src/core/tcp.c ****  * has occurred on the connection.
1749:Middlewares/Third_Party/LwIP/src/core/tcp.c ****  *
1750:Middlewares/Third_Party/LwIP/src/core/tcp.c ****  * @note The corresponding pcb is already freed when this callback is called!
1751:Middlewares/Third_Party/LwIP/src/core/tcp.c ****  * 
1752:Middlewares/Third_Party/LwIP/src/core/tcp.c ****  * @param pcb tcp_pcb to set the err callback
1753:Middlewares/Third_Party/LwIP/src/core/tcp.c ****  * @param err callback function to call for this pcb when a fatal error
1754:Middlewares/Third_Party/LwIP/src/core/tcp.c ****  *        has occurred on the connection
1755:Middlewares/Third_Party/LwIP/src/core/tcp.c ****  */
1756:Middlewares/Third_Party/LwIP/src/core/tcp.c **** void
1757:Middlewares/Third_Party/LwIP/src/core/tcp.c **** tcp_err(struct tcp_pcb *pcb, tcp_err_fn err)
1758:Middlewares/Third_Party/LwIP/src/core/tcp.c **** {
 1604              		.loc 1 1758 1 is_stmt 1 view -0
 1605              		.cfi_startproc
 1606              		@ args = 0, pretend = 0, frame = 0
 1607              		@ frame_needed = 0, uses_anonymous_args = 0
1759:Middlewares/Third_Party/LwIP/src/core/tcp.c ****   if (pcb != NULL) {
 1608              		.loc 1 1759 3 view .LVU426
 1609              		.loc 1 1759 6 is_stmt 0 view .LVU427
 1610 0000 80B1     		cbz	r0, .L171
1758:Middlewares/Third_Party/LwIP/src/core/tcp.c ****   if (pcb != NULL) {
 1611              		.loc 1 1758 1 view .LVU428
 1612 0002 38B5     		push	{r3, r4, r5, lr}
 1613              	.LCFI20:
 1614              		.cfi_def_cfa_offset 16
 1615              		.cfi_offset 3, -16
 1616              		.cfi_offset 4, -12
 1617              		.cfi_offset 5, -8
 1618              		.cfi_offset 14, -4
 1619 0004 0446     		mov	r4, r0
 1620 0006 0D46     		mov	r5, r1
1760:Middlewares/Third_Party/LwIP/src/core/tcp.c ****     LWIP_ASSERT("invalid socket state for err callback", pcb->state != LISTEN);
 1621              		.loc 1 1760 5 is_stmt 1 view .LVU429
 1622              		.loc 1 1760 5 view .LVU430
 1623 0008 037D     		ldrb	r3, [r0, #20]	@ zero_extendqisi2
 1624 000a 012B     		cmp	r3, #1
 1625 000c 02D0     		beq	.L174
 1626              	.LVL148:
 1627              	.L169:
1761:Middlewares/Third_Party/LwIP/src/core/tcp.c ****     pcb->errf = err;
 1628              		.loc 1 1761 5 view .LVU431
 1629              		.loc 1 1761 15 is_stmt 0 view .LVU432
 1630 000e C4F88C50 		str	r5, [r4, #140]
1762:Middlewares/Third_Party/LwIP/src/core/tcp.c ****   }
1763:Middlewares/Third_Party/LwIP/src/core/tcp.c **** }
 1631              		.loc 1 1763 1 view .LVU433
 1632 0012 38BD     		pop	{r3, r4, r5, pc}
 1633              	.LVL149:
 1634              	.L174:
1760:Middlewares/Third_Party/LwIP/src/core/tcp.c ****     pcb->errf = err;
 1635              		.loc 1 1760 5 is_stmt 1 discriminator 1 view .LVU434
1760:Middlewares/Third_Party/LwIP/src/core/tcp.c ****     pcb->errf = err;
ARM GAS  /tmp/cc6by9MY.s 			page 66


 1636              		.loc 1 1760 5 discriminator 1 view .LVU435
 1637 0014 044B     		ldr	r3, .L175
 1638 0016 4FF4DC62 		mov	r2, #1760
 1639 001a 0449     		ldr	r1, .L175+4
 1640              	.LVL150:
1760:Middlewares/Third_Party/LwIP/src/core/tcp.c ****     pcb->errf = err;
 1641              		.loc 1 1760 5 is_stmt 0 discriminator 1 view .LVU436
 1642 001c 0448     		ldr	r0, .L175+8
 1643              	.LVL151:
1760:Middlewares/Third_Party/LwIP/src/core/tcp.c ****     pcb->errf = err;
 1644              		.loc 1 1760 5 discriminator 1 view .LVU437
 1645 001e FFF7FEFF 		bl	printf
 1646              	.LVL152:
 1647 0022 F4E7     		b	.L169
 1648              	.LVL153:
 1649              	.L171:
 1650              	.LCFI21:
 1651              		.cfi_def_cfa_offset 0
 1652              		.cfi_restore 3
 1653              		.cfi_restore 4
 1654              		.cfi_restore 5
 1655              		.cfi_restore 14
1760:Middlewares/Third_Party/LwIP/src/core/tcp.c ****     pcb->errf = err;
 1656              		.loc 1 1760 5 discriminator 1 view .LVU438
 1657 0024 7047     		bx	lr
 1658              	.L176:
 1659 0026 00BF     		.align	2
 1660              	.L175:
 1661 0028 00000000 		.word	.LC0
 1662 002c 00000000 		.word	.LC11
 1663 0030 38000000 		.word	.LC2
 1664              		.cfi_endproc
 1665              	.LFE196:
 1667              		.section	.text.tcp_accept,"ax",%progbits
 1668              		.align	1
 1669              		.global	tcp_accept
 1670              		.syntax unified
 1671              		.thumb
 1672              		.thumb_func
 1673              		.fpu fpv5-sp-d16
 1675              	tcp_accept:
 1676              	.LVL154:
 1677              	.LFB197:
1764:Middlewares/Third_Party/LwIP/src/core/tcp.c **** 
1765:Middlewares/Third_Party/LwIP/src/core/tcp.c **** /**
1766:Middlewares/Third_Party/LwIP/src/core/tcp.c ****  * @ingroup tcp_raw
1767:Middlewares/Third_Party/LwIP/src/core/tcp.c ****  * Used for specifying the function that should be called when a
1768:Middlewares/Third_Party/LwIP/src/core/tcp.c ****  * LISTENing connection has been connected to another host.
1769:Middlewares/Third_Party/LwIP/src/core/tcp.c ****  *
1770:Middlewares/Third_Party/LwIP/src/core/tcp.c ****  * @param pcb tcp_pcb to set the accept callback
1771:Middlewares/Third_Party/LwIP/src/core/tcp.c ****  * @param accept callback function to call for this pcb when LISTENing
1772:Middlewares/Third_Party/LwIP/src/core/tcp.c ****  *        connection has been connected to another host
1773:Middlewares/Third_Party/LwIP/src/core/tcp.c ****  */
1774:Middlewares/Third_Party/LwIP/src/core/tcp.c **** void
1775:Middlewares/Third_Party/LwIP/src/core/tcp.c **** tcp_accept(struct tcp_pcb *pcb, tcp_accept_fn accept)
1776:Middlewares/Third_Party/LwIP/src/core/tcp.c **** {
 1678              		.loc 1 1776 1 is_stmt 1 view -0
ARM GAS  /tmp/cc6by9MY.s 			page 67


 1679              		.cfi_startproc
 1680              		@ args = 0, pretend = 0, frame = 0
 1681              		@ frame_needed = 0, uses_anonymous_args = 0
 1682              		@ link register save eliminated.
1777:Middlewares/Third_Party/LwIP/src/core/tcp.c ****   if ((pcb != NULL) && (pcb->state == LISTEN)) {
 1683              		.loc 1 1777 3 view .LVU440
 1684              		.loc 1 1777 6 is_stmt 0 view .LVU441
 1685 0000 10B1     		cbz	r0, .L177
 1686              		.loc 1 1777 28 discriminator 1 view .LVU442
 1687 0002 027D     		ldrb	r2, [r0, #20]	@ zero_extendqisi2
 1688              		.loc 1 1777 21 discriminator 1 view .LVU443
 1689 0004 012A     		cmp	r2, #1
 1690 0006 00D0     		beq	.L179
 1691              	.L177:
1778:Middlewares/Third_Party/LwIP/src/core/tcp.c ****     struct tcp_pcb_listen *lpcb = (struct tcp_pcb_listen*)pcb;
1779:Middlewares/Third_Party/LwIP/src/core/tcp.c ****     lpcb->accept = accept;
1780:Middlewares/Third_Party/LwIP/src/core/tcp.c ****   }
1781:Middlewares/Third_Party/LwIP/src/core/tcp.c **** }
 1692              		.loc 1 1781 1 view .LVU444
 1693 0008 7047     		bx	lr
 1694              	.L179:
 1695              	.LBB6:
1778:Middlewares/Third_Party/LwIP/src/core/tcp.c ****     struct tcp_pcb_listen *lpcb = (struct tcp_pcb_listen*)pcb;
 1696              		.loc 1 1778 5 is_stmt 1 view .LVU445
 1697              	.LVL155:
1779:Middlewares/Third_Party/LwIP/src/core/tcp.c ****   }
 1698              		.loc 1 1779 5 view .LVU446
1779:Middlewares/Third_Party/LwIP/src/core/tcp.c ****   }
 1699              		.loc 1 1779 18 is_stmt 0 view .LVU447
 1700 000a 8161     		str	r1, [r0, #24]
 1701              	.LBE6:
 1702              		.loc 1 1781 1 view .LVU448
 1703 000c FCE7     		b	.L177
 1704              		.cfi_endproc
 1705              	.LFE197:
 1707              		.section	.text.tcp_poll,"ax",%progbits
 1708              		.align	1
 1709              		.global	tcp_poll
 1710              		.syntax unified
 1711              		.thumb
 1712              		.thumb_func
 1713              		.fpu fpv5-sp-d16
 1715              	tcp_poll:
 1716              	.LVL156:
 1717              	.LFB198:
1782:Middlewares/Third_Party/LwIP/src/core/tcp.c **** #endif /* LWIP_CALLBACK_API */
1783:Middlewares/Third_Party/LwIP/src/core/tcp.c **** 
1784:Middlewares/Third_Party/LwIP/src/core/tcp.c **** 
1785:Middlewares/Third_Party/LwIP/src/core/tcp.c **** /**
1786:Middlewares/Third_Party/LwIP/src/core/tcp.c ****  * @ingroup tcp_raw
1787:Middlewares/Third_Party/LwIP/src/core/tcp.c ****  * Used to specify the function that should be called periodically
1788:Middlewares/Third_Party/LwIP/src/core/tcp.c ****  * from TCP. The interval is specified in terms of the TCP coarse
1789:Middlewares/Third_Party/LwIP/src/core/tcp.c ****  * timer interval, which is called twice a second.
1790:Middlewares/Third_Party/LwIP/src/core/tcp.c ****  *
1791:Middlewares/Third_Party/LwIP/src/core/tcp.c ****  */
1792:Middlewares/Third_Party/LwIP/src/core/tcp.c **** void
1793:Middlewares/Third_Party/LwIP/src/core/tcp.c **** tcp_poll(struct tcp_pcb *pcb, tcp_poll_fn poll, u8_t interval)
ARM GAS  /tmp/cc6by9MY.s 			page 68


1794:Middlewares/Third_Party/LwIP/src/core/tcp.c **** {
 1718              		.loc 1 1794 1 is_stmt 1 view -0
 1719              		.cfi_startproc
 1720              		@ args = 0, pretend = 0, frame = 0
 1721              		@ frame_needed = 0, uses_anonymous_args = 0
 1722              		.loc 1 1794 1 is_stmt 0 view .LVU450
 1723 0000 70B5     		push	{r4, r5, r6, lr}
 1724              	.LCFI22:
 1725              		.cfi_def_cfa_offset 16
 1726              		.cfi_offset 4, -16
 1727              		.cfi_offset 5, -12
 1728              		.cfi_offset 6, -8
 1729              		.cfi_offset 14, -4
 1730 0002 0446     		mov	r4, r0
 1731 0004 0E46     		mov	r6, r1
 1732 0006 1546     		mov	r5, r2
1795:Middlewares/Third_Party/LwIP/src/core/tcp.c ****   LWIP_ASSERT("invalid socket state for poll", pcb->state != LISTEN);
 1733              		.loc 1 1795 3 is_stmt 1 view .LVU451
 1734              		.loc 1 1795 3 view .LVU452
 1735 0008 037D     		ldrb	r3, [r0, #20]	@ zero_extendqisi2
 1736 000a 012B     		cmp	r3, #1
 1737 000c 03D0     		beq	.L183
 1738              	.LVL157:
 1739              	.L181:
1796:Middlewares/Third_Party/LwIP/src/core/tcp.c **** #if LWIP_CALLBACK_API
1797:Middlewares/Third_Party/LwIP/src/core/tcp.c ****   pcb->poll = poll;
 1740              		.loc 1 1797 3 view .LVU453
 1741              		.loc 1 1797 13 is_stmt 0 view .LVU454
 1742 000e C4F88860 		str	r6, [r4, #136]
1798:Middlewares/Third_Party/LwIP/src/core/tcp.c **** #else /* LWIP_CALLBACK_API */
1799:Middlewares/Third_Party/LwIP/src/core/tcp.c ****   LWIP_UNUSED_ARG(poll);
1800:Middlewares/Third_Party/LwIP/src/core/tcp.c **** #endif /* LWIP_CALLBACK_API */
1801:Middlewares/Third_Party/LwIP/src/core/tcp.c ****   pcb->pollinterval = interval;
 1743              		.loc 1 1801 3 is_stmt 1 view .LVU455
 1744              		.loc 1 1801 21 is_stmt 0 view .LVU456
 1745 0012 2577     		strb	r5, [r4, #28]
1802:Middlewares/Third_Party/LwIP/src/core/tcp.c **** }
 1746              		.loc 1 1802 1 view .LVU457
 1747 0014 70BD     		pop	{r4, r5, r6, pc}
 1748              	.LVL158:
 1749              	.L183:
1795:Middlewares/Third_Party/LwIP/src/core/tcp.c **** #if LWIP_CALLBACK_API
 1750              		.loc 1 1795 3 is_stmt 1 discriminator 1 view .LVU458
1795:Middlewares/Third_Party/LwIP/src/core/tcp.c **** #if LWIP_CALLBACK_API
 1751              		.loc 1 1795 3 discriminator 1 view .LVU459
 1752 0016 044B     		ldr	r3, .L184
 1753 0018 40F20372 		movw	r2, #1795
 1754              	.LVL159:
1795:Middlewares/Third_Party/LwIP/src/core/tcp.c **** #if LWIP_CALLBACK_API
 1755              		.loc 1 1795 3 is_stmt 0 discriminator 1 view .LVU460
 1756 001c 0349     		ldr	r1, .L184+4
 1757              	.LVL160:
1795:Middlewares/Third_Party/LwIP/src/core/tcp.c **** #if LWIP_CALLBACK_API
 1758              		.loc 1 1795 3 discriminator 1 view .LVU461
 1759 001e 0448     		ldr	r0, .L184+8
 1760              	.LVL161:
1795:Middlewares/Third_Party/LwIP/src/core/tcp.c **** #if LWIP_CALLBACK_API
ARM GAS  /tmp/cc6by9MY.s 			page 69


 1761              		.loc 1 1795 3 discriminator 1 view .LVU462
 1762 0020 FFF7FEFF 		bl	printf
 1763              	.LVL162:
 1764 0024 F3E7     		b	.L181
 1765              	.L185:
 1766 0026 00BF     		.align	2
 1767              	.L184:
 1768 0028 00000000 		.word	.LC0
 1769 002c 00000000 		.word	.LC12
 1770 0030 38000000 		.word	.LC2
 1771              		.cfi_endproc
 1772              	.LFE198:
 1774              		.section	.text.tcp_pcb_purge,"ax",%progbits
 1775              		.align	1
 1776              		.global	tcp_pcb_purge
 1777              		.syntax unified
 1778              		.thumb
 1779              		.thumb_func
 1780              		.fpu fpv5-sp-d16
 1782              	tcp_pcb_purge:
 1783              	.LVL163:
 1784              	.LFB199:
1803:Middlewares/Third_Party/LwIP/src/core/tcp.c **** 
1804:Middlewares/Third_Party/LwIP/src/core/tcp.c **** /**
1805:Middlewares/Third_Party/LwIP/src/core/tcp.c ****  * Purges a TCP PCB. Removes any buffered data and frees the buffer memory
1806:Middlewares/Third_Party/LwIP/src/core/tcp.c ****  * (pcb->ooseq, pcb->unsent and pcb->unacked are freed).
1807:Middlewares/Third_Party/LwIP/src/core/tcp.c ****  *
1808:Middlewares/Third_Party/LwIP/src/core/tcp.c ****  * @param pcb tcp_pcb to purge. The pcb itself is not deallocated!
1809:Middlewares/Third_Party/LwIP/src/core/tcp.c ****  */
1810:Middlewares/Third_Party/LwIP/src/core/tcp.c **** void
1811:Middlewares/Third_Party/LwIP/src/core/tcp.c **** tcp_pcb_purge(struct tcp_pcb *pcb)
1812:Middlewares/Third_Party/LwIP/src/core/tcp.c **** {
 1785              		.loc 1 1812 1 is_stmt 1 view -0
 1786              		.cfi_startproc
 1787              		@ args = 0, pretend = 0, frame = 0
 1788              		@ frame_needed = 0, uses_anonymous_args = 0
 1789              		.loc 1 1812 1 is_stmt 0 view .LVU464
 1790 0000 38B5     		push	{r3, r4, r5, lr}
 1791              	.LCFI23:
 1792              		.cfi_def_cfa_offset 16
 1793              		.cfi_offset 3, -16
 1794              		.cfi_offset 4, -12
 1795              		.cfi_offset 5, -8
 1796              		.cfi_offset 14, -4
1813:Middlewares/Third_Party/LwIP/src/core/tcp.c ****   if (pcb->state != CLOSED &&
 1797              		.loc 1 1813 3 is_stmt 1 view .LVU465
 1798              		.loc 1 1813 10 is_stmt 0 view .LVU466
 1799 0002 027D     		ldrb	r2, [r0, #20]	@ zero_extendqisi2
 1800              		.loc 1 1813 28 view .LVU467
 1801 0004 B2F10A03 		subs	r3, r2, #10
 1802 0008 18BF     		it	ne
 1803 000a 0123     		movne	r3, #1
 1804 000c 002A     		cmp	r2, #0
 1805 000e 08BF     		it	eq
 1806 0010 0023     		moveq	r3, #0
 1807              		.loc 1 1813 6 view .LVU468
 1808 0012 D3B1     		cbz	r3, .L186
ARM GAS  /tmp/cc6by9MY.s 			page 70


1814:Middlewares/Third_Party/LwIP/src/core/tcp.c ****      pcb->state != TIME_WAIT &&
 1809              		.loc 1 1814 30 view .LVU469
 1810 0014 012A     		cmp	r2, #1
 1811 0016 18D0     		beq	.L186
 1812 0018 0446     		mov	r4, r0
1815:Middlewares/Third_Party/LwIP/src/core/tcp.c ****      pcb->state != LISTEN) {
1816:Middlewares/Third_Party/LwIP/src/core/tcp.c **** 
1817:Middlewares/Third_Party/LwIP/src/core/tcp.c ****     LWIP_DEBUGF(TCP_DEBUG, ("tcp_pcb_purge\n"));
 1813              		.loc 1 1817 48 is_stmt 1 view .LVU470
1818:Middlewares/Third_Party/LwIP/src/core/tcp.c **** 
1819:Middlewares/Third_Party/LwIP/src/core/tcp.c ****     tcp_backlog_accepted(pcb);
 1814              		.loc 1 1819 30 view .LVU471
1820:Middlewares/Third_Party/LwIP/src/core/tcp.c **** 
1821:Middlewares/Third_Party/LwIP/src/core/tcp.c ****     if (pcb->refused_data != NULL) {
 1815              		.loc 1 1821 5 view .LVU472
 1816              		.loc 1 1821 12 is_stmt 0 view .LVU473
 1817 001a 406F     		ldr	r0, [r0, #116]
 1818              	.LVL164:
 1819              		.loc 1 1821 8 view .LVU474
 1820 001c 18B1     		cbz	r0, .L188
1822:Middlewares/Third_Party/LwIP/src/core/tcp.c ****       LWIP_DEBUGF(TCP_DEBUG, ("tcp_pcb_purge: data left on ->refused_data\n"));
 1821              		.loc 1 1822 79 is_stmt 1 view .LVU475
1823:Middlewares/Third_Party/LwIP/src/core/tcp.c ****       pbuf_free(pcb->refused_data);
 1822              		.loc 1 1823 7 view .LVU476
 1823 001e FFF7FEFF 		bl	pbuf_free
 1824              	.LVL165:
1824:Middlewares/Third_Party/LwIP/src/core/tcp.c ****       pcb->refused_data = NULL;
 1825              		.loc 1 1824 7 view .LVU477
 1826              		.loc 1 1824 25 is_stmt 0 view .LVU478
 1827 0022 0023     		movs	r3, #0
 1828 0024 6367     		str	r3, [r4, #116]
 1829              	.L188:
1825:Middlewares/Third_Party/LwIP/src/core/tcp.c ****     }
1826:Middlewares/Third_Party/LwIP/src/core/tcp.c ****     if (pcb->unsent != NULL) {
 1830              		.loc 1 1826 5 is_stmt 1 view .LVU479
1827:Middlewares/Third_Party/LwIP/src/core/tcp.c ****       LWIP_DEBUGF(TCP_DEBUG, ("tcp_pcb_purge: not all data sent\n"));
 1831              		.loc 1 1827 69 view .LVU480
1828:Middlewares/Third_Party/LwIP/src/core/tcp.c ****     }
1829:Middlewares/Third_Party/LwIP/src/core/tcp.c ****     if (pcb->unacked != NULL) {
 1832              		.loc 1 1829 5 view .LVU481
1830:Middlewares/Third_Party/LwIP/src/core/tcp.c ****       LWIP_DEBUGF(TCP_DEBUG, ("tcp_pcb_purge: data left on ->unacked\n"));
 1833              		.loc 1 1830 74 view .LVU482
1831:Middlewares/Third_Party/LwIP/src/core/tcp.c ****     }
1832:Middlewares/Third_Party/LwIP/src/core/tcp.c **** #if TCP_QUEUE_OOSEQ
1833:Middlewares/Third_Party/LwIP/src/core/tcp.c ****     if (pcb->ooseq != NULL) {
 1834              		.loc 1 1833 5 view .LVU483
1834:Middlewares/Third_Party/LwIP/src/core/tcp.c ****       LWIP_DEBUGF(TCP_DEBUG, ("tcp_pcb_purge: data left on ->ooseq\n"));
 1835              		.loc 1 1834 72 view .LVU484
1835:Middlewares/Third_Party/LwIP/src/core/tcp.c ****     }
1836:Middlewares/Third_Party/LwIP/src/core/tcp.c ****     tcp_segs_free(pcb->ooseq);
 1836              		.loc 1 1836 5 view .LVU485
 1837 0026 206F     		ldr	r0, [r4, #112]
 1838 0028 FFF7FEFF 		bl	tcp_segs_free
 1839              	.LVL166:
1837:Middlewares/Third_Party/LwIP/src/core/tcp.c ****     pcb->ooseq = NULL;
 1840              		.loc 1 1837 5 view .LVU486
 1841              		.loc 1 1837 16 is_stmt 0 view .LVU487
ARM GAS  /tmp/cc6by9MY.s 			page 71


 1842 002c 0025     		movs	r5, #0
 1843 002e 2567     		str	r5, [r4, #112]
1838:Middlewares/Third_Party/LwIP/src/core/tcp.c **** #endif /* TCP_QUEUE_OOSEQ */
1839:Middlewares/Third_Party/LwIP/src/core/tcp.c **** 
1840:Middlewares/Third_Party/LwIP/src/core/tcp.c ****     /* Stop the retransmission timer as it will expect data on unacked
1841:Middlewares/Third_Party/LwIP/src/core/tcp.c ****        queue if it fires */
1842:Middlewares/Third_Party/LwIP/src/core/tcp.c ****     pcb->rtime = -1;
 1844              		.loc 1 1842 5 is_stmt 1 view .LVU488
 1845              		.loc 1 1842 16 is_stmt 0 view .LVU489
 1846 0030 4FF6FF73 		movw	r3, #65535
 1847 0034 2386     		strh	r3, [r4, #48]	@ movhi
1843:Middlewares/Third_Party/LwIP/src/core/tcp.c **** 
1844:Middlewares/Third_Party/LwIP/src/core/tcp.c ****     tcp_segs_free(pcb->unsent);
 1848              		.loc 1 1844 5 is_stmt 1 view .LVU490
 1849 0036 A06E     		ldr	r0, [r4, #104]
 1850 0038 FFF7FEFF 		bl	tcp_segs_free
 1851              	.LVL167:
1845:Middlewares/Third_Party/LwIP/src/core/tcp.c ****     tcp_segs_free(pcb->unacked);
 1852              		.loc 1 1845 5 view .LVU491
 1853 003c E06E     		ldr	r0, [r4, #108]
 1854 003e FFF7FEFF 		bl	tcp_segs_free
 1855              	.LVL168:
1846:Middlewares/Third_Party/LwIP/src/core/tcp.c ****     pcb->unacked = pcb->unsent = NULL;
 1856              		.loc 1 1846 5 view .LVU492
 1857              		.loc 1 1846 32 is_stmt 0 view .LVU493
 1858 0042 A566     		str	r5, [r4, #104]
 1859              		.loc 1 1846 18 view .LVU494
 1860 0044 E566     		str	r5, [r4, #108]
1847:Middlewares/Third_Party/LwIP/src/core/tcp.c **** #if TCP_OVERSIZE
1848:Middlewares/Third_Party/LwIP/src/core/tcp.c ****     pcb->unsent_oversize = 0;
 1861              		.loc 1 1848 5 is_stmt 1 view .LVU495
 1862              		.loc 1 1848 26 is_stmt 0 view .LVU496
 1863 0046 A4F86450 		strh	r5, [r4, #100]	@ movhi
 1864              	.LVL169:
 1865              	.L186:
1849:Middlewares/Third_Party/LwIP/src/core/tcp.c **** #endif /* TCP_OVERSIZE */
1850:Middlewares/Third_Party/LwIP/src/core/tcp.c ****   }
1851:Middlewares/Third_Party/LwIP/src/core/tcp.c **** }
 1866              		.loc 1 1851 1 view .LVU497
 1867 004a 38BD     		pop	{r3, r4, r5, pc}
 1868              		.cfi_endproc
 1869              	.LFE199:
 1871              		.section	.text.tcp_slowtmr,"ax",%progbits
 1872              		.align	1
 1873              		.global	tcp_slowtmr
 1874              		.syntax unified
 1875              		.thumb
 1876              		.thumb_func
 1877              		.fpu fpv5-sp-d16
 1879              	tcp_slowtmr:
 1880              	.LFB178:
 987:Middlewares/Third_Party/LwIP/src/core/tcp.c ****   struct tcp_pcb *pcb, *prev;
 1881              		.loc 1 987 1 is_stmt 1 view -0
 1882              		.cfi_startproc
 1883              		@ args = 0, pretend = 0, frame = 0
 1884              		@ frame_needed = 0, uses_anonymous_args = 0
 1885 0000 2DE9F041 		push	{r4, r5, r6, r7, r8, lr}
ARM GAS  /tmp/cc6by9MY.s 			page 72


 1886              	.LCFI24:
 1887              		.cfi_def_cfa_offset 24
 1888              		.cfi_offset 4, -24
 1889              		.cfi_offset 5, -20
 1890              		.cfi_offset 6, -16
 1891              		.cfi_offset 7, -12
 1892              		.cfi_offset 8, -8
 1893              		.cfi_offset 14, -4
 1894 0004 82B0     		sub	sp, sp, #8
 1895              	.LCFI25:
 1896              		.cfi_def_cfa_offset 32
 988:Middlewares/Third_Party/LwIP/src/core/tcp.c ****   tcpwnd_size_t eff_wnd;
 1897              		.loc 1 988 3 view .LVU499
 989:Middlewares/Third_Party/LwIP/src/core/tcp.c ****   u8_t pcb_remove;      /* flag if a PCB should be removed */
 1898              		.loc 1 989 3 view .LVU500
 990:Middlewares/Third_Party/LwIP/src/core/tcp.c ****   u8_t pcb_reset;       /* flag if a RST should be sent when removing */
 1899              		.loc 1 990 3 view .LVU501
 991:Middlewares/Third_Party/LwIP/src/core/tcp.c ****   err_t err;
 1900              		.loc 1 991 3 view .LVU502
 992:Middlewares/Third_Party/LwIP/src/core/tcp.c **** 
 1901              		.loc 1 992 3 view .LVU503
 994:Middlewares/Third_Party/LwIP/src/core/tcp.c **** 
 1902              		.loc 1 994 3 view .LVU504
 1903              	.LVL170:
 996:Middlewares/Third_Party/LwIP/src/core/tcp.c ****   ++tcp_timer_ctr;
 1904              		.loc 1 996 3 view .LVU505
 1905 0006 AB4A     		ldr	r2, .L261
 1906 0008 1368     		ldr	r3, [r2]
 1907 000a 0133     		adds	r3, r3, #1
 1908 000c 1360     		str	r3, [r2]
 997:Middlewares/Third_Party/LwIP/src/core/tcp.c **** 
 1909              		.loc 1 997 3 view .LVU506
 1910 000e AA4A     		ldr	r2, .L261+4
 1911 0010 1378     		ldrb	r3, [r2]	@ zero_extendqisi2
 1912 0012 0133     		adds	r3, r3, #1
 1913 0014 1370     		strb	r3, [r2]
 1914              	.L192:
 1915              	.LVL171:
 1916              	.L191:
1001:Middlewares/Third_Party/LwIP/src/core/tcp.c ****   pcb = tcp_active_pcbs;
 1917              		.loc 1 1001 3 view .LVU507
1002:Middlewares/Third_Party/LwIP/src/core/tcp.c ****   if (pcb == NULL) {
 1918              		.loc 1 1002 3 view .LVU508
1002:Middlewares/Third_Party/LwIP/src/core/tcp.c ****   if (pcb == NULL) {
 1919              		.loc 1 1002 7 is_stmt 0 view .LVU509
 1920 0016 A94B     		ldr	r3, .L261+8
 1921 0018 1C68     		ldr	r4, [r3]
 1922              	.LVL172:
1003:Middlewares/Third_Party/LwIP/src/core/tcp.c ****     LWIP_DEBUGF(TCP_DEBUG, ("tcp_slowtmr: no active pcbs\n"));
 1923              		.loc 1 1003 3 is_stmt 1 view .LVU510
1004:Middlewares/Third_Party/LwIP/src/core/tcp.c ****   }
 1924              		.loc 1 1004 62 view .LVU511
1006:Middlewares/Third_Party/LwIP/src/core/tcp.c ****     LWIP_DEBUGF(TCP_DEBUG, ("tcp_slowtmr: processing active pcb\n"));
 1925              		.loc 1 1006 3 view .LVU512
1001:Middlewares/Third_Party/LwIP/src/core/tcp.c ****   pcb = tcp_active_pcbs;
 1926              		.loc 1 1001 8 is_stmt 0 view .LVU513
 1927 001a 0026     		movs	r6, #0
ARM GAS  /tmp/cc6by9MY.s 			page 73


1006:Middlewares/Third_Party/LwIP/src/core/tcp.c ****     LWIP_DEBUGF(TCP_DEBUG, ("tcp_slowtmr: processing active pcb\n"));
 1928              		.loc 1 1006 9 view .LVU514
 1929 001c 6AE1     		b	.L193
 1930              	.LVL173:
 1931              	.L252:
1008:Middlewares/Third_Party/LwIP/src/core/tcp.c ****     LWIP_ASSERT("tcp_slowtmr: active pcb->state != LISTEN\n", pcb->state != LISTEN);
 1932              		.loc 1 1008 5 is_stmt 1 discriminator 1 view .LVU515
1008:Middlewares/Third_Party/LwIP/src/core/tcp.c ****     LWIP_ASSERT("tcp_slowtmr: active pcb->state != LISTEN\n", pcb->state != LISTEN);
 1933              		.loc 1 1008 5 discriminator 1 view .LVU516
 1934 001e A84B     		ldr	r3, .L261+12
 1935 0020 4FF47C72 		mov	r2, #1008
 1936 0024 A749     		ldr	r1, .L261+16
 1937 0026 A848     		ldr	r0, .L261+20
 1938 0028 FFF7FEFF 		bl	printf
 1939              	.LVL174:
 1940 002c 67E1     		b	.L194
 1941              	.L253:
1009:Middlewares/Third_Party/LwIP/src/core/tcp.c ****     LWIP_ASSERT("tcp_slowtmr: active pcb->state != TIME-WAIT\n", pcb->state != TIME_WAIT);
 1942              		.loc 1 1009 5 discriminator 1 view .LVU517
1009:Middlewares/Third_Party/LwIP/src/core/tcp.c ****     LWIP_ASSERT("tcp_slowtmr: active pcb->state != TIME-WAIT\n", pcb->state != TIME_WAIT);
 1943              		.loc 1 1009 5 discriminator 1 view .LVU518
 1944 002e A44B     		ldr	r3, .L261+12
 1945 0030 40F2F132 		movw	r2, #1009
 1946 0034 A549     		ldr	r1, .L261+24
 1947 0036 A448     		ldr	r0, .L261+20
 1948 0038 FFF7FEFF 		bl	printf
 1949              	.LVL175:
 1950 003c 63E1     		b	.L195
 1951              	.L254:
1010:Middlewares/Third_Party/LwIP/src/core/tcp.c ****     if (pcb->last_timer == tcp_timer_ctr) {
 1952              		.loc 1 1010 5 discriminator 1 view .LVU519
1010:Middlewares/Third_Party/LwIP/src/core/tcp.c ****     if (pcb->last_timer == tcp_timer_ctr) {
 1953              		.loc 1 1010 5 discriminator 1 view .LVU520
 1954 003e A04B     		ldr	r3, .L261+12
 1955 0040 40F2F232 		movw	r2, #1010
 1956 0044 A249     		ldr	r1, .L261+28
 1957 0046 A048     		ldr	r0, .L261+20
 1958 0048 FFF7FEFF 		bl	printf
 1959              	.LVL176:
 1960 004c 5FE1     		b	.L196
 1961              	.L255:
1013:Middlewares/Third_Party/LwIP/src/core/tcp.c ****       continue;
 1962              		.loc 1 1013 7 view .LVU521
1013:Middlewares/Third_Party/LwIP/src/core/tcp.c ****       continue;
 1963              		.loc 1 1013 11 is_stmt 0 view .LVU522
 1964 004e E468     		ldr	r4, [r4, #12]
 1965              	.LVL177:
1014:Middlewares/Third_Party/LwIP/src/core/tcp.c ****     }
 1966              		.loc 1 1014 7 is_stmt 1 view .LVU523
 1967 0050 50E1     		b	.L193
 1968              	.LVL178:
 1969              	.L256:
1021:Middlewares/Third_Party/LwIP/src/core/tcp.c ****       ++pcb_remove;
 1970              		.loc 1 1021 38 is_stmt 0 discriminator 1 view .LVU524
 1971 0052 94F84220 		ldrb	r2, [r4, #66]	@ zero_extendqisi2
1021:Middlewares/Third_Party/LwIP/src/core/tcp.c ****       ++pcb_remove;
 1972              		.loc 1 1021 32 discriminator 1 view .LVU525
ARM GAS  /tmp/cc6by9MY.s 			page 74


 1973 0056 052A     		cmp	r2, #5
 1974 0058 40F26481 		bls	.L199
1022:Middlewares/Third_Party/LwIP/src/core/tcp.c ****       LWIP_DEBUGF(TCP_DEBUG, ("tcp_slowtmr: max SYN retries reached\n"));
 1975              		.loc 1 1022 7 view .LVU526
 1976 005c 0125     		movs	r5, #1
 1977 005e 48E0     		b	.L200
 1978              	.LVL179:
 1979              	.L257:
 1980              	.LBB7:
1037:Middlewares/Third_Party/LwIP/src/core/tcp.c ****             pcb->persist_cnt = 0;
 1981              		.loc 1 1037 11 is_stmt 1 view .LVU527
1037:Middlewares/Third_Party/LwIP/src/core/tcp.c ****             pcb->persist_cnt = 0;
 1982              		.loc 1 1037 15 is_stmt 0 view .LVU528
 1983 0060 2046     		mov	r0, r4
 1984 0062 FFF7FEFF 		bl	tcp_zero_window_probe
 1985              	.LVL180:
1037:Middlewares/Third_Party/LwIP/src/core/tcp.c ****             pcb->persist_cnt = 0;
 1986              		.loc 1 1037 14 view .LVU529
 1987 0066 0028     		cmp	r0, #0
 1988 0068 60D1     		bne	.L233
1038:Middlewares/Third_Party/LwIP/src/core/tcp.c ****             if (pcb->persist_backoff < sizeof(tcp_persist_backoff)) {
 1989              		.loc 1 1038 13 is_stmt 1 view .LVU530
1038:Middlewares/Third_Party/LwIP/src/core/tcp.c ****             if (pcb->persist_backoff < sizeof(tcp_persist_backoff)) {
 1990              		.loc 1 1038 30 is_stmt 0 view .LVU531
 1991 006a 0023     		movs	r3, #0
 1992 006c 84F89430 		strb	r3, [r4, #148]
1039:Middlewares/Third_Party/LwIP/src/core/tcp.c ****               pcb->persist_backoff++;
 1993              		.loc 1 1039 13 is_stmt 1 view .LVU532
1039:Middlewares/Third_Party/LwIP/src/core/tcp.c ****               pcb->persist_backoff++;
 1994              		.loc 1 1039 20 is_stmt 0 view .LVU533
 1995 0070 94F89530 		ldrb	r3, [r4, #149]	@ zero_extendqisi2
1039:Middlewares/Third_Party/LwIP/src/core/tcp.c ****               pcb->persist_backoff++;
 1996              		.loc 1 1039 16 view .LVU534
 1997 0074 062B     		cmp	r3, #6
 1998 0076 5BD8     		bhi	.L234
1040:Middlewares/Third_Party/LwIP/src/core/tcp.c ****             }
 1999              		.loc 1 1040 15 is_stmt 1 view .LVU535
1040:Middlewares/Third_Party/LwIP/src/core/tcp.c ****             }
 2000              		.loc 1 1040 35 is_stmt 0 view .LVU536
 2001 0078 0133     		adds	r3, r3, #1
 2002 007a 84F89530 		strb	r3, [r4, #149]
 2003              	.LBE7:
1018:Middlewares/Third_Party/LwIP/src/core/tcp.c ****     pcb_reset = 0;
 2004              		.loc 1 1018 16 view .LVU537
 2005 007e 0025     		movs	r5, #0
 2006              	.LVL181:
1018:Middlewares/Third_Party/LwIP/src/core/tcp.c ****     pcb_reset = 0;
 2007              		.loc 1 1018 16 view .LVU538
 2008 0080 37E0     		b	.L200
 2009              	.L201:
1046:Middlewares/Third_Party/LwIP/src/core/tcp.c ****           ++pcb->rtime;
 2010              		.loc 1 1046 9 is_stmt 1 view .LVU539
1046:Middlewares/Third_Party/LwIP/src/core/tcp.c ****           ++pcb->rtime;
 2011              		.loc 1 1046 16 is_stmt 0 view .LVU540
 2012 0082 B4F93010 		ldrsh	r1, [r4, #48]
1046:Middlewares/Third_Party/LwIP/src/core/tcp.c ****           ++pcb->rtime;
 2013              		.loc 1 1046 12 view .LVU541
ARM GAS  /tmp/cc6by9MY.s 			page 75


 2014 0086 0029     		cmp	r1, #0
 2015 0088 01DB     		blt	.L203
1047:Middlewares/Third_Party/LwIP/src/core/tcp.c ****         }
 2016              		.loc 1 1047 11 is_stmt 1 view .LVU542
 2017 008a 0131     		adds	r1, r1, #1
 2018 008c 2186     		strh	r1, [r4, #48]	@ movhi
 2019              	.L203:
1050:Middlewares/Third_Party/LwIP/src/core/tcp.c ****           /* Time for a retransmission. */
 2020              		.loc 1 1050 9 view .LVU543
1050:Middlewares/Third_Party/LwIP/src/core/tcp.c ****           /* Time for a retransmission. */
 2021              		.loc 1 1050 16 is_stmt 0 view .LVU544
 2022 008e E16E     		ldr	r1, [r4, #108]
1050:Middlewares/Third_Party/LwIP/src/core/tcp.c ****           /* Time for a retransmission. */
 2023              		.loc 1 1050 12 view .LVU545
 2024 0090 79B3     		cbz	r1, .L200
1050:Middlewares/Third_Party/LwIP/src/core/tcp.c ****           /* Time for a retransmission. */
 2025              		.loc 1 1050 40 discriminator 1 view .LVU546
 2026 0092 B4F93000 		ldrsh	r0, [r4, #48]
1050:Middlewares/Third_Party/LwIP/src/core/tcp.c ****           /* Time for a retransmission. */
 2027              		.loc 1 1050 54 discriminator 1 view .LVU547
 2028 0096 B4F94010 		ldrsh	r1, [r4, #64]
1050:Middlewares/Third_Party/LwIP/src/core/tcp.c ****           /* Time for a retransmission. */
 2029              		.loc 1 1050 34 discriminator 1 view .LVU548
 2030 009a 8842     		cmp	r0, r1
 2031 009c 29DB     		blt	.L200
1054:Middlewares/Third_Party/LwIP/src/core/tcp.c **** 
 2032              		.loc 1 1054 61 is_stmt 1 view .LVU549
1058:Middlewares/Third_Party/LwIP/src/core/tcp.c ****             u8_t backoff_idx = LWIP_MIN(pcb->nrtx, sizeof(tcp_backoff)-1);
 2033              		.loc 1 1058 11 view .LVU550
1058:Middlewares/Third_Party/LwIP/src/core/tcp.c ****             u8_t backoff_idx = LWIP_MIN(pcb->nrtx, sizeof(tcp_backoff)-1);
 2034              		.loc 1 1058 14 is_stmt 0 view .LVU551
 2035 009e 022B     		cmp	r3, #2
 2036 00a0 0DD0     		beq	.L204
 2037              	.LBB8:
1059:Middlewares/Third_Party/LwIP/src/core/tcp.c ****             pcb->rto = ((pcb->sa >> 3) + pcb->sv) << tcp_backoff[backoff_idx];
 2038              		.loc 1 1059 13 is_stmt 1 view .LVU552
1059:Middlewares/Third_Party/LwIP/src/core/tcp.c ****             pcb->rto = ((pcb->sa >> 3) + pcb->sv) << tcp_backoff[backoff_idx];
 2039              		.loc 1 1059 18 is_stmt 0 view .LVU553
 2040 00a2 0C2A     		cmp	r2, #12
 2041 00a4 28BF     		it	cs
 2042 00a6 0C22     		movcs	r2, #12
 2043              	.LVL182:
1060:Middlewares/Third_Party/LwIP/src/core/tcp.c ****           }
 2044              		.loc 1 1060 13 is_stmt 1 view .LVU554
1060:Middlewares/Third_Party/LwIP/src/core/tcp.c ****           }
 2045              		.loc 1 1060 29 is_stmt 0 view .LVU555
 2046 00a8 B4F93C10 		ldrsh	r1, [r4, #60]
1060:Middlewares/Third_Party/LwIP/src/core/tcp.c ****           }
 2047              		.loc 1 1060 45 view .LVU556
 2048 00ac B4F93E30 		ldrsh	r3, [r4, #62]
1060:Middlewares/Third_Party/LwIP/src/core/tcp.c ****           }
 2049              		.loc 1 1060 40 view .LVU557
 2050 00b0 03EBE103 		add	r3, r3, r1, asr #3
1060:Middlewares/Third_Party/LwIP/src/core/tcp.c ****           }
 2051              		.loc 1 1060 65 view .LVU558
 2052 00b4 8749     		ldr	r1, .L261+32
 2053 00b6 8A5C     		ldrb	r2, [r1, r2]	@ zero_extendqisi2
ARM GAS  /tmp/cc6by9MY.s 			page 76


 2054              	.LVL183:
1060:Middlewares/Third_Party/LwIP/src/core/tcp.c ****           }
 2055              		.loc 1 1060 51 view .LVU559
 2056 00b8 9340     		lsls	r3, r3, r2
1060:Middlewares/Third_Party/LwIP/src/core/tcp.c ****           }
 2057              		.loc 1 1060 22 view .LVU560
 2058 00ba A4F84030 		strh	r3, [r4, #64]	@ movhi
 2059              	.LVL184:
 2060              	.L204:
1060:Middlewares/Third_Party/LwIP/src/core/tcp.c ****           }
 2061              		.loc 1 1060 22 view .LVU561
 2062              	.LBE8:
1064:Middlewares/Third_Party/LwIP/src/core/tcp.c **** 
 2063              		.loc 1 1064 11 is_stmt 1 view .LVU562
1064:Middlewares/Third_Party/LwIP/src/core/tcp.c **** 
 2064              		.loc 1 1064 22 is_stmt 0 view .LVU563
 2065 00be 0023     		movs	r3, #0
 2066 00c0 2386     		strh	r3, [r4, #48]	@ movhi
1067:Middlewares/Third_Party/LwIP/src/core/tcp.c ****           pcb->ssthresh = eff_wnd >> 1;
 2067              		.loc 1 1067 11 is_stmt 1 view .LVU564
1067:Middlewares/Third_Party/LwIP/src/core/tcp.c ****           pcb->ssthresh = eff_wnd >> 1;
 2068              		.loc 1 1067 21 is_stmt 0 view .LVU565
 2069 00c2 B4F85C30 		ldrh	r3, [r4, #92]
 2070 00c6 B4F84820 		ldrh	r2, [r4, #72]
1067:Middlewares/Third_Party/LwIP/src/core/tcp.c ****           pcb->ssthresh = eff_wnd >> 1;
 2071              		.loc 1 1067 19 view .LVU566
 2072 00ca 9342     		cmp	r3, r2
 2073 00cc 28BF     		it	cs
 2074 00ce 1346     		movcs	r3, r2
 2075              	.LVL185:
1068:Middlewares/Third_Party/LwIP/src/core/tcp.c ****           if (pcb->ssthresh < (tcpwnd_size_t)(pcb->mss << 1)) {
 2076              		.loc 1 1068 11 is_stmt 1 view .LVU567
1068:Middlewares/Third_Party/LwIP/src/core/tcp.c ****           if (pcb->ssthresh < (tcpwnd_size_t)(pcb->mss << 1)) {
 2077              		.loc 1 1068 25 is_stmt 0 view .LVU568
 2078 00d0 5B08     		lsrs	r3, r3, #1
 2079              	.LVL186:
1068:Middlewares/Third_Party/LwIP/src/core/tcp.c ****           if (pcb->ssthresh < (tcpwnd_size_t)(pcb->mss << 1)) {
 2080              		.loc 1 1068 25 view .LVU569
 2081 00d2 A4F84A30 		strh	r3, [r4, #74]	@ movhi
1069:Middlewares/Third_Party/LwIP/src/core/tcp.c ****             pcb->ssthresh = (pcb->mss << 1);
 2082              		.loc 1 1069 11 is_stmt 1 view .LVU570
1069:Middlewares/Third_Party/LwIP/src/core/tcp.c ****             pcb->ssthresh = (pcb->mss << 1);
 2083              		.loc 1 1069 50 is_stmt 0 view .LVU571
 2084 00d6 618E     		ldrh	r1, [r4, #50]
1069:Middlewares/Third_Party/LwIP/src/core/tcp.c ****             pcb->ssthresh = (pcb->mss << 1);
 2085              		.loc 1 1069 31 view .LVU572
 2086 00d8 4A00     		lsls	r2, r1, #1
 2087              	.LVL187:
1069:Middlewares/Third_Party/LwIP/src/core/tcp.c ****             pcb->ssthresh = (pcb->mss << 1);
 2088              		.loc 1 1069 31 view .LVU573
 2089 00da 92B2     		uxth	r2, r2
1069:Middlewares/Third_Party/LwIP/src/core/tcp.c ****             pcb->ssthresh = (pcb->mss << 1);
 2090              		.loc 1 1069 14 view .LVU574
 2091 00dc 9342     		cmp	r3, r2
 2092              	.LVL188:
1069:Middlewares/Third_Party/LwIP/src/core/tcp.c ****             pcb->ssthresh = (pcb->mss << 1);
 2093              		.loc 1 1069 14 view .LVU575
ARM GAS  /tmp/cc6by9MY.s 			page 77


 2094 00de 01D2     		bcs	.L205
1070:Middlewares/Third_Party/LwIP/src/core/tcp.c ****           }
 2095              		.loc 1 1070 13 is_stmt 1 view .LVU576
1070:Middlewares/Third_Party/LwIP/src/core/tcp.c ****           }
 2096              		.loc 1 1070 27 is_stmt 0 view .LVU577
 2097 00e0 A4F84A20 		strh	r2, [r4, #74]	@ movhi
 2098              	.L205:
1072:Middlewares/Third_Party/LwIP/src/core/tcp.c ****           LWIP_DEBUGF(TCP_CWND_DEBUG, ("tcp_slowtmr: cwnd %"TCPWNDSIZE_F
 2099              		.loc 1 1072 11 is_stmt 1 view .LVU578
1072:Middlewares/Third_Party/LwIP/src/core/tcp.c ****           LWIP_DEBUGF(TCP_CWND_DEBUG, ("tcp_slowtmr: cwnd %"TCPWNDSIZE_F
 2100              		.loc 1 1072 21 is_stmt 0 view .LVU579
 2101 00e4 A4F84810 		strh	r1, [r4, #72]	@ movhi
 2102              	.LVL189:
1075:Middlewares/Third_Party/LwIP/src/core/tcp.c **** 
 2103              		.loc 1 1075 66 is_stmt 1 view .LVU580
1079:Middlewares/Third_Party/LwIP/src/core/tcp.c ****         }
 2104              		.loc 1 1079 11 view .LVU581
 2105 00e8 2046     		mov	r0, r4
 2106 00ea FFF7FEFF 		bl	tcp_rexmit_rto
 2107              	.LVL190:
1079:Middlewares/Third_Party/LwIP/src/core/tcp.c ****         }
 2108              		.loc 1 1079 11 is_stmt 0 view .LVU582
 2109 00ee 00E0     		b	.L200
 2110              	.L231:
1026:Middlewares/Third_Party/LwIP/src/core/tcp.c ****       LWIP_DEBUGF(TCP_DEBUG, ("tcp_slowtmr: max DATA retries reached\n"));
 2111              		.loc 1 1026 7 view .LVU583
 2112 00f0 0125     		movs	r5, #1
 2113              	.L200:
 2114              	.LVL191:
1084:Middlewares/Third_Party/LwIP/src/core/tcp.c ****       /* If this PCB is in FIN_WAIT_2 because of SHUT_WR don't let it time out. */
 2115              		.loc 1 1084 5 is_stmt 1 view .LVU584
1084:Middlewares/Third_Party/LwIP/src/core/tcp.c ****       /* If this PCB is in FIN_WAIT_2 because of SHUT_WR don't let it time out. */
 2116              		.loc 1 1084 12 is_stmt 0 view .LVU585
 2117 00f2 237D     		ldrb	r3, [r4, #20]	@ zero_extendqisi2
1084:Middlewares/Third_Party/LwIP/src/core/tcp.c ****       /* If this PCB is in FIN_WAIT_2 because of SHUT_WR don't let it time out. */
 2118              		.loc 1 1084 8 view .LVU586
 2119 00f4 062B     		cmp	r3, #6
 2120 00f6 1DD0     		beq	.L242
 2121              	.L206:
1092:Middlewares/Third_Party/LwIP/src/core/tcp.c ****         }
 2122              		.loc 1 1092 86 is_stmt 1 view .LVU587
1098:Middlewares/Third_Party/LwIP/src/core/tcp.c ****        ((pcb->state == ESTABLISHED) ||
 2123              		.loc 1 1098 5 view .LVU588
1098:Middlewares/Third_Party/LwIP/src/core/tcp.c ****        ((pcb->state == ESTABLISHED) ||
 2124              		.loc 1 1098 9 is_stmt 0 view .LVU589
 2125 00f8 227A     		ldrb	r2, [r4, #8]	@ zero_extendqisi2
1098:Middlewares/Third_Party/LwIP/src/core/tcp.c ****        ((pcb->state == ESTABLISHED) ||
 2126              		.loc 1 1098 8 view .LVU590
 2127 00fa 12F00807 		ands	r7, r2, #8
 2128 00fe 40D0     		beq	.L207
1098:Middlewares/Third_Party/LwIP/src/core/tcp.c ****        ((pcb->state == ESTABLISHED) ||
 2129              		.loc 1 1098 43 discriminator 1 view .LVU591
 2130 0100 072B     		cmp	r3, #7
 2131 0102 18BF     		it	ne
 2132 0104 042B     		cmpne	r3, #4
 2133 0106 3BD1     		bne	.L235
1101:Middlewares/Third_Party/LwIP/src/core/tcp.c ****          (pcb->keep_idle + TCP_KEEP_DUR(pcb)) / TCP_SLOW_INTERVAL)
ARM GAS  /tmp/cc6by9MY.s 			page 78


 2134              		.loc 1 1101 7 is_stmt 1 view .LVU592
1101:Middlewares/Third_Party/LwIP/src/core/tcp.c ****          (pcb->keep_idle + TCP_KEEP_DUR(pcb)) / TCP_SLOW_INTERVAL)
 2135              		.loc 1 1101 11 is_stmt 0 view .LVU593
 2136 0108 6A4B     		ldr	r3, .L261
 2137 010a 1A68     		ldr	r2, [r3]
1101:Middlewares/Third_Party/LwIP/src/core/tcp.c ****          (pcb->keep_idle + TCP_KEEP_DUR(pcb)) / TCP_SLOW_INTERVAL)
 2138              		.loc 1 1101 34 view .LVU594
 2139 010c 236A     		ldr	r3, [r4, #32]
1101:Middlewares/Third_Party/LwIP/src/core/tcp.c ****          (pcb->keep_idle + TCP_KEEP_DUR(pcb)) / TCP_SLOW_INTERVAL)
 2140              		.loc 1 1101 29 view .LVU595
 2141 010e D21A     		subs	r2, r2, r3
1102:Middlewares/Third_Party/LwIP/src/core/tcp.c ****       {
 2142              		.loc 1 1102 14 view .LVU596
 2143 0110 D4F89010 		ldr	r1, [r4, #144]
1102:Middlewares/Third_Party/LwIP/src/core/tcp.c ****       {
 2144              		.loc 1 1102 26 view .LVU597
 2145 0114 704B     		ldr	r3, .L261+36
 2146 0116 0B44     		add	r3, r3, r1
1102:Middlewares/Third_Party/LwIP/src/core/tcp.c ****       {
 2147              		.loc 1 1102 47 view .LVU598
 2148 0118 7048     		ldr	r0, .L261+40
 2149 011a A0FB0303 		umull	r0, r3, r0, r3
1101:Middlewares/Third_Party/LwIP/src/core/tcp.c ****          (pcb->keep_idle + TCP_KEEP_DUR(pcb)) / TCP_SLOW_INTERVAL)
 2150              		.loc 1 1101 10 view .LVU599
 2151 011e B2EB531F 		cmp	r2, r3, lsr #5
 2152 0122 14D9     		bls	.L208
1104:Middlewares/Third_Party/LwIP/src/core/tcp.c ****         ip_addr_debug_print(TCP_DEBUG, &pcb->remote_ip);
 2153              		.loc 1 1104 92 is_stmt 1 view .LVU600
1105:Middlewares/Third_Party/LwIP/src/core/tcp.c ****         LWIP_DEBUGF(TCP_DEBUG, ("\n"));
 2154              		.loc 1 1105 56 view .LVU601
1106:Middlewares/Third_Party/LwIP/src/core/tcp.c **** 
 2155              		.loc 1 1106 39 view .LVU602
1108:Middlewares/Third_Party/LwIP/src/core/tcp.c ****         ++pcb_reset;
 2156              		.loc 1 1108 9 view .LVU603
 2157 0124 0135     		adds	r5, r5, #1
 2158              	.LVL192:
1108:Middlewares/Third_Party/LwIP/src/core/tcp.c ****         ++pcb_reset;
 2159              		.loc 1 1108 9 is_stmt 0 view .LVU604
 2160 0126 EDB2     		uxtb	r5, r5
 2161              	.LVL193:
1109:Middlewares/Third_Party/LwIP/src/core/tcp.c ****       } else if ((u32_t)(tcp_ticks - pcb->tmr) >
 2162              		.loc 1 1109 9 is_stmt 1 view .LVU605
1109:Middlewares/Third_Party/LwIP/src/core/tcp.c ****       } else if ((u32_t)(tcp_ticks - pcb->tmr) >
 2163              		.loc 1 1109 9 is_stmt 0 view .LVU606
 2164 0128 0127     		movs	r7, #1
 2165 012a 2AE0     		b	.L207
 2166              	.LVL194:
 2167              	.L233:
1018:Middlewares/Third_Party/LwIP/src/core/tcp.c ****     pcb_reset = 0;
 2168              		.loc 1 1018 16 view .LVU607
 2169 012c 0025     		movs	r5, #0
 2170              	.LVL195:
1018:Middlewares/Third_Party/LwIP/src/core/tcp.c ****     pcb_reset = 0;
 2171              		.loc 1 1018 16 view .LVU608
 2172 012e E0E7     		b	.L200
 2173              	.LVL196:
 2174              	.L234:
ARM GAS  /tmp/cc6by9MY.s 			page 79


1018:Middlewares/Third_Party/LwIP/src/core/tcp.c ****     pcb_reset = 0;
 2175              		.loc 1 1018 16 view .LVU609
 2176 0130 0025     		movs	r5, #0
 2177              	.LVL197:
1018:Middlewares/Third_Party/LwIP/src/core/tcp.c ****     pcb_reset = 0;
 2178              		.loc 1 1018 16 view .LVU610
 2179 0132 DEE7     		b	.L200
 2180              	.LVL198:
 2181              	.L242:
1086:Middlewares/Third_Party/LwIP/src/core/tcp.c ****         /* PCB was fully closed (either through close() or SHUT_RDWR):
 2182              		.loc 1 1086 7 is_stmt 1 view .LVU611
1086:Middlewares/Third_Party/LwIP/src/core/tcp.c ****         /* PCB was fully closed (either through close() or SHUT_RDWR):
 2183              		.loc 1 1086 14 is_stmt 0 view .LVU612
 2184 0134 A27E     		ldrb	r2, [r4, #26]	@ zero_extendqisi2
1086:Middlewares/Third_Party/LwIP/src/core/tcp.c ****         /* PCB was fully closed (either through close() or SHUT_RDWR):
 2185              		.loc 1 1086 10 view .LVU613
 2186 0136 12F0100F 		tst	r2, #16
 2187 013a DDD0     		beq	.L206
1089:Middlewares/Third_Party/LwIP/src/core/tcp.c ****             TCP_FIN_WAIT_TIMEOUT / TCP_SLOW_INTERVAL) {
 2188              		.loc 1 1089 9 is_stmt 1 view .LVU614
1089:Middlewares/Third_Party/LwIP/src/core/tcp.c ****             TCP_FIN_WAIT_TIMEOUT / TCP_SLOW_INTERVAL) {
 2189              		.loc 1 1089 36 is_stmt 0 view .LVU615
 2190 013c 216A     		ldr	r1, [r4, #32]
1089:Middlewares/Third_Party/LwIP/src/core/tcp.c ****             TCP_FIN_WAIT_TIMEOUT / TCP_SLOW_INTERVAL) {
 2191              		.loc 1 1089 31 view .LVU616
 2192 013e 5D4A     		ldr	r2, .L261
 2193 0140 1268     		ldr	r2, [r2]
 2194 0142 521A     		subs	r2, r2, r1
1089:Middlewares/Third_Party/LwIP/src/core/tcp.c ****             TCP_FIN_WAIT_TIMEOUT / TCP_SLOW_INTERVAL) {
 2195              		.loc 1 1089 12 view .LVU617
 2196 0144 282A     		cmp	r2, #40
 2197 0146 D7D9     		bls	.L206
1091:Middlewares/Third_Party/LwIP/src/core/tcp.c ****           LWIP_DEBUGF(TCP_DEBUG, ("tcp_slowtmr: removing pcb stuck in FIN-WAIT-2\n"));
 2198              		.loc 1 1091 11 is_stmt 1 view .LVU618
 2199 0148 0135     		adds	r5, r5, #1
 2200              	.LVL199:
1091:Middlewares/Third_Party/LwIP/src/core/tcp.c ****           LWIP_DEBUGF(TCP_DEBUG, ("tcp_slowtmr: removing pcb stuck in FIN-WAIT-2\n"));
 2201              		.loc 1 1091 11 is_stmt 0 view .LVU619
 2202 014a EDB2     		uxtb	r5, r5
 2203              	.LVL200:
1091:Middlewares/Third_Party/LwIP/src/core/tcp.c ****           LWIP_DEBUGF(TCP_DEBUG, ("tcp_slowtmr: removing pcb stuck in FIN-WAIT-2\n"));
 2204              		.loc 1 1091 11 view .LVU620
 2205 014c D4E7     		b	.L206
 2206              	.L208:
1110:Middlewares/Third_Party/LwIP/src/core/tcp.c ****                 (pcb->keep_idle + pcb->keep_cnt_sent * TCP_KEEP_INTVL(pcb))
 2207              		.loc 1 1110 14 is_stmt 1 view .LVU621
1111:Middlewares/Third_Party/LwIP/src/core/tcp.c ****                 / TCP_SLOW_INTERVAL)
 2208              		.loc 1 1111 38 is_stmt 0 view .LVU622
 2209 014e 94F89630 		ldrb	r3, [r4, #150]	@ zero_extendqisi2
1111:Middlewares/Third_Party/LwIP/src/core/tcp.c ****                 / TCP_SLOW_INTERVAL)
 2210              		.loc 1 1111 33 view .LVU623
 2211 0152 6348     		ldr	r0, .L261+44
 2212 0154 00FB0313 		mla	r3, r0, r3, r1
1112:Middlewares/Third_Party/LwIP/src/core/tcp.c ****       {
 2213              		.loc 1 1112 17 view .LVU624
 2214 0158 6049     		ldr	r1, .L261+40
 2215 015a A1FB0313 		umull	r1, r3, r1, r3
ARM GAS  /tmp/cc6by9MY.s 			page 80


1110:Middlewares/Third_Party/LwIP/src/core/tcp.c ****                 (pcb->keep_idle + pcb->keep_cnt_sent * TCP_KEEP_INTVL(pcb))
 2216              		.loc 1 1110 17 view .LVU625
 2217 015e B2EB531F 		cmp	r2, r3, lsr #5
 2218 0162 01D8     		bhi	.L243
1019:Middlewares/Third_Party/LwIP/src/core/tcp.c **** 
 2219              		.loc 1 1019 15 view .LVU626
 2220 0164 0027     		movs	r7, #0
 2221 0166 0CE0     		b	.L207
 2222              	.L243:
1114:Middlewares/Third_Party/LwIP/src/core/tcp.c ****         if (err == ERR_OK) {
 2223              		.loc 1 1114 9 is_stmt 1 view .LVU627
1114:Middlewares/Third_Party/LwIP/src/core/tcp.c ****         if (err == ERR_OK) {
 2224              		.loc 1 1114 15 is_stmt 0 view .LVU628
 2225 0168 2046     		mov	r0, r4
 2226 016a FFF7FEFF 		bl	tcp_keepalive
 2227              	.LVL201:
1115:Middlewares/Third_Party/LwIP/src/core/tcp.c ****           pcb->keep_cnt_sent++;
 2228              		.loc 1 1115 9 is_stmt 1 view .LVU629
1115:Middlewares/Third_Party/LwIP/src/core/tcp.c ****           pcb->keep_cnt_sent++;
 2229              		.loc 1 1115 12 is_stmt 0 view .LVU630
 2230 016e 0028     		cmp	r0, #0
 2231 0170 39D1     		bne	.L237
1116:Middlewares/Third_Party/LwIP/src/core/tcp.c ****         }
 2232              		.loc 1 1116 11 is_stmt 1 view .LVU631
1116:Middlewares/Third_Party/LwIP/src/core/tcp.c ****         }
 2233              		.loc 1 1116 14 is_stmt 0 view .LVU632
 2234 0172 94F89630 		ldrb	r3, [r4, #150]	@ zero_extendqisi2
1116:Middlewares/Third_Party/LwIP/src/core/tcp.c ****         }
 2235              		.loc 1 1116 29 view .LVU633
 2236 0176 0133     		adds	r3, r3, #1
 2237 0178 84F89630 		strb	r3, [r4, #150]
1019:Middlewares/Third_Party/LwIP/src/core/tcp.c **** 
 2238              		.loc 1 1019 15 view .LVU634
 2239 017c 0027     		movs	r7, #0
 2240 017e 00E0     		b	.L207
 2241              	.LVL202:
 2242              	.L235:
1019:Middlewares/Third_Party/LwIP/src/core/tcp.c **** 
 2243              		.loc 1 1019 15 view .LVU635
 2244 0180 0027     		movs	r7, #0
 2245              	.LVL203:
 2246              	.L207:
1125:Middlewares/Third_Party/LwIP/src/core/tcp.c ****         (u32_t)tcp_ticks - pcb->tmr >= pcb->rto * TCP_OOSEQ_TIMEOUT) {
 2247              		.loc 1 1125 5 is_stmt 1 view .LVU636
1125:Middlewares/Third_Party/LwIP/src/core/tcp.c ****         (u32_t)tcp_ticks - pcb->tmr >= pcb->rto * TCP_OOSEQ_TIMEOUT) {
 2248              		.loc 1 1125 12 is_stmt 0 view .LVU637
 2249 0182 206F     		ldr	r0, [r4, #112]
1125:Middlewares/Third_Party/LwIP/src/core/tcp.c ****         (u32_t)tcp_ticks - pcb->tmr >= pcb->rto * TCP_OOSEQ_TIMEOUT) {
 2250              		.loc 1 1125 8 view .LVU638
 2251 0184 50B1     		cbz	r0, .L209
1126:Middlewares/Third_Party/LwIP/src/core/tcp.c ****       tcp_segs_free(pcb->ooseq);
 2252              		.loc 1 1126 9 discriminator 1 view .LVU639
 2253 0186 4B4B     		ldr	r3, .L261
 2254 0188 1A68     		ldr	r2, [r3]
1126:Middlewares/Third_Party/LwIP/src/core/tcp.c ****       tcp_segs_free(pcb->ooseq);
 2255              		.loc 1 1126 31 discriminator 1 view .LVU640
 2256 018a 236A     		ldr	r3, [r4, #32]
ARM GAS  /tmp/cc6by9MY.s 			page 81


1126:Middlewares/Third_Party/LwIP/src/core/tcp.c ****       tcp_segs_free(pcb->ooseq);
 2257              		.loc 1 1126 26 discriminator 1 view .LVU641
 2258 018c D21A     		subs	r2, r2, r3
1126:Middlewares/Third_Party/LwIP/src/core/tcp.c ****       tcp_segs_free(pcb->ooseq);
 2259              		.loc 1 1126 43 discriminator 1 view .LVU642
 2260 018e B4F94030 		ldrsh	r3, [r4, #64]
1126:Middlewares/Third_Party/LwIP/src/core/tcp.c ****       tcp_segs_free(pcb->ooseq);
 2261              		.loc 1 1126 49 discriminator 1 view .LVU643
 2262 0192 03EB4303 		add	r3, r3, r3, lsl #1
 2263 0196 5900     		lsls	r1, r3, #1
1125:Middlewares/Third_Party/LwIP/src/core/tcp.c ****         (u32_t)tcp_ticks - pcb->tmr >= pcb->rto * TCP_OOSEQ_TIMEOUT) {
 2264              		.loc 1 1125 28 discriminator 1 view .LVU644
 2265 0198 8A42     		cmp	r2, r1
 2266 019a 26D2     		bcs	.L244
 2267              	.L209:
1129:Middlewares/Third_Party/LwIP/src/core/tcp.c ****     }
 2268              		.loc 1 1129 81 is_stmt 1 view .LVU645
1134:Middlewares/Third_Party/LwIP/src/core/tcp.c ****       if ((u32_t)(tcp_ticks - pcb->tmr) >
 2269              		.loc 1 1134 5 view .LVU646
1134:Middlewares/Third_Party/LwIP/src/core/tcp.c ****       if ((u32_t)(tcp_ticks - pcb->tmr) >
 2270              		.loc 1 1134 12 is_stmt 0 view .LVU647
 2271 019c 237D     		ldrb	r3, [r4, #20]	@ zero_extendqisi2
1134:Middlewares/Third_Party/LwIP/src/core/tcp.c ****       if ((u32_t)(tcp_ticks - pcb->tmr) >
 2272              		.loc 1 1134 8 view .LVU648
 2273 019e 032B     		cmp	r3, #3
 2274 01a0 28D0     		beq	.L245
 2275              	.L210:
1138:Middlewares/Third_Party/LwIP/src/core/tcp.c ****       }
 2276              		.loc 1 1138 82 is_stmt 1 view .LVU649
1143:Middlewares/Third_Party/LwIP/src/core/tcp.c ****       if ((u32_t)(tcp_ticks - pcb->tmr) > 2 * TCP_MSL / TCP_SLOW_INTERVAL) {
 2277              		.loc 1 1143 5 view .LVU650
1143:Middlewares/Third_Party/LwIP/src/core/tcp.c ****       if ((u32_t)(tcp_ticks - pcb->tmr) > 2 * TCP_MSL / TCP_SLOW_INTERVAL) {
 2278              		.loc 1 1143 8 is_stmt 0 view .LVU651
 2279 01a2 092B     		cmp	r3, #9
 2280 01a4 2FD0     		beq	.L246
 2281              	.L211:
1146:Middlewares/Third_Party/LwIP/src/core/tcp.c ****       }
 2282              		.loc 1 1146 82 is_stmt 1 view .LVU652
1151:Middlewares/Third_Party/LwIP/src/core/tcp.c ****       struct tcp_pcb *pcb2;
 2283              		.loc 1 1151 5 view .LVU653
1151:Middlewares/Third_Party/LwIP/src/core/tcp.c ****       struct tcp_pcb *pcb2;
 2284              		.loc 1 1151 8 is_stmt 0 view .LVU654
 2285 01a6 002D     		cmp	r5, #0
 2286 01a8 36D1     		bne	.L247
1187:Middlewares/Third_Party/LwIP/src/core/tcp.c ****       pcb = pcb->next;
 2287              		.loc 1 1187 7 is_stmt 1 view .LVU655
 2288              	.LVL204:
1188:Middlewares/Third_Party/LwIP/src/core/tcp.c **** 
 2289              		.loc 1 1188 7 view .LVU656
1188:Middlewares/Third_Party/LwIP/src/core/tcp.c **** 
 2290              		.loc 1 1188 11 is_stmt 0 view .LVU657
 2291 01aa E568     		ldr	r5, [r4, #12]
 2292              	.LVL205:
1191:Middlewares/Third_Party/LwIP/src/core/tcp.c ****       if (prev->polltmr >= prev->pollinterval) {
 2293              		.loc 1 1191 7 is_stmt 1 view .LVU658
1191:Middlewares/Third_Party/LwIP/src/core/tcp.c ****       if (prev->polltmr >= prev->pollinterval) {
 2294              		.loc 1 1191 13 is_stmt 0 view .LVU659
ARM GAS  /tmp/cc6by9MY.s 			page 82


 2295 01ac E37E     		ldrb	r3, [r4, #27]	@ zero_extendqisi2
1191:Middlewares/Third_Party/LwIP/src/core/tcp.c ****       if (prev->polltmr >= prev->pollinterval) {
 2296              		.loc 1 1191 7 view .LVU660
 2297 01ae 0133     		adds	r3, r3, #1
 2298 01b0 DBB2     		uxtb	r3, r3
 2299 01b2 E376     		strb	r3, [r4, #27]
1192:Middlewares/Third_Party/LwIP/src/core/tcp.c ****         prev->polltmr = 0;
 2300              		.loc 1 1192 7 is_stmt 1 view .LVU661
1192:Middlewares/Third_Party/LwIP/src/core/tcp.c ****         prev->polltmr = 0;
 2301              		.loc 1 1192 32 is_stmt 0 view .LVU662
 2302 01b4 227F     		ldrb	r2, [r4, #28]	@ zero_extendqisi2
1192:Middlewares/Third_Party/LwIP/src/core/tcp.c ****         prev->polltmr = 0;
 2303              		.loc 1 1192 10 view .LVU663
 2304 01b6 9342     		cmp	r3, r2
 2305 01b8 C0F09A80 		bcc	.L238
1193:Middlewares/Third_Party/LwIP/src/core/tcp.c ****         LWIP_DEBUGF(TCP_DEBUG, ("tcp_slowtmr: polling application\n"));
 2306              		.loc 1 1193 9 is_stmt 1 view .LVU664
1193:Middlewares/Third_Party/LwIP/src/core/tcp.c ****         LWIP_DEBUGF(TCP_DEBUG, ("tcp_slowtmr: polling application\n"));
 2307              		.loc 1 1193 23 is_stmt 0 view .LVU665
 2308 01bc 0023     		movs	r3, #0
 2309 01be E376     		strb	r3, [r4, #27]
1194:Middlewares/Third_Party/LwIP/src/core/tcp.c ****         tcp_active_pcbs_changed = 0;
 2310              		.loc 1 1194 71 is_stmt 1 view .LVU666
1195:Middlewares/Third_Party/LwIP/src/core/tcp.c ****         TCP_EVENT_POLL(prev, err);
 2311              		.loc 1 1195 9 view .LVU667
1195:Middlewares/Third_Party/LwIP/src/core/tcp.c ****         TCP_EVENT_POLL(prev, err);
 2312              		.loc 1 1195 33 is_stmt 0 view .LVU668
 2313 01c0 484A     		ldr	r2, .L261+48
 2314 01c2 1370     		strb	r3, [r2]
1196:Middlewares/Third_Party/LwIP/src/core/tcp.c ****         if (tcp_active_pcbs_changed) {
 2315              		.loc 1 1196 9 is_stmt 1 view .LVU669
1196:Middlewares/Third_Party/LwIP/src/core/tcp.c ****         if (tcp_active_pcbs_changed) {
 2316              		.loc 1 1196 9 view .LVU670
 2317 01c4 D4F88830 		ldr	r3, [r4, #136]
 2318 01c8 002B     		cmp	r3, #0
 2319 01ca 6AD0     		beq	.L239
1196:Middlewares/Third_Party/LwIP/src/core/tcp.c ****         if (tcp_active_pcbs_changed) {
 2320              		.loc 1 1196 9 discriminator 1 view .LVU671
 2321 01cc 2146     		mov	r1, r4
 2322 01ce 2069     		ldr	r0, [r4, #16]
 2323 01d0 9847     		blx	r3
 2324              	.LVL206:
 2325              	.L219:
1197:Middlewares/Third_Party/LwIP/src/core/tcp.c ****           goto tcp_slowtmr_start;
 2326              		.loc 1 1197 9 view .LVU672
1197:Middlewares/Third_Party/LwIP/src/core/tcp.c ****           goto tcp_slowtmr_start;
 2327              		.loc 1 1197 13 is_stmt 0 view .LVU673
 2328 01d2 444B     		ldr	r3, .L261+48
 2329 01d4 1B78     		ldrb	r3, [r3]	@ zero_extendqisi2
1197:Middlewares/Third_Party/LwIP/src/core/tcp.c ****           goto tcp_slowtmr_start;
 2330              		.loc 1 1197 12 view .LVU674
 2331 01d6 002B     		cmp	r3, #0
 2332 01d8 7FF41DAF 		bne	.L191
1201:Middlewares/Third_Party/LwIP/src/core/tcp.c ****           tcp_output(prev);
 2333              		.loc 1 1201 9 is_stmt 1 view .LVU675
1201:Middlewares/Third_Party/LwIP/src/core/tcp.c ****           tcp_output(prev);
 2334              		.loc 1 1201 12 is_stmt 0 view .LVU676
ARM GAS  /tmp/cc6by9MY.s 			page 83


 2335 01dc 0028     		cmp	r0, #0
 2336 01de 62D0     		beq	.L248
1187:Middlewares/Third_Party/LwIP/src/core/tcp.c ****       pcb = pcb->next;
 2337              		.loc 1 1187 12 view .LVU677
 2338 01e0 2646     		mov	r6, r4
1188:Middlewares/Third_Party/LwIP/src/core/tcp.c **** 
 2339              		.loc 1 1188 11 view .LVU678
 2340 01e2 2C46     		mov	r4, r5
 2341              	.LVL207:
1188:Middlewares/Third_Party/LwIP/src/core/tcp.c **** 
 2342              		.loc 1 1188 11 view .LVU679
 2343 01e4 86E0     		b	.L193
 2344              	.LVL208:
 2345              	.L237:
1019:Middlewares/Third_Party/LwIP/src/core/tcp.c **** 
 2346              		.loc 1 1019 15 view .LVU680
 2347 01e6 0027     		movs	r7, #0
 2348 01e8 CBE7     		b	.L207
 2349              	.LVL209:
 2350              	.L244:
1127:Middlewares/Third_Party/LwIP/src/core/tcp.c ****       pcb->ooseq = NULL;
 2351              		.loc 1 1127 7 is_stmt 1 view .LVU681
 2352 01ea FFF7FEFF 		bl	tcp_segs_free
 2353              	.LVL210:
1128:Middlewares/Third_Party/LwIP/src/core/tcp.c ****       LWIP_DEBUGF(TCP_CWND_DEBUG, ("tcp_slowtmr: dropping OOSEQ queued data\n"));
 2354              		.loc 1 1128 7 view .LVU682
1128:Middlewares/Third_Party/LwIP/src/core/tcp.c ****       LWIP_DEBUGF(TCP_CWND_DEBUG, ("tcp_slowtmr: dropping OOSEQ queued data\n"));
 2355              		.loc 1 1128 18 is_stmt 0 view .LVU683
 2356 01ee 0023     		movs	r3, #0
 2357 01f0 2367     		str	r3, [r4, #112]
 2358 01f2 D3E7     		b	.L209
 2359              	.L245:
1135:Middlewares/Third_Party/LwIP/src/core/tcp.c ****           TCP_SYN_RCVD_TIMEOUT / TCP_SLOW_INTERVAL) {
 2360              		.loc 1 1135 7 is_stmt 1 view .LVU684
1135:Middlewares/Third_Party/LwIP/src/core/tcp.c ****           TCP_SYN_RCVD_TIMEOUT / TCP_SLOW_INTERVAL) {
 2361              		.loc 1 1135 34 is_stmt 0 view .LVU685
 2362 01f4 216A     		ldr	r1, [r4, #32]
1135:Middlewares/Third_Party/LwIP/src/core/tcp.c ****           TCP_SYN_RCVD_TIMEOUT / TCP_SLOW_INTERVAL) {
 2363              		.loc 1 1135 29 view .LVU686
 2364 01f6 2F4A     		ldr	r2, .L261
 2365 01f8 1268     		ldr	r2, [r2]
 2366 01fa 521A     		subs	r2, r2, r1
1135:Middlewares/Third_Party/LwIP/src/core/tcp.c ****           TCP_SYN_RCVD_TIMEOUT / TCP_SLOW_INTERVAL) {
 2367              		.loc 1 1135 10 view .LVU687
 2368 01fc 282A     		cmp	r2, #40
 2369 01fe D0D9     		bls	.L210
1137:Middlewares/Third_Party/LwIP/src/core/tcp.c ****         LWIP_DEBUGF(TCP_DEBUG, ("tcp_slowtmr: removing pcb stuck in SYN-RCVD\n"));
 2370              		.loc 1 1137 9 is_stmt 1 view .LVU688
 2371 0200 0135     		adds	r5, r5, #1
 2372              	.LVL211:
1137:Middlewares/Third_Party/LwIP/src/core/tcp.c ****         LWIP_DEBUGF(TCP_DEBUG, ("tcp_slowtmr: removing pcb stuck in SYN-RCVD\n"));
 2373              		.loc 1 1137 9 is_stmt 0 view .LVU689
 2374 0202 EDB2     		uxtb	r5, r5
 2375              	.LVL212:
1137:Middlewares/Third_Party/LwIP/src/core/tcp.c ****         LWIP_DEBUGF(TCP_DEBUG, ("tcp_slowtmr: removing pcb stuck in SYN-RCVD\n"));
 2376              		.loc 1 1137 9 view .LVU690
 2377 0204 CDE7     		b	.L210
ARM GAS  /tmp/cc6by9MY.s 			page 84


 2378              	.L246:
1144:Middlewares/Third_Party/LwIP/src/core/tcp.c ****         ++pcb_remove;
 2379              		.loc 1 1144 7 is_stmt 1 view .LVU691
1144:Middlewares/Third_Party/LwIP/src/core/tcp.c ****         ++pcb_remove;
 2380              		.loc 1 1144 34 is_stmt 0 view .LVU692
 2381 0206 226A     		ldr	r2, [r4, #32]
1144:Middlewares/Third_Party/LwIP/src/core/tcp.c ****         ++pcb_remove;
 2382              		.loc 1 1144 29 view .LVU693
 2383 0208 2A4B     		ldr	r3, .L261
 2384 020a 1B68     		ldr	r3, [r3]
 2385 020c 9B1A     		subs	r3, r3, r2
1144:Middlewares/Third_Party/LwIP/src/core/tcp.c ****         ++pcb_remove;
 2386              		.loc 1 1144 10 view .LVU694
 2387 020e F02B     		cmp	r3, #240
 2388 0210 C9D9     		bls	.L211
1145:Middlewares/Third_Party/LwIP/src/core/tcp.c ****         LWIP_DEBUGF(TCP_DEBUG, ("tcp_slowtmr: removing pcb stuck in LAST-ACK\n"));
 2389              		.loc 1 1145 9 is_stmt 1 view .LVU695
 2390 0212 0135     		adds	r5, r5, #1
 2391              	.LVL213:
1145:Middlewares/Third_Party/LwIP/src/core/tcp.c ****         LWIP_DEBUGF(TCP_DEBUG, ("tcp_slowtmr: removing pcb stuck in LAST-ACK\n"));
 2392              		.loc 1 1145 9 is_stmt 0 view .LVU696
 2393 0214 EDB2     		uxtb	r5, r5
 2394              	.LVL214:
1145:Middlewares/Third_Party/LwIP/src/core/tcp.c ****         LWIP_DEBUGF(TCP_DEBUG, ("tcp_slowtmr: removing pcb stuck in LAST-ACK\n"));
 2395              		.loc 1 1145 9 view .LVU697
 2396 0216 C6E7     		b	.L211
 2397              	.L247:
 2398              	.LBB9:
1152:Middlewares/Third_Party/LwIP/src/core/tcp.c **** #if LWIP_CALLBACK_API
 2399              		.loc 1 1152 7 is_stmt 1 view .LVU698
1154:Middlewares/Third_Party/LwIP/src/core/tcp.c **** #endif /* LWIP_CALLBACK_API */
 2400              		.loc 1 1154 7 view .LVU699
1154:Middlewares/Third_Party/LwIP/src/core/tcp.c **** #endif /* LWIP_CALLBACK_API */
 2401              		.loc 1 1154 18 is_stmt 0 view .LVU700
 2402 0218 D4F88C50 		ldr	r5, [r4, #140]
 2403              	.LVL215:
1156:Middlewares/Third_Party/LwIP/src/core/tcp.c ****       enum tcp_state last_state;
 2404              		.loc 1 1156 7 is_stmt 1 view .LVU701
1157:Middlewares/Third_Party/LwIP/src/core/tcp.c ****       tcp_pcb_purge(pcb);
 2405              		.loc 1 1157 7 view .LVU702
1158:Middlewares/Third_Party/LwIP/src/core/tcp.c ****       /* Remove PCB from tcp_active_pcbs list. */
 2406              		.loc 1 1158 7 view .LVU703
 2407 021c 2046     		mov	r0, r4
 2408 021e FFF7FEFF 		bl	tcp_pcb_purge
 2409              	.LVL216:
1160:Middlewares/Third_Party/LwIP/src/core/tcp.c ****         LWIP_ASSERT("tcp_slowtmr: middle tcp != tcp_active_pcbs", pcb != tcp_active_pcbs);
 2410              		.loc 1 1160 7 view .LVU704
1160:Middlewares/Third_Party/LwIP/src/core/tcp.c ****         LWIP_ASSERT("tcp_slowtmr: middle tcp != tcp_active_pcbs", pcb != tcp_active_pcbs);
 2411              		.loc 1 1160 10 is_stmt 0 view .LVU705
 2412 0222 26B3     		cbz	r6, .L213
1161:Middlewares/Third_Party/LwIP/src/core/tcp.c ****         prev->next = pcb->next;
 2413              		.loc 1 1161 9 is_stmt 1 view .LVU706
1161:Middlewares/Third_Party/LwIP/src/core/tcp.c ****         prev->next = pcb->next;
 2414              		.loc 1 1161 9 view .LVU707
 2415 0224 254B     		ldr	r3, .L261+8
 2416 0226 1B68     		ldr	r3, [r3]
 2417 0228 A342     		cmp	r3, r4
ARM GAS  /tmp/cc6by9MY.s 			page 85


 2418 022a 18D0     		beq	.L249
 2419              	.L214:
1162:Middlewares/Third_Party/LwIP/src/core/tcp.c ****       } else {
 2420              		.loc 1 1162 9 view .LVU708
1162:Middlewares/Third_Party/LwIP/src/core/tcp.c ****       } else {
 2421              		.loc 1 1162 25 is_stmt 0 view .LVU709
 2422 022c E368     		ldr	r3, [r4, #12]
1162:Middlewares/Third_Party/LwIP/src/core/tcp.c ****       } else {
 2423              		.loc 1 1162 20 view .LVU710
 2424 022e F360     		str	r3, [r6, #12]
 2425              	.L215:
1169:Middlewares/Third_Party/LwIP/src/core/tcp.c ****         tcp_rst(pcb->snd_nxt, pcb->rcv_nxt, &pcb->local_ip, &pcb->remote_ip,
 2426              		.loc 1 1169 7 is_stmt 1 view .LVU711
1169:Middlewares/Third_Party/LwIP/src/core/tcp.c ****         tcp_rst(pcb->snd_nxt, pcb->rcv_nxt, &pcb->local_ip, &pcb->remote_ip,
 2427              		.loc 1 1169 10 is_stmt 0 view .LVU712
 2428 0230 67BB     		cbnz	r7, .L250
 2429              	.L217:
1174:Middlewares/Third_Party/LwIP/src/core/tcp.c ****       last_state = pcb->state;
 2430              		.loc 1 1174 7 is_stmt 1 view .LVU713
1174:Middlewares/Third_Party/LwIP/src/core/tcp.c ****       last_state = pcb->state;
 2431              		.loc 1 1174 15 is_stmt 0 view .LVU714
 2432 0232 D4F81080 		ldr	r8, [r4, #16]
 2433              	.LVL217:
1175:Middlewares/Third_Party/LwIP/src/core/tcp.c ****       pcb2 = pcb;
 2434              		.loc 1 1175 7 is_stmt 1 view .LVU715
1176:Middlewares/Third_Party/LwIP/src/core/tcp.c ****       pcb = pcb->next;
 2435              		.loc 1 1176 7 view .LVU716
1177:Middlewares/Third_Party/LwIP/src/core/tcp.c ****       memp_free(MEMP_TCP_PCB, pcb2);
 2436              		.loc 1 1177 7 view .LVU717
1177:Middlewares/Third_Party/LwIP/src/core/tcp.c ****       memp_free(MEMP_TCP_PCB, pcb2);
 2437              		.loc 1 1177 11 is_stmt 0 view .LVU718
 2438 0236 E768     		ldr	r7, [r4, #12]
 2439              	.LVL218:
1178:Middlewares/Third_Party/LwIP/src/core/tcp.c **** 
 2440              		.loc 1 1178 7 is_stmt 1 view .LVU719
 2441 0238 2146     		mov	r1, r4
 2442 023a 0120     		movs	r0, #1
 2443 023c FFF7FEFF 		bl	memp_free
 2444              	.LVL219:
1180:Middlewares/Third_Party/LwIP/src/core/tcp.c ****       TCP_EVENT_ERR(last_state, err_fn, err_arg, ERR_ABRT);
 2445              		.loc 1 1180 7 view .LVU720
1180:Middlewares/Third_Party/LwIP/src/core/tcp.c ****       TCP_EVENT_ERR(last_state, err_fn, err_arg, ERR_ABRT);
 2446              		.loc 1 1180 31 is_stmt 0 view .LVU721
 2447 0240 284B     		ldr	r3, .L261+48
 2448 0242 0022     		movs	r2, #0
 2449 0244 1A70     		strb	r2, [r3]
1181:Middlewares/Third_Party/LwIP/src/core/tcp.c ****       if (tcp_active_pcbs_changed) {
 2450              		.loc 1 1181 7 is_stmt 1 view .LVU722
1181:Middlewares/Third_Party/LwIP/src/core/tcp.c ****       if (tcp_active_pcbs_changed) {
 2451              		.loc 1 1181 7 view .LVU723
1181:Middlewares/Third_Party/LwIP/src/core/tcp.c ****       if (tcp_active_pcbs_changed) {
 2452              		.loc 1 1181 7 view .LVU724
 2453 0246 1DB1     		cbz	r5, .L218
1181:Middlewares/Third_Party/LwIP/src/core/tcp.c ****       if (tcp_active_pcbs_changed) {
 2454              		.loc 1 1181 7 discriminator 1 view .LVU725
 2455 0248 6FF00C01 		mvn	r1, #12
 2456 024c 4046     		mov	r0, r8
ARM GAS  /tmp/cc6by9MY.s 			page 86


 2457 024e A847     		blx	r5
 2458              	.LVL220:
 2459              	.L218:
1182:Middlewares/Third_Party/LwIP/src/core/tcp.c ****         goto tcp_slowtmr_start;
 2460              		.loc 1 1182 7 view .LVU726
1182:Middlewares/Third_Party/LwIP/src/core/tcp.c ****         goto tcp_slowtmr_start;
 2461              		.loc 1 1182 11 is_stmt 0 view .LVU727
 2462 0250 244B     		ldr	r3, .L261+48
 2463 0252 1B78     		ldrb	r3, [r3]	@ zero_extendqisi2
1182:Middlewares/Third_Party/LwIP/src/core/tcp.c ****         goto tcp_slowtmr_start;
 2464              		.loc 1 1182 10 view .LVU728
 2465 0254 002B     		cmp	r3, #0
 2466 0256 7FF4DEAE 		bne	.L191
1177:Middlewares/Third_Party/LwIP/src/core/tcp.c ****       memp_free(MEMP_TCP_PCB, pcb2);
 2467              		.loc 1 1177 11 view .LVU729
 2468 025a 3C46     		mov	r4, r7
 2469              	.LVL221:
1177:Middlewares/Third_Party/LwIP/src/core/tcp.c ****       memp_free(MEMP_TCP_PCB, pcb2);
 2470              		.loc 1 1177 11 view .LVU730
 2471 025c 4AE0     		b	.L193
 2472              	.LVL222:
 2473              	.L249:
1161:Middlewares/Third_Party/LwIP/src/core/tcp.c ****         prev->next = pcb->next;
 2474              		.loc 1 1161 9 is_stmt 1 discriminator 1 view .LVU731
1161:Middlewares/Third_Party/LwIP/src/core/tcp.c ****         prev->next = pcb->next;
 2475              		.loc 1 1161 9 discriminator 1 view .LVU732
 2476 025e 184B     		ldr	r3, .L261+12
 2477 0260 40F28942 		movw	r2, #1161
 2478 0264 2049     		ldr	r1, .L261+52
 2479 0266 1848     		ldr	r0, .L261+20
 2480 0268 FFF7FEFF 		bl	printf
 2481              	.LVL223:
 2482 026c DEE7     		b	.L214
 2483              	.L213:
1165:Middlewares/Third_Party/LwIP/src/core/tcp.c ****         tcp_active_pcbs = pcb->next;
 2484              		.loc 1 1165 9 view .LVU733
1165:Middlewares/Third_Party/LwIP/src/core/tcp.c ****         tcp_active_pcbs = pcb->next;
 2485              		.loc 1 1165 9 view .LVU734
 2486 026e 134B     		ldr	r3, .L261+8
 2487 0270 1B68     		ldr	r3, [r3]
 2488 0272 A342     		cmp	r3, r4
 2489 0274 06D0     		beq	.L216
1165:Middlewares/Third_Party/LwIP/src/core/tcp.c ****         tcp_active_pcbs = pcb->next;
 2490              		.loc 1 1165 9 discriminator 1 view .LVU735
1165:Middlewares/Third_Party/LwIP/src/core/tcp.c ****         tcp_active_pcbs = pcb->next;
 2491              		.loc 1 1165 9 discriminator 1 view .LVU736
 2492 0276 124B     		ldr	r3, .L261+12
 2493 0278 40F28D42 		movw	r2, #1165
 2494 027c 1B49     		ldr	r1, .L261+56
 2495 027e 1248     		ldr	r0, .L261+20
 2496 0280 FFF7FEFF 		bl	printf
 2497              	.LVL224:
 2498              	.L216:
1166:Middlewares/Third_Party/LwIP/src/core/tcp.c ****       }
 2499              		.loc 1 1166 9 view .LVU737
1166:Middlewares/Third_Party/LwIP/src/core/tcp.c ****       }
 2500              		.loc 1 1166 30 is_stmt 0 view .LVU738
ARM GAS  /tmp/cc6by9MY.s 			page 87


 2501 0284 E268     		ldr	r2, [r4, #12]
1166:Middlewares/Third_Party/LwIP/src/core/tcp.c ****       }
 2502              		.loc 1 1166 25 view .LVU739
 2503 0286 0D4B     		ldr	r3, .L261+8
 2504 0288 1A60     		str	r2, [r3]
 2505 028a D1E7     		b	.L215
 2506              	.L250:
1170:Middlewares/Third_Party/LwIP/src/core/tcp.c ****                  pcb->local_port, pcb->remote_port);
 2507              		.loc 1 1170 9 is_stmt 1 view .LVU740
 2508 028c 616A     		ldr	r1, [r4, #36]
 2509 028e E06C     		ldr	r0, [r4, #76]
 2510 0290 238B     		ldrh	r3, [r4, #24]
 2511 0292 0193     		str	r3, [sp, #4]
 2512 0294 E38A     		ldrh	r3, [r4, #22]
 2513 0296 0093     		str	r3, [sp]
 2514 0298 231D     		adds	r3, r4, #4
 2515 029a 2246     		mov	r2, r4
 2516 029c FFF7FEFF 		bl	tcp_rst
 2517              	.LVL225:
 2518 02a0 C7E7     		b	.L217
 2519              	.LVL226:
 2520              	.L239:
1170:Middlewares/Third_Party/LwIP/src/core/tcp.c ****                  pcb->local_port, pcb->remote_port);
 2521              		.loc 1 1170 9 is_stmt 0 view .LVU741
 2522              	.LBE9:
1196:Middlewares/Third_Party/LwIP/src/core/tcp.c ****         if (tcp_active_pcbs_changed) {
 2523              		.loc 1 1196 9 view .LVU742
 2524 02a2 0020     		movs	r0, #0
 2525 02a4 95E7     		b	.L219
 2526              	.LVL227:
 2527              	.L248:
1202:Middlewares/Third_Party/LwIP/src/core/tcp.c ****         }
 2528              		.loc 1 1202 11 is_stmt 1 view .LVU743
 2529 02a6 2046     		mov	r0, r4
 2530              	.LVL228:
1202:Middlewares/Third_Party/LwIP/src/core/tcp.c ****         }
 2531              		.loc 1 1202 11 is_stmt 0 view .LVU744
 2532 02a8 FFF7FEFF 		bl	tcp_output
 2533              	.LVL229:
1187:Middlewares/Third_Party/LwIP/src/core/tcp.c ****       pcb = pcb->next;
 2534              		.loc 1 1187 12 view .LVU745
 2535 02ac 2646     		mov	r6, r4
1188:Middlewares/Third_Party/LwIP/src/core/tcp.c **** 
 2536              		.loc 1 1188 11 view .LVU746
 2537 02ae 2C46     		mov	r4, r5
 2538              	.LVL230:
1188:Middlewares/Third_Party/LwIP/src/core/tcp.c **** 
 2539              		.loc 1 1188 11 view .LVU747
 2540 02b0 20E0     		b	.L193
 2541              	.L262:
 2542 02b2 00BF     		.align	2
 2543              	.L261:
 2544 02b4 00000000 		.word	tcp_ticks
 2545 02b8 00000000 		.word	.LANCHOR2
 2546 02bc 00000000 		.word	tcp_active_pcbs
 2547 02c0 00000000 		.word	.LC0
 2548 02c4 00000000 		.word	.LC13
ARM GAS  /tmp/cc6by9MY.s 			page 88


 2549 02c8 38000000 		.word	.LC2
 2550 02cc 2C000000 		.word	.LC14
 2551 02d0 58000000 		.word	.LC15
 2552 02d4 00000000 		.word	.LANCHOR4
 2553 02d8 B84C0A00 		.word	675000
 2554 02dc D34D6210 		.word	274877907
 2555 02e0 F8240100 		.word	75000
 2556 02e4 00000000 		.word	tcp_active_pcbs_changed
 2557 02e8 88000000 		.word	.LC16
 2558 02ec B4000000 		.word	.LC17
 2559              	.LVL231:
 2560              	.L238:
1187:Middlewares/Third_Party/LwIP/src/core/tcp.c ****       pcb = pcb->next;
 2561              		.loc 1 1187 12 view .LVU748
 2562 02f0 2646     		mov	r6, r4
1188:Middlewares/Third_Party/LwIP/src/core/tcp.c **** 
 2563              		.loc 1 1188 11 view .LVU749
 2564 02f2 2C46     		mov	r4, r5
 2565              	.LVL232:
 2566              	.L193:
1006:Middlewares/Third_Party/LwIP/src/core/tcp.c ****     LWIP_DEBUGF(TCP_DEBUG, ("tcp_slowtmr: processing active pcb\n"));
 2567              		.loc 1 1006 9 view .LVU750
 2568 02f4 8CB3     		cbz	r4, .L251
1007:Middlewares/Third_Party/LwIP/src/core/tcp.c ****     LWIP_ASSERT("tcp_slowtmr: active pcb->state != CLOSED\n", pcb->state != CLOSED);
 2569              		.loc 1 1007 69 is_stmt 1 view .LVU751
1008:Middlewares/Third_Party/LwIP/src/core/tcp.c ****     LWIP_ASSERT("tcp_slowtmr: active pcb->state != LISTEN\n", pcb->state != LISTEN);
 2570              		.loc 1 1008 5 view .LVU752
1008:Middlewares/Third_Party/LwIP/src/core/tcp.c ****     LWIP_ASSERT("tcp_slowtmr: active pcb->state != LISTEN\n", pcb->state != LISTEN);
 2571              		.loc 1 1008 5 view .LVU753
 2572 02f6 237D     		ldrb	r3, [r4, #20]	@ zero_extendqisi2
 2573 02f8 002B     		cmp	r3, #0
 2574 02fa 3FF490AE 		beq	.L252
 2575              	.L194:
1009:Middlewares/Third_Party/LwIP/src/core/tcp.c ****     LWIP_ASSERT("tcp_slowtmr: active pcb->state != TIME-WAIT\n", pcb->state != TIME_WAIT);
 2576              		.loc 1 1009 5 view .LVU754
1009:Middlewares/Third_Party/LwIP/src/core/tcp.c ****     LWIP_ASSERT("tcp_slowtmr: active pcb->state != TIME-WAIT\n", pcb->state != TIME_WAIT);
 2577              		.loc 1 1009 5 view .LVU755
 2578 02fe 237D     		ldrb	r3, [r4, #20]	@ zero_extendqisi2
 2579 0300 012B     		cmp	r3, #1
 2580 0302 3FF494AE 		beq	.L253
 2581              	.L195:
1010:Middlewares/Third_Party/LwIP/src/core/tcp.c ****     if (pcb->last_timer == tcp_timer_ctr) {
 2582              		.loc 1 1010 5 view .LVU756
1010:Middlewares/Third_Party/LwIP/src/core/tcp.c ****     if (pcb->last_timer == tcp_timer_ctr) {
 2583              		.loc 1 1010 5 view .LVU757
 2584 0306 237D     		ldrb	r3, [r4, #20]	@ zero_extendqisi2
 2585 0308 0A2B     		cmp	r3, #10
 2586 030a 3FF498AE 		beq	.L254
 2587              	.L196:
1011:Middlewares/Third_Party/LwIP/src/core/tcp.c ****       /* skip this pcb, we have already processed it */
 2588              		.loc 1 1011 5 view .LVU758
1011:Middlewares/Third_Party/LwIP/src/core/tcp.c ****       /* skip this pcb, we have already processed it */
 2589              		.loc 1 1011 12 is_stmt 0 view .LVU759
 2590 030e 627F     		ldrb	r2, [r4, #29]	@ zero_extendqisi2
1011:Middlewares/Third_Party/LwIP/src/core/tcp.c ****       /* skip this pcb, we have already processed it */
 2591              		.loc 1 1011 25 view .LVU760
 2592 0310 334B     		ldr	r3, .L263
ARM GAS  /tmp/cc6by9MY.s 			page 89


 2593 0312 1B78     		ldrb	r3, [r3]	@ zero_extendqisi2
1011:Middlewares/Third_Party/LwIP/src/core/tcp.c ****       /* skip this pcb, we have already processed it */
 2594              		.loc 1 1011 8 view .LVU761
 2595 0314 9A42     		cmp	r2, r3
 2596 0316 3FF49AAE 		beq	.L255
1016:Middlewares/Third_Party/LwIP/src/core/tcp.c **** 
 2597              		.loc 1 1016 5 is_stmt 1 view .LVU762
1016:Middlewares/Third_Party/LwIP/src/core/tcp.c **** 
 2598              		.loc 1 1016 21 is_stmt 0 view .LVU763
 2599 031a 6377     		strb	r3, [r4, #29]
1018:Middlewares/Third_Party/LwIP/src/core/tcp.c ****     pcb_reset = 0;
 2600              		.loc 1 1018 5 is_stmt 1 view .LVU764
 2601              	.LVL233:
1019:Middlewares/Third_Party/LwIP/src/core/tcp.c **** 
 2602              		.loc 1 1019 5 view .LVU765
1021:Middlewares/Third_Party/LwIP/src/core/tcp.c ****       ++pcb_remove;
 2603              		.loc 1 1021 5 view .LVU766
1021:Middlewares/Third_Party/LwIP/src/core/tcp.c ****       ++pcb_remove;
 2604              		.loc 1 1021 12 is_stmt 0 view .LVU767
 2605 031c 237D     		ldrb	r3, [r4, #20]	@ zero_extendqisi2
1021:Middlewares/Third_Party/LwIP/src/core/tcp.c ****       ++pcb_remove;
 2606              		.loc 1 1021 8 view .LVU768
 2607 031e 022B     		cmp	r3, #2
 2608 0320 3FF497AE 		beq	.L256
 2609              	.L199:
1025:Middlewares/Third_Party/LwIP/src/core/tcp.c ****       ++pcb_remove;
 2610              		.loc 1 1025 10 is_stmt 1 view .LVU769
1025:Middlewares/Third_Party/LwIP/src/core/tcp.c ****       ++pcb_remove;
 2611              		.loc 1 1025 17 is_stmt 0 view .LVU770
 2612 0324 94F84220 		ldrb	r2, [r4, #66]	@ zero_extendqisi2
1025:Middlewares/Third_Party/LwIP/src/core/tcp.c ****       ++pcb_remove;
 2613              		.loc 1 1025 13 view .LVU771
 2614 0328 0B2A     		cmp	r2, #11
 2615 032a 3FF6E1AE 		bhi	.L231
1029:Middlewares/Third_Party/LwIP/src/core/tcp.c ****         /* If snd_wnd is zero, use persist timer to send 1 byte probes
 2616              		.loc 1 1029 7 is_stmt 1 view .LVU772
1029:Middlewares/Third_Party/LwIP/src/core/tcp.c ****         /* If snd_wnd is zero, use persist timer to send 1 byte probes
 2617              		.loc 1 1029 14 is_stmt 0 view .LVU773
 2618 032e 94F89550 		ldrb	r5, [r4, #149]	@ zero_extendqisi2
1029:Middlewares/Third_Party/LwIP/src/core/tcp.c ****         /* If snd_wnd is zero, use persist timer to send 1 byte probes
 2619              		.loc 1 1029 10 view .LVU774
 2620 0332 002D     		cmp	r5, #0
 2621 0334 3FF4A5AE 		beq	.L201
 2622              	.LBB10:
1032:Middlewares/Third_Party/LwIP/src/core/tcp.c ****         if (pcb->persist_cnt < backoff_cnt) {
 2623              		.loc 1 1032 9 is_stmt 1 view .LVU775
1032:Middlewares/Third_Party/LwIP/src/core/tcp.c ****         if (pcb->persist_cnt < backoff_cnt) {
 2624              		.loc 1 1032 68 is_stmt 0 view .LVU776
 2625 0338 013D     		subs	r5, r5, #1
1032:Middlewares/Third_Party/LwIP/src/core/tcp.c ****         if (pcb->persist_cnt < backoff_cnt) {
 2626              		.loc 1 1032 14 view .LVU777
 2627 033a 2A4B     		ldr	r3, .L263+4
 2628 033c 5A5D     		ldrb	r2, [r3, r5]	@ zero_extendqisi2
 2629              	.LVL234:
1033:Middlewares/Third_Party/LwIP/src/core/tcp.c ****           pcb->persist_cnt++;
 2630              		.loc 1 1033 9 is_stmt 1 view .LVU778
1033:Middlewares/Third_Party/LwIP/src/core/tcp.c ****           pcb->persist_cnt++;
ARM GAS  /tmp/cc6by9MY.s 			page 90


 2631              		.loc 1 1033 16 is_stmt 0 view .LVU779
 2632 033e 94F89430 		ldrb	r3, [r4, #148]	@ zero_extendqisi2
1033:Middlewares/Third_Party/LwIP/src/core/tcp.c ****           pcb->persist_cnt++;
 2633              		.loc 1 1033 12 view .LVU780
 2634 0342 9342     		cmp	r3, r2
 2635 0344 02D2     		bcs	.L202
1034:Middlewares/Third_Party/LwIP/src/core/tcp.c ****         }
 2636              		.loc 1 1034 11 is_stmt 1 view .LVU781
1034:Middlewares/Third_Party/LwIP/src/core/tcp.c ****         }
 2637              		.loc 1 1034 27 is_stmt 0 view .LVU782
 2638 0346 0133     		adds	r3, r3, #1
 2639 0348 84F89430 		strb	r3, [r4, #148]
 2640              	.L202:
1036:Middlewares/Third_Party/LwIP/src/core/tcp.c ****           if (tcp_zero_window_probe(pcb) == ERR_OK) {
 2641              		.loc 1 1036 9 is_stmt 1 view .LVU783
1036:Middlewares/Third_Party/LwIP/src/core/tcp.c ****           if (tcp_zero_window_probe(pcb) == ERR_OK) {
 2642              		.loc 1 1036 16 is_stmt 0 view .LVU784
 2643 034c 94F89430 		ldrb	r3, [r4, #148]	@ zero_extendqisi2
1036:Middlewares/Third_Party/LwIP/src/core/tcp.c ****           if (tcp_zero_window_probe(pcb) == ERR_OK) {
 2644              		.loc 1 1036 12 view .LVU785
 2645 0350 9342     		cmp	r3, r2
 2646 0352 BFF485AE 		bcs	.L257
 2647              	.LBE10:
1018:Middlewares/Third_Party/LwIP/src/core/tcp.c ****     pcb_reset = 0;
 2648              		.loc 1 1018 16 view .LVU786
 2649 0356 0025     		movs	r5, #0
 2650 0358 CBE6     		b	.L200
 2651              	.LVL235:
 2652              	.L251:
1210:Middlewares/Third_Party/LwIP/src/core/tcp.c ****   pcb = tcp_tw_pcbs;
 2653              		.loc 1 1210 3 is_stmt 1 view .LVU787
1211:Middlewares/Third_Party/LwIP/src/core/tcp.c ****   while (pcb != NULL) {
 2654              		.loc 1 1211 3 view .LVU788
1211:Middlewares/Third_Party/LwIP/src/core/tcp.c ****   while (pcb != NULL) {
 2655              		.loc 1 1211 7 is_stmt 0 view .LVU789
 2656 035a 234B     		ldr	r3, .L263+8
 2657 035c 1D68     		ldr	r5, [r3]
 2658              	.LVL236:
1212:Middlewares/Third_Party/LwIP/src/core/tcp.c ****     LWIP_ASSERT("tcp_slowtmr: TIME-WAIT pcb->state == TIME-WAIT", pcb->state == TIME_WAIT);
 2659              		.loc 1 1212 3 is_stmt 1 view .LVU790
1212:Middlewares/Third_Party/LwIP/src/core/tcp.c ****     LWIP_ASSERT("tcp_slowtmr: TIME-WAIT pcb->state == TIME-WAIT", pcb->state == TIME_WAIT);
 2660              		.loc 1 1212 9 is_stmt 0 view .LVU791
 2661 035e 0EE0     		b	.L221
 2662              	.LVL237:
 2663              	.L259:
1213:Middlewares/Third_Party/LwIP/src/core/tcp.c ****     pcb_remove = 0;
 2664              		.loc 1 1213 5 is_stmt 1 discriminator 1 view .LVU792
1213:Middlewares/Third_Party/LwIP/src/core/tcp.c ****     pcb_remove = 0;
 2665              		.loc 1 1213 5 discriminator 1 view .LVU793
 2666 0360 224B     		ldr	r3, .L263+12
 2667 0362 40F2BD42 		movw	r2, #1213
 2668 0366 2249     		ldr	r1, .L263+16
 2669 0368 2248     		ldr	r0, .L263+20
 2670 036a FFF7FEFF 		bl	printf
 2671              	.LVL238:
 2672              	.L222:
1214:Middlewares/Third_Party/LwIP/src/core/tcp.c **** 
ARM GAS  /tmp/cc6by9MY.s 			page 91


 2673              		.loc 1 1214 5 view .LVU794
1217:Middlewares/Third_Party/LwIP/src/core/tcp.c ****       ++pcb_remove;
 2674              		.loc 1 1217 5 view .LVU795
1217:Middlewares/Third_Party/LwIP/src/core/tcp.c ****       ++pcb_remove;
 2675              		.loc 1 1217 32 is_stmt 0 view .LVU796
 2676 036e 2A6A     		ldr	r2, [r5, #32]
1217:Middlewares/Third_Party/LwIP/src/core/tcp.c ****       ++pcb_remove;
 2677              		.loc 1 1217 27 view .LVU797
 2678 0370 214B     		ldr	r3, .L263+24
 2679 0372 1B68     		ldr	r3, [r3]
 2680 0374 9B1A     		subs	r3, r3, r2
1217:Middlewares/Third_Party/LwIP/src/core/tcp.c ****       ++pcb_remove;
 2681              		.loc 1 1217 8 view .LVU798
 2682 0376 F02B     		cmp	r3, #240
 2683 0378 06D8     		bhi	.L223
1222:Middlewares/Third_Party/LwIP/src/core/tcp.c ****       struct tcp_pcb *pcb2;
 2684              		.loc 1 1222 5 is_stmt 1 view .LVU799
1238:Middlewares/Third_Party/LwIP/src/core/tcp.c ****       pcb = pcb->next;
 2685              		.loc 1 1238 7 view .LVU800
 2686              	.LVL239:
1239:Middlewares/Third_Party/LwIP/src/core/tcp.c ****     }
 2687              		.loc 1 1239 7 view .LVU801
1238:Middlewares/Third_Party/LwIP/src/core/tcp.c ****       pcb = pcb->next;
 2688              		.loc 1 1238 12 is_stmt 0 view .LVU802
 2689 037a 2C46     		mov	r4, r5
1239:Middlewares/Third_Party/LwIP/src/core/tcp.c ****     }
 2690              		.loc 1 1239 11 view .LVU803
 2691 037c ED68     		ldr	r5, [r5, #12]
 2692              	.LVL240:
 2693              	.L221:
1212:Middlewares/Third_Party/LwIP/src/core/tcp.c ****     LWIP_ASSERT("tcp_slowtmr: TIME-WAIT pcb->state == TIME-WAIT", pcb->state == TIME_WAIT);
 2694              		.loc 1 1212 9 view .LVU804
 2695 037e 5DB3     		cbz	r5, .L258
1213:Middlewares/Third_Party/LwIP/src/core/tcp.c ****     pcb_remove = 0;
 2696              		.loc 1 1213 5 is_stmt 1 view .LVU805
1213:Middlewares/Third_Party/LwIP/src/core/tcp.c ****     pcb_remove = 0;
 2697              		.loc 1 1213 5 view .LVU806
 2698 0380 2B7D     		ldrb	r3, [r5, #20]	@ zero_extendqisi2
 2699 0382 0A2B     		cmp	r3, #10
 2700 0384 F3D0     		beq	.L222
 2701 0386 EBE7     		b	.L259
 2702              	.LVL241:
 2703              	.L223:
1218:Middlewares/Third_Party/LwIP/src/core/tcp.c ****     }
 2704              		.loc 1 1218 7 view .LVU807
1222:Middlewares/Third_Party/LwIP/src/core/tcp.c ****       struct tcp_pcb *pcb2;
 2705              		.loc 1 1222 5 view .LVU808
 2706              	.LBB11:
1223:Middlewares/Third_Party/LwIP/src/core/tcp.c ****       tcp_pcb_purge(pcb);
 2707              		.loc 1 1223 7 view .LVU809
1224:Middlewares/Third_Party/LwIP/src/core/tcp.c ****       /* Remove PCB from tcp_tw_pcbs list. */
 2708              		.loc 1 1224 7 view .LVU810
 2709 0388 2846     		mov	r0, r5
 2710 038a FFF7FEFF 		bl	tcp_pcb_purge
 2711              	.LVL242:
1226:Middlewares/Third_Party/LwIP/src/core/tcp.c ****         LWIP_ASSERT("tcp_slowtmr: middle tcp != tcp_tw_pcbs", pcb != tcp_tw_pcbs);
 2712              		.loc 1 1226 7 view .LVU811
ARM GAS  /tmp/cc6by9MY.s 			page 92


1226:Middlewares/Third_Party/LwIP/src/core/tcp.c ****         LWIP_ASSERT("tcp_slowtmr: middle tcp != tcp_tw_pcbs", pcb != tcp_tw_pcbs);
 2713              		.loc 1 1226 10 is_stmt 0 view .LVU812
 2714 038e A4B1     		cbz	r4, .L225
1227:Middlewares/Third_Party/LwIP/src/core/tcp.c ****         prev->next = pcb->next;
 2715              		.loc 1 1227 9 is_stmt 1 view .LVU813
1227:Middlewares/Third_Party/LwIP/src/core/tcp.c ****         prev->next = pcb->next;
 2716              		.loc 1 1227 9 view .LVU814
 2717 0390 154B     		ldr	r3, .L263+8
 2718 0392 1B68     		ldr	r3, [r3]
 2719 0394 AB42     		cmp	r3, r5
 2720 0396 08D0     		beq	.L260
 2721              	.L226:
1228:Middlewares/Third_Party/LwIP/src/core/tcp.c ****       } else {
 2722              		.loc 1 1228 9 view .LVU815
1228:Middlewares/Third_Party/LwIP/src/core/tcp.c ****       } else {
 2723              		.loc 1 1228 25 is_stmt 0 view .LVU816
 2724 0398 EB68     		ldr	r3, [r5, #12]
1228:Middlewares/Third_Party/LwIP/src/core/tcp.c ****       } else {
 2725              		.loc 1 1228 20 view .LVU817
 2726 039a E360     		str	r3, [r4, #12]
 2727              	.L227:
1234:Middlewares/Third_Party/LwIP/src/core/tcp.c ****       pcb = pcb->next;
 2728              		.loc 1 1234 7 is_stmt 1 view .LVU818
 2729              	.LVL243:
1235:Middlewares/Third_Party/LwIP/src/core/tcp.c ****       memp_free(MEMP_TCP_PCB, pcb2);
 2730              		.loc 1 1235 7 view .LVU819
1235:Middlewares/Third_Party/LwIP/src/core/tcp.c ****       memp_free(MEMP_TCP_PCB, pcb2);
 2731              		.loc 1 1235 11 is_stmt 0 view .LVU820
 2732 039c EE68     		ldr	r6, [r5, #12]
 2733              	.LVL244:
1236:Middlewares/Third_Party/LwIP/src/core/tcp.c ****     } else {
 2734              		.loc 1 1236 7 is_stmt 1 view .LVU821
 2735 039e 2946     		mov	r1, r5
 2736 03a0 0120     		movs	r0, #1
 2737 03a2 FFF7FEFF 		bl	memp_free
 2738              	.LVL245:
1235:Middlewares/Third_Party/LwIP/src/core/tcp.c ****       memp_free(MEMP_TCP_PCB, pcb2);
 2739              		.loc 1 1235 11 is_stmt 0 view .LVU822
 2740 03a6 3546     		mov	r5, r6
 2741              	.LVL246:
1235:Middlewares/Third_Party/LwIP/src/core/tcp.c ****       memp_free(MEMP_TCP_PCB, pcb2);
 2742              		.loc 1 1235 11 view .LVU823
 2743              	.LBE11:
 2744 03a8 E9E7     		b	.L221
 2745              	.LVL247:
 2746              	.L260:
 2747              	.LBB12:
1227:Middlewares/Third_Party/LwIP/src/core/tcp.c ****         prev->next = pcb->next;
 2748              		.loc 1 1227 9 is_stmt 1 discriminator 1 view .LVU824
1227:Middlewares/Third_Party/LwIP/src/core/tcp.c ****         prev->next = pcb->next;
 2749              		.loc 1 1227 9 discriminator 1 view .LVU825
 2750 03aa 104B     		ldr	r3, .L263+12
 2751 03ac 40F2CB42 		movw	r2, #1227
 2752 03b0 1249     		ldr	r1, .L263+28
 2753 03b2 1048     		ldr	r0, .L263+20
 2754 03b4 FFF7FEFF 		bl	printf
 2755              	.LVL248:
ARM GAS  /tmp/cc6by9MY.s 			page 93


 2756 03b8 EEE7     		b	.L226
 2757              	.L225:
1231:Middlewares/Third_Party/LwIP/src/core/tcp.c ****         tcp_tw_pcbs = pcb->next;
 2758              		.loc 1 1231 9 view .LVU826
1231:Middlewares/Third_Party/LwIP/src/core/tcp.c ****         tcp_tw_pcbs = pcb->next;
 2759              		.loc 1 1231 9 view .LVU827
 2760 03ba 0B4B     		ldr	r3, .L263+8
 2761 03bc 1B68     		ldr	r3, [r3]
 2762 03be AB42     		cmp	r3, r5
 2763 03c0 06D0     		beq	.L228
1231:Middlewares/Third_Party/LwIP/src/core/tcp.c ****         tcp_tw_pcbs = pcb->next;
 2764              		.loc 1 1231 9 discriminator 1 view .LVU828
1231:Middlewares/Third_Party/LwIP/src/core/tcp.c ****         tcp_tw_pcbs = pcb->next;
 2765              		.loc 1 1231 9 discriminator 1 view .LVU829
 2766 03c2 0A4B     		ldr	r3, .L263+12
 2767 03c4 40F2CF42 		movw	r2, #1231
 2768 03c8 0D49     		ldr	r1, .L263+32
 2769 03ca 0A48     		ldr	r0, .L263+20
 2770 03cc FFF7FEFF 		bl	printf
 2771              	.LVL249:
 2772              	.L228:
1232:Middlewares/Third_Party/LwIP/src/core/tcp.c ****       }
 2773              		.loc 1 1232 9 view .LVU830
1232:Middlewares/Third_Party/LwIP/src/core/tcp.c ****       }
 2774              		.loc 1 1232 26 is_stmt 0 view .LVU831
 2775 03d0 EA68     		ldr	r2, [r5, #12]
1232:Middlewares/Third_Party/LwIP/src/core/tcp.c ****       }
 2776              		.loc 1 1232 21 view .LVU832
 2777 03d2 054B     		ldr	r3, .L263+8
 2778 03d4 1A60     		str	r2, [r3]
 2779 03d6 E1E7     		b	.L227
 2780              	.LVL250:
 2781              	.L258:
1232:Middlewares/Third_Party/LwIP/src/core/tcp.c ****       }
 2782              		.loc 1 1232 21 view .LVU833
 2783              	.LBE12:
1242:Middlewares/Third_Party/LwIP/src/core/tcp.c **** 
 2784              		.loc 1 1242 1 view .LVU834
 2785 03d8 02B0     		add	sp, sp, #8
 2786              	.LCFI26:
 2787              		.cfi_def_cfa_offset 24
 2788              		@ sp needed
 2789 03da BDE8F081 		pop	{r4, r5, r6, r7, r8, pc}
 2790              	.LVL251:
 2791              	.L264:
1242:Middlewares/Third_Party/LwIP/src/core/tcp.c **** 
 2792              		.loc 1 1242 1 view .LVU835
 2793 03de 00BF     		.align	2
 2794              	.L263:
 2795 03e0 00000000 		.word	.LANCHOR2
 2796 03e4 00000000 		.word	.LANCHOR3
 2797 03e8 00000000 		.word	tcp_tw_pcbs
 2798 03ec 00000000 		.word	.LC0
 2799 03f0 E0000000 		.word	.LC18
 2800 03f4 38000000 		.word	.LC2
 2801 03f8 00000000 		.word	tcp_ticks
 2802 03fc 10010000 		.word	.LC19
ARM GAS  /tmp/cc6by9MY.s 			page 94


 2803 0400 38010000 		.word	.LC20
 2804              		.cfi_endproc
 2805              	.LFE178:
 2807              		.section	.text.tcp_pcb_remove,"ax",%progbits
 2808              		.align	1
 2809              		.global	tcp_pcb_remove
 2810              		.syntax unified
 2811              		.thumb
 2812              		.thumb_func
 2813              		.fpu fpv5-sp-d16
 2815              	tcp_pcb_remove:
 2816              	.LVL252:
 2817              	.LFB200:
1852:Middlewares/Third_Party/LwIP/src/core/tcp.c **** 
1853:Middlewares/Third_Party/LwIP/src/core/tcp.c **** /**
1854:Middlewares/Third_Party/LwIP/src/core/tcp.c ****  * Purges the PCB and removes it from a PCB list. Any delayed ACKs are sent first.
1855:Middlewares/Third_Party/LwIP/src/core/tcp.c ****  *
1856:Middlewares/Third_Party/LwIP/src/core/tcp.c ****  * @param pcblist PCB list to purge.
1857:Middlewares/Third_Party/LwIP/src/core/tcp.c ****  * @param pcb tcp_pcb to purge. The pcb itself is NOT deallocated!
1858:Middlewares/Third_Party/LwIP/src/core/tcp.c ****  */
1859:Middlewares/Third_Party/LwIP/src/core/tcp.c **** void
1860:Middlewares/Third_Party/LwIP/src/core/tcp.c **** tcp_pcb_remove(struct tcp_pcb **pcblist, struct tcp_pcb *pcb)
1861:Middlewares/Third_Party/LwIP/src/core/tcp.c **** {
 2818              		.loc 1 1861 1 is_stmt 1 view -0
 2819              		.cfi_startproc
 2820              		@ args = 0, pretend = 0, frame = 0
 2821              		@ frame_needed = 0, uses_anonymous_args = 0
 2822              		.loc 1 1861 1 is_stmt 0 view .LVU837
 2823 0000 10B5     		push	{r4, lr}
 2824              	.LCFI27:
 2825              		.cfi_def_cfa_offset 8
 2826              		.cfi_offset 4, -8
 2827              		.cfi_offset 14, -4
 2828 0002 0C46     		mov	r4, r1
1862:Middlewares/Third_Party/LwIP/src/core/tcp.c ****   TCP_RMV(pcblist, pcb);
 2829              		.loc 1 1862 3 is_stmt 1 view .LVU838
 2830              		.loc 1 1862 3 view .LVU839
 2831 0004 0368     		ldr	r3, [r0]
 2832 0006 8B42     		cmp	r3, r1
 2833 0008 05D0     		beq	.L275
 2834              	.L266:
 2835              	.LVL253:
 2836              	.LBB13:
 2837              		.loc 1 1862 3 is_stmt 0 discriminator 8 view .LVU840
 2838 000a 4BB1     		cbz	r3, .L267
 2839              		.loc 1 1862 3 is_stmt 1 discriminator 9 view .LVU841
 2840 000c DA68     		ldr	r2, [r3, #12]
 2841 000e A242     		cmp	r2, r4
 2842 0010 04D0     		beq	.L276
 2843              		.loc 1 1862 3 is_stmt 0 view .LVU842
 2844 0012 1346     		mov	r3, r2
 2845              	.LVL254:
 2846              		.loc 1 1862 3 view .LVU843
 2847 0014 F9E7     		b	.L266
 2848              	.L275:
 2849              		.loc 1 1862 3 view .LVU844
 2850              	.LBE13:
ARM GAS  /tmp/cc6by9MY.s 			page 95


 2851              		.loc 1 1862 3 is_stmt 1 discriminator 1 view .LVU845
 2852 0016 DB68     		ldr	r3, [r3, #12]
 2853 0018 0360     		str	r3, [r0]
 2854 001a 01E0     		b	.L267
 2855              	.LVL255:
 2856              	.L276:
 2857              	.LBB14:
 2858              		.loc 1 1862 3 discriminator 5 view .LVU846
 2859 001c E268     		ldr	r2, [r4, #12]
 2860 001e DA60     		str	r2, [r3, #12]
 2861              		.loc 1 1862 3 discriminator 5 view .LVU847
 2862              	.LVL256:
 2863              	.L267:
 2864              		.loc 1 1862 3 is_stmt 0 discriminator 5 view .LVU848
 2865              	.LBE14:
 2866              		.loc 1 1862 3 is_stmt 1 discriminator 10 view .LVU849
 2867 0020 0023     		movs	r3, #0
 2868 0022 E360     		str	r3, [r4, #12]
1863:Middlewares/Third_Party/LwIP/src/core/tcp.c **** 
1864:Middlewares/Third_Party/LwIP/src/core/tcp.c ****   tcp_pcb_purge(pcb);
 2869              		.loc 1 1864 3 discriminator 10 view .LVU850
 2870 0024 2046     		mov	r0, r4
 2871              	.LVL257:
 2872              		.loc 1 1864 3 is_stmt 0 discriminator 10 view .LVU851
 2873 0026 FFF7FEFF 		bl	tcp_pcb_purge
 2874              	.LVL258:
1865:Middlewares/Third_Party/LwIP/src/core/tcp.c **** 
1866:Middlewares/Third_Party/LwIP/src/core/tcp.c ****   /* if there is an outstanding delayed ACKs, send it */
1867:Middlewares/Third_Party/LwIP/src/core/tcp.c ****   if (pcb->state != TIME_WAIT &&
 2875              		.loc 1 1867 3 is_stmt 1 discriminator 10 view .LVU852
 2876              		.loc 1 1867 10 is_stmt 0 discriminator 10 view .LVU853
 2877 002a 237D     		ldrb	r3, [r4, #20]	@ zero_extendqisi2
 2878              		.loc 1 1867 6 discriminator 10 view .LVU854
 2879 002c 0A2B     		cmp	r3, #10
 2880 002e 18BF     		it	ne
 2881 0030 012B     		cmpne	r3, #1
 2882 0032 03D0     		beq	.L269
1868:Middlewares/Third_Party/LwIP/src/core/tcp.c ****      pcb->state != LISTEN &&
1869:Middlewares/Third_Party/LwIP/src/core/tcp.c ****      pcb->flags & TF_ACK_DELAY) {
 2883              		.loc 1 1869 9 view .LVU855
 2884 0034 A37E     		ldrb	r3, [r4, #26]	@ zero_extendqisi2
1868:Middlewares/Third_Party/LwIP/src/core/tcp.c ****      pcb->state != LISTEN &&
 2885              		.loc 1 1868 27 view .LVU856
 2886 0036 13F0010F 		tst	r3, #1
 2887 003a 21D1     		bne	.L277
 2888              	.L269:
1870:Middlewares/Third_Party/LwIP/src/core/tcp.c ****     pcb->flags |= TF_ACK_NOW;
1871:Middlewares/Third_Party/LwIP/src/core/tcp.c ****     tcp_output(pcb);
1872:Middlewares/Third_Party/LwIP/src/core/tcp.c ****   }
1873:Middlewares/Third_Party/LwIP/src/core/tcp.c **** 
1874:Middlewares/Third_Party/LwIP/src/core/tcp.c ****   if (pcb->state != LISTEN) {
 2889              		.loc 1 1874 3 is_stmt 1 view .LVU857
 2890              		.loc 1 1874 10 is_stmt 0 view .LVU858
 2891 003c 237D     		ldrb	r3, [r4, #20]	@ zero_extendqisi2
 2892              		.loc 1 1874 6 view .LVU859
 2893 003e 012B     		cmp	r3, #1
 2894 0040 1AD0     		beq	.L270
ARM GAS  /tmp/cc6by9MY.s 			page 96


1875:Middlewares/Third_Party/LwIP/src/core/tcp.c ****     LWIP_ASSERT("unsent segments leaking", pcb->unsent == NULL);
 2895              		.loc 1 1875 5 is_stmt 1 view .LVU860
 2896              		.loc 1 1875 5 view .LVU861
 2897 0042 A36E     		ldr	r3, [r4, #104]
 2898 0044 33B1     		cbz	r3, .L271
 2899              		.loc 1 1875 5 discriminator 1 view .LVU862
 2900              		.loc 1 1875 5 discriminator 1 view .LVU863
 2901 0046 124B     		ldr	r3, .L278
 2902 0048 40F25372 		movw	r2, #1875
 2903 004c 1149     		ldr	r1, .L278+4
 2904 004e 1248     		ldr	r0, .L278+8
 2905 0050 FFF7FEFF 		bl	printf
 2906              	.LVL259:
 2907              	.L271:
1876:Middlewares/Third_Party/LwIP/src/core/tcp.c ****     LWIP_ASSERT("unacked segments leaking", pcb->unacked == NULL);
 2908              		.loc 1 1876 5 view .LVU864
 2909              		.loc 1 1876 5 view .LVU865
 2910 0054 E36E     		ldr	r3, [r4, #108]
 2911 0056 33B1     		cbz	r3, .L272
 2912              		.loc 1 1876 5 discriminator 1 view .LVU866
 2913              		.loc 1 1876 5 discriminator 1 view .LVU867
 2914 0058 0D4B     		ldr	r3, .L278
 2915 005a 40F25472 		movw	r2, #1876
 2916 005e 0F49     		ldr	r1, .L278+12
 2917 0060 0D48     		ldr	r0, .L278+8
 2918 0062 FFF7FEFF 		bl	printf
 2919              	.LVL260:
 2920              	.L272:
1877:Middlewares/Third_Party/LwIP/src/core/tcp.c **** #if TCP_QUEUE_OOSEQ
1878:Middlewares/Third_Party/LwIP/src/core/tcp.c ****     LWIP_ASSERT("ooseq segments leaking", pcb->ooseq == NULL);
 2921              		.loc 1 1878 5 view .LVU868
 2922              		.loc 1 1878 5 view .LVU869
 2923 0066 236F     		ldr	r3, [r4, #112]
 2924 0068 33B1     		cbz	r3, .L270
 2925              		.loc 1 1878 5 discriminator 1 view .LVU870
 2926              		.loc 1 1878 5 discriminator 1 view .LVU871
 2927 006a 094B     		ldr	r3, .L278
 2928 006c 40F25672 		movw	r2, #1878
 2929 0070 0B49     		ldr	r1, .L278+16
 2930 0072 0948     		ldr	r0, .L278+8
 2931 0074 FFF7FEFF 		bl	printf
 2932              	.LVL261:
 2933              	.L270:
1879:Middlewares/Third_Party/LwIP/src/core/tcp.c **** #endif /* TCP_QUEUE_OOSEQ */
1880:Middlewares/Third_Party/LwIP/src/core/tcp.c ****   }
1881:Middlewares/Third_Party/LwIP/src/core/tcp.c **** 
1882:Middlewares/Third_Party/LwIP/src/core/tcp.c ****   pcb->state = CLOSED;
 2934              		.loc 1 1882 3 view .LVU872
 2935              		.loc 1 1882 14 is_stmt 0 view .LVU873
 2936 0078 0023     		movs	r3, #0
 2937 007a 2375     		strb	r3, [r4, #20]
1883:Middlewares/Third_Party/LwIP/src/core/tcp.c ****   /* reset the local port to prevent the pcb from being 'bound' */
1884:Middlewares/Third_Party/LwIP/src/core/tcp.c ****   pcb->local_port = 0;
 2938              		.loc 1 1884 3 is_stmt 1 view .LVU874
 2939              		.loc 1 1884 19 is_stmt 0 view .LVU875
 2940 007c E382     		strh	r3, [r4, #22]	@ movhi
1885:Middlewares/Third_Party/LwIP/src/core/tcp.c **** 
ARM GAS  /tmp/cc6by9MY.s 			page 97


1886:Middlewares/Third_Party/LwIP/src/core/tcp.c ****   LWIP_ASSERT("tcp_pcb_remove: tcp_pcbs_sane()", tcp_pcbs_sane());
 2941              		.loc 1 1886 3 is_stmt 1 view .LVU876
 2942              		.loc 1 1886 3 view .LVU877
1887:Middlewares/Third_Party/LwIP/src/core/tcp.c **** }
 2943              		.loc 1 1887 1 is_stmt 0 view .LVU878
 2944 007e 10BD     		pop	{r4, pc}
 2945              	.LVL262:
 2946              	.L277:
1870:Middlewares/Third_Party/LwIP/src/core/tcp.c ****     tcp_output(pcb);
 2947              		.loc 1 1870 5 is_stmt 1 view .LVU879
1870:Middlewares/Third_Party/LwIP/src/core/tcp.c ****     tcp_output(pcb);
 2948              		.loc 1 1870 16 is_stmt 0 view .LVU880
 2949 0080 43F00203 		orr	r3, r3, #2
 2950 0084 A376     		strb	r3, [r4, #26]
1871:Middlewares/Third_Party/LwIP/src/core/tcp.c ****   }
 2951              		.loc 1 1871 5 is_stmt 1 view .LVU881
 2952 0086 2046     		mov	r0, r4
 2953 0088 FFF7FEFF 		bl	tcp_output
 2954              	.LVL263:
 2955 008c D6E7     		b	.L269
 2956              	.L279:
 2957 008e 00BF     		.align	2
 2958              	.L278:
 2959 0090 00000000 		.word	.LC0
 2960 0094 00000000 		.word	.LC21
 2961 0098 38000000 		.word	.LC2
 2962 009c 18000000 		.word	.LC22
 2963 00a0 34000000 		.word	.LC23
 2964              		.cfi_endproc
 2965              	.LFE200:
 2967              		.section	.text.tcp_close_shutdown,"ax",%progbits
 2968              		.align	1
 2969              		.syntax unified
 2970              		.thumb
 2971              		.thumb_func
 2972              		.fpu fpv5-sp-d16
 2974              	tcp_close_shutdown:
 2975              	.LVL264:
 2976              	.LFB164:
 266:Middlewares/Third_Party/LwIP/src/core/tcp.c ****   if (rst_on_unacked_data && ((pcb->state == ESTABLISHED) || (pcb->state == CLOSE_WAIT))) {
 2977              		.loc 1 266 1 view -0
 2978              		.cfi_startproc
 2979              		@ args = 0, pretend = 0, frame = 0
 2980              		@ frame_needed = 0, uses_anonymous_args = 0
 266:Middlewares/Third_Party/LwIP/src/core/tcp.c ****   if (rst_on_unacked_data && ((pcb->state == ESTABLISHED) || (pcb->state == CLOSE_WAIT))) {
 2981              		.loc 1 266 1 is_stmt 0 view .LVU883
 2982 0000 10B5     		push	{r4, lr}
 2983              	.LCFI28:
 2984              		.cfi_def_cfa_offset 8
 2985              		.cfi_offset 4, -8
 2986              		.cfi_offset 14, -4
 2987 0002 82B0     		sub	sp, sp, #8
 2988              	.LCFI29:
 2989              		.cfi_def_cfa_offset 16
 2990 0004 0446     		mov	r4, r0
 267:Middlewares/Third_Party/LwIP/src/core/tcp.c ****     if ((pcb->refused_data != NULL) || (pcb->rcv_wnd != TCP_WND_MAX(pcb))) {
 2991              		.loc 1 267 3 is_stmt 1 view .LVU884
ARM GAS  /tmp/cc6by9MY.s 			page 98


 267:Middlewares/Third_Party/LwIP/src/core/tcp.c ****     if ((pcb->refused_data != NULL) || (pcb->rcv_wnd != TCP_WND_MAX(pcb))) {
 2992              		.loc 1 267 6 is_stmt 0 view .LVU885
 2993 0006 29B3     		cbz	r1, .L281
 267:Middlewares/Third_Party/LwIP/src/core/tcp.c ****     if ((pcb->refused_data != NULL) || (pcb->rcv_wnd != TCP_WND_MAX(pcb))) {
 2994              		.loc 1 267 35 discriminator 1 view .LVU886
 2995 0008 037D     		ldrb	r3, [r0, #20]	@ zero_extendqisi2
 267:Middlewares/Third_Party/LwIP/src/core/tcp.c ****     if ((pcb->refused_data != NULL) || (pcb->rcv_wnd != TCP_WND_MAX(pcb))) {
 2996              		.loc 1 267 27 discriminator 1 view .LVU887
 2997 000a 072B     		cmp	r3, #7
 2998 000c 18BF     		it	ne
 2999 000e 042B     		cmpne	r3, #4
 3000 0010 20D1     		bne	.L281
 268:Middlewares/Third_Party/LwIP/src/core/tcp.c ****       /* Not all data received by application, send RST to tell the remote
 3001              		.loc 1 268 5 is_stmt 1 view .LVU888
 268:Middlewares/Third_Party/LwIP/src/core/tcp.c ****       /* Not all data received by application, send RST to tell the remote
 3002              		.loc 1 268 13 is_stmt 0 view .LVU889
 3003 0012 436F     		ldr	r3, [r0, #116]
 268:Middlewares/Third_Party/LwIP/src/core/tcp.c ****       /* Not all data received by application, send RST to tell the remote
 3004              		.loc 1 268 8 view .LVU890
 3005 0014 D3B1     		cbz	r3, .L303
 3006              	.L282:
 271:Middlewares/Third_Party/LwIP/src/core/tcp.c **** 
 3007              		.loc 1 271 7 is_stmt 1 view .LVU891
 271:Middlewares/Third_Party/LwIP/src/core/tcp.c **** 
 3008              		.loc 1 271 7 view .LVU892
 3009 0016 A37E     		ldrb	r3, [r4, #26]	@ zero_extendqisi2
 3010 0018 13F0100F 		tst	r3, #16
 3011 001c 26D0     		beq	.L304
 3012              	.LVL265:
 3013              	.L283:
 275:Middlewares/Third_Party/LwIP/src/core/tcp.c ****                pcb->local_port, pcb->remote_port);
 3014              		.loc 1 275 7 view .LVU893
 3015 001e 238B     		ldrh	r3, [r4, #24]
 3016 0020 0193     		str	r3, [sp, #4]
 3017 0022 E38A     		ldrh	r3, [r4, #22]
 3018 0024 0093     		str	r3, [sp]
 3019 0026 231D     		adds	r3, r4, #4
 3020 0028 2246     		mov	r2, r4
 3021 002a 616A     		ldr	r1, [r4, #36]
 3022 002c E06C     		ldr	r0, [r4, #76]
 3023 002e FFF7FEFF 		bl	tcp_rst
 3024              	.LVL266:
 278:Middlewares/Third_Party/LwIP/src/core/tcp.c ****       TCP_RMV_ACTIVE(pcb);
 3025              		.loc 1 278 7 view .LVU894
 3026 0032 2046     		mov	r0, r4
 3027 0034 FFF7FEFF 		bl	tcp_pcb_purge
 3028              	.LVL267:
 279:Middlewares/Third_Party/LwIP/src/core/tcp.c ****       if (pcb->state == ESTABLISHED) {
 3029              		.loc 1 279 7 view .LVU895
 279:Middlewares/Third_Party/LwIP/src/core/tcp.c ****       if (pcb->state == ESTABLISHED) {
 3030              		.loc 1 279 7 view .LVU896
 279:Middlewares/Third_Party/LwIP/src/core/tcp.c ****       if (pcb->state == ESTABLISHED) {
 3031              		.loc 1 279 7 view .LVU897
 3032 0038 3C4B     		ldr	r3, .L311
 3033 003a 1B68     		ldr	r3, [r3]
 3034 003c A342     		cmp	r3, r4
 3035 003e 1DD0     		beq	.L305
ARM GAS  /tmp/cc6by9MY.s 			page 99


 3036              	.L284:
 3037              	.LVL268:
 3038              	.LBB15:
 279:Middlewares/Third_Party/LwIP/src/core/tcp.c ****       if (pcb->state == ESTABLISHED) {
 3039              		.loc 1 279 7 is_stmt 0 discriminator 8 view .LVU898
 3040 0040 13B3     		cbz	r3, .L285
 279:Middlewares/Third_Party/LwIP/src/core/tcp.c ****       if (pcb->state == ESTABLISHED) {
 3041              		.loc 1 279 7 is_stmt 1 discriminator 9 view .LVU899
 3042 0042 DA68     		ldr	r2, [r3, #12]
 3043 0044 A242     		cmp	r2, r4
 3044 0046 1DD0     		beq	.L306
 279:Middlewares/Third_Party/LwIP/src/core/tcp.c ****       if (pcb->state == ESTABLISHED) {
 3045              		.loc 1 279 7 is_stmt 0 view .LVU900
 3046 0048 1346     		mov	r3, r2
 3047              	.LVL269:
 279:Middlewares/Third_Party/LwIP/src/core/tcp.c ****       if (pcb->state == ESTABLISHED) {
 3048              		.loc 1 279 7 view .LVU901
 3049 004a F9E7     		b	.L284
 3050              	.LVL270:
 3051              	.L303:
 279:Middlewares/Third_Party/LwIP/src/core/tcp.c ****       if (pcb->state == ESTABLISHED) {
 3052              		.loc 1 279 7 view .LVU902
 3053              	.LBE15:
 268:Middlewares/Third_Party/LwIP/src/core/tcp.c ****       /* Not all data received by application, send RST to tell the remote
 3054              		.loc 1 268 44 discriminator 1 view .LVU903
 3055 004c 038D     		ldrh	r3, [r0, #40]
 268:Middlewares/Third_Party/LwIP/src/core/tcp.c ****       /* Not all data received by application, send RST to tell the remote
 3056              		.loc 1 268 37 discriminator 1 view .LVU904
 3057 004e B3F5066F 		cmp	r3, #2144
 3058 0052 E0D1     		bne	.L282
 3059              	.L281:
 299:Middlewares/Third_Party/LwIP/src/core/tcp.c ****   case CLOSED:
 3060              		.loc 1 299 3 is_stmt 1 view .LVU905
 299:Middlewares/Third_Party/LwIP/src/core/tcp.c ****   case CLOSED:
 3061              		.loc 1 299 14 is_stmt 0 view .LVU906
 3062 0054 237D     		ldrb	r3, [r4, #20]	@ zero_extendqisi2
 299:Middlewares/Third_Party/LwIP/src/core/tcp.c ****   case CLOSED:
 3063              		.loc 1 299 3 view .LVU907
 3064 0056 012B     		cmp	r3, #1
 3065 0058 4FD0     		beq	.L291
 3066 005a 5AB2     		sxtb	r2, r3
 3067 005c 002A     		cmp	r2, #0
 3068 005e 31D0     		beq	.L292
 3069 0060 022B     		cmp	r3, #2
 3070 0062 57D0     		beq	.L293
 324:Middlewares/Third_Party/LwIP/src/core/tcp.c ****   }
 3071              		.loc 1 324 5 is_stmt 1 view .LVU908
 324:Middlewares/Third_Party/LwIP/src/core/tcp.c ****   }
 3072              		.loc 1 324 12 is_stmt 0 view .LVU909
 3073 0064 2046     		mov	r0, r4
 3074              	.LVL271:
 324:Middlewares/Third_Party/LwIP/src/core/tcp.c ****   }
 3075              		.loc 1 324 12 view .LVU910
 3076 0066 FFF7FEFF 		bl	tcp_close_shutdown_fin
 3077              	.LVL272:
 324:Middlewares/Third_Party/LwIP/src/core/tcp.c ****   }
 3078              		.loc 1 324 12 view .LVU911
ARM GAS  /tmp/cc6by9MY.s 			page 100


 3079 006a 44E0     		b	.L290
 3080              	.LVL273:
 3081              	.L304:
 271:Middlewares/Third_Party/LwIP/src/core/tcp.c **** 
 3082              		.loc 1 271 7 is_stmt 1 discriminator 1 view .LVU912
 271:Middlewares/Third_Party/LwIP/src/core/tcp.c **** 
 3083              		.loc 1 271 7 discriminator 1 view .LVU913
 3084 006c 304B     		ldr	r3, .L311+4
 3085 006e 40F20F12 		movw	r2, #271
 3086 0072 3049     		ldr	r1, .L311+8
 3087              	.LVL274:
 271:Middlewares/Third_Party/LwIP/src/core/tcp.c **** 
 3088              		.loc 1 271 7 is_stmt 0 discriminator 1 view .LVU914
 3089 0074 3048     		ldr	r0, .L311+12
 3090              	.LVL275:
 271:Middlewares/Third_Party/LwIP/src/core/tcp.c **** 
 3091              		.loc 1 271 7 discriminator 1 view .LVU915
 3092 0076 FFF7FEFF 		bl	printf
 3093              	.LVL276:
 3094 007a D0E7     		b	.L283
 3095              	.L305:
 279:Middlewares/Third_Party/LwIP/src/core/tcp.c ****       if (pcb->state == ESTABLISHED) {
 3096              		.loc 1 279 7 is_stmt 1 discriminator 1 view .LVU916
 3097 007c DA68     		ldr	r2, [r3, #12]
 3098 007e 2B4B     		ldr	r3, .L311
 3099 0080 1A60     		str	r2, [r3]
 3100 0082 01E0     		b	.L285
 3101              	.LVL277:
 3102              	.L306:
 3103              	.LBB16:
 279:Middlewares/Third_Party/LwIP/src/core/tcp.c ****       if (pcb->state == ESTABLISHED) {
 3104              		.loc 1 279 7 discriminator 5 view .LVU917
 3105 0084 E268     		ldr	r2, [r4, #12]
 3106 0086 DA60     		str	r2, [r3, #12]
 279:Middlewares/Third_Party/LwIP/src/core/tcp.c ****       if (pcb->state == ESTABLISHED) {
 3107              		.loc 1 279 7 discriminator 5 view .LVU918
 3108              	.LVL278:
 3109              	.L285:
 279:Middlewares/Third_Party/LwIP/src/core/tcp.c ****       if (pcb->state == ESTABLISHED) {
 3110              		.loc 1 279 7 is_stmt 0 discriminator 5 view .LVU919
 3111              	.LBE16:
 279:Middlewares/Third_Party/LwIP/src/core/tcp.c ****       if (pcb->state == ESTABLISHED) {
 3112              		.loc 1 279 7 is_stmt 1 discriminator 10 view .LVU920
 3113 0088 0023     		movs	r3, #0
 3114 008a E360     		str	r3, [r4, #12]
 279:Middlewares/Third_Party/LwIP/src/core/tcp.c ****       if (pcb->state == ESTABLISHED) {
 3115              		.loc 1 279 7 discriminator 10 view .LVU921
 3116 008c 2B4B     		ldr	r3, .L311+16
 3117 008e 0122     		movs	r2, #1
 3118 0090 1A70     		strb	r2, [r3]
 280:Middlewares/Third_Party/LwIP/src/core/tcp.c ****         /* move to TIME_WAIT since we close actively */
 3119              		.loc 1 280 7 discriminator 10 view .LVU922
 280:Middlewares/Third_Party/LwIP/src/core/tcp.c ****         /* move to TIME_WAIT since we close actively */
 3120              		.loc 1 280 14 is_stmt 0 discriminator 10 view .LVU923
 3121 0092 237D     		ldrb	r3, [r4, #20]	@ zero_extendqisi2
 280:Middlewares/Third_Party/LwIP/src/core/tcp.c ****         /* move to TIME_WAIT since we close actively */
 3122              		.loc 1 280 10 discriminator 10 view .LVU924
ARM GAS  /tmp/cc6by9MY.s 			page 101


 3123 0094 042B     		cmp	r3, #4
 3124 0096 09D0     		beq	.L307
 286:Middlewares/Third_Party/LwIP/src/core/tcp.c ****           /* prevent using a deallocated pcb: free it from tcp_input later */
 3125              		.loc 1 286 9 is_stmt 1 view .LVU925
 286:Middlewares/Third_Party/LwIP/src/core/tcp.c ****           /* prevent using a deallocated pcb: free it from tcp_input later */
 3126              		.loc 1 286 27 is_stmt 0 view .LVU926
 3127 0098 294B     		ldr	r3, .L311+20
 3128 009a 1B68     		ldr	r3, [r3]
 286:Middlewares/Third_Party/LwIP/src/core/tcp.c ****           /* prevent using a deallocated pcb: free it from tcp_input later */
 3129              		.loc 1 286 12 view .LVU927
 3130 009c A342     		cmp	r3, r4
 3131 009e 0ED0     		beq	.L308
 290:Middlewares/Third_Party/LwIP/src/core/tcp.c ****         }
 3132              		.loc 1 290 11 is_stmt 1 view .LVU928
 3133 00a0 2146     		mov	r1, r4
 3134 00a2 0120     		movs	r0, #1
 3135 00a4 FFF7FEFF 		bl	memp_free
 3136              	.LVL279:
 3137              	.L288:
 293:Middlewares/Third_Party/LwIP/src/core/tcp.c ****     }
 3138              		.loc 1 293 7 view .LVU929
 293:Middlewares/Third_Party/LwIP/src/core/tcp.c ****     }
 3139              		.loc 1 293 14 is_stmt 0 view .LVU930
 3140 00a8 0020     		movs	r0, #0
 3141 00aa 24E0     		b	.L290
 3142              	.L307:
 282:Middlewares/Third_Party/LwIP/src/core/tcp.c ****         TCP_REG(&tcp_tw_pcbs, pcb);
 3143              		.loc 1 282 9 is_stmt 1 view .LVU931
 282:Middlewares/Third_Party/LwIP/src/core/tcp.c ****         TCP_REG(&tcp_tw_pcbs, pcb);
 3144              		.loc 1 282 20 is_stmt 0 view .LVU932
 3145 00ac 0A23     		movs	r3, #10
 3146 00ae 2375     		strb	r3, [r4, #20]
 283:Middlewares/Third_Party/LwIP/src/core/tcp.c ****       } else {
 3147              		.loc 1 283 9 is_stmt 1 view .LVU933
 283:Middlewares/Third_Party/LwIP/src/core/tcp.c ****       } else {
 3148              		.loc 1 283 9 view .LVU934
 3149 00b0 244B     		ldr	r3, .L311+24
 3150 00b2 1A68     		ldr	r2, [r3]
 3151 00b4 E260     		str	r2, [r4, #12]
 283:Middlewares/Third_Party/LwIP/src/core/tcp.c ****       } else {
 3152              		.loc 1 283 9 view .LVU935
 3153 00b6 1C60     		str	r4, [r3]
 283:Middlewares/Third_Party/LwIP/src/core/tcp.c ****       } else {
 3154              		.loc 1 283 9 view .LVU936
 3155 00b8 FFF7FEFF 		bl	tcp_timer_needed
 3156              	.LVL280:
 3157 00bc F4E7     		b	.L288
 3158              	.L308:
 288:Middlewares/Third_Party/LwIP/src/core/tcp.c ****         } else {
 3159              		.loc 1 288 11 view .LVU937
 3160 00be FFF7FEFF 		bl	tcp_trigger_input_pcb_close
 3161              	.LVL281:
 3162 00c2 F1E7     		b	.L288
 3163              	.LVL282:
 3164              	.L292:
 308:Middlewares/Third_Party/LwIP/src/core/tcp.c ****       TCP_RMV(&tcp_bound_pcbs, pcb);
 3165              		.loc 1 308 5 view .LVU938
ARM GAS  /tmp/cc6by9MY.s 			page 102


 308:Middlewares/Third_Party/LwIP/src/core/tcp.c ****       TCP_RMV(&tcp_bound_pcbs, pcb);
 3166              		.loc 1 308 12 is_stmt 0 view .LVU939
 3167 00c4 E38A     		ldrh	r3, [r4, #22]
 308:Middlewares/Third_Party/LwIP/src/core/tcp.c ****       TCP_RMV(&tcp_bound_pcbs, pcb);
 3168              		.loc 1 308 8 view .LVU940
 3169 00c6 8BB1     		cbz	r3, .L295
 309:Middlewares/Third_Party/LwIP/src/core/tcp.c ****     }
 3170              		.loc 1 309 7 is_stmt 1 view .LVU941
 309:Middlewares/Third_Party/LwIP/src/core/tcp.c ****     }
 3171              		.loc 1 309 7 view .LVU942
 3172 00c8 1F4B     		ldr	r3, .L311+28
 3173 00ca 1B68     		ldr	r3, [r3]
 3174 00cc A342     		cmp	r3, r4
 3175 00ce 05D0     		beq	.L309
 3176              	.L296:
 3177              	.LVL283:
 3178              	.LBB17:
 309:Middlewares/Third_Party/LwIP/src/core/tcp.c ****     }
 3179              		.loc 1 309 7 is_stmt 0 discriminator 8 view .LVU943
 3180 00d0 53B1     		cbz	r3, .L297
 309:Middlewares/Third_Party/LwIP/src/core/tcp.c ****     }
 3181              		.loc 1 309 7 is_stmt 1 discriminator 9 view .LVU944
 3182 00d2 DA68     		ldr	r2, [r3, #12]
 3183 00d4 A242     		cmp	r2, r4
 3184 00d6 05D0     		beq	.L310
 309:Middlewares/Third_Party/LwIP/src/core/tcp.c ****     }
 3185              		.loc 1 309 7 is_stmt 0 view .LVU945
 3186 00d8 1346     		mov	r3, r2
 3187              	.LVL284:
 309:Middlewares/Third_Party/LwIP/src/core/tcp.c ****     }
 3188              		.loc 1 309 7 view .LVU946
 3189 00da F9E7     		b	.L296
 3190              	.L309:
 309:Middlewares/Third_Party/LwIP/src/core/tcp.c ****     }
 3191              		.loc 1 309 7 view .LVU947
 3192              	.LBE17:
 309:Middlewares/Third_Party/LwIP/src/core/tcp.c ****     }
 3193              		.loc 1 309 7 is_stmt 1 discriminator 1 view .LVU948
 3194 00dc DA68     		ldr	r2, [r3, #12]
 3195 00de 1A4B     		ldr	r3, .L311+28
 3196 00e0 1A60     		str	r2, [r3]
 3197 00e2 01E0     		b	.L297
 3198              	.LVL285:
 3199              	.L310:
 3200              	.LBB18:
 309:Middlewares/Third_Party/LwIP/src/core/tcp.c ****     }
 3201              		.loc 1 309 7 discriminator 5 view .LVU949
 3202 00e4 E268     		ldr	r2, [r4, #12]
 3203 00e6 DA60     		str	r2, [r3, #12]
 309:Middlewares/Third_Party/LwIP/src/core/tcp.c ****     }
 3204              		.loc 1 309 7 discriminator 5 view .LVU950
 3205              	.LVL286:
 3206              	.L297:
 309:Middlewares/Third_Party/LwIP/src/core/tcp.c ****     }
 3207              		.loc 1 309 7 is_stmt 0 discriminator 5 view .LVU951
 3208              	.LBE18:
 309:Middlewares/Third_Party/LwIP/src/core/tcp.c ****     }
ARM GAS  /tmp/cc6by9MY.s 			page 103


 3209              		.loc 1 309 7 is_stmt 1 discriminator 10 view .LVU952
 3210 00e8 0023     		movs	r3, #0
 3211 00ea E360     		str	r3, [r4, #12]
 3212              	.L295:
 311:Middlewares/Third_Party/LwIP/src/core/tcp.c ****     break;
 3213              		.loc 1 311 5 view .LVU953
 3214 00ec 2146     		mov	r1, r4
 3215              	.LVL287:
 311:Middlewares/Third_Party/LwIP/src/core/tcp.c ****     break;
 3216              		.loc 1 311 5 is_stmt 0 view .LVU954
 3217 00ee 0120     		movs	r0, #1
 3218              	.LVL288:
 311:Middlewares/Third_Party/LwIP/src/core/tcp.c ****     break;
 3219              		.loc 1 311 5 view .LVU955
 3220 00f0 FFF7FEFF 		bl	memp_free
 3221              	.LVL289:
 312:Middlewares/Third_Party/LwIP/src/core/tcp.c ****   case LISTEN:
 3222              		.loc 1 312 5 is_stmt 1 view .LVU956
 326:Middlewares/Third_Party/LwIP/src/core/tcp.c **** }
 3223              		.loc 1 326 10 is_stmt 0 view .LVU957
 3224 00f4 0020     		movs	r0, #0
 3225              	.L290:
 327:Middlewares/Third_Party/LwIP/src/core/tcp.c **** 
 3226              		.loc 1 327 1 view .LVU958
 3227 00f6 02B0     		add	sp, sp, #8
 3228              	.LCFI30:
 3229              		.cfi_remember_state
 3230              		.cfi_def_cfa_offset 8
 3231              		@ sp needed
 3232 00f8 10BD     		pop	{r4, pc}
 3233              	.LVL290:
 3234              	.L291:
 3235              	.LCFI31:
 3236              		.cfi_restore_state
 314:Middlewares/Third_Party/LwIP/src/core/tcp.c ****     tcp_pcb_remove(&tcp_listen_pcbs.pcbs, pcb);
 3237              		.loc 1 314 5 is_stmt 1 view .LVU959
 3238 00fa 2046     		mov	r0, r4
 3239              	.LVL291:
 314:Middlewares/Third_Party/LwIP/src/core/tcp.c ****     tcp_pcb_remove(&tcp_listen_pcbs.pcbs, pcb);
 3240              		.loc 1 314 5 is_stmt 0 view .LVU960
 3241 00fc FFF7FEFF 		bl	tcp_listen_closed
 3242              	.LVL292:
 315:Middlewares/Third_Party/LwIP/src/core/tcp.c ****     memp_free(MEMP_TCP_PCB_LISTEN, pcb);
 3243              		.loc 1 315 5 is_stmt 1 view .LVU961
 3244 0100 2146     		mov	r1, r4
 3245 0102 1248     		ldr	r0, .L311+32
 3246 0104 FFF7FEFF 		bl	tcp_pcb_remove
 3247              	.LVL293:
 316:Middlewares/Third_Party/LwIP/src/core/tcp.c ****     break;
 3248              		.loc 1 316 5 view .LVU962
 3249 0108 2146     		mov	r1, r4
 3250 010a 0220     		movs	r0, #2
 3251 010c FFF7FEFF 		bl	memp_free
 3252              	.LVL294:
 317:Middlewares/Third_Party/LwIP/src/core/tcp.c ****   case SYN_SENT:
 3253              		.loc 1 317 5 view .LVU963
 326:Middlewares/Third_Party/LwIP/src/core/tcp.c **** }
ARM GAS  /tmp/cc6by9MY.s 			page 104


 3254              		.loc 1 326 10 is_stmt 0 view .LVU964
 3255 0110 0020     		movs	r0, #0
 317:Middlewares/Third_Party/LwIP/src/core/tcp.c ****   case SYN_SENT:
 3256              		.loc 1 317 5 view .LVU965
 3257 0112 F0E7     		b	.L290
 3258              	.LVL295:
 3259              	.L293:
 319:Middlewares/Third_Party/LwIP/src/core/tcp.c ****     memp_free(MEMP_TCP_PCB, pcb);
 3260              		.loc 1 319 5 is_stmt 1 view .LVU966
 319:Middlewares/Third_Party/LwIP/src/core/tcp.c ****     memp_free(MEMP_TCP_PCB, pcb);
 3261              		.loc 1 319 5 view .LVU967
 3262 0114 2146     		mov	r1, r4
 3263              	.LVL296:
 319:Middlewares/Third_Party/LwIP/src/core/tcp.c ****     memp_free(MEMP_TCP_PCB, pcb);
 3264              		.loc 1 319 5 is_stmt 0 view .LVU968
 3265 0116 0548     		ldr	r0, .L311
 3266              	.LVL297:
 319:Middlewares/Third_Party/LwIP/src/core/tcp.c ****     memp_free(MEMP_TCP_PCB, pcb);
 3267              		.loc 1 319 5 view .LVU969
 3268 0118 FFF7FEFF 		bl	tcp_pcb_remove
 3269              	.LVL298:
 319:Middlewares/Third_Party/LwIP/src/core/tcp.c ****     memp_free(MEMP_TCP_PCB, pcb);
 3270              		.loc 1 319 5 is_stmt 1 view .LVU970
 3271 011c 0120     		movs	r0, #1
 3272 011e 074B     		ldr	r3, .L311+16
 3273 0120 1870     		strb	r0, [r3]
 320:Middlewares/Third_Party/LwIP/src/core/tcp.c ****     MIB2_STATS_INC(mib2.tcpattemptfails);
 3274              		.loc 1 320 5 view .LVU971
 3275 0122 2146     		mov	r1, r4
 3276 0124 FFF7FEFF 		bl	memp_free
 3277              	.LVL299:
 321:Middlewares/Third_Party/LwIP/src/core/tcp.c ****     break;
 3278              		.loc 1 321 41 view .LVU972
 322:Middlewares/Third_Party/LwIP/src/core/tcp.c ****   default:
 3279              		.loc 1 322 5 view .LVU973
 326:Middlewares/Third_Party/LwIP/src/core/tcp.c **** }
 3280              		.loc 1 326 10 is_stmt 0 view .LVU974
 3281 0128 0020     		movs	r0, #0
 322:Middlewares/Third_Party/LwIP/src/core/tcp.c ****   default:
 3282              		.loc 1 322 5 view .LVU975
 3283 012a E4E7     		b	.L290
 3284              	.L312:
 3285              		.align	2
 3286              	.L311:
 3287 012c 00000000 		.word	tcp_active_pcbs
 3288 0130 00000000 		.word	.LC0
 3289 0134 00000000 		.word	.LC24
 3290 0138 38000000 		.word	.LC2
 3291 013c 00000000 		.word	tcp_active_pcbs_changed
 3292 0140 00000000 		.word	tcp_input_pcb
 3293 0144 00000000 		.word	tcp_tw_pcbs
 3294 0148 00000000 		.word	tcp_bound_pcbs
 3295 014c 00000000 		.word	tcp_listen_pcbs
 3296              		.cfi_endproc
 3297              	.LFE164:
 3299              		.section	.text.tcp_close,"ax",%progbits
 3300              		.align	1
ARM GAS  /tmp/cc6by9MY.s 			page 105


 3301              		.global	tcp_close
 3302              		.syntax unified
 3303              		.thumb
 3304              		.thumb_func
 3305              		.fpu fpv5-sp-d16
 3307              	tcp_close:
 3308              	.LVL300:
 3309              	.LFB166:
 400:Middlewares/Third_Party/LwIP/src/core/tcp.c ****   LWIP_DEBUGF(TCP_DEBUG, ("tcp_close: closing in "));
 3310              		.loc 1 400 1 is_stmt 1 view -0
 3311              		.cfi_startproc
 3312              		@ args = 0, pretend = 0, frame = 0
 3313              		@ frame_needed = 0, uses_anonymous_args = 0
 400:Middlewares/Third_Party/LwIP/src/core/tcp.c ****   LWIP_DEBUGF(TCP_DEBUG, ("tcp_close: closing in "));
 3314              		.loc 1 400 1 is_stmt 0 view .LVU977
 3315 0000 08B5     		push	{r3, lr}
 3316              	.LCFI32:
 3317              		.cfi_def_cfa_offset 8
 3318              		.cfi_offset 3, -8
 3319              		.cfi_offset 14, -4
 401:Middlewares/Third_Party/LwIP/src/core/tcp.c ****   tcp_debug_print_state(pcb->state);
 3320              		.loc 1 401 53 is_stmt 1 view .LVU978
 402:Middlewares/Third_Party/LwIP/src/core/tcp.c **** 
 3321              		.loc 1 402 36 view .LVU979
 404:Middlewares/Third_Party/LwIP/src/core/tcp.c ****     /* Set a flag not to receive any more data... */
 3322              		.loc 1 404 3 view .LVU980
 404:Middlewares/Third_Party/LwIP/src/core/tcp.c ****     /* Set a flag not to receive any more data... */
 3323              		.loc 1 404 10 is_stmt 0 view .LVU981
 3324 0002 037D     		ldrb	r3, [r0, #20]	@ zero_extendqisi2
 404:Middlewares/Third_Party/LwIP/src/core/tcp.c ****     /* Set a flag not to receive any more data... */
 3325              		.loc 1 404 6 view .LVU982
 3326 0004 012B     		cmp	r3, #1
 3327 0006 03D0     		beq	.L314
 406:Middlewares/Third_Party/LwIP/src/core/tcp.c ****   }
 3328              		.loc 1 406 5 is_stmt 1 view .LVU983
 406:Middlewares/Third_Party/LwIP/src/core/tcp.c ****   }
 3329              		.loc 1 406 16 is_stmt 0 view .LVU984
 3330 0008 837E     		ldrb	r3, [r0, #26]	@ zero_extendqisi2
 3331 000a 43F01003 		orr	r3, r3, #16
 3332 000e 8376     		strb	r3, [r0, #26]
 3333              	.L314:
 409:Middlewares/Third_Party/LwIP/src/core/tcp.c **** }
 3334              		.loc 1 409 3 is_stmt 1 view .LVU985
 409:Middlewares/Third_Party/LwIP/src/core/tcp.c **** }
 3335              		.loc 1 409 10 is_stmt 0 view .LVU986
 3336 0010 0121     		movs	r1, #1
 3337 0012 FFF7FEFF 		bl	tcp_close_shutdown
 3338              	.LVL301:
 410:Middlewares/Third_Party/LwIP/src/core/tcp.c **** 
 3339              		.loc 1 410 1 view .LVU987
 3340 0016 08BD     		pop	{r3, pc}
 3341              		.cfi_endproc
 3342              	.LFE166:
 3344              		.section	.text.tcp_recv_null,"ax",%progbits
 3345              		.align	1
 3346              		.global	tcp_recv_null
 3347              		.syntax unified
ARM GAS  /tmp/cc6by9MY.s 			page 106


 3348              		.thumb
 3349              		.thumb_func
 3350              		.fpu fpv5-sp-d16
 3352              	tcp_recv_null:
 3353              	.LVL302:
 3354              	.LFB186:
1445:Middlewares/Third_Party/LwIP/src/core/tcp.c ****   LWIP_UNUSED_ARG(arg);
 3355              		.loc 1 1445 1 is_stmt 1 view -0
 3356              		.cfi_startproc
 3357              		@ args = 0, pretend = 0, frame = 0
 3358              		@ frame_needed = 0, uses_anonymous_args = 0
1445:Middlewares/Third_Party/LwIP/src/core/tcp.c ****   LWIP_UNUSED_ARG(arg);
 3359              		.loc 1 1445 1 is_stmt 0 view .LVU989
 3360 0000 10B5     		push	{r4, lr}
 3361              	.LCFI33:
 3362              		.cfi_def_cfa_offset 8
 3363              		.cfi_offset 4, -8
 3364              		.cfi_offset 14, -4
 3365 0002 0846     		mov	r0, r1
 3366              	.LVL303:
1446:Middlewares/Third_Party/LwIP/src/core/tcp.c ****   if (p != NULL) {
 3367              		.loc 1 1446 3 is_stmt 1 view .LVU990
1447:Middlewares/Third_Party/LwIP/src/core/tcp.c ****     tcp_recved(pcb, p->tot_len);
 3368              		.loc 1 1447 3 view .LVU991
1447:Middlewares/Third_Party/LwIP/src/core/tcp.c ****     tcp_recved(pcb, p->tot_len);
 3369              		.loc 1 1447 6 is_stmt 0 view .LVU992
 3370 0004 42B1     		cbz	r2, .L317
 3371 0006 1446     		mov	r4, r2
1448:Middlewares/Third_Party/LwIP/src/core/tcp.c ****     pbuf_free(p);
 3372              		.loc 1 1448 5 is_stmt 1 view .LVU993
 3373 0008 1189     		ldrh	r1, [r2, #8]
 3374              	.LVL304:
1448:Middlewares/Third_Party/LwIP/src/core/tcp.c ****     pbuf_free(p);
 3375              		.loc 1 1448 5 is_stmt 0 view .LVU994
 3376 000a FFF7FEFF 		bl	tcp_recved
 3377              	.LVL305:
1449:Middlewares/Third_Party/LwIP/src/core/tcp.c ****   } else if (err == ERR_OK) {
 3378              		.loc 1 1449 5 is_stmt 1 view .LVU995
 3379 000e 2046     		mov	r0, r4
 3380 0010 FFF7FEFF 		bl	pbuf_free
 3381              	.LVL306:
1453:Middlewares/Third_Party/LwIP/src/core/tcp.c **** }
 3382              		.loc 1 1453 10 is_stmt 0 view .LVU996
 3383 0014 0020     		movs	r0, #0
 3384              	.LVL307:
 3385              	.L318:
1454:Middlewares/Third_Party/LwIP/src/core/tcp.c **** #endif /* LWIP_CALLBACK_API */
 3386              		.loc 1 1454 1 view .LVU997
 3387 0016 10BD     		pop	{r4, pc}
 3388              	.LVL308:
 3389              	.L317:
1450:Middlewares/Third_Party/LwIP/src/core/tcp.c ****     return tcp_close(pcb);
 3390              		.loc 1 1450 10 is_stmt 1 view .LVU998
1450:Middlewares/Third_Party/LwIP/src/core/tcp.c ****     return tcp_close(pcb);
 3391              		.loc 1 1450 13 is_stmt 0 view .LVU999
 3392 0018 0BB1     		cbz	r3, .L321
1453:Middlewares/Third_Party/LwIP/src/core/tcp.c **** }
ARM GAS  /tmp/cc6by9MY.s 			page 107


 3393              		.loc 1 1453 10 view .LVU1000
 3394 001a 0020     		movs	r0, #0
 3395              	.LVL309:
1453:Middlewares/Third_Party/LwIP/src/core/tcp.c **** }
 3396              		.loc 1 1453 10 view .LVU1001
 3397 001c FBE7     		b	.L318
 3398              	.LVL310:
 3399              	.L321:
1451:Middlewares/Third_Party/LwIP/src/core/tcp.c ****   }
 3400              		.loc 1 1451 5 is_stmt 1 view .LVU1002
1451:Middlewares/Third_Party/LwIP/src/core/tcp.c ****   }
 3401              		.loc 1 1451 12 is_stmt 0 view .LVU1003
 3402 001e FFF7FEFF 		bl	tcp_close
 3403              	.LVL311:
1451:Middlewares/Third_Party/LwIP/src/core/tcp.c ****   }
 3404              		.loc 1 1451 12 view .LVU1004
 3405 0022 F8E7     		b	.L318
 3406              		.cfi_endproc
 3407              	.LFE186:
 3409              		.section	.text.tcp_process_refused_data,"ax",%progbits
 3410              		.align	1
 3411              		.global	tcp_process_refused_data
 3412              		.syntax unified
 3413              		.thumb
 3414              		.thumb_func
 3415              		.fpu fpv5-sp-d16
 3417              	tcp_process_refused_data:
 3418              	.LVL312:
 3419              	.LFB181:
1312:Middlewares/Third_Party/LwIP/src/core/tcp.c **** #if TCP_QUEUE_OOSEQ && LWIP_WND_SCALE
 3420              		.loc 1 1312 1 is_stmt 1 view -0
 3421              		.cfi_startproc
 3422              		@ args = 0, pretend = 0, frame = 0
 3423              		@ frame_needed = 0, uses_anonymous_args = 0
1312:Middlewares/Third_Party/LwIP/src/core/tcp.c **** #if TCP_QUEUE_OOSEQ && LWIP_WND_SCALE
 3424              		.loc 1 1312 1 is_stmt 0 view .LVU1006
 3425 0000 F8B5     		push	{r3, r4, r5, r6, r7, lr}
 3426              	.LCFI34:
 3427              		.cfi_def_cfa_offset 24
 3428              		.cfi_offset 3, -24
 3429              		.cfi_offset 4, -20
 3430              		.cfi_offset 5, -16
 3431              		.cfi_offset 6, -12
 3432              		.cfi_offset 7, -8
 3433              		.cfi_offset 14, -4
 3434 0002 0446     		mov	r4, r0
 3435              	.LBB19:
1318:Middlewares/Third_Party/LwIP/src/core/tcp.c ****     u8_t refused_flags = pcb->refused_data->flags;
 3436              		.loc 1 1318 5 is_stmt 1 view .LVU1007
1319:Middlewares/Third_Party/LwIP/src/core/tcp.c ****     /* set pcb->refused_data to NULL in case the callback frees it and then
 3437              		.loc 1 1319 5 view .LVU1008
1319:Middlewares/Third_Party/LwIP/src/core/tcp.c ****     /* set pcb->refused_data to NULL in case the callback frees it and then
 3438              		.loc 1 1319 29 is_stmt 0 view .LVU1009
 3439 0004 466F     		ldr	r6, [r0, #116]
1319:Middlewares/Third_Party/LwIP/src/core/tcp.c ****     /* set pcb->refused_data to NULL in case the callback frees it and then
 3440              		.loc 1 1319 10 view .LVU1010
 3441 0006 777B     		ldrb	r7, [r6, #13]	@ zero_extendqisi2
ARM GAS  /tmp/cc6by9MY.s 			page 108


 3442              	.LVL313:
1322:Middlewares/Third_Party/LwIP/src/core/tcp.c **** #if TCP_QUEUE_OOSEQ && LWIP_WND_SCALE
 3443              		.loc 1 1322 5 is_stmt 1 view .LVU1011
1327:Middlewares/Third_Party/LwIP/src/core/tcp.c **** #endif /* TCP_QUEUE_OOSEQ && LWIP_WND_SCALE */
 3444              		.loc 1 1327 5 view .LVU1012
1327:Middlewares/Third_Party/LwIP/src/core/tcp.c **** #endif /* TCP_QUEUE_OOSEQ && LWIP_WND_SCALE */
 3445              		.loc 1 1327 23 is_stmt 0 view .LVU1013
 3446 0008 0023     		movs	r3, #0
 3447 000a 4367     		str	r3, [r0, #116]
1330:Middlewares/Third_Party/LwIP/src/core/tcp.c ****     TCP_EVENT_RECV(pcb, refused_data, ERR_OK, err);
 3448              		.loc 1 1330 70 is_stmt 1 view .LVU1014
1331:Middlewares/Third_Party/LwIP/src/core/tcp.c ****     if (err == ERR_OK) {
 3449              		.loc 1 1331 5 view .LVU1015
1331:Middlewares/Third_Party/LwIP/src/core/tcp.c ****     if (err == ERR_OK) {
 3450              		.loc 1 1331 5 view .LVU1016
 3451 000c D0F88050 		ldr	r5, [r0, #128]
 3452 0010 DDB1     		cbz	r5, .L323
1331:Middlewares/Third_Party/LwIP/src/core/tcp.c ****     if (err == ERR_OK) {
 3453              		.loc 1 1331 5 discriminator 1 view .LVU1017
 3454 0012 3246     		mov	r2, r6
 3455 0014 0146     		mov	r1, r0
 3456 0016 0069     		ldr	r0, [r0, #16]
 3457              	.LVL314:
1331:Middlewares/Third_Party/LwIP/src/core/tcp.c ****     if (err == ERR_OK) {
 3458              		.loc 1 1331 5 is_stmt 0 discriminator 1 view .LVU1018
 3459 0018 A847     		blx	r5
 3460              	.LVL315:
1331:Middlewares/Third_Party/LwIP/src/core/tcp.c ****     if (err == ERR_OK) {
 3461              		.loc 1 1331 5 discriminator 1 view .LVU1019
 3462 001a 0546     		mov	r5, r0
 3463              	.LVL316:
 3464              	.L324:
1332:Middlewares/Third_Party/LwIP/src/core/tcp.c ****       /* did refused_data include a FIN? */
 3465              		.loc 1 1332 5 is_stmt 1 view .LVU1020
1332:Middlewares/Third_Party/LwIP/src/core/tcp.c ****       /* did refused_data include a FIN? */
 3466              		.loc 1 1332 8 is_stmt 0 view .LVU1021
 3467 001c EDB9     		cbnz	r5, .L325
1334:Middlewares/Third_Party/LwIP/src/core/tcp.c **** #if TCP_QUEUE_OOSEQ && LWIP_WND_SCALE
 3468              		.loc 1 1334 7 is_stmt 1 view .LVU1022
1334:Middlewares/Third_Party/LwIP/src/core/tcp.c **** #if TCP_QUEUE_OOSEQ && LWIP_WND_SCALE
 3469              		.loc 1 1334 10 is_stmt 0 view .LVU1023
 3470 001e 17F0200F 		tst	r7, #32
 3471 0022 20D0     		beq	.L326
1341:Middlewares/Third_Party/LwIP/src/core/tcp.c ****           pcb->rcv_wnd++;
 3472              		.loc 1 1341 9 is_stmt 1 view .LVU1024
1341:Middlewares/Third_Party/LwIP/src/core/tcp.c ****           pcb->rcv_wnd++;
 3473              		.loc 1 1341 16 is_stmt 0 view .LVU1025
 3474 0024 238D     		ldrh	r3, [r4, #40]
1341:Middlewares/Third_Party/LwIP/src/core/tcp.c ****           pcb->rcv_wnd++;
 3475              		.loc 1 1341 12 view .LVU1026
 3476 0026 B3F5066F 		cmp	r3, #2144
 3477 002a 01D0     		beq	.L327
1342:Middlewares/Third_Party/LwIP/src/core/tcp.c ****         }
 3478              		.loc 1 1342 11 is_stmt 1 view .LVU1027
1342:Middlewares/Third_Party/LwIP/src/core/tcp.c ****         }
 3479              		.loc 1 1342 23 is_stmt 0 view .LVU1028
 3480 002c 0133     		adds	r3, r3, #1
ARM GAS  /tmp/cc6by9MY.s 			page 109


 3481 002e 2385     		strh	r3, [r4, #40]	@ movhi
 3482              	.L327:
1344:Middlewares/Third_Party/LwIP/src/core/tcp.c ****         if (err == ERR_ABRT) {
 3483              		.loc 1 1344 9 is_stmt 1 view .LVU1029
1344:Middlewares/Third_Party/LwIP/src/core/tcp.c ****         if (err == ERR_ABRT) {
 3484              		.loc 1 1344 9 view .LVU1030
 3485 0030 D4F88060 		ldr	r6, [r4, #128]
 3486              	.LVL317:
1344:Middlewares/Third_Party/LwIP/src/core/tcp.c ****         if (err == ERR_ABRT) {
 3487              		.loc 1 1344 9 is_stmt 0 view .LVU1031
 3488 0034 BEB1     		cbz	r6, .L326
1344:Middlewares/Third_Party/LwIP/src/core/tcp.c ****         if (err == ERR_ABRT) {
 3489              		.loc 1 1344 9 is_stmt 1 discriminator 1 view .LVU1032
 3490 0036 0023     		movs	r3, #0
 3491 0038 1A46     		mov	r2, r3
 3492 003a 2146     		mov	r1, r4
 3493 003c 2069     		ldr	r0, [r4, #16]
 3494 003e B047     		blx	r6
 3495              	.LVL318:
1345:Middlewares/Third_Party/LwIP/src/core/tcp.c ****           return ERR_ABRT;
 3496              		.loc 1 1345 9 discriminator 1 view .LVU1033
1345:Middlewares/Third_Party/LwIP/src/core/tcp.c ****           return ERR_ABRT;
 3497              		.loc 1 1345 12 is_stmt 0 discriminator 1 view .LVU1034
 3498 0040 10F10D0F 		cmn	r0, #13
 3499 0044 0FD1     		bne	.L326
1346:Middlewares/Third_Party/LwIP/src/core/tcp.c ****         }
 3500              		.loc 1 1346 18 view .LVU1035
 3501 0046 0546     		mov	r5, r0
 3502 0048 0DE0     		b	.L326
 3503              	.LVL319:
 3504              	.L323:
1331:Middlewares/Third_Party/LwIP/src/core/tcp.c ****     if (err == ERR_OK) {
 3505              		.loc 1 1331 5 is_stmt 1 discriminator 2 view .LVU1036
 3506 004a 0023     		movs	r3, #0
 3507 004c 3246     		mov	r2, r6
 3508 004e 0146     		mov	r1, r0
 3509 0050 1846     		mov	r0, r3
 3510              	.LVL320:
1331:Middlewares/Third_Party/LwIP/src/core/tcp.c ****     if (err == ERR_OK) {
 3511              		.loc 1 1331 5 is_stmt 0 discriminator 2 view .LVU1037
 3512 0052 FFF7FEFF 		bl	tcp_recv_null
 3513              	.LVL321:
 3514 0056 0546     		mov	r5, r0
 3515              	.LVL322:
1331:Middlewares/Third_Party/LwIP/src/core/tcp.c ****     if (err == ERR_OK) {
 3516              		.loc 1 1331 5 discriminator 2 view .LVU1038
 3517 0058 E0E7     		b	.L324
 3518              	.L325:
1349:Middlewares/Third_Party/LwIP/src/core/tcp.c ****       /* if err == ERR_ABRT, 'pcb' is already deallocated */
 3519              		.loc 1 1349 12 is_stmt 1 view .LVU1039
1349:Middlewares/Third_Party/LwIP/src/core/tcp.c ****       /* if err == ERR_ABRT, 'pcb' is already deallocated */
 3520              		.loc 1 1349 15 is_stmt 0 view .LVU1040
 3521 005a 15F10D0F 		cmn	r5, #13
 3522 005e 02D0     		beq	.L326
1362:Middlewares/Third_Party/LwIP/src/core/tcp.c ****       return ERR_INPROGRESS;
 3523              		.loc 1 1362 7 is_stmt 1 view .LVU1041
1362:Middlewares/Third_Party/LwIP/src/core/tcp.c ****       return ERR_INPROGRESS;
ARM GAS  /tmp/cc6by9MY.s 			page 110


 3524              		.loc 1 1362 25 is_stmt 0 view .LVU1042
 3525 0060 6667     		str	r6, [r4, #116]
1363:Middlewares/Third_Party/LwIP/src/core/tcp.c ****     }
 3526              		.loc 1 1363 7 is_stmt 1 view .LVU1043
1363:Middlewares/Third_Party/LwIP/src/core/tcp.c ****     }
 3527              		.loc 1 1363 14 is_stmt 0 view .LVU1044
 3528 0062 6FF00405 		mvn	r5, #4
 3529              	.LVL323:
 3530              	.L326:
1363:Middlewares/Third_Party/LwIP/src/core/tcp.c ****     }
 3531              		.loc 1 1363 14 view .LVU1045
 3532              	.LBE19:
1367:Middlewares/Third_Party/LwIP/src/core/tcp.c **** 
 3533              		.loc 1 1367 1 view .LVU1046
 3534 0066 2846     		mov	r0, r5
 3535 0068 F8BD     		pop	{r3, r4, r5, r6, r7, pc}
1367:Middlewares/Third_Party/LwIP/src/core/tcp.c **** 
 3536              		.loc 1 1367 1 view .LVU1047
 3537              		.cfi_endproc
 3538              	.LFE181:
 3540              		.section	.text.tcp_fasttmr,"ax",%progbits
 3541              		.align	1
 3542              		.global	tcp_fasttmr
 3543              		.syntax unified
 3544              		.thumb
 3545              		.thumb_func
 3546              		.fpu fpv5-sp-d16
 3548              	tcp_fasttmr:
 3549              	.LFB179:
1252:Middlewares/Third_Party/LwIP/src/core/tcp.c ****   struct tcp_pcb *pcb;
 3550              		.loc 1 1252 1 is_stmt 1 view -0
 3551              		.cfi_startproc
 3552              		@ args = 0, pretend = 0, frame = 0
 3553              		@ frame_needed = 0, uses_anonymous_args = 0
 3554 0000 70B5     		push	{r4, r5, r6, lr}
 3555              	.LCFI35:
 3556              		.cfi_def_cfa_offset 16
 3557              		.cfi_offset 4, -16
 3558              		.cfi_offset 5, -12
 3559              		.cfi_offset 6, -8
 3560              		.cfi_offset 14, -4
1253:Middlewares/Third_Party/LwIP/src/core/tcp.c **** 
 3561              		.loc 1 1253 3 view .LVU1049
1255:Middlewares/Third_Party/LwIP/src/core/tcp.c **** 
 3562              		.loc 1 1255 3 view .LVU1050
 3563 0002 1C4A     		ldr	r2, .L342
 3564 0004 1378     		ldrb	r3, [r2]	@ zero_extendqisi2
 3565 0006 0133     		adds	r3, r3, #1
 3566 0008 1370     		strb	r3, [r2]
 3567              	.L331:
1258:Middlewares/Third_Party/LwIP/src/core/tcp.c **** 
 3568              		.loc 1 1258 3 view .LVU1051
1258:Middlewares/Third_Party/LwIP/src/core/tcp.c **** 
 3569              		.loc 1 1258 7 is_stmt 0 view .LVU1052
 3570 000a 1B4B     		ldr	r3, .L342+4
 3571 000c 1C68     		ldr	r4, [r3]
 3572              	.LVL324:
ARM GAS  /tmp/cc6by9MY.s 			page 111


1260:Middlewares/Third_Party/LwIP/src/core/tcp.c ****     if (pcb->last_timer != tcp_timer_ctr) {
 3573              		.loc 1 1260 3 is_stmt 1 view .LVU1053
1260:Middlewares/Third_Party/LwIP/src/core/tcp.c ****     if (pcb->last_timer != tcp_timer_ctr) {
 3574              		.loc 1 1260 9 is_stmt 0 view .LVU1054
 3575 000e 13E0     		b	.L332
 3576              	.L340:
 3577              	.LBB20:
1266:Middlewares/Third_Party/LwIP/src/core/tcp.c ****         tcp_ack_now(pcb);
 3578              		.loc 1 1266 63 is_stmt 1 view .LVU1055
1267:Middlewares/Third_Party/LwIP/src/core/tcp.c ****         tcp_output(pcb);
 3579              		.loc 1 1267 9 view .LVU1056
1267:Middlewares/Third_Party/LwIP/src/core/tcp.c ****         tcp_output(pcb);
 3580              		.loc 1 1267 9 view .LVU1057
 3581 0010 43F00203 		orr	r3, r3, #2
 3582 0014 A376     		strb	r3, [r4, #26]
1268:Middlewares/Third_Party/LwIP/src/core/tcp.c ****         pcb->flags &= ~(TF_ACK_DELAY | TF_ACK_NOW);
 3583              		.loc 1 1268 9 view .LVU1058
 3584 0016 2046     		mov	r0, r4
 3585 0018 FFF7FEFF 		bl	tcp_output
 3586              	.LVL325:
1269:Middlewares/Third_Party/LwIP/src/core/tcp.c ****       }
 3587              		.loc 1 1269 9 view .LVU1059
1269:Middlewares/Third_Party/LwIP/src/core/tcp.c ****       }
 3588              		.loc 1 1269 20 is_stmt 0 view .LVU1060
 3589 001c A37E     		ldrb	r3, [r4, #26]	@ zero_extendqisi2
 3590 001e 23F00303 		bic	r3, r3, #3
 3591 0022 A376     		strb	r3, [r4, #26]
 3592 0024 13E0     		b	.L334
 3593              	.L341:
1273:Middlewares/Third_Party/LwIP/src/core/tcp.c ****         pcb->flags &= ~(TF_CLOSEPEND);
 3594              		.loc 1 1273 63 is_stmt 1 view .LVU1061
1274:Middlewares/Third_Party/LwIP/src/core/tcp.c ****         tcp_close_shutdown_fin(pcb);
 3595              		.loc 1 1274 9 view .LVU1062
1274:Middlewares/Third_Party/LwIP/src/core/tcp.c ****         tcp_close_shutdown_fin(pcb);
 3596              		.loc 1 1274 20 is_stmt 0 view .LVU1063
 3597 0026 23F00803 		bic	r3, r3, #8
 3598 002a A376     		strb	r3, [r4, #26]
1275:Middlewares/Third_Party/LwIP/src/core/tcp.c ****       }
 3599              		.loc 1 1275 9 is_stmt 1 view .LVU1064
 3600 002c 2046     		mov	r0, r4
 3601 002e FFF7FEFF 		bl	tcp_close_shutdown_fin
 3602              	.LVL326:
 3603 0032 10E0     		b	.L335
 3604              	.L333:
1275:Middlewares/Third_Party/LwIP/src/core/tcp.c ****       }
 3605              		.loc 1 1275 9 is_stmt 0 view .LVU1065
 3606              	.LBE20:
1291:Middlewares/Third_Party/LwIP/src/core/tcp.c ****     }
 3607              		.loc 1 1291 7 is_stmt 1 view .LVU1066
1291:Middlewares/Third_Party/LwIP/src/core/tcp.c ****     }
 3608              		.loc 1 1291 11 is_stmt 0 view .LVU1067
 3609 0034 E568     		ldr	r5, [r4, #12]
 3610              	.LVL327:
 3611              	.L336:
1252:Middlewares/Third_Party/LwIP/src/core/tcp.c ****   struct tcp_pcb *pcb;
 3612              		.loc 1 1252 1 view .LVU1068
 3613 0036 2C46     		mov	r4, r5
ARM GAS  /tmp/cc6by9MY.s 			page 112


 3614              	.L332:
 3615              	.LVL328:
1260:Middlewares/Third_Party/LwIP/src/core/tcp.c ****     if (pcb->last_timer != tcp_timer_ctr) {
 3616              		.loc 1 1260 9 view .LVU1069
 3617 0038 DCB1     		cbz	r4, .L339
1261:Middlewares/Third_Party/LwIP/src/core/tcp.c ****       struct tcp_pcb *next;
 3618              		.loc 1 1261 5 is_stmt 1 view .LVU1070
1261:Middlewares/Third_Party/LwIP/src/core/tcp.c ****       struct tcp_pcb *next;
 3619              		.loc 1 1261 12 is_stmt 0 view .LVU1071
 3620 003a 627F     		ldrb	r2, [r4, #29]	@ zero_extendqisi2
1261:Middlewares/Third_Party/LwIP/src/core/tcp.c ****       struct tcp_pcb *next;
 3621              		.loc 1 1261 25 view .LVU1072
 3622 003c 0D4B     		ldr	r3, .L342
 3623 003e 1B78     		ldrb	r3, [r3]	@ zero_extendqisi2
1261:Middlewares/Third_Party/LwIP/src/core/tcp.c ****       struct tcp_pcb *next;
 3624              		.loc 1 1261 8 view .LVU1073
 3625 0040 9A42     		cmp	r2, r3
 3626 0042 F7D0     		beq	.L333
 3627              	.LBB21:
1262:Middlewares/Third_Party/LwIP/src/core/tcp.c ****       pcb->last_timer = tcp_timer_ctr;
 3628              		.loc 1 1262 7 is_stmt 1 view .LVU1074
1263:Middlewares/Third_Party/LwIP/src/core/tcp.c ****       /* send delayed ACKs */
 3629              		.loc 1 1263 7 view .LVU1075
1263:Middlewares/Third_Party/LwIP/src/core/tcp.c ****       /* send delayed ACKs */
 3630              		.loc 1 1263 23 is_stmt 0 view .LVU1076
 3631 0044 6377     		strb	r3, [r4, #29]
1265:Middlewares/Third_Party/LwIP/src/core/tcp.c ****         LWIP_DEBUGF(TCP_DEBUG, ("tcp_fasttmr: delayed ACK\n"));
 3632              		.loc 1 1265 7 is_stmt 1 view .LVU1077
1265:Middlewares/Third_Party/LwIP/src/core/tcp.c ****         LWIP_DEBUGF(TCP_DEBUG, ("tcp_fasttmr: delayed ACK\n"));
 3633              		.loc 1 1265 14 is_stmt 0 view .LVU1078
 3634 0046 A37E     		ldrb	r3, [r4, #26]	@ zero_extendqisi2
1265:Middlewares/Third_Party/LwIP/src/core/tcp.c ****         LWIP_DEBUGF(TCP_DEBUG, ("tcp_fasttmr: delayed ACK\n"));
 3635              		.loc 1 1265 10 view .LVU1079
 3636 0048 13F0010F 		tst	r3, #1
 3637 004c E0D1     		bne	.L340
 3638              	.L334:
1272:Middlewares/Third_Party/LwIP/src/core/tcp.c ****         LWIP_DEBUGF(TCP_DEBUG, ("tcp_fasttmr: pending FIN\n"));
 3639              		.loc 1 1272 7 is_stmt 1 view .LVU1080
1272:Middlewares/Third_Party/LwIP/src/core/tcp.c ****         LWIP_DEBUGF(TCP_DEBUG, ("tcp_fasttmr: pending FIN\n"));
 3640              		.loc 1 1272 14 is_stmt 0 view .LVU1081
 3641 004e A37E     		ldrb	r3, [r4, #26]	@ zero_extendqisi2
1272:Middlewares/Third_Party/LwIP/src/core/tcp.c ****         LWIP_DEBUGF(TCP_DEBUG, ("tcp_fasttmr: pending FIN\n"));
 3642              		.loc 1 1272 10 view .LVU1082
 3643 0050 13F0080F 		tst	r3, #8
 3644 0054 E7D1     		bne	.L341
 3645              	.L335:
1278:Middlewares/Third_Party/LwIP/src/core/tcp.c **** 
 3646              		.loc 1 1278 7 is_stmt 1 view .LVU1083
1278:Middlewares/Third_Party/LwIP/src/core/tcp.c **** 
 3647              		.loc 1 1278 12 is_stmt 0 view .LVU1084
 3648 0056 E568     		ldr	r5, [r4, #12]
 3649              	.LVL329:
1281:Middlewares/Third_Party/LwIP/src/core/tcp.c ****         tcp_active_pcbs_changed = 0;
 3650              		.loc 1 1281 7 is_stmt 1 view .LVU1085
1281:Middlewares/Third_Party/LwIP/src/core/tcp.c ****         tcp_active_pcbs_changed = 0;
 3651              		.loc 1 1281 14 is_stmt 0 view .LVU1086
 3652 0058 636F     		ldr	r3, [r4, #116]
ARM GAS  /tmp/cc6by9MY.s 			page 113


1281:Middlewares/Third_Party/LwIP/src/core/tcp.c ****         tcp_active_pcbs_changed = 0;
 3653              		.loc 1 1281 10 view .LVU1087
 3654 005a 002B     		cmp	r3, #0
 3655 005c EBD0     		beq	.L336
1282:Middlewares/Third_Party/LwIP/src/core/tcp.c ****         tcp_process_refused_data(pcb);
 3656              		.loc 1 1282 9 is_stmt 1 view .LVU1088
1282:Middlewares/Third_Party/LwIP/src/core/tcp.c ****         tcp_process_refused_data(pcb);
 3657              		.loc 1 1282 33 is_stmt 0 view .LVU1089
 3658 005e 074E     		ldr	r6, .L342+8
 3659 0060 0023     		movs	r3, #0
 3660 0062 3370     		strb	r3, [r6]
1283:Middlewares/Third_Party/LwIP/src/core/tcp.c ****         if (tcp_active_pcbs_changed) {
 3661              		.loc 1 1283 9 is_stmt 1 view .LVU1090
 3662 0064 2046     		mov	r0, r4
 3663 0066 FFF7FEFF 		bl	tcp_process_refused_data
 3664              	.LVL330:
1284:Middlewares/Third_Party/LwIP/src/core/tcp.c ****           /* application callback has changed the pcb list: restart the loop */
 3665              		.loc 1 1284 9 view .LVU1091
1284:Middlewares/Third_Party/LwIP/src/core/tcp.c ****           /* application callback has changed the pcb list: restart the loop */
 3666              		.loc 1 1284 13 is_stmt 0 view .LVU1092
 3667 006a 3378     		ldrb	r3, [r6]	@ zero_extendqisi2
1284:Middlewares/Third_Party/LwIP/src/core/tcp.c ****           /* application callback has changed the pcb list: restart the loop */
 3668              		.loc 1 1284 12 view .LVU1093
 3669 006c 002B     		cmp	r3, #0
 3670 006e E2D0     		beq	.L336
 3671 0070 CBE7     		b	.L331
 3672              	.LVL331:
 3673              	.L339:
1284:Middlewares/Third_Party/LwIP/src/core/tcp.c ****           /* application callback has changed the pcb list: restart the loop */
 3674              		.loc 1 1284 12 view .LVU1094
 3675              	.LBE21:
1294:Middlewares/Third_Party/LwIP/src/core/tcp.c **** 
 3676              		.loc 1 1294 1 view .LVU1095
 3677 0072 70BD     		pop	{r4, r5, r6, pc}
 3678              	.LVL332:
 3679              	.L343:
1294:Middlewares/Third_Party/LwIP/src/core/tcp.c **** 
 3680              		.loc 1 1294 1 view .LVU1096
 3681              		.align	2
 3682              	.L342:
 3683 0074 00000000 		.word	.LANCHOR2
 3684 0078 00000000 		.word	tcp_active_pcbs
 3685 007c 00000000 		.word	tcp_active_pcbs_changed
 3686              		.cfi_endproc
 3687              	.LFE179:
 3689              		.section	.text.tcp_tmr,"ax",%progbits
 3690              		.align	1
 3691              		.global	tcp_tmr
 3692              		.syntax unified
 3693              		.thumb
 3694              		.thumb_func
 3695              		.fpu fpv5-sp-d16
 3697              	tcp_tmr:
 3698              	.LFB161:
 157:Middlewares/Third_Party/LwIP/src/core/tcp.c ****   /* Call tcp_fasttmr() every 250 ms */
 3699              		.loc 1 157 1 is_stmt 1 view -0
 3700              		.cfi_startproc
ARM GAS  /tmp/cc6by9MY.s 			page 114


 3701              		@ args = 0, pretend = 0, frame = 0
 3702              		@ frame_needed = 0, uses_anonymous_args = 0
 3703 0000 08B5     		push	{r3, lr}
 3704              	.LCFI36:
 3705              		.cfi_def_cfa_offset 8
 3706              		.cfi_offset 3, -8
 3707              		.cfi_offset 14, -4
 159:Middlewares/Third_Party/LwIP/src/core/tcp.c **** 
 3708              		.loc 1 159 3 view .LVU1098
 3709 0002 FFF7FEFF 		bl	tcp_fasttmr
 3710              	.LVL333:
 161:Middlewares/Third_Party/LwIP/src/core/tcp.c ****     /* Call tcp_slowtmr() every 500 ms, i.e., every other timer
 3711              		.loc 1 161 3 view .LVU1099
 161:Middlewares/Third_Party/LwIP/src/core/tcp.c ****     /* Call tcp_slowtmr() every 500 ms, i.e., every other timer
 3712              		.loc 1 161 7 is_stmt 0 view .LVU1100
 3713 0006 064A     		ldr	r2, .L348
 3714 0008 1378     		ldrb	r3, [r2]	@ zero_extendqisi2
 3715 000a 0133     		adds	r3, r3, #1
 3716 000c DBB2     		uxtb	r3, r3
 161:Middlewares/Third_Party/LwIP/src/core/tcp.c ****     /* Call tcp_slowtmr() every 500 ms, i.e., every other timer
 3717              		.loc 1 161 6 view .LVU1101
 3718 000e 1370     		strb	r3, [r2]
 3719 0010 13F0010F 		tst	r3, #1
 3720 0014 00D1     		bne	.L347
 3721              	.L344:
 166:Middlewares/Third_Party/LwIP/src/core/tcp.c **** 
 3722              		.loc 1 166 1 view .LVU1102
 3723 0016 08BD     		pop	{r3, pc}
 3724              	.L347:
 164:Middlewares/Third_Party/LwIP/src/core/tcp.c ****   }
 3725              		.loc 1 164 5 is_stmt 1 view .LVU1103
 3726 0018 FFF7FEFF 		bl	tcp_slowtmr
 3727              	.LVL334:
 166:Middlewares/Third_Party/LwIP/src/core/tcp.c **** 
 3728              		.loc 1 166 1 is_stmt 0 view .LVU1104
 3729 001c FBE7     		b	.L344
 3730              	.L349:
 3731 001e 00BF     		.align	2
 3732              	.L348:
 3733 0020 00000000 		.word	.LANCHOR5
 3734              		.cfi_endproc
 3735              	.LFE161:
 3737              		.section	.text.tcp_shutdown,"ax",%progbits
 3738              		.align	1
 3739              		.global	tcp_shutdown
 3740              		.syntax unified
 3741              		.thumb
 3742              		.thumb_func
 3743              		.fpu fpv5-sp-d16
 3745              	tcp_shutdown:
 3746              	.LVL335:
 3747              	.LFB167:
 427:Middlewares/Third_Party/LwIP/src/core/tcp.c ****   if (pcb->state == LISTEN) {
 3748              		.loc 1 427 1 is_stmt 1 view -0
 3749              		.cfi_startproc
 3750              		@ args = 0, pretend = 0, frame = 0
 3751              		@ frame_needed = 0, uses_anonymous_args = 0
ARM GAS  /tmp/cc6by9MY.s 			page 115


 428:Middlewares/Third_Party/LwIP/src/core/tcp.c ****     return ERR_CONN;
 3752              		.loc 1 428 3 view .LVU1106
 428:Middlewares/Third_Party/LwIP/src/core/tcp.c ****     return ERR_CONN;
 3753              		.loc 1 428 10 is_stmt 0 view .LVU1107
 3754 0000 037D     		ldrb	r3, [r0, #20]	@ zero_extendqisi2
 428:Middlewares/Third_Party/LwIP/src/core/tcp.c ****     return ERR_CONN;
 3755              		.loc 1 428 6 view .LVU1108
 3756 0002 012B     		cmp	r3, #1
 3757 0004 20D0     		beq	.L355
 427:Middlewares/Third_Party/LwIP/src/core/tcp.c ****   if (pcb->state == LISTEN) {
 3758              		.loc 1 427 1 view .LVU1109
 3759 0006 70B5     		push	{r4, r5, r6, lr}
 3760              	.LCFI37:
 3761              		.cfi_def_cfa_offset 16
 3762              		.cfi_offset 4, -16
 3763              		.cfi_offset 5, -12
 3764              		.cfi_offset 6, -8
 3765              		.cfi_offset 14, -4
 3766 0008 1646     		mov	r6, r2
 3767 000a 0D46     		mov	r5, r1
 3768 000c 0446     		mov	r4, r0
 431:Middlewares/Third_Party/LwIP/src/core/tcp.c ****     /* shut down the receive side: set a flag not to receive any more data... */
 3769              		.loc 1 431 3 is_stmt 1 view .LVU1110
 431:Middlewares/Third_Party/LwIP/src/core/tcp.c ****     /* shut down the receive side: set a flag not to receive any more data... */
 3770              		.loc 1 431 6 is_stmt 0 view .LVU1111
 3771 000e 51B1     		cbz	r1, .L352
 433:Middlewares/Third_Party/LwIP/src/core/tcp.c ****     if (shut_tx) {
 3772              		.loc 1 433 5 is_stmt 1 view .LVU1112
 433:Middlewares/Third_Party/LwIP/src/core/tcp.c ****     if (shut_tx) {
 3773              		.loc 1 433 16 is_stmt 0 view .LVU1113
 3774 0010 837E     		ldrb	r3, [r0, #26]	@ zero_extendqisi2
 3775 0012 43F01003 		orr	r3, r3, #16
 3776 0016 8376     		strb	r3, [r0, #26]
 434:Middlewares/Third_Party/LwIP/src/core/tcp.c ****       /* shutting down the tx AND rx side is the same as closing for the raw API */
 3777              		.loc 1 434 5 is_stmt 1 view .LVU1114
 434:Middlewares/Third_Party/LwIP/src/core/tcp.c ****       /* shutting down the tx AND rx side is the same as closing for the raw API */
 3778              		.loc 1 434 8 is_stmt 0 view .LVU1115
 3779 0018 92B9     		cbnz	r2, .L363
 439:Middlewares/Third_Party/LwIP/src/core/tcp.c ****       pbuf_free(pcb->refused_data);
 3780              		.loc 1 439 5 is_stmt 1 view .LVU1116
 439:Middlewares/Third_Party/LwIP/src/core/tcp.c ****       pbuf_free(pcb->refused_data);
 3781              		.loc 1 439 12 is_stmt 0 view .LVU1117
 3782 001a 406F     		ldr	r0, [r0, #116]
 3783              	.LVL336:
 439:Middlewares/Third_Party/LwIP/src/core/tcp.c ****       pbuf_free(pcb->refused_data);
 3784              		.loc 1 439 8 view .LVU1118
 3785 001c 18B1     		cbz	r0, .L352
 440:Middlewares/Third_Party/LwIP/src/core/tcp.c ****       pcb->refused_data = NULL;
 3786              		.loc 1 440 7 is_stmt 1 view .LVU1119
 3787 001e FFF7FEFF 		bl	pbuf_free
 3788              	.LVL337:
 441:Middlewares/Third_Party/LwIP/src/core/tcp.c ****     }
 3789              		.loc 1 441 7 view .LVU1120
 441:Middlewares/Third_Party/LwIP/src/core/tcp.c ****     }
 3790              		.loc 1 441 25 is_stmt 0 view .LVU1121
 3791 0022 0023     		movs	r3, #0
 3792 0024 6367     		str	r3, [r4, #116]
ARM GAS  /tmp/cc6by9MY.s 			page 116


 3793              	.L352:
 444:Middlewares/Third_Party/LwIP/src/core/tcp.c ****     /* This can't happen twice since if it succeeds, the pcb's state is changed.
 3794              		.loc 1 444 3 is_stmt 1 view .LVU1122
 444:Middlewares/Third_Party/LwIP/src/core/tcp.c ****     /* This can't happen twice since if it succeeds, the pcb's state is changed.
 3795              		.loc 1 444 6 is_stmt 0 view .LVU1123
 3796 0026 96B1     		cbz	r6, .L356
 447:Middlewares/Third_Party/LwIP/src/core/tcp.c ****     case SYN_RCVD:
 3797              		.loc 1 447 5 is_stmt 1 view .LVU1124
 447:Middlewares/Third_Party/LwIP/src/core/tcp.c ****     case SYN_RCVD:
 3798              		.loc 1 447 16 is_stmt 0 view .LVU1125
 3799 0028 237D     		ldrb	r3, [r4, #20]	@ zero_extendqisi2
 447:Middlewares/Third_Party/LwIP/src/core/tcp.c ****     case SYN_RCVD:
 3800              		.loc 1 447 5 view .LVU1126
 3801 002a 032B     		cmp	r3, #3
 3802 002c 11D3     		bcc	.L357
 3803 002e 042B     		cmp	r3, #4
 3804 0030 01D9     		bls	.L354
 3805 0032 072B     		cmp	r3, #7
 3806 0034 10D1     		bne	.L358
 3807              	.L354:
 451:Middlewares/Third_Party/LwIP/src/core/tcp.c ****     default:
 3808              		.loc 1 451 7 is_stmt 1 view .LVU1127
 451:Middlewares/Third_Party/LwIP/src/core/tcp.c ****     default:
 3809              		.loc 1 451 14 is_stmt 0 view .LVU1128
 3810 0036 E9B2     		uxtb	r1, r5
 3811 0038 2046     		mov	r0, r4
 3812 003a FFF7FEFF 		bl	tcp_close_shutdown
 3813              	.LVL338:
 3814 003e 07E0     		b	.L351
 3815              	.LVL339:
 3816              	.L363:
 436:Middlewares/Third_Party/LwIP/src/core/tcp.c ****     }
 3817              		.loc 1 436 7 is_stmt 1 view .LVU1129
 436:Middlewares/Third_Party/LwIP/src/core/tcp.c ****     }
 3818              		.loc 1 436 14 is_stmt 0 view .LVU1130
 3819 0040 0121     		movs	r1, #1
 3820              	.LVL340:
 436:Middlewares/Third_Party/LwIP/src/core/tcp.c ****     }
 3821              		.loc 1 436 14 view .LVU1131
 3822 0042 FFF7FEFF 		bl	tcp_close_shutdown
 3823              	.LVL341:
 436:Middlewares/Third_Party/LwIP/src/core/tcp.c ****     }
 3824              		.loc 1 436 14 view .LVU1132
 3825 0046 03E0     		b	.L351
 3826              	.LVL342:
 3827              	.L355:
 3828              	.LCFI38:
 3829              		.cfi_def_cfa_offset 0
 3830              		.cfi_restore 4
 3831              		.cfi_restore 5
 3832              		.cfi_restore 6
 3833              		.cfi_restore 14
 429:Middlewares/Third_Party/LwIP/src/core/tcp.c ****   }
 3834              		.loc 1 429 12 view .LVU1133
 3835 0048 6FF00A00 		mvn	r0, #10
 3836              	.LVL343:
 459:Middlewares/Third_Party/LwIP/src/core/tcp.c **** 
ARM GAS  /tmp/cc6by9MY.s 			page 117


 3837              		.loc 1 459 1 view .LVU1134
 3838 004c 7047     		bx	lr
 3839              	.LVL344:
 3840              	.L356:
 3841              	.LCFI39:
 3842              		.cfi_def_cfa_offset 16
 3843              		.cfi_offset 4, -16
 3844              		.cfi_offset 5, -12
 3845              		.cfi_offset 6, -8
 3846              		.cfi_offset 14, -4
 458:Middlewares/Third_Party/LwIP/src/core/tcp.c **** }
 3847              		.loc 1 458 10 view .LVU1135
 3848 004e 0020     		movs	r0, #0
 3849              	.L351:
 459:Middlewares/Third_Party/LwIP/src/core/tcp.c **** 
 3850              		.loc 1 459 1 view .LVU1136
 3851 0050 70BD     		pop	{r4, r5, r6, pc}
 3852              	.LVL345:
 3853              	.L357:
 455:Middlewares/Third_Party/LwIP/src/core/tcp.c ****     }
 3854              		.loc 1 455 14 view .LVU1137
 3855 0052 6FF00A00 		mvn	r0, #10
 3856 0056 FBE7     		b	.L351
 3857              	.L358:
 3858 0058 6FF00A00 		mvn	r0, #10
 3859 005c F8E7     		b	.L351
 3860              		.cfi_endproc
 3861              	.LFE167:
 3863              		.section	.text.tcp_abandon,"ax",%progbits
 3864              		.align	1
 3865              		.global	tcp_abandon
 3866              		.syntax unified
 3867              		.thumb
 3868              		.thumb_func
 3869              		.fpu fpv5-sp-d16
 3871              	tcp_abandon:
 3872              	.LVL346:
 3873              	.LFB168:
 471:Middlewares/Third_Party/LwIP/src/core/tcp.c ****   u32_t seqno, ackno;
 3874              		.loc 1 471 1 is_stmt 1 view -0
 3875              		.cfi_startproc
 3876              		@ args = 0, pretend = 0, frame = 0
 3877              		@ frame_needed = 0, uses_anonymous_args = 0
 471:Middlewares/Third_Party/LwIP/src/core/tcp.c ****   u32_t seqno, ackno;
 3878              		.loc 1 471 1 is_stmt 0 view .LVU1139
 3879 0000 2DE9F047 		push	{r4, r5, r6, r7, r8, r9, r10, lr}
 3880              	.LCFI40:
 3881              		.cfi_def_cfa_offset 32
 3882              		.cfi_offset 4, -32
 3883              		.cfi_offset 5, -28
 3884              		.cfi_offset 6, -24
 3885              		.cfi_offset 7, -20
 3886              		.cfi_offset 8, -16
 3887              		.cfi_offset 9, -12
 3888              		.cfi_offset 10, -8
 3889              		.cfi_offset 14, -4
 3890 0004 82B0     		sub	sp, sp, #8
ARM GAS  /tmp/cc6by9MY.s 			page 118


 3891              	.LCFI41:
 3892              		.cfi_def_cfa_offset 40
 3893 0006 0446     		mov	r4, r0
 3894 0008 0D46     		mov	r5, r1
 472:Middlewares/Third_Party/LwIP/src/core/tcp.c **** #if LWIP_CALLBACK_API
 3895              		.loc 1 472 3 is_stmt 1 view .LVU1140
 474:Middlewares/Third_Party/LwIP/src/core/tcp.c **** #endif /* LWIP_CALLBACK_API */
 3896              		.loc 1 474 3 view .LVU1141
 476:Middlewares/Third_Party/LwIP/src/core/tcp.c **** 
 3897              		.loc 1 476 3 view .LVU1142
 479:Middlewares/Third_Party/LwIP/src/core/tcp.c ****     pcb->state != LISTEN);
 3898              		.loc 1 479 3 view .LVU1143
 479:Middlewares/Third_Party/LwIP/src/core/tcp.c ****     pcb->state != LISTEN);
 3899              		.loc 1 479 3 view .LVU1144
 3900 000a 037D     		ldrb	r3, [r0, #20]	@ zero_extendqisi2
 3901 000c 012B     		cmp	r3, #1
 3902 000e 1AD0     		beq	.L380
 3903              	.LVL347:
 3904              	.L365:
 484:Middlewares/Third_Party/LwIP/src/core/tcp.c ****     tcp_pcb_remove(&tcp_tw_pcbs, pcb);
 3905              		.loc 1 484 3 view .LVU1145
 484:Middlewares/Third_Party/LwIP/src/core/tcp.c ****     tcp_pcb_remove(&tcp_tw_pcbs, pcb);
 3906              		.loc 1 484 10 is_stmt 0 view .LVU1146
 3907 0010 237D     		ldrb	r3, [r4, #20]	@ zero_extendqisi2
 484:Middlewares/Third_Party/LwIP/src/core/tcp.c ****     tcp_pcb_remove(&tcp_tw_pcbs, pcb);
 3908              		.loc 1 484 6 view .LVU1147
 3909 0012 0A2B     		cmp	r3, #10
 3910 0014 1FD0     		beq	.L381
 3911              	.LBB22:
 488:Middlewares/Third_Party/LwIP/src/core/tcp.c ****     u16_t local_port = 0;
 3912              		.loc 1 488 5 is_stmt 1 view .LVU1148
 3913              	.LVL348:
 489:Middlewares/Third_Party/LwIP/src/core/tcp.c ****     enum tcp_state last_state;
 3914              		.loc 1 489 5 view .LVU1149
 490:Middlewares/Third_Party/LwIP/src/core/tcp.c ****     seqno = pcb->snd_nxt;
 3915              		.loc 1 490 5 view .LVU1150
 491:Middlewares/Third_Party/LwIP/src/core/tcp.c ****     ackno = pcb->rcv_nxt;
 3916              		.loc 1 491 5 view .LVU1151
 491:Middlewares/Third_Party/LwIP/src/core/tcp.c ****     ackno = pcb->rcv_nxt;
 3917              		.loc 1 491 11 is_stmt 0 view .LVU1152
 3918 0016 D4F84C80 		ldr	r8, [r4, #76]
 3919              	.LVL349:
 492:Middlewares/Third_Party/LwIP/src/core/tcp.c **** #if LWIP_CALLBACK_API
 3920              		.loc 1 492 5 is_stmt 1 view .LVU1153
 492:Middlewares/Third_Party/LwIP/src/core/tcp.c **** #if LWIP_CALLBACK_API
 3921              		.loc 1 492 11 is_stmt 0 view .LVU1154
 3922 001a D4F82490 		ldr	r9, [r4, #36]
 3923              	.LVL350:
 494:Middlewares/Third_Party/LwIP/src/core/tcp.c **** #endif /* LWIP_CALLBACK_API */
 3924              		.loc 1 494 5 is_stmt 1 view .LVU1155
 494:Middlewares/Third_Party/LwIP/src/core/tcp.c **** #endif /* LWIP_CALLBACK_API */
 3925              		.loc 1 494 10 is_stmt 0 view .LVU1156
 3926 001e D4F88C60 		ldr	r6, [r4, #140]
 3927              	.LVL351:
 496:Middlewares/Third_Party/LwIP/src/core/tcp.c ****     if (pcb->state == CLOSED) {
 3928              		.loc 1 496 5 is_stmt 1 view .LVU1157
 496:Middlewares/Third_Party/LwIP/src/core/tcp.c ****     if (pcb->state == CLOSED) {
ARM GAS  /tmp/cc6by9MY.s 			page 119


 3929              		.loc 1 496 14 is_stmt 0 view .LVU1158
 3930 0022 2769     		ldr	r7, [r4, #16]
 3931              	.LVL352:
 497:Middlewares/Third_Party/LwIP/src/core/tcp.c ****       if (pcb->local_port != 0) {
 3932              		.loc 1 497 5 is_stmt 1 view .LVU1159
 497:Middlewares/Third_Party/LwIP/src/core/tcp.c ****       if (pcb->local_port != 0) {
 3933              		.loc 1 497 8 is_stmt 0 view .LVU1160
 3934 0024 002B     		cmp	r3, #0
 3935 0026 41D1     		bne	.L368
 498:Middlewares/Third_Party/LwIP/src/core/tcp.c ****         /* bound, not yet opened */
 3936              		.loc 1 498 7 is_stmt 1 view .LVU1161
 498:Middlewares/Third_Party/LwIP/src/core/tcp.c ****         /* bound, not yet opened */
 3937              		.loc 1 498 14 is_stmt 0 view .LVU1162
 3938 0028 B4F816A0 		ldrh	r10, [r4, #22]
 498:Middlewares/Third_Party/LwIP/src/core/tcp.c ****         /* bound, not yet opened */
 3939              		.loc 1 498 10 view .LVU1163
 3940 002c BAF1000F 		cmp	r10, #0
 3941 0030 46D0     		beq	.L377
 500:Middlewares/Third_Party/LwIP/src/core/tcp.c ****       }
 3942              		.loc 1 500 9 is_stmt 1 view .LVU1164
 500:Middlewares/Third_Party/LwIP/src/core/tcp.c ****       }
 3943              		.loc 1 500 9 view .LVU1165
 3944 0032 2A4B     		ldr	r3, .L385
 3945 0034 1B68     		ldr	r3, [r3]
 3946 0036 A342     		cmp	r3, r4
 3947 0038 16D0     		beq	.L382
 3948              	.L370:
 3949              	.LVL353:
 3950              	.LBB23:
 500:Middlewares/Third_Party/LwIP/src/core/tcp.c ****       }
 3951              		.loc 1 500 9 is_stmt 0 discriminator 8 view .LVU1166
 3952 003a DBB1     		cbz	r3, .L371
 500:Middlewares/Third_Party/LwIP/src/core/tcp.c ****       }
 3953              		.loc 1 500 9 is_stmt 1 discriminator 9 view .LVU1167
 3954 003c DA68     		ldr	r2, [r3, #12]
 3955 003e A242     		cmp	r2, r4
 3956 0040 16D0     		beq	.L383
 500:Middlewares/Third_Party/LwIP/src/core/tcp.c ****       }
 3957              		.loc 1 500 9 is_stmt 0 view .LVU1168
 3958 0042 1346     		mov	r3, r2
 3959              	.LVL354:
 500:Middlewares/Third_Party/LwIP/src/core/tcp.c ****       }
 3960              		.loc 1 500 9 view .LVU1169
 3961 0044 F9E7     		b	.L370
 3962              	.LVL355:
 3963              	.L380:
 500:Middlewares/Third_Party/LwIP/src/core/tcp.c ****       }
 3964              		.loc 1 500 9 view .LVU1170
 3965              	.LBE23:
 3966              	.LBE22:
 479:Middlewares/Third_Party/LwIP/src/core/tcp.c ****     pcb->state != LISTEN);
 3967              		.loc 1 479 3 is_stmt 1 discriminator 1 view .LVU1171
 479:Middlewares/Third_Party/LwIP/src/core/tcp.c ****     pcb->state != LISTEN);
 3968              		.loc 1 479 3 discriminator 1 view .LVU1172
 3969 0046 264B     		ldr	r3, .L385+4
 3970 0048 4FF4F072 		mov	r2, #480
 3971 004c 2549     		ldr	r1, .L385+8
ARM GAS  /tmp/cc6by9MY.s 			page 120


 3972              	.LVL356:
 479:Middlewares/Third_Party/LwIP/src/core/tcp.c ****     pcb->state != LISTEN);
 3973              		.loc 1 479 3 is_stmt 0 discriminator 1 view .LVU1173
 3974 004e 2648     		ldr	r0, .L385+12
 3975              	.LVL357:
 479:Middlewares/Third_Party/LwIP/src/core/tcp.c ****     pcb->state != LISTEN);
 3976              		.loc 1 479 3 discriminator 1 view .LVU1174
 3977 0050 FFF7FEFF 		bl	printf
 3978              	.LVL358:
 3979 0054 DCE7     		b	.L365
 3980              	.L381:
 485:Middlewares/Third_Party/LwIP/src/core/tcp.c ****     memp_free(MEMP_TCP_PCB, pcb);
 3981              		.loc 1 485 5 is_stmt 1 view .LVU1175
 3982 0056 2146     		mov	r1, r4
 3983 0058 2448     		ldr	r0, .L385+16
 3984 005a FFF7FEFF 		bl	tcp_pcb_remove
 3985              	.LVL359:
 486:Middlewares/Third_Party/LwIP/src/core/tcp.c ****   } else {
 3986              		.loc 1 486 5 view .LVU1176
 3987 005e 2146     		mov	r1, r4
 3988 0060 0120     		movs	r0, #1
 3989 0062 FFF7FEFF 		bl	memp_free
 3990              	.LVL360:
 3991 0066 1EE0     		b	.L364
 3992              	.LVL361:
 3993              	.L382:
 3994              	.LBB25:
 500:Middlewares/Third_Party/LwIP/src/core/tcp.c ****       }
 3995              		.loc 1 500 9 discriminator 1 view .LVU1177
 3996 0068 DA68     		ldr	r2, [r3, #12]
 3997 006a 1C4B     		ldr	r3, .L385
 3998 006c 1A60     		str	r2, [r3]
 3999 006e 01E0     		b	.L371
 4000              	.LVL362:
 4001              	.L383:
 4002              	.LBB24:
 500:Middlewares/Third_Party/LwIP/src/core/tcp.c ****       }
 4003              		.loc 1 500 9 discriminator 5 view .LVU1178
 4004 0070 E268     		ldr	r2, [r4, #12]
 4005 0072 DA60     		str	r2, [r3, #12]
 500:Middlewares/Third_Party/LwIP/src/core/tcp.c ****       }
 4006              		.loc 1 500 9 discriminator 5 view .LVU1179
 4007              	.LVL363:
 4008              	.L371:
 500:Middlewares/Third_Party/LwIP/src/core/tcp.c ****       }
 4009              		.loc 1 500 9 is_stmt 0 discriminator 5 view .LVU1180
 4010              	.LBE24:
 500:Middlewares/Third_Party/LwIP/src/core/tcp.c ****       }
 4011              		.loc 1 500 9 is_stmt 1 discriminator 10 view .LVU1181
 4012 0074 0025     		movs	r5, #0
 4013              	.LVL364:
 500:Middlewares/Third_Party/LwIP/src/core/tcp.c ****       }
 4014              		.loc 1 500 9 is_stmt 0 discriminator 10 view .LVU1182
 4015 0076 E560     		str	r5, [r4, #12]
 489:Middlewares/Third_Party/LwIP/src/core/tcp.c ****     enum tcp_state last_state;
 4016              		.loc 1 489 11 discriminator 10 view .LVU1183
 4017 0078 AA46     		mov	r10, r5
ARM GAS  /tmp/cc6by9MY.s 			page 121


 4018              	.LVL365:
 4019              	.L369:
 507:Middlewares/Third_Party/LwIP/src/core/tcp.c ****       tcp_segs_free(pcb->unacked);
 4020              		.loc 1 507 5 is_stmt 1 view .LVU1184
 507:Middlewares/Third_Party/LwIP/src/core/tcp.c ****       tcp_segs_free(pcb->unacked);
 4021              		.loc 1 507 12 is_stmt 0 view .LVU1185
 4022 007a E06E     		ldr	r0, [r4, #108]
 507:Middlewares/Third_Party/LwIP/src/core/tcp.c ****       tcp_segs_free(pcb->unacked);
 4023              		.loc 1 507 8 view .LVU1186
 4024 007c 08B1     		cbz	r0, .L373
 508:Middlewares/Third_Party/LwIP/src/core/tcp.c ****     }
 4025              		.loc 1 508 7 is_stmt 1 view .LVU1187
 4026 007e FFF7FEFF 		bl	tcp_segs_free
 4027              	.LVL366:
 4028              	.L373:
 510:Middlewares/Third_Party/LwIP/src/core/tcp.c ****       tcp_segs_free(pcb->unsent);
 4029              		.loc 1 510 5 view .LVU1188
 510:Middlewares/Third_Party/LwIP/src/core/tcp.c ****       tcp_segs_free(pcb->unsent);
 4030              		.loc 1 510 12 is_stmt 0 view .LVU1189
 4031 0082 A06E     		ldr	r0, [r4, #104]
 510:Middlewares/Third_Party/LwIP/src/core/tcp.c ****       tcp_segs_free(pcb->unsent);
 4032              		.loc 1 510 8 view .LVU1190
 4033 0084 08B1     		cbz	r0, .L374
 511:Middlewares/Third_Party/LwIP/src/core/tcp.c ****     }
 4034              		.loc 1 511 7 is_stmt 1 view .LVU1191
 4035 0086 FFF7FEFF 		bl	tcp_segs_free
 4036              	.LVL367:
 4037              	.L374:
 514:Middlewares/Third_Party/LwIP/src/core/tcp.c ****       tcp_segs_free(pcb->ooseq);
 4038              		.loc 1 514 5 view .LVU1192
 514:Middlewares/Third_Party/LwIP/src/core/tcp.c ****       tcp_segs_free(pcb->ooseq);
 4039              		.loc 1 514 12 is_stmt 0 view .LVU1193
 4040 008a 206F     		ldr	r0, [r4, #112]
 514:Middlewares/Third_Party/LwIP/src/core/tcp.c ****       tcp_segs_free(pcb->ooseq);
 4041              		.loc 1 514 8 view .LVU1194
 4042 008c 08B1     		cbz	r0, .L375
 515:Middlewares/Third_Party/LwIP/src/core/tcp.c ****     }
 4043              		.loc 1 515 7 is_stmt 1 view .LVU1195
 4044 008e FFF7FEFF 		bl	tcp_segs_free
 4045              	.LVL368:
 4046              	.L375:
 518:Middlewares/Third_Party/LwIP/src/core/tcp.c ****     if (send_rst) {
 4047              		.loc 1 518 30 view .LVU1196
 519:Middlewares/Third_Party/LwIP/src/core/tcp.c ****       LWIP_DEBUGF(TCP_RST_DEBUG, ("tcp_abandon: sending RST\n"));
 4048              		.loc 1 519 5 view .LVU1197
 519:Middlewares/Third_Party/LwIP/src/core/tcp.c ****       LWIP_DEBUGF(TCP_RST_DEBUG, ("tcp_abandon: sending RST\n"));
 4049              		.loc 1 519 8 is_stmt 0 view .LVU1198
 4050 0092 BDB9     		cbnz	r5, .L384
 4051              	.L376:
 523:Middlewares/Third_Party/LwIP/src/core/tcp.c ****     memp_free(MEMP_TCP_PCB, pcb);
 4052              		.loc 1 523 5 is_stmt 1 view .LVU1199
 4053              	.LVL369:
 524:Middlewares/Third_Party/LwIP/src/core/tcp.c ****     TCP_EVENT_ERR(last_state, errf, errf_arg, ERR_ABRT);
 4054              		.loc 1 524 5 view .LVU1200
 4055 0094 2146     		mov	r1, r4
 4056 0096 0120     		movs	r0, #1
 4057 0098 FFF7FEFF 		bl	memp_free
ARM GAS  /tmp/cc6by9MY.s 			page 122


 4058              	.LVL370:
 525:Middlewares/Third_Party/LwIP/src/core/tcp.c ****   }
 4059              		.loc 1 525 5 view .LVU1201
 525:Middlewares/Third_Party/LwIP/src/core/tcp.c ****   }
 4060              		.loc 1 525 5 view .LVU1202
 525:Middlewares/Third_Party/LwIP/src/core/tcp.c ****   }
 4061              		.loc 1 525 5 view .LVU1203
 4062 009c 1EB1     		cbz	r6, .L364
 525:Middlewares/Third_Party/LwIP/src/core/tcp.c ****   }
 4063              		.loc 1 525 5 discriminator 1 view .LVU1204
 4064 009e 6FF00C01 		mvn	r1, #12
 4065 00a2 3846     		mov	r0, r7
 4066 00a4 B047     		blx	r6
 4067              	.LVL371:
 4068              	.L364:
 525:Middlewares/Third_Party/LwIP/src/core/tcp.c ****   }
 4069              		.loc 1 525 5 is_stmt 0 discriminator 1 view .LVU1205
 4070              	.LBE25:
 527:Middlewares/Third_Party/LwIP/src/core/tcp.c **** 
 4071              		.loc 1 527 1 view .LVU1206
 4072 00a6 02B0     		add	sp, sp, #8
 4073              	.LCFI42:
 4074              		.cfi_remember_state
 4075              		.cfi_def_cfa_offset 32
 4076              		@ sp needed
 4077 00a8 BDE8F087 		pop	{r4, r5, r6, r7, r8, r9, r10, pc}
 4078              	.LVL372:
 4079              	.L368:
 4080              	.LCFI43:
 4081              		.cfi_restore_state
 4082              	.LBB26:
 503:Middlewares/Third_Party/LwIP/src/core/tcp.c ****       local_port = pcb->local_port;
 4083              		.loc 1 503 7 is_stmt 1 view .LVU1207
 504:Middlewares/Third_Party/LwIP/src/core/tcp.c ****       TCP_PCB_REMOVE_ACTIVE(pcb);
 4084              		.loc 1 504 7 view .LVU1208
 504:Middlewares/Third_Party/LwIP/src/core/tcp.c ****       TCP_PCB_REMOVE_ACTIVE(pcb);
 4085              		.loc 1 504 18 is_stmt 0 view .LVU1209
 4086 00ac B4F816A0 		ldrh	r10, [r4, #22]
 4087              	.LVL373:
 505:Middlewares/Third_Party/LwIP/src/core/tcp.c ****     }
 4088              		.loc 1 505 7 is_stmt 1 view .LVU1210
 505:Middlewares/Third_Party/LwIP/src/core/tcp.c ****     }
 4089              		.loc 1 505 7 view .LVU1211
 4090 00b0 2146     		mov	r1, r4
 4091 00b2 0F48     		ldr	r0, .L385+20
 4092 00b4 FFF7FEFF 		bl	tcp_pcb_remove
 4093              	.LVL374:
 505:Middlewares/Third_Party/LwIP/src/core/tcp.c ****     }
 4094              		.loc 1 505 7 view .LVU1212
 4095 00b8 0E4B     		ldr	r3, .L385+24
 4096 00ba 0122     		movs	r2, #1
 4097 00bc 1A70     		strb	r2, [r3]
 4098 00be DCE7     		b	.L369
 4099              	.LVL375:
 4100              	.L377:
 488:Middlewares/Third_Party/LwIP/src/core/tcp.c ****     u16_t local_port = 0;
 4101              		.loc 1 488 9 is_stmt 0 view .LVU1213
ARM GAS  /tmp/cc6by9MY.s 			page 123


 4102 00c0 0025     		movs	r5, #0
 4103              	.LVL376:
 488:Middlewares/Third_Party/LwIP/src/core/tcp.c ****     u16_t local_port = 0;
 4104              		.loc 1 488 9 view .LVU1214
 4105 00c2 DAE7     		b	.L369
 4106              	.LVL377:
 4107              	.L384:
 520:Middlewares/Third_Party/LwIP/src/core/tcp.c ****       tcp_rst(seqno, ackno, &pcb->local_ip, &pcb->remote_ip, local_port, pcb->remote_port);
 4108              		.loc 1 520 65 is_stmt 1 view .LVU1215
 521:Middlewares/Third_Party/LwIP/src/core/tcp.c ****     }
 4109              		.loc 1 521 7 view .LVU1216
 4110 00c4 238B     		ldrh	r3, [r4, #24]
 4111 00c6 0193     		str	r3, [sp, #4]
 4112 00c8 CDF800A0 		str	r10, [sp]
 4113 00cc 231D     		adds	r3, r4, #4
 4114 00ce 2246     		mov	r2, r4
 4115 00d0 4946     		mov	r1, r9
 4116 00d2 4046     		mov	r0, r8
 4117 00d4 FFF7FEFF 		bl	tcp_rst
 4118              	.LVL378:
 4119 00d8 DCE7     		b	.L376
 4120              	.L386:
 4121 00da 00BF     		.align	2
 4122              	.L385:
 4123 00dc 00000000 		.word	tcp_bound_pcbs
 4124 00e0 00000000 		.word	.LC0
 4125 00e4 00000000 		.word	.LC25
 4126 00e8 38000000 		.word	.LC2
 4127 00ec 00000000 		.word	tcp_tw_pcbs
 4128 00f0 00000000 		.word	tcp_active_pcbs
 4129 00f4 00000000 		.word	tcp_active_pcbs_changed
 4130              	.LBE26:
 4131              		.cfi_endproc
 4132              	.LFE168:
 4134              		.section	.text.tcp_abort,"ax",%progbits
 4135              		.align	1
 4136              		.global	tcp_abort
 4137              		.syntax unified
 4138              		.thumb
 4139              		.thumb_func
 4140              		.fpu fpv5-sp-d16
 4142              	tcp_abort:
 4143              	.LVL379:
 4144              	.LFB169:
 542:Middlewares/Third_Party/LwIP/src/core/tcp.c ****   tcp_abandon(pcb, 1);
 4145              		.loc 1 542 1 view -0
 4146              		.cfi_startproc
 4147              		@ args = 0, pretend = 0, frame = 0
 4148              		@ frame_needed = 0, uses_anonymous_args = 0
 542:Middlewares/Third_Party/LwIP/src/core/tcp.c ****   tcp_abandon(pcb, 1);
 4149              		.loc 1 542 1 is_stmt 0 view .LVU1218
 4150 0000 08B5     		push	{r3, lr}
 4151              	.LCFI44:
 4152              		.cfi_def_cfa_offset 8
 4153              		.cfi_offset 3, -8
 4154              		.cfi_offset 14, -4
 543:Middlewares/Third_Party/LwIP/src/core/tcp.c **** }
ARM GAS  /tmp/cc6by9MY.s 			page 124


 4155              		.loc 1 543 3 is_stmt 1 view .LVU1219
 4156 0002 0121     		movs	r1, #1
 4157 0004 FFF7FEFF 		bl	tcp_abandon
 4158              	.LVL380:
 544:Middlewares/Third_Party/LwIP/src/core/tcp.c **** 
 4159              		.loc 1 544 1 is_stmt 0 view .LVU1220
 4160 0008 08BD     		pop	{r3, pc}
 4161              		.cfi_endproc
 4162              	.LFE169:
 4164              		.section	.text.tcp_accept_null,"ax",%progbits
 4165              		.align	1
 4166              		.syntax unified
 4167              		.thumb
 4168              		.thumb_func
 4169              		.fpu fpv5-sp-d16
 4171              	tcp_accept_null:
 4172              	.LVL381:
 4173              	.LFB171:
 638:Middlewares/Third_Party/LwIP/src/core/tcp.c ****   LWIP_UNUSED_ARG(arg);
 4174              		.loc 1 638 1 is_stmt 1 view -0
 4175              		.cfi_startproc
 4176              		@ args = 0, pretend = 0, frame = 0
 4177              		@ frame_needed = 0, uses_anonymous_args = 0
 638:Middlewares/Third_Party/LwIP/src/core/tcp.c ****   LWIP_UNUSED_ARG(arg);
 4178              		.loc 1 638 1 is_stmt 0 view .LVU1222
 4179 0000 08B5     		push	{r3, lr}
 4180              	.LCFI45:
 4181              		.cfi_def_cfa_offset 8
 4182              		.cfi_offset 3, -8
 4183              		.cfi_offset 14, -4
 639:Middlewares/Third_Party/LwIP/src/core/tcp.c ****   LWIP_UNUSED_ARG(err);
 4184              		.loc 1 639 3 is_stmt 1 view .LVU1223
 640:Middlewares/Third_Party/LwIP/src/core/tcp.c **** 
 4185              		.loc 1 640 3 view .LVU1224
 642:Middlewares/Third_Party/LwIP/src/core/tcp.c **** 
 4186              		.loc 1 642 3 view .LVU1225
 4187 0002 0846     		mov	r0, r1
 4188              	.LVL382:
 642:Middlewares/Third_Party/LwIP/src/core/tcp.c **** 
 4189              		.loc 1 642 3 is_stmt 0 view .LVU1226
 4190 0004 FFF7FEFF 		bl	tcp_abort
 4191              	.LVL383:
 644:Middlewares/Third_Party/LwIP/src/core/tcp.c **** }
 4192              		.loc 1 644 3 is_stmt 1 view .LVU1227
 645:Middlewares/Third_Party/LwIP/src/core/tcp.c **** #endif /* LWIP_CALLBACK_API */
 4193              		.loc 1 645 1 is_stmt 0 view .LVU1228
 4194 0008 6FF00C00 		mvn	r0, #12
 4195 000c 08BD     		pop	{r3, pc}
 4196              		.cfi_endproc
 4197              	.LFE171:
 4199              		.section	.text.tcp_kill_timewait,"ax",%progbits
 4200              		.align	1
 4201              		.syntax unified
 4202              		.thumb
 4203              		.thumb_func
 4204              		.fpu fpv5-sp-d16
 4206              	tcp_kill_timewait:
ARM GAS  /tmp/cc6by9MY.s 			page 125


 4207              	.LFB189:
1528:Middlewares/Third_Party/LwIP/src/core/tcp.c ****   struct tcp_pcb *pcb, *inactive;
 4208              		.loc 1 1528 1 is_stmt 1 view -0
 4209              		.cfi_startproc
 4210              		@ args = 0, pretend = 0, frame = 0
 4211              		@ frame_needed = 0, uses_anonymous_args = 0
 4212 0000 10B5     		push	{r4, lr}
 4213              	.LCFI46:
 4214              		.cfi_def_cfa_offset 8
 4215              		.cfi_offset 4, -8
 4216              		.cfi_offset 14, -4
1529:Middlewares/Third_Party/LwIP/src/core/tcp.c ****   u32_t inactivity;
 4217              		.loc 1 1529 3 view .LVU1230
1530:Middlewares/Third_Party/LwIP/src/core/tcp.c **** 
 4218              		.loc 1 1530 3 view .LVU1231
1532:Middlewares/Third_Party/LwIP/src/core/tcp.c ****   inactive = NULL;
 4219              		.loc 1 1532 3 view .LVU1232
 4220              	.LVL384:
1533:Middlewares/Third_Party/LwIP/src/core/tcp.c ****   /* Go through the list of TIME_WAIT pcbs and get the oldest pcb. */
 4221              		.loc 1 1533 3 view .LVU1233
1535:Middlewares/Third_Party/LwIP/src/core/tcp.c ****     if ((u32_t)(tcp_ticks - pcb->tmr) >= inactivity) {
 4222              		.loc 1 1535 3 view .LVU1234
1535:Middlewares/Third_Party/LwIP/src/core/tcp.c ****     if ((u32_t)(tcp_ticks - pcb->tmr) >= inactivity) {
 4223              		.loc 1 1535 12 is_stmt 0 view .LVU1235
 4224 0002 0A4B     		ldr	r3, .L399
 4225 0004 1B68     		ldr	r3, [r3]
 4226              	.LVL385:
1532:Middlewares/Third_Party/LwIP/src/core/tcp.c ****   inactive = NULL;
 4227              		.loc 1 1532 14 view .LVU1236
 4228 0006 0024     		movs	r4, #0
1533:Middlewares/Third_Party/LwIP/src/core/tcp.c ****   /* Go through the list of TIME_WAIT pcbs and get the oldest pcb. */
 4229              		.loc 1 1533 12 view .LVU1237
 4230 0008 2046     		mov	r0, r4
1535:Middlewares/Third_Party/LwIP/src/core/tcp.c ****     if ((u32_t)(tcp_ticks - pcb->tmr) >= inactivity) {
 4231              		.loc 1 1535 3 view .LVU1238
 4232 000a 00E0     		b	.L392
 4233              	.LVL386:
 4234              	.L393:
1535:Middlewares/Third_Party/LwIP/src/core/tcp.c ****     if ((u32_t)(tcp_ticks - pcb->tmr) >= inactivity) {
 4235              		.loc 1 1535 44 discriminator 2 view .LVU1239
 4236 000c DB68     		ldr	r3, [r3, #12]
 4237              	.LVL387:
 4238              	.L392:
1535:Middlewares/Third_Party/LwIP/src/core/tcp.c ****     if ((u32_t)(tcp_ticks - pcb->tmr) >= inactivity) {
 4239              		.loc 1 1535 3 discriminator 1 view .LVU1240
 4240 000e 43B1     		cbz	r3, .L398
1536:Middlewares/Third_Party/LwIP/src/core/tcp.c ****       inactivity = tcp_ticks - pcb->tmr;
 4241              		.loc 1 1536 5 is_stmt 1 view .LVU1241
1536:Middlewares/Third_Party/LwIP/src/core/tcp.c ****       inactivity = tcp_ticks - pcb->tmr;
 4242              		.loc 1 1536 32 is_stmt 0 view .LVU1242
 4243 0010 196A     		ldr	r1, [r3, #32]
1536:Middlewares/Third_Party/LwIP/src/core/tcp.c ****       inactivity = tcp_ticks - pcb->tmr;
 4244              		.loc 1 1536 27 view .LVU1243
 4245 0012 074A     		ldr	r2, .L399+4
 4246 0014 1268     		ldr	r2, [r2]
 4247 0016 521A     		subs	r2, r2, r1
1536:Middlewares/Third_Party/LwIP/src/core/tcp.c ****       inactivity = tcp_ticks - pcb->tmr;
ARM GAS  /tmp/cc6by9MY.s 			page 126


 4248              		.loc 1 1536 8 view .LVU1244
 4249 0018 A242     		cmp	r2, r4
 4250 001a F7D3     		bcc	.L393
1537:Middlewares/Third_Party/LwIP/src/core/tcp.c ****       inactive = pcb;
 4251              		.loc 1 1537 18 view .LVU1245
 4252 001c 1446     		mov	r4, r2
 4253              	.LVL388:
1538:Middlewares/Third_Party/LwIP/src/core/tcp.c ****     }
 4254              		.loc 1 1538 16 view .LVU1246
 4255 001e 1846     		mov	r0, r3
 4256              	.LVL389:
1538:Middlewares/Third_Party/LwIP/src/core/tcp.c ****     }
 4257              		.loc 1 1538 16 view .LVU1247
 4258 0020 F4E7     		b	.L393
 4259              	.LVL390:
 4260              	.L398:
1541:Middlewares/Third_Party/LwIP/src/core/tcp.c ****     LWIP_DEBUGF(TCP_DEBUG, ("tcp_kill_timewait: killing oldest TIME-WAIT PCB %p (%"S32_F")\n",
 4261              		.loc 1 1541 3 is_stmt 1 view .LVU1248
1541:Middlewares/Third_Party/LwIP/src/core/tcp.c ****     LWIP_DEBUGF(TCP_DEBUG, ("tcp_kill_timewait: killing oldest TIME-WAIT PCB %p (%"S32_F")\n",
 4262              		.loc 1 1541 6 is_stmt 0 view .LVU1249
 4263 0022 08B1     		cbz	r0, .L391
1543:Middlewares/Third_Party/LwIP/src/core/tcp.c ****     tcp_abort(inactive);
 4264              		.loc 1 1543 42 is_stmt 1 view .LVU1250
1544:Middlewares/Third_Party/LwIP/src/core/tcp.c ****   }
 4265              		.loc 1 1544 5 view .LVU1251
 4266 0024 FFF7FEFF 		bl	tcp_abort
 4267              	.LVL391:
 4268              	.L391:
1546:Middlewares/Third_Party/LwIP/src/core/tcp.c **** 
 4269              		.loc 1 1546 1 is_stmt 0 view .LVU1252
 4270 0028 10BD     		pop	{r4, pc}
 4271              	.LVL392:
 4272              	.L400:
1546:Middlewares/Third_Party/LwIP/src/core/tcp.c **** 
 4273              		.loc 1 1546 1 view .LVU1253
 4274 002a 00BF     		.align	2
 4275              	.L399:
 4276 002c 00000000 		.word	tcp_tw_pcbs
 4277 0030 00000000 		.word	tcp_ticks
 4278              		.cfi_endproc
 4279              	.LFE189:
 4281              		.section	.text.tcp_kill_prio,"ax",%progbits
 4282              		.align	1
 4283              		.syntax unified
 4284              		.thumb
 4285              		.thumb_func
 4286              		.fpu fpv5-sp-d16
 4288              	tcp_kill_prio:
 4289              	.LVL393:
 4290              	.LFB187:
1465:Middlewares/Third_Party/LwIP/src/core/tcp.c ****   struct tcp_pcb *pcb, *inactive;
 4291              		.loc 1 1465 1 is_stmt 1 view -0
 4292              		.cfi_startproc
 4293              		@ args = 0, pretend = 0, frame = 0
 4294              		@ frame_needed = 0, uses_anonymous_args = 0
1465:Middlewares/Third_Party/LwIP/src/core/tcp.c ****   struct tcp_pcb *pcb, *inactive;
 4295              		.loc 1 1465 1 is_stmt 0 view .LVU1255
ARM GAS  /tmp/cc6by9MY.s 			page 127


 4296 0000 70B5     		push	{r4, r5, r6, lr}
 4297              	.LCFI47:
 4298              		.cfi_def_cfa_offset 16
 4299              		.cfi_offset 4, -16
 4300              		.cfi_offset 5, -12
 4301              		.cfi_offset 6, -8
 4302              		.cfi_offset 14, -4
1466:Middlewares/Third_Party/LwIP/src/core/tcp.c ****   u32_t inactivity;
 4303              		.loc 1 1466 3 is_stmt 1 view .LVU1256
1467:Middlewares/Third_Party/LwIP/src/core/tcp.c ****   u8_t mprio;
 4304              		.loc 1 1467 3 view .LVU1257
1468:Middlewares/Third_Party/LwIP/src/core/tcp.c **** 
 4305              		.loc 1 1468 3 view .LVU1258
1470:Middlewares/Third_Party/LwIP/src/core/tcp.c **** 
 4306              		.loc 1 1470 3 view .LVU1259
1470:Middlewares/Third_Party/LwIP/src/core/tcp.c **** 
 4307              		.loc 1 1470 9 is_stmt 0 view .LVU1260
 4308 0002 10F0800F 		tst	r0, #128
 4309 0006 04D1     		bne	.L410
 4310              	.LVL394:
 4311              	.L402:
1473:Middlewares/Third_Party/LwIP/src/core/tcp.c ****   inactive = NULL;
 4312              		.loc 1 1473 3 is_stmt 1 discriminator 4 view .LVU1261
1474:Middlewares/Third_Party/LwIP/src/core/tcp.c ****   for (pcb = tcp_active_pcbs; pcb != NULL; pcb = pcb->next) {
 4313              		.loc 1 1474 3 discriminator 4 view .LVU1262
1475:Middlewares/Third_Party/LwIP/src/core/tcp.c ****     if (pcb->prio <= mprio &&
 4314              		.loc 1 1475 3 discriminator 4 view .LVU1263
1475:Middlewares/Third_Party/LwIP/src/core/tcp.c ****     if (pcb->prio <= mprio &&
 4315              		.loc 1 1475 12 is_stmt 0 discriminator 4 view .LVU1264
 4316 0008 0D4B     		ldr	r3, .L412
 4317 000a 1B68     		ldr	r3, [r3]
 4318              	.LVL395:
1473:Middlewares/Third_Party/LwIP/src/core/tcp.c ****   inactive = NULL;
 4319              		.loc 1 1473 14 discriminator 4 view .LVU1265
 4320 000c 0025     		movs	r5, #0
1474:Middlewares/Third_Party/LwIP/src/core/tcp.c ****   for (pcb = tcp_active_pcbs; pcb != NULL; pcb = pcb->next) {
 4321              		.loc 1 1474 12 discriminator 4 view .LVU1266
 4322 000e 2E46     		mov	r6, r5
1475:Middlewares/Third_Party/LwIP/src/core/tcp.c ****     if (pcb->prio <= mprio &&
 4323              		.loc 1 1475 3 discriminator 4 view .LVU1267
 4324 0010 02E0     		b	.L403
 4325              	.LVL396:
 4326              	.L410:
1470:Middlewares/Third_Party/LwIP/src/core/tcp.c **** 
 4327              		.loc 1 1470 9 view .LVU1268
 4328 0012 7F20     		movs	r0, #127
 4329              	.LVL397:
1470:Middlewares/Third_Party/LwIP/src/core/tcp.c **** 
 4330              		.loc 1 1470 9 view .LVU1269
 4331 0014 F8E7     		b	.L402
 4332              	.LVL398:
 4333              	.L404:
1475:Middlewares/Third_Party/LwIP/src/core/tcp.c ****     if (pcb->prio <= mprio &&
 4334              		.loc 1 1475 48 discriminator 2 view .LVU1270
 4335 0016 DB68     		ldr	r3, [r3, #12]
 4336              	.LVL399:
 4337              	.L403:
ARM GAS  /tmp/cc6by9MY.s 			page 128


1475:Middlewares/Third_Party/LwIP/src/core/tcp.c ****     if (pcb->prio <= mprio &&
 4338              		.loc 1 1475 3 discriminator 1 view .LVU1271
 4339 0018 63B1     		cbz	r3, .L411
1476:Middlewares/Third_Party/LwIP/src/core/tcp.c ****        (u32_t)(tcp_ticks - pcb->tmr) >= inactivity) {
 4340              		.loc 1 1476 5 is_stmt 1 view .LVU1272
1476:Middlewares/Third_Party/LwIP/src/core/tcp.c ****        (u32_t)(tcp_ticks - pcb->tmr) >= inactivity) {
 4341              		.loc 1 1476 12 is_stmt 0 view .LVU1273
 4342 001a 597D     		ldrb	r1, [r3, #21]	@ zero_extendqisi2
1476:Middlewares/Third_Party/LwIP/src/core/tcp.c ****        (u32_t)(tcp_ticks - pcb->tmr) >= inactivity) {
 4343              		.loc 1 1476 8 view .LVU1274
 4344 001c 8142     		cmp	r1, r0
 4345 001e FAD8     		bhi	.L404
1477:Middlewares/Third_Party/LwIP/src/core/tcp.c ****       inactivity = tcp_ticks - pcb->tmr;
 4346              		.loc 1 1477 31 discriminator 1 view .LVU1275
 4347 0020 1C6A     		ldr	r4, [r3, #32]
1477:Middlewares/Third_Party/LwIP/src/core/tcp.c ****       inactivity = tcp_ticks - pcb->tmr;
 4348              		.loc 1 1477 26 discriminator 1 view .LVU1276
 4349 0022 084A     		ldr	r2, .L412+4
 4350 0024 1268     		ldr	r2, [r2]
 4351 0026 121B     		subs	r2, r2, r4
1476:Middlewares/Third_Party/LwIP/src/core/tcp.c ****        (u32_t)(tcp_ticks - pcb->tmr) >= inactivity) {
 4352              		.loc 1 1476 28 discriminator 1 view .LVU1277
 4353 0028 AA42     		cmp	r2, r5
 4354 002a F4D3     		bcc	.L404
1480:Middlewares/Third_Party/LwIP/src/core/tcp.c ****     }
 4355              		.loc 1 1480 13 view .LVU1278
 4356 002c 0846     		mov	r0, r1
 4357              	.LVL400:
1478:Middlewares/Third_Party/LwIP/src/core/tcp.c ****       inactive = pcb;
 4358              		.loc 1 1478 18 view .LVU1279
 4359 002e 1546     		mov	r5, r2
 4360              	.LVL401:
1479:Middlewares/Third_Party/LwIP/src/core/tcp.c ****       mprio = pcb->prio;
 4361              		.loc 1 1479 16 view .LVU1280
 4362 0030 1E46     		mov	r6, r3
 4363              	.LVL402:
1479:Middlewares/Third_Party/LwIP/src/core/tcp.c ****       mprio = pcb->prio;
 4364              		.loc 1 1479 16 view .LVU1281
 4365 0032 F0E7     		b	.L404
 4366              	.LVL403:
 4367              	.L411:
1483:Middlewares/Third_Party/LwIP/src/core/tcp.c ****     LWIP_DEBUGF(TCP_DEBUG, ("tcp_kill_prio: killing oldest PCB %p (%"S32_F")\n",
 4368              		.loc 1 1483 3 is_stmt 1 view .LVU1282
1483:Middlewares/Third_Party/LwIP/src/core/tcp.c ****     LWIP_DEBUGF(TCP_DEBUG, ("tcp_kill_prio: killing oldest PCB %p (%"S32_F")\n",
 4369              		.loc 1 1483 6 is_stmt 0 view .LVU1283
 4370 0034 16B1     		cbz	r6, .L401
1485:Middlewares/Third_Party/LwIP/src/core/tcp.c ****     tcp_abort(inactive);
 4371              		.loc 1 1485 42 is_stmt 1 view .LVU1284
1486:Middlewares/Third_Party/LwIP/src/core/tcp.c ****   }
 4372              		.loc 1 1486 5 view .LVU1285
 4373 0036 3046     		mov	r0, r6
 4374              	.LVL404:
1486:Middlewares/Third_Party/LwIP/src/core/tcp.c ****   }
 4375              		.loc 1 1486 5 is_stmt 0 view .LVU1286
 4376 0038 FFF7FEFF 		bl	tcp_abort
 4377              	.LVL405:
 4378              	.L401:
ARM GAS  /tmp/cc6by9MY.s 			page 129


1488:Middlewares/Third_Party/LwIP/src/core/tcp.c **** 
 4379              		.loc 1 1488 1 view .LVU1287
 4380 003c 70BD     		pop	{r4, r5, r6, pc}
 4381              	.LVL406:
 4382              	.L413:
1488:Middlewares/Third_Party/LwIP/src/core/tcp.c **** 
 4383              		.loc 1 1488 1 view .LVU1288
 4384 003e 00BF     		.align	2
 4385              	.L412:
 4386 0040 00000000 		.word	tcp_active_pcbs
 4387 0044 00000000 		.word	tcp_ticks
 4388              		.cfi_endproc
 4389              	.LFE187:
 4391              		.section	.text.tcp_netif_ip_addr_changed_pcblist,"ax",%progbits
 4392              		.align	1
 4393              		.syntax unified
 4394              		.thumb
 4395              		.thumb_func
 4396              		.fpu fpv5-sp-d16
 4398              	tcp_netif_ip_addr_changed_pcblist:
 4399              	.LVL407:
 4400              	.LFB203:
1888:Middlewares/Third_Party/LwIP/src/core/tcp.c **** 
1889:Middlewares/Third_Party/LwIP/src/core/tcp.c **** /**
1890:Middlewares/Third_Party/LwIP/src/core/tcp.c ****  * Calculates a new initial sequence number for new connections.
1891:Middlewares/Third_Party/LwIP/src/core/tcp.c ****  *
1892:Middlewares/Third_Party/LwIP/src/core/tcp.c ****  * @return u32_t pseudo random sequence number
1893:Middlewares/Third_Party/LwIP/src/core/tcp.c ****  */
1894:Middlewares/Third_Party/LwIP/src/core/tcp.c **** u32_t
1895:Middlewares/Third_Party/LwIP/src/core/tcp.c **** tcp_next_iss(struct tcp_pcb *pcb)
1896:Middlewares/Third_Party/LwIP/src/core/tcp.c **** {
1897:Middlewares/Third_Party/LwIP/src/core/tcp.c **** #ifdef LWIP_HOOK_TCP_ISN
1898:Middlewares/Third_Party/LwIP/src/core/tcp.c ****   return LWIP_HOOK_TCP_ISN(&pcb->local_ip, pcb->local_port, &pcb->remote_ip, pcb->remote_port);
1899:Middlewares/Third_Party/LwIP/src/core/tcp.c **** #else /* LWIP_HOOK_TCP_ISN */
1900:Middlewares/Third_Party/LwIP/src/core/tcp.c ****   static u32_t iss = 6510;
1901:Middlewares/Third_Party/LwIP/src/core/tcp.c **** 
1902:Middlewares/Third_Party/LwIP/src/core/tcp.c ****   LWIP_UNUSED_ARG(pcb);
1903:Middlewares/Third_Party/LwIP/src/core/tcp.c **** 
1904:Middlewares/Third_Party/LwIP/src/core/tcp.c ****   iss += tcp_ticks;       /* XXX */
1905:Middlewares/Third_Party/LwIP/src/core/tcp.c ****   return iss;
1906:Middlewares/Third_Party/LwIP/src/core/tcp.c **** #endif /* LWIP_HOOK_TCP_ISN */
1907:Middlewares/Third_Party/LwIP/src/core/tcp.c **** }
1908:Middlewares/Third_Party/LwIP/src/core/tcp.c **** 
1909:Middlewares/Third_Party/LwIP/src/core/tcp.c **** #if TCP_CALCULATE_EFF_SEND_MSS
1910:Middlewares/Third_Party/LwIP/src/core/tcp.c **** /**
1911:Middlewares/Third_Party/LwIP/src/core/tcp.c ****  * Calculates the effective send mss that can be used for a specific IP address
1912:Middlewares/Third_Party/LwIP/src/core/tcp.c ****  * by using ip_route to determine the netif used to send to the address and
1913:Middlewares/Third_Party/LwIP/src/core/tcp.c ****  * calculating the minimum of TCP_MSS and that netif's mtu (if set).
1914:Middlewares/Third_Party/LwIP/src/core/tcp.c ****  */
1915:Middlewares/Third_Party/LwIP/src/core/tcp.c **** u16_t
1916:Middlewares/Third_Party/LwIP/src/core/tcp.c **** tcp_eff_send_mss_impl(u16_t sendmss, const ip_addr_t *dest
1917:Middlewares/Third_Party/LwIP/src/core/tcp.c **** #if LWIP_IPV6 || LWIP_IPV4_SRC_ROUTING
1918:Middlewares/Third_Party/LwIP/src/core/tcp.c ****                      , const ip_addr_t *src
1919:Middlewares/Third_Party/LwIP/src/core/tcp.c **** #endif /* LWIP_IPV6 || LWIP_IPV4_SRC_ROUTING */
1920:Middlewares/Third_Party/LwIP/src/core/tcp.c ****                      )
1921:Middlewares/Third_Party/LwIP/src/core/tcp.c **** {
1922:Middlewares/Third_Party/LwIP/src/core/tcp.c ****   u16_t mss_s;
ARM GAS  /tmp/cc6by9MY.s 			page 130


1923:Middlewares/Third_Party/LwIP/src/core/tcp.c ****   struct netif *outif;
1924:Middlewares/Third_Party/LwIP/src/core/tcp.c ****   s16_t mtu;
1925:Middlewares/Third_Party/LwIP/src/core/tcp.c **** 
1926:Middlewares/Third_Party/LwIP/src/core/tcp.c ****   outif = ip_route(src, dest);
1927:Middlewares/Third_Party/LwIP/src/core/tcp.c **** #if LWIP_IPV6
1928:Middlewares/Third_Party/LwIP/src/core/tcp.c **** #if LWIP_IPV4
1929:Middlewares/Third_Party/LwIP/src/core/tcp.c ****   if (IP_IS_V6(dest))
1930:Middlewares/Third_Party/LwIP/src/core/tcp.c **** #endif /* LWIP_IPV4 */
1931:Middlewares/Third_Party/LwIP/src/core/tcp.c ****   {
1932:Middlewares/Third_Party/LwIP/src/core/tcp.c ****     /* First look in destination cache, to see if there is a Path MTU. */
1933:Middlewares/Third_Party/LwIP/src/core/tcp.c ****     mtu = nd6_get_destination_mtu(ip_2_ip6(dest), outif);
1934:Middlewares/Third_Party/LwIP/src/core/tcp.c ****   }
1935:Middlewares/Third_Party/LwIP/src/core/tcp.c **** #if LWIP_IPV4
1936:Middlewares/Third_Party/LwIP/src/core/tcp.c ****   else
1937:Middlewares/Third_Party/LwIP/src/core/tcp.c **** #endif /* LWIP_IPV4 */
1938:Middlewares/Third_Party/LwIP/src/core/tcp.c **** #endif /* LWIP_IPV6 */
1939:Middlewares/Third_Party/LwIP/src/core/tcp.c **** #if LWIP_IPV4
1940:Middlewares/Third_Party/LwIP/src/core/tcp.c ****   {
1941:Middlewares/Third_Party/LwIP/src/core/tcp.c ****     if (outif == NULL) {
1942:Middlewares/Third_Party/LwIP/src/core/tcp.c ****       return sendmss;
1943:Middlewares/Third_Party/LwIP/src/core/tcp.c ****     }
1944:Middlewares/Third_Party/LwIP/src/core/tcp.c ****     mtu = outif->mtu;
1945:Middlewares/Third_Party/LwIP/src/core/tcp.c ****   }
1946:Middlewares/Third_Party/LwIP/src/core/tcp.c **** #endif /* LWIP_IPV4 */
1947:Middlewares/Third_Party/LwIP/src/core/tcp.c **** 
1948:Middlewares/Third_Party/LwIP/src/core/tcp.c ****   if (mtu != 0) {
1949:Middlewares/Third_Party/LwIP/src/core/tcp.c **** #if LWIP_IPV6
1950:Middlewares/Third_Party/LwIP/src/core/tcp.c **** #if LWIP_IPV4
1951:Middlewares/Third_Party/LwIP/src/core/tcp.c ****     if (IP_IS_V6(dest))
1952:Middlewares/Third_Party/LwIP/src/core/tcp.c **** #endif /* LWIP_IPV4 */
1953:Middlewares/Third_Party/LwIP/src/core/tcp.c ****     {
1954:Middlewares/Third_Party/LwIP/src/core/tcp.c ****       mss_s = mtu - IP6_HLEN - TCP_HLEN;
1955:Middlewares/Third_Party/LwIP/src/core/tcp.c ****     }
1956:Middlewares/Third_Party/LwIP/src/core/tcp.c **** #if LWIP_IPV4
1957:Middlewares/Third_Party/LwIP/src/core/tcp.c ****     else
1958:Middlewares/Third_Party/LwIP/src/core/tcp.c **** #endif /* LWIP_IPV4 */
1959:Middlewares/Third_Party/LwIP/src/core/tcp.c **** #endif /* LWIP_IPV6 */
1960:Middlewares/Third_Party/LwIP/src/core/tcp.c **** #if LWIP_IPV4
1961:Middlewares/Third_Party/LwIP/src/core/tcp.c ****     {
1962:Middlewares/Third_Party/LwIP/src/core/tcp.c ****       mss_s = mtu - IP_HLEN - TCP_HLEN;
1963:Middlewares/Third_Party/LwIP/src/core/tcp.c ****     }
1964:Middlewares/Third_Party/LwIP/src/core/tcp.c **** #endif /* LWIP_IPV4 */
1965:Middlewares/Third_Party/LwIP/src/core/tcp.c ****     /* RFC 1122, chap 4.2.2.6:
1966:Middlewares/Third_Party/LwIP/src/core/tcp.c ****      * Eff.snd.MSS = min(SendMSS+20, MMS_S) - TCPhdrsize - IPoptionsize
1967:Middlewares/Third_Party/LwIP/src/core/tcp.c ****      * We correct for TCP options in tcp_write(), and don't support IP options.
1968:Middlewares/Third_Party/LwIP/src/core/tcp.c ****      */
1969:Middlewares/Third_Party/LwIP/src/core/tcp.c ****     sendmss = LWIP_MIN(sendmss, mss_s);
1970:Middlewares/Third_Party/LwIP/src/core/tcp.c ****   }
1971:Middlewares/Third_Party/LwIP/src/core/tcp.c ****   return sendmss;
1972:Middlewares/Third_Party/LwIP/src/core/tcp.c **** }
1973:Middlewares/Third_Party/LwIP/src/core/tcp.c **** #endif /* TCP_CALCULATE_EFF_SEND_MSS */
1974:Middlewares/Third_Party/LwIP/src/core/tcp.c **** 
1975:Middlewares/Third_Party/LwIP/src/core/tcp.c **** /** Helper function for tcp_netif_ip_addr_changed() that iterates a pcb list */
1976:Middlewares/Third_Party/LwIP/src/core/tcp.c **** static void
1977:Middlewares/Third_Party/LwIP/src/core/tcp.c **** tcp_netif_ip_addr_changed_pcblist(const ip_addr_t* old_addr, struct tcp_pcb* pcb_list)
1978:Middlewares/Third_Party/LwIP/src/core/tcp.c **** {
 4401              		.loc 1 1978 1 is_stmt 1 view -0
ARM GAS  /tmp/cc6by9MY.s 			page 131


 4402              		.cfi_startproc
 4403              		@ args = 0, pretend = 0, frame = 0
 4404              		@ frame_needed = 0, uses_anonymous_args = 0
 4405              		.loc 1 1978 1 is_stmt 0 view .LVU1290
 4406 0000 38B5     		push	{r3, r4, r5, lr}
 4407              	.LCFI48:
 4408              		.cfi_def_cfa_offset 16
 4409              		.cfi_offset 3, -16
 4410              		.cfi_offset 4, -12
 4411              		.cfi_offset 5, -8
 4412              		.cfi_offset 14, -4
 4413 0002 0446     		mov	r4, r0
 4414 0004 0846     		mov	r0, r1
 4415              	.LVL408:
1979:Middlewares/Third_Party/LwIP/src/core/tcp.c ****   struct tcp_pcb *pcb;
 4416              		.loc 1 1979 3 is_stmt 1 view .LVU1291
1980:Middlewares/Third_Party/LwIP/src/core/tcp.c ****   pcb = pcb_list;
 4417              		.loc 1 1980 3 view .LVU1292
1981:Middlewares/Third_Party/LwIP/src/core/tcp.c ****   while (pcb != NULL) {
 4418              		.loc 1 1981 3 view .LVU1293
 4419              		.loc 1 1981 9 is_stmt 0 view .LVU1294
 4420 0006 03E0     		b	.L415
 4421              	.LVL409:
 4422              	.L421:
 4423              	.LBB27:
1982:Middlewares/Third_Party/LwIP/src/core/tcp.c ****     /* PCB bound to current local interface address? */
1983:Middlewares/Third_Party/LwIP/src/core/tcp.c ****     if (ip_addr_cmp(&pcb->local_ip, old_addr)
1984:Middlewares/Third_Party/LwIP/src/core/tcp.c **** #if LWIP_AUTOIP
1985:Middlewares/Third_Party/LwIP/src/core/tcp.c ****       /* connections to link-local addresses must persist (RFC3927 ch. 1.9) */
1986:Middlewares/Third_Party/LwIP/src/core/tcp.c ****       && (!IP_IS_V4_VAL(pcb->local_ip) || !ip4_addr_islinklocal(ip_2_ip4(&pcb->local_ip)))
1987:Middlewares/Third_Party/LwIP/src/core/tcp.c **** #endif /* LWIP_AUTOIP */
1988:Middlewares/Third_Party/LwIP/src/core/tcp.c ****       ) {
1989:Middlewares/Third_Party/LwIP/src/core/tcp.c ****       /* this connection must be aborted */
1990:Middlewares/Third_Party/LwIP/src/core/tcp.c ****       struct tcp_pcb *next = pcb->next;
 4424              		.loc 1 1990 7 is_stmt 1 view .LVU1295
 4425              		.loc 1 1990 23 is_stmt 0 view .LVU1296
 4426 0008 C568     		ldr	r5, [r0, #12]
 4427              	.LVL410:
1991:Middlewares/Third_Party/LwIP/src/core/tcp.c ****       LWIP_DEBUGF(NETIF_DEBUG | LWIP_DBG_STATE, ("netif_set_ipaddr: aborting TCP pcb %p\n", (void *
 4428              		.loc 1 1991 106 is_stmt 1 view .LVU1297
1992:Middlewares/Third_Party/LwIP/src/core/tcp.c ****       tcp_abort(pcb);
 4429              		.loc 1 1992 7 view .LVU1298
 4430 000a FFF7FEFF 		bl	tcp_abort
 4431              	.LVL411:
1993:Middlewares/Third_Party/LwIP/src/core/tcp.c ****       pcb = next;
 4432              		.loc 1 1993 7 view .LVU1299
 4433              		.loc 1 1993 11 is_stmt 0 view .LVU1300
 4434 000e 2846     		mov	r0, r5
 4435              	.LVL412:
 4436              	.L415:
 4437              		.loc 1 1993 11 view .LVU1301
 4438              	.LBE27:
1981:Middlewares/Third_Party/LwIP/src/core/tcp.c ****     /* PCB bound to current local interface address? */
 4439              		.loc 1 1981 9 view .LVU1302
 4440 0010 28B1     		cbz	r0, .L420
1983:Middlewares/Third_Party/LwIP/src/core/tcp.c **** #if LWIP_AUTOIP
 4441              		.loc 1 1983 5 is_stmt 1 view .LVU1303
ARM GAS  /tmp/cc6by9MY.s 			page 132


1983:Middlewares/Third_Party/LwIP/src/core/tcp.c **** #if LWIP_AUTOIP
 4442              		.loc 1 1983 9 is_stmt 0 view .LVU1304
 4443 0012 0268     		ldr	r2, [r0]
 4444 0014 2368     		ldr	r3, [r4]
1983:Middlewares/Third_Party/LwIP/src/core/tcp.c **** #if LWIP_AUTOIP
 4445              		.loc 1 1983 8 view .LVU1305
 4446 0016 9A42     		cmp	r2, r3
 4447 0018 F6D0     		beq	.L421
1994:Middlewares/Third_Party/LwIP/src/core/tcp.c ****     } else {
1995:Middlewares/Third_Party/LwIP/src/core/tcp.c ****       pcb = pcb->next;
 4448              		.loc 1 1995 7 is_stmt 1 view .LVU1306
 4449              		.loc 1 1995 11 is_stmt 0 view .LVU1307
 4450 001a C068     		ldr	r0, [r0, #12]
 4451              	.LVL413:
 4452              		.loc 1 1995 11 view .LVU1308
 4453 001c F8E7     		b	.L415
 4454              	.L420:
1996:Middlewares/Third_Party/LwIP/src/core/tcp.c ****     }
1997:Middlewares/Third_Party/LwIP/src/core/tcp.c ****   }
1998:Middlewares/Third_Party/LwIP/src/core/tcp.c **** }
 4455              		.loc 1 1998 1 view .LVU1309
 4456 001e 38BD     		pop	{r3, r4, r5, pc}
 4457              		.loc 1 1998 1 view .LVU1310
 4458              		.cfi_endproc
 4459              	.LFE203:
 4461              		.section	.text.tcp_kill_state,"ax",%progbits
 4462              		.align	1
 4463              		.syntax unified
 4464              		.thumb
 4465              		.thumb_func
 4466              		.fpu fpv5-sp-d16
 4468              	tcp_kill_state:
 4469              	.LVL414:
 4470              	.LFB188:
1496:Middlewares/Third_Party/LwIP/src/core/tcp.c ****   struct tcp_pcb *pcb, *inactive;
 4471              		.loc 1 1496 1 is_stmt 1 view -0
 4472              		.cfi_startproc
 4473              		@ args = 0, pretend = 0, frame = 0
 4474              		@ frame_needed = 0, uses_anonymous_args = 0
1496:Middlewares/Third_Party/LwIP/src/core/tcp.c ****   struct tcp_pcb *pcb, *inactive;
 4475              		.loc 1 1496 1 is_stmt 0 view .LVU1312
 4476 0000 38B5     		push	{r3, r4, r5, lr}
 4477              	.LCFI49:
 4478              		.cfi_def_cfa_offset 16
 4479              		.cfi_offset 3, -16
 4480              		.cfi_offset 4, -12
 4481              		.cfi_offset 5, -8
 4482              		.cfi_offset 14, -4
 4483 0002 0446     		mov	r4, r0
1497:Middlewares/Third_Party/LwIP/src/core/tcp.c ****   u32_t inactivity;
 4484              		.loc 1 1497 3 is_stmt 1 view .LVU1313
1498:Middlewares/Third_Party/LwIP/src/core/tcp.c **** 
 4485              		.loc 1 1498 3 view .LVU1314
1500:Middlewares/Third_Party/LwIP/src/core/tcp.c **** 
 4486              		.loc 1 1500 3 view .LVU1315
1500:Middlewares/Third_Party/LwIP/src/core/tcp.c **** 
 4487              		.loc 1 1500 3 view .LVU1316
ARM GAS  /tmp/cc6by9MY.s 			page 133


 4488 0004 A0F10803 		sub	r3, r0, #8
 4489 0008 DBB2     		uxtb	r3, r3
 4490 000a 012B     		cmp	r3, #1
 4491 000c 04D8     		bhi	.L430
 4492              	.LVL415:
 4493              	.L423:
1502:Middlewares/Third_Party/LwIP/src/core/tcp.c ****   inactive = NULL;
 4494              		.loc 1 1502 3 view .LVU1317
1503:Middlewares/Third_Party/LwIP/src/core/tcp.c ****   /* Go through the list of active pcbs and get the oldest pcb that is in state
 4495              		.loc 1 1503 3 view .LVU1318
1506:Middlewares/Third_Party/LwIP/src/core/tcp.c ****     if (pcb->state == state) {
 4496              		.loc 1 1506 3 view .LVU1319
1506:Middlewares/Third_Party/LwIP/src/core/tcp.c ****     if (pcb->state == state) {
 4497              		.loc 1 1506 12 is_stmt 0 view .LVU1320
 4498 000e 104B     		ldr	r3, .L432
 4499 0010 1B68     		ldr	r3, [r3]
 4500              	.LVL416:
1502:Middlewares/Third_Party/LwIP/src/core/tcp.c ****   inactive = NULL;
 4501              		.loc 1 1502 14 view .LVU1321
 4502 0012 0021     		movs	r1, #0
1503:Middlewares/Third_Party/LwIP/src/core/tcp.c ****   /* Go through the list of active pcbs and get the oldest pcb that is in state
 4503              		.loc 1 1503 12 view .LVU1322
 4504 0014 0846     		mov	r0, r1
1506:Middlewares/Third_Party/LwIP/src/core/tcp.c ****     if (pcb->state == state) {
 4505              		.loc 1 1506 3 view .LVU1323
 4506 0016 08E0     		b	.L424
 4507              	.LVL417:
 4508              	.L430:
1500:Middlewares/Third_Party/LwIP/src/core/tcp.c **** 
 4509              		.loc 1 1500 3 is_stmt 1 discriminator 1 view .LVU1324
1500:Middlewares/Third_Party/LwIP/src/core/tcp.c **** 
 4510              		.loc 1 1500 3 discriminator 1 view .LVU1325
 4511 0018 0E4B     		ldr	r3, .L432+4
 4512 001a 40F2DC52 		movw	r2, #1500
 4513 001e 0E49     		ldr	r1, .L432+8
 4514 0020 0E48     		ldr	r0, .L432+12
 4515              	.LVL418:
1500:Middlewares/Third_Party/LwIP/src/core/tcp.c **** 
 4516              		.loc 1 1500 3 is_stmt 0 discriminator 1 view .LVU1326
 4517 0022 FFF7FEFF 		bl	printf
 4518              	.LVL419:
 4519 0026 F2E7     		b	.L423
 4520              	.LVL420:
 4521              	.L425:
1506:Middlewares/Third_Party/LwIP/src/core/tcp.c ****     if (pcb->state == state) {
 4522              		.loc 1 1506 48 discriminator 2 view .LVU1327
 4523 0028 DB68     		ldr	r3, [r3, #12]
 4524              	.LVL421:
 4525              	.L424:
1506:Middlewares/Third_Party/LwIP/src/core/tcp.c ****     if (pcb->state == state) {
 4526              		.loc 1 1506 3 discriminator 1 view .LVU1328
 4527 002a 5BB1     		cbz	r3, .L431
1507:Middlewares/Third_Party/LwIP/src/core/tcp.c ****       if ((u32_t)(tcp_ticks - pcb->tmr) >= inactivity) {
 4528              		.loc 1 1507 5 is_stmt 1 view .LVU1329
1507:Middlewares/Third_Party/LwIP/src/core/tcp.c ****       if ((u32_t)(tcp_ticks - pcb->tmr) >= inactivity) {
 4529              		.loc 1 1507 12 is_stmt 0 view .LVU1330
 4530 002c 1A7D     		ldrb	r2, [r3, #20]	@ zero_extendqisi2
ARM GAS  /tmp/cc6by9MY.s 			page 134


1507:Middlewares/Third_Party/LwIP/src/core/tcp.c ****       if ((u32_t)(tcp_ticks - pcb->tmr) >= inactivity) {
 4531              		.loc 1 1507 8 view .LVU1331
 4532 002e A242     		cmp	r2, r4
 4533 0030 FAD1     		bne	.L425
1508:Middlewares/Third_Party/LwIP/src/core/tcp.c ****         inactivity = tcp_ticks - pcb->tmr;
 4534              		.loc 1 1508 7 is_stmt 1 view .LVU1332
1508:Middlewares/Third_Party/LwIP/src/core/tcp.c ****         inactivity = tcp_ticks - pcb->tmr;
 4535              		.loc 1 1508 34 is_stmt 0 view .LVU1333
 4536 0032 1D6A     		ldr	r5, [r3, #32]
1508:Middlewares/Third_Party/LwIP/src/core/tcp.c ****         inactivity = tcp_ticks - pcb->tmr;
 4537              		.loc 1 1508 29 view .LVU1334
 4538 0034 0A4A     		ldr	r2, .L432+16
 4539 0036 1268     		ldr	r2, [r2]
 4540 0038 521B     		subs	r2, r2, r5
1508:Middlewares/Third_Party/LwIP/src/core/tcp.c ****         inactivity = tcp_ticks - pcb->tmr;
 4541              		.loc 1 1508 10 view .LVU1335
 4542 003a 8A42     		cmp	r2, r1
 4543 003c F4D3     		bcc	.L425
1509:Middlewares/Third_Party/LwIP/src/core/tcp.c ****         inactive = pcb;
 4544              		.loc 1 1509 20 view .LVU1336
 4545 003e 1146     		mov	r1, r2
 4546              	.LVL422:
1510:Middlewares/Third_Party/LwIP/src/core/tcp.c ****       }
 4547              		.loc 1 1510 18 view .LVU1337
 4548 0040 1846     		mov	r0, r3
 4549              	.LVL423:
1510:Middlewares/Third_Party/LwIP/src/core/tcp.c ****       }
 4550              		.loc 1 1510 18 view .LVU1338
 4551 0042 F1E7     		b	.L425
 4552              	.LVL424:
 4553              	.L431:
1514:Middlewares/Third_Party/LwIP/src/core/tcp.c ****     LWIP_DEBUGF(TCP_DEBUG, ("tcp_kill_closing: killing oldest %s PCB %p (%"S32_F")\n",
 4554              		.loc 1 1514 3 is_stmt 1 view .LVU1339
1514:Middlewares/Third_Party/LwIP/src/core/tcp.c ****     LWIP_DEBUGF(TCP_DEBUG, ("tcp_kill_closing: killing oldest %s PCB %p (%"S32_F")\n",
 4555              		.loc 1 1514 6 is_stmt 0 view .LVU1340
 4556 0044 10B1     		cbz	r0, .L422
1516:Middlewares/Third_Party/LwIP/src/core/tcp.c ****     /* Don't send a RST, since no data is lost. */
 4557              		.loc 1 1516 64 is_stmt 1 view .LVU1341
1518:Middlewares/Third_Party/LwIP/src/core/tcp.c ****   }
 4558              		.loc 1 1518 5 view .LVU1342
 4559 0046 0021     		movs	r1, #0
 4560              	.LVL425:
1518:Middlewares/Third_Party/LwIP/src/core/tcp.c ****   }
 4561              		.loc 1 1518 5 is_stmt 0 view .LVU1343
 4562 0048 FFF7FEFF 		bl	tcp_abandon
 4563              	.LVL426:
 4564              	.L422:
1520:Middlewares/Third_Party/LwIP/src/core/tcp.c **** 
 4565              		.loc 1 1520 1 view .LVU1344
 4566 004c 38BD     		pop	{r3, r4, r5, pc}
 4567              	.L433:
 4568 004e 00BF     		.align	2
 4569              	.L432:
 4570 0050 00000000 		.word	tcp_active_pcbs
 4571 0054 00000000 		.word	.LC0
 4572 0058 00000000 		.word	.LC26
 4573 005c 38000000 		.word	.LC2
ARM GAS  /tmp/cc6by9MY.s 			page 135


 4574 0060 00000000 		.word	tcp_ticks
 4575              		.cfi_endproc
 4576              	.LFE188:
 4578              		.section	.text.tcp_alloc,"ax",%progbits
 4579              		.align	1
 4580              		.global	tcp_alloc
 4581              		.syntax unified
 4582              		.thumb
 4583              		.thumb_func
 4584              		.fpu fpv5-sp-d16
 4586              	tcp_alloc:
 4587              	.LVL427:
 4588              	.LFB190:
1556:Middlewares/Third_Party/LwIP/src/core/tcp.c ****   struct tcp_pcb *pcb;
 4589              		.loc 1 1556 1 is_stmt 1 view -0
 4590              		.cfi_startproc
 4591              		@ args = 0, pretend = 0, frame = 0
 4592              		@ frame_needed = 0, uses_anonymous_args = 0
1556:Middlewares/Third_Party/LwIP/src/core/tcp.c ****   struct tcp_pcb *pcb;
 4593              		.loc 1 1556 1 is_stmt 0 view .LVU1346
 4594 0000 38B5     		push	{r3, r4, r5, lr}
 4595              	.LCFI50:
 4596              		.cfi_def_cfa_offset 16
 4597              		.cfi_offset 3, -16
 4598              		.cfi_offset 4, -12
 4599              		.cfi_offset 5, -8
 4600              		.cfi_offset 14, -4
 4601 0002 0546     		mov	r5, r0
1557:Middlewares/Third_Party/LwIP/src/core/tcp.c **** 
 4602              		.loc 1 1557 3 is_stmt 1 view .LVU1347
1559:Middlewares/Third_Party/LwIP/src/core/tcp.c ****   if (pcb == NULL) {
 4603              		.loc 1 1559 3 view .LVU1348
1559:Middlewares/Third_Party/LwIP/src/core/tcp.c ****   if (pcb == NULL) {
 4604              		.loc 1 1559 27 is_stmt 0 view .LVU1349
 4605 0004 0120     		movs	r0, #1
 4606              	.LVL428:
1559:Middlewares/Third_Party/LwIP/src/core/tcp.c ****   if (pcb == NULL) {
 4607              		.loc 1 1559 27 view .LVU1350
 4608 0006 FFF7FEFF 		bl	memp_malloc
 4609              	.LVL429:
1560:Middlewares/Third_Party/LwIP/src/core/tcp.c ****     /* Try killing oldest connection in TIME-WAIT. */
 4610              		.loc 1 1560 3 is_stmt 1 view .LVU1351
1560:Middlewares/Third_Party/LwIP/src/core/tcp.c ****     /* Try killing oldest connection in TIME-WAIT. */
 4611              		.loc 1 1560 6 is_stmt 0 view .LVU1352
 4612 000a 0446     		mov	r4, r0
 4613 000c 68B3     		cbz	r0, .L438
 4614              	.L435:
1601:Middlewares/Third_Party/LwIP/src/core/tcp.c ****     }
 4615              		.loc 1 1601 40 is_stmt 1 view .LVU1353
1604:Middlewares/Third_Party/LwIP/src/core/tcp.c ****     /* zero out the whole pcb, so there is no need to initialize members to zero */
 4616              		.loc 1 1604 3 view .LVU1354
1604:Middlewares/Third_Party/LwIP/src/core/tcp.c ****     /* zero out the whole pcb, so there is no need to initialize members to zero */
 4617              		.loc 1 1604 6 is_stmt 0 view .LVU1355
 4618 000e 54B3     		cbz	r4, .L434
1606:Middlewares/Third_Party/LwIP/src/core/tcp.c ****     pcb->prio = prio;
 4619              		.loc 1 1606 5 is_stmt 1 view .LVU1356
 4620 0010 9822     		movs	r2, #152
ARM GAS  /tmp/cc6by9MY.s 			page 136


 4621 0012 0021     		movs	r1, #0
 4622 0014 2046     		mov	r0, r4
1606:Middlewares/Third_Party/LwIP/src/core/tcp.c ****     pcb->prio = prio;
 4623              		.loc 1 1606 5 is_stmt 0 view .LVU1357
 4624 0016 FFF7FEFF 		bl	memset
 4625              	.LVL430:
1607:Middlewares/Third_Party/LwIP/src/core/tcp.c ****     pcb->snd_buf = TCP_SND_BUF;
 4626              		.loc 1 1607 5 is_stmt 1 view .LVU1358
1607:Middlewares/Third_Party/LwIP/src/core/tcp.c ****     pcb->snd_buf = TCP_SND_BUF;
 4627              		.loc 1 1607 15 is_stmt 0 view .LVU1359
 4628 001a 6575     		strb	r5, [r4, #21]
1608:Middlewares/Third_Party/LwIP/src/core/tcp.c ****     /* Start with a window that does not need scaling. When window scaling is
 4629              		.loc 1 1608 5 is_stmt 1 view .LVU1360
1608:Middlewares/Third_Party/LwIP/src/core/tcp.c ****     /* Start with a window that does not need scaling. When window scaling is
 4630              		.loc 1 1608 18 is_stmt 0 view .LVU1361
 4631 001c 4FF48663 		mov	r3, #1072
 4632 0020 A4F86030 		strh	r3, [r4, #96]	@ movhi
1611:Middlewares/Third_Party/LwIP/src/core/tcp.c ****     pcb->ttl = TCP_TTL;
 4633              		.loc 1 1611 5 is_stmt 1 view .LVU1362
1611:Middlewares/Third_Party/LwIP/src/core/tcp.c ****     pcb->ttl = TCP_TTL;
 4634              		.loc 1 1611 37 is_stmt 0 view .LVU1363
 4635 0024 4FF40662 		mov	r2, #2144
 4636 0028 6285     		strh	r2, [r4, #42]	@ movhi
1611:Middlewares/Third_Party/LwIP/src/core/tcp.c ****     pcb->ttl = TCP_TTL;
 4637              		.loc 1 1611 18 view .LVU1364
 4638 002a 2285     		strh	r2, [r4, #40]	@ movhi
1612:Middlewares/Third_Party/LwIP/src/core/tcp.c ****     /* As initial send MSS, we use TCP_MSS but limit it to 536.
 4639              		.loc 1 1612 5 is_stmt 1 view .LVU1365
1612:Middlewares/Third_Party/LwIP/src/core/tcp.c ****     /* As initial send MSS, we use TCP_MSS but limit it to 536.
 4640              		.loc 1 1612 14 is_stmt 0 view .LVU1366
 4641 002c FF22     		movs	r2, #255
 4642 002e A272     		strb	r2, [r4, #10]
1615:Middlewares/Third_Party/LwIP/src/core/tcp.c ****     pcb->rto = 3000 / TCP_SLOW_INTERVAL;
 4643              		.loc 1 1615 5 is_stmt 1 view .LVU1367
1615:Middlewares/Third_Party/LwIP/src/core/tcp.c ****     pcb->rto = 3000 / TCP_SLOW_INTERVAL;
 4644              		.loc 1 1615 14 is_stmt 0 view .LVU1368
 4645 0030 4FF40672 		mov	r2, #536
 4646 0034 6286     		strh	r2, [r4, #50]	@ movhi
1616:Middlewares/Third_Party/LwIP/src/core/tcp.c ****     pcb->sv = 3000 / TCP_SLOW_INTERVAL;
 4647              		.loc 1 1616 5 is_stmt 1 view .LVU1369
1616:Middlewares/Third_Party/LwIP/src/core/tcp.c ****     pcb->sv = 3000 / TCP_SLOW_INTERVAL;
 4648              		.loc 1 1616 14 is_stmt 0 view .LVU1370
 4649 0036 0622     		movs	r2, #6
 4650 0038 A4F84020 		strh	r2, [r4, #64]	@ movhi
1617:Middlewares/Third_Party/LwIP/src/core/tcp.c ****     pcb->rtime = -1;
 4651              		.loc 1 1617 5 is_stmt 1 view .LVU1371
1617:Middlewares/Third_Party/LwIP/src/core/tcp.c ****     pcb->rtime = -1;
 4652              		.loc 1 1617 13 is_stmt 0 view .LVU1372
 4653 003c E287     		strh	r2, [r4, #62]	@ movhi
1618:Middlewares/Third_Party/LwIP/src/core/tcp.c ****     pcb->cwnd = 1;
 4654              		.loc 1 1618 5 is_stmt 1 view .LVU1373
1618:Middlewares/Third_Party/LwIP/src/core/tcp.c ****     pcb->cwnd = 1;
 4655              		.loc 1 1618 16 is_stmt 0 view .LVU1374
 4656 003e 4FF6FF72 		movw	r2, #65535
 4657 0042 2286     		strh	r2, [r4, #48]	@ movhi
1619:Middlewares/Third_Party/LwIP/src/core/tcp.c ****     pcb->tmr = tcp_ticks;
 4658              		.loc 1 1619 5 is_stmt 1 view .LVU1375
ARM GAS  /tmp/cc6by9MY.s 			page 137


1619:Middlewares/Third_Party/LwIP/src/core/tcp.c ****     pcb->tmr = tcp_ticks;
 4659              		.loc 1 1619 15 is_stmt 0 view .LVU1376
 4660 0044 0122     		movs	r2, #1
 4661 0046 A4F84820 		strh	r2, [r4, #72]	@ movhi
1620:Middlewares/Third_Party/LwIP/src/core/tcp.c ****     pcb->last_timer = tcp_timer_ctr;
 4662              		.loc 1 1620 5 is_stmt 1 view .LVU1377
1620:Middlewares/Third_Party/LwIP/src/core/tcp.c ****     pcb->last_timer = tcp_timer_ctr;
 4663              		.loc 1 1620 14 is_stmt 0 view .LVU1378
 4664 004a 194A     		ldr	r2, .L439
 4665 004c 1268     		ldr	r2, [r2]
 4666 004e 2262     		str	r2, [r4, #32]
1621:Middlewares/Third_Party/LwIP/src/core/tcp.c **** 
 4667              		.loc 1 1621 5 is_stmt 1 view .LVU1379
1621:Middlewares/Third_Party/LwIP/src/core/tcp.c **** 
 4668              		.loc 1 1621 21 is_stmt 0 view .LVU1380
 4669 0050 184A     		ldr	r2, .L439+4
 4670 0052 1278     		ldrb	r2, [r2]	@ zero_extendqisi2
 4671 0054 6277     		strb	r2, [r4, #29]
1629:Middlewares/Third_Party/LwIP/src/core/tcp.c **** 
 4672              		.loc 1 1629 5 is_stmt 1 view .LVU1381
1629:Middlewares/Third_Party/LwIP/src/core/tcp.c **** 
 4673              		.loc 1 1629 19 is_stmt 0 view .LVU1382
 4674 0056 A4F84A30 		strh	r3, [r4, #74]	@ movhi
1632:Middlewares/Third_Party/LwIP/src/core/tcp.c **** #endif /* LWIP_CALLBACK_API */
 4675              		.loc 1 1632 5 is_stmt 1 view .LVU1383
1632:Middlewares/Third_Party/LwIP/src/core/tcp.c **** #endif /* LWIP_CALLBACK_API */
 4676              		.loc 1 1632 15 is_stmt 0 view .LVU1384
 4677 005a 174B     		ldr	r3, .L439+8
 4678 005c C4F88030 		str	r3, [r4, #128]
1636:Middlewares/Third_Party/LwIP/src/core/tcp.c **** 
 4679              		.loc 1 1636 5 is_stmt 1 view .LVU1385
1636:Middlewares/Third_Party/LwIP/src/core/tcp.c **** 
 4680              		.loc 1 1636 21 is_stmt 0 view .LVU1386
 4681 0060 164B     		ldr	r3, .L439+12
 4682 0062 C4F89030 		str	r3, [r4, #144]
1643:Middlewares/Third_Party/LwIP/src/core/tcp.c **** }
 4683              		.loc 1 1643 3 is_stmt 1 view .LVU1387
 4684              	.L434:
1644:Middlewares/Third_Party/LwIP/src/core/tcp.c **** 
 4685              		.loc 1 1644 1 is_stmt 0 view .LVU1388
 4686 0066 2046     		mov	r0, r4
 4687 0068 38BD     		pop	{r3, r4, r5, pc}
 4688              	.LVL431:
 4689              	.L438:
1562:Middlewares/Third_Party/LwIP/src/core/tcp.c ****     tcp_kill_timewait();
 4690              		.loc 1 1562 85 is_stmt 1 view .LVU1389
1563:Middlewares/Third_Party/LwIP/src/core/tcp.c ****     /* Try to allocate a tcp_pcb again. */
 4691              		.loc 1 1563 5 view .LVU1390
 4692 006a FFF7FEFF 		bl	tcp_kill_timewait
 4693              	.LVL432:
1565:Middlewares/Third_Party/LwIP/src/core/tcp.c ****     if (pcb == NULL) {
 4694              		.loc 1 1565 5 view .LVU1391
1565:Middlewares/Third_Party/LwIP/src/core/tcp.c ****     if (pcb == NULL) {
 4695              		.loc 1 1565 29 is_stmt 0 view .LVU1392
 4696 006e 0120     		movs	r0, #1
 4697 0070 FFF7FEFF 		bl	memp_malloc
 4698              	.LVL433:
ARM GAS  /tmp/cc6by9MY.s 			page 138


1566:Middlewares/Third_Party/LwIP/src/core/tcp.c ****       /* Try killing oldest connection in LAST-ACK (these wouldn't go to TIME-WAIT). */
 4699              		.loc 1 1566 5 is_stmt 1 view .LVU1393
1566:Middlewares/Third_Party/LwIP/src/core/tcp.c ****       /* Try killing oldest connection in LAST-ACK (these wouldn't go to TIME-WAIT). */
 4700              		.loc 1 1566 8 is_stmt 0 view .LVU1394
 4701 0074 0446     		mov	r4, r0
 4702 0076 0028     		cmp	r0, #0
 4703 0078 C9D1     		bne	.L435
1568:Middlewares/Third_Party/LwIP/src/core/tcp.c ****       tcp_kill_state(LAST_ACK);
 4704              		.loc 1 1568 86 is_stmt 1 view .LVU1395
1569:Middlewares/Third_Party/LwIP/src/core/tcp.c ****       /* Try to allocate a tcp_pcb again. */
 4705              		.loc 1 1569 7 view .LVU1396
 4706 007a 0920     		movs	r0, #9
 4707              	.LVL434:
1569:Middlewares/Third_Party/LwIP/src/core/tcp.c ****       /* Try to allocate a tcp_pcb again. */
 4708              		.loc 1 1569 7 is_stmt 0 view .LVU1397
 4709 007c FFF7FEFF 		bl	tcp_kill_state
 4710              	.LVL435:
1571:Middlewares/Third_Party/LwIP/src/core/tcp.c ****       if (pcb == NULL) {
 4711              		.loc 1 1571 7 is_stmt 1 view .LVU1398
1571:Middlewares/Third_Party/LwIP/src/core/tcp.c ****       if (pcb == NULL) {
 4712              		.loc 1 1571 31 is_stmt 0 view .LVU1399
 4713 0080 0120     		movs	r0, #1
 4714 0082 FFF7FEFF 		bl	memp_malloc
 4715              	.LVL436:
1572:Middlewares/Third_Party/LwIP/src/core/tcp.c ****         /* Try killing oldest connection in CLOSING. */
 4716              		.loc 1 1572 7 is_stmt 1 view .LVU1400
1572:Middlewares/Third_Party/LwIP/src/core/tcp.c ****         /* Try killing oldest connection in CLOSING. */
 4717              		.loc 1 1572 10 is_stmt 0 view .LVU1401
 4718 0086 0446     		mov	r4, r0
 4719 0088 0028     		cmp	r0, #0
 4720 008a C0D1     		bne	.L435
1574:Middlewares/Third_Party/LwIP/src/core/tcp.c ****         tcp_kill_state(CLOSING);
 4721              		.loc 1 1574 87 is_stmt 1 view .LVU1402
1575:Middlewares/Third_Party/LwIP/src/core/tcp.c ****         /* Try to allocate a tcp_pcb again. */
 4722              		.loc 1 1575 9 view .LVU1403
 4723 008c 0820     		movs	r0, #8
 4724              	.LVL437:
1575:Middlewares/Third_Party/LwIP/src/core/tcp.c ****         /* Try to allocate a tcp_pcb again. */
 4725              		.loc 1 1575 9 is_stmt 0 view .LVU1404
 4726 008e FFF7FEFF 		bl	tcp_kill_state
 4727              	.LVL438:
1577:Middlewares/Third_Party/LwIP/src/core/tcp.c ****         if (pcb == NULL) {
 4728              		.loc 1 1577 9 is_stmt 1 view .LVU1405
1577:Middlewares/Third_Party/LwIP/src/core/tcp.c ****         if (pcb == NULL) {
 4729              		.loc 1 1577 33 is_stmt 0 view .LVU1406
 4730 0092 0120     		movs	r0, #1
 4731 0094 FFF7FEFF 		bl	memp_malloc
 4732              	.LVL439:
1578:Middlewares/Third_Party/LwIP/src/core/tcp.c ****           /* Try killing active connections with lower priority than the new one. */
 4733              		.loc 1 1578 9 is_stmt 1 view .LVU1407
1578:Middlewares/Third_Party/LwIP/src/core/tcp.c ****           /* Try killing active connections with lower priority than the new one. */
 4734              		.loc 1 1578 12 is_stmt 0 view .LVU1408
 4735 0098 0446     		mov	r4, r0
 4736 009a 0028     		cmp	r0, #0
 4737 009c B7D1     		bne	.L435
1580:Middlewares/Third_Party/LwIP/src/core/tcp.c ****           tcp_kill_prio(prio);
 4738              		.loc 1 1580 100 is_stmt 1 view .LVU1409
ARM GAS  /tmp/cc6by9MY.s 			page 139


1581:Middlewares/Third_Party/LwIP/src/core/tcp.c ****           /* Try to allocate a tcp_pcb again. */
 4739              		.loc 1 1581 11 view .LVU1410
 4740 009e 2846     		mov	r0, r5
 4741              	.LVL440:
1581:Middlewares/Third_Party/LwIP/src/core/tcp.c ****           /* Try to allocate a tcp_pcb again. */
 4742              		.loc 1 1581 11 is_stmt 0 view .LVU1411
 4743 00a0 FFF7FEFF 		bl	tcp_kill_prio
 4744              	.LVL441:
1583:Middlewares/Third_Party/LwIP/src/core/tcp.c ****           if (pcb != NULL) {
 4745              		.loc 1 1583 11 is_stmt 1 view .LVU1412
1583:Middlewares/Third_Party/LwIP/src/core/tcp.c ****           if (pcb != NULL) {
 4746              		.loc 1 1583 35 is_stmt 0 view .LVU1413
 4747 00a4 0120     		movs	r0, #1
 4748 00a6 FFF7FEFF 		bl	memp_malloc
 4749              	.LVL442:
 4750 00aa 0446     		mov	r4, r0
 4751              	.LVL443:
1584:Middlewares/Third_Party/LwIP/src/core/tcp.c ****             /* adjust err stats: memp_malloc failed multiple times before */
 4752              		.loc 1 1584 11 is_stmt 1 view .LVU1414
 4753 00ac AFE7     		b	.L435
 4754              	.L440:
 4755 00ae 00BF     		.align	2
 4756              	.L439:
 4757 00b0 00000000 		.word	tcp_ticks
 4758 00b4 00000000 		.word	.LANCHOR2
 4759 00b8 00000000 		.word	tcp_recv_null
 4760 00bc 00DD6D00 		.word	7200000
 4761              		.cfi_endproc
 4762              	.LFE190:
 4764              		.section	.text.tcp_new,"ax",%progbits
 4765              		.align	1
 4766              		.global	tcp_new
 4767              		.syntax unified
 4768              		.thumb
 4769              		.thumb_func
 4770              		.fpu fpv5-sp-d16
 4772              	tcp_new:
 4773              	.LFB191:
1661:Middlewares/Third_Party/LwIP/src/core/tcp.c ****   return tcp_alloc(TCP_PRIO_NORMAL);
 4774              		.loc 1 1661 1 view -0
 4775              		.cfi_startproc
 4776              		@ args = 0, pretend = 0, frame = 0
 4777              		@ frame_needed = 0, uses_anonymous_args = 0
 4778 0000 08B5     		push	{r3, lr}
 4779              	.LCFI51:
 4780              		.cfi_def_cfa_offset 8
 4781              		.cfi_offset 3, -8
 4782              		.cfi_offset 14, -4
1662:Middlewares/Third_Party/LwIP/src/core/tcp.c **** }
 4783              		.loc 1 1662 3 view .LVU1416
1662:Middlewares/Third_Party/LwIP/src/core/tcp.c **** }
 4784              		.loc 1 1662 10 is_stmt 0 view .LVU1417
 4785 0002 4020     		movs	r0, #64
 4786 0004 FFF7FEFF 		bl	tcp_alloc
 4787              	.LVL444:
1663:Middlewares/Third_Party/LwIP/src/core/tcp.c **** 
 4788              		.loc 1 1663 1 view .LVU1418
ARM GAS  /tmp/cc6by9MY.s 			page 140


 4789 0008 08BD     		pop	{r3, pc}
 4790              		.cfi_endproc
 4791              	.LFE191:
 4793              		.section	.text.tcp_new_ip_type,"ax",%progbits
 4794              		.align	1
 4795              		.global	tcp_new_ip_type
 4796              		.syntax unified
 4797              		.thumb
 4798              		.thumb_func
 4799              		.fpu fpv5-sp-d16
 4801              	tcp_new_ip_type:
 4802              	.LVL445:
 4803              	.LFB192:
1678:Middlewares/Third_Party/LwIP/src/core/tcp.c ****   struct tcp_pcb * pcb;
 4804              		.loc 1 1678 1 is_stmt 1 view -0
 4805              		.cfi_startproc
 4806              		@ args = 0, pretend = 0, frame = 0
 4807              		@ frame_needed = 0, uses_anonymous_args = 0
1678:Middlewares/Third_Party/LwIP/src/core/tcp.c ****   struct tcp_pcb * pcb;
 4808              		.loc 1 1678 1 is_stmt 0 view .LVU1420
 4809 0000 08B5     		push	{r3, lr}
 4810              	.LCFI52:
 4811              		.cfi_def_cfa_offset 8
 4812              		.cfi_offset 3, -8
 4813              		.cfi_offset 14, -4
1679:Middlewares/Third_Party/LwIP/src/core/tcp.c ****   pcb = tcp_alloc(TCP_PRIO_NORMAL);
 4814              		.loc 1 1679 3 is_stmt 1 view .LVU1421
1680:Middlewares/Third_Party/LwIP/src/core/tcp.c **** #if LWIP_IPV4 && LWIP_IPV6
 4815              		.loc 1 1680 3 view .LVU1422
1680:Middlewares/Third_Party/LwIP/src/core/tcp.c **** #if LWIP_IPV4 && LWIP_IPV6
 4816              		.loc 1 1680 9 is_stmt 0 view .LVU1423
 4817 0002 4020     		movs	r0, #64
 4818              	.LVL446:
1680:Middlewares/Third_Party/LwIP/src/core/tcp.c **** #if LWIP_IPV4 && LWIP_IPV6
 4819              		.loc 1 1680 9 view .LVU1424
 4820 0004 FFF7FEFF 		bl	tcp_alloc
 4821              	.LVL447:
1687:Middlewares/Third_Party/LwIP/src/core/tcp.c **** #endif /* LWIP_IPV4 && LWIP_IPV6 */
 4822              		.loc 1 1687 3 is_stmt 1 view .LVU1425
1689:Middlewares/Third_Party/LwIP/src/core/tcp.c **** }
 4823              		.loc 1 1689 3 view .LVU1426
1690:Middlewares/Third_Party/LwIP/src/core/tcp.c **** 
 4824              		.loc 1 1690 1 is_stmt 0 view .LVU1427
 4825 0008 08BD     		pop	{r3, pc}
 4826              		.cfi_endproc
 4827              	.LFE192:
 4829              		.section	.text.tcp_next_iss,"ax",%progbits
 4830              		.align	1
 4831              		.global	tcp_next_iss
 4832              		.syntax unified
 4833              		.thumb
 4834              		.thumb_func
 4835              		.fpu fpv5-sp-d16
 4837              	tcp_next_iss:
 4838              	.LVL448:
 4839              	.LFB201:
1896:Middlewares/Third_Party/LwIP/src/core/tcp.c **** #ifdef LWIP_HOOK_TCP_ISN
ARM GAS  /tmp/cc6by9MY.s 			page 141


 4840              		.loc 1 1896 1 is_stmt 1 view -0
 4841              		.cfi_startproc
 4842              		@ args = 0, pretend = 0, frame = 0
 4843              		@ frame_needed = 0, uses_anonymous_args = 0
 4844              		@ link register save eliminated.
1900:Middlewares/Third_Party/LwIP/src/core/tcp.c **** 
 4845              		.loc 1 1900 3 view .LVU1429
1902:Middlewares/Third_Party/LwIP/src/core/tcp.c **** 
 4846              		.loc 1 1902 3 view .LVU1430
1904:Middlewares/Third_Party/LwIP/src/core/tcp.c ****   return iss;
 4847              		.loc 1 1904 3 view .LVU1431
1904:Middlewares/Third_Party/LwIP/src/core/tcp.c ****   return iss;
 4848              		.loc 1 1904 7 is_stmt 0 view .LVU1432
 4849 0000 034B     		ldr	r3, .L446
 4850 0002 1868     		ldr	r0, [r3]
 4851              	.LVL449:
1904:Middlewares/Third_Party/LwIP/src/core/tcp.c ****   return iss;
 4852              		.loc 1 1904 7 view .LVU1433
 4853 0004 034A     		ldr	r2, .L446+4
 4854 0006 1268     		ldr	r2, [r2]
 4855 0008 1044     		add	r0, r0, r2
 4856 000a 1860     		str	r0, [r3]
1905:Middlewares/Third_Party/LwIP/src/core/tcp.c **** #endif /* LWIP_HOOK_TCP_ISN */
 4857              		.loc 1 1905 3 is_stmt 1 view .LVU1434
1907:Middlewares/Third_Party/LwIP/src/core/tcp.c **** 
 4858              		.loc 1 1907 1 is_stmt 0 view .LVU1435
 4859 000c 7047     		bx	lr
 4860              	.L447:
 4861 000e 00BF     		.align	2
 4862              	.L446:
 4863 0010 00000000 		.word	.LANCHOR6
 4864 0014 00000000 		.word	tcp_ticks
 4865              		.cfi_endproc
 4866              	.LFE201:
 4868              		.section	.text.tcp_eff_send_mss_impl,"ax",%progbits
 4869              		.align	1
 4870              		.global	tcp_eff_send_mss_impl
 4871              		.syntax unified
 4872              		.thumb
 4873              		.thumb_func
 4874              		.fpu fpv5-sp-d16
 4876              	tcp_eff_send_mss_impl:
 4877              	.LVL450:
 4878              	.LFB202:
1921:Middlewares/Third_Party/LwIP/src/core/tcp.c ****   u16_t mss_s;
 4879              		.loc 1 1921 1 is_stmt 1 view -0
 4880              		.cfi_startproc
 4881              		@ args = 0, pretend = 0, frame = 0
 4882              		@ frame_needed = 0, uses_anonymous_args = 0
1921:Middlewares/Third_Party/LwIP/src/core/tcp.c ****   u16_t mss_s;
 4883              		.loc 1 1921 1 is_stmt 0 view .LVU1437
 4884 0000 10B5     		push	{r4, lr}
 4885              	.LCFI53:
 4886              		.cfi_def_cfa_offset 8
 4887              		.cfi_offset 4, -8
 4888              		.cfi_offset 14, -4
 4889 0002 0446     		mov	r4, r0
ARM GAS  /tmp/cc6by9MY.s 			page 142


1922:Middlewares/Third_Party/LwIP/src/core/tcp.c ****   struct netif *outif;
 4890              		.loc 1 1922 3 is_stmt 1 view .LVU1438
1923:Middlewares/Third_Party/LwIP/src/core/tcp.c ****   s16_t mtu;
 4891              		.loc 1 1923 3 view .LVU1439
1924:Middlewares/Third_Party/LwIP/src/core/tcp.c **** 
 4892              		.loc 1 1924 3 view .LVU1440
1926:Middlewares/Third_Party/LwIP/src/core/tcp.c **** #if LWIP_IPV6
 4893              		.loc 1 1926 3 view .LVU1441
1926:Middlewares/Third_Party/LwIP/src/core/tcp.c **** #if LWIP_IPV6
 4894              		.loc 1 1926 11 is_stmt 0 view .LVU1442
 4895 0004 0846     		mov	r0, r1
 4896              	.LVL451:
1926:Middlewares/Third_Party/LwIP/src/core/tcp.c **** #if LWIP_IPV6
 4897              		.loc 1 1926 11 view .LVU1443
 4898 0006 FFF7FEFF 		bl	ip4_route
 4899              	.LVL452:
1941:Middlewares/Third_Party/LwIP/src/core/tcp.c ****       return sendmss;
 4900              		.loc 1 1941 5 is_stmt 1 view .LVU1444
1941:Middlewares/Third_Party/LwIP/src/core/tcp.c ****       return sendmss;
 4901              		.loc 1 1941 8 is_stmt 0 view .LVU1445
 4902 000a 30B1     		cbz	r0, .L449
1944:Middlewares/Third_Party/LwIP/src/core/tcp.c ****   }
 4903              		.loc 1 1944 5 is_stmt 1 view .LVU1446
1944:Middlewares/Third_Party/LwIP/src/core/tcp.c ****   }
 4904              		.loc 1 1944 16 is_stmt 0 view .LVU1447
 4905 000c C38C     		ldrh	r3, [r0, #38]
 4906              	.LVL453:
1948:Middlewares/Third_Party/LwIP/src/core/tcp.c **** #if LWIP_IPV6
 4907              		.loc 1 1948 3 is_stmt 1 view .LVU1448
1948:Middlewares/Third_Party/LwIP/src/core/tcp.c **** #if LWIP_IPV6
 4908              		.loc 1 1948 6 is_stmt 0 view .LVU1449
 4909 000e 23B1     		cbz	r3, .L449
1962:Middlewares/Third_Party/LwIP/src/core/tcp.c ****     }
 4910              		.loc 1 1962 7 is_stmt 1 view .LVU1450
1962:Middlewares/Third_Party/LwIP/src/core/tcp.c ****     }
 4911              		.loc 1 1962 13 is_stmt 0 view .LVU1451
 4912 0010 283B     		subs	r3, r3, #40
 4913              	.LVL454:
1962:Middlewares/Third_Party/LwIP/src/core/tcp.c ****     }
 4914              		.loc 1 1962 13 view .LVU1452
 4915 0012 9BB2     		uxth	r3, r3
 4916              	.LVL455:
1969:Middlewares/Third_Party/LwIP/src/core/tcp.c ****   }
 4917              		.loc 1 1969 5 is_stmt 1 view .LVU1453
1969:Middlewares/Third_Party/LwIP/src/core/tcp.c ****   }
 4918              		.loc 1 1969 13 is_stmt 0 view .LVU1454
 4919 0014 9C42     		cmp	r4, r3
 4920 0016 28BF     		it	cs
 4921 0018 1C46     		movcs	r4, r3
 4922              	.LVL456:
 4923              	.L449:
1972:Middlewares/Third_Party/LwIP/src/core/tcp.c **** #endif /* TCP_CALCULATE_EFF_SEND_MSS */
 4924              		.loc 1 1972 1 view .LVU1455
 4925 001a 2046     		mov	r0, r4
 4926              	.LVL457:
1972:Middlewares/Third_Party/LwIP/src/core/tcp.c **** #endif /* TCP_CALCULATE_EFF_SEND_MSS */
 4927              		.loc 1 1972 1 view .LVU1456
ARM GAS  /tmp/cc6by9MY.s 			page 143


 4928 001c 10BD     		pop	{r4, pc}
 4929              		.cfi_endproc
 4930              	.LFE202:
 4932              		.section	.text.tcp_connect,"ax",%progbits
 4933              		.align	1
 4934              		.global	tcp_connect
 4935              		.syntax unified
 4936              		.thumb
 4937              		.thumb_func
 4938              		.fpu fpv5-sp-d16
 4940              	tcp_connect:
 4941              	.LVL458:
 4942              	.LFB177:
 879:Middlewares/Third_Party/LwIP/src/core/tcp.c ****   err_t ret;
 4943              		.loc 1 879 1 is_stmt 1 view -0
 4944              		.cfi_startproc
 4945              		@ args = 0, pretend = 0, frame = 0
 4946              		@ frame_needed = 0, uses_anonymous_args = 0
 879:Middlewares/Third_Party/LwIP/src/core/tcp.c ****   err_t ret;
 4947              		.loc 1 879 1 is_stmt 0 view .LVU1458
 4948 0000 70B5     		push	{r4, r5, r6, lr}
 4949              	.LCFI54:
 4950              		.cfi_def_cfa_offset 16
 4951              		.cfi_offset 4, -16
 4952              		.cfi_offset 5, -12
 4953              		.cfi_offset 6, -8
 4954              		.cfi_offset 14, -4
 880:Middlewares/Third_Party/LwIP/src/core/tcp.c ****   u32_t iss;
 4955              		.loc 1 880 3 is_stmt 1 view .LVU1459
 881:Middlewares/Third_Party/LwIP/src/core/tcp.c ****   u16_t old_local_port;
 4956              		.loc 1 881 3 view .LVU1460
 882:Middlewares/Third_Party/LwIP/src/core/tcp.c **** 
 4957              		.loc 1 882 3 view .LVU1461
 884:Middlewares/Third_Party/LwIP/src/core/tcp.c ****     return ERR_VAL;
 4958              		.loc 1 884 3 view .LVU1462
 884:Middlewares/Third_Party/LwIP/src/core/tcp.c ****     return ERR_VAL;
 4959              		.loc 1 884 32 is_stmt 0 view .LVU1463
 4960 0002 0D46     		mov	r5, r1
 4961 0004 B1FA81F1 		clz	r1, r1
 4962              	.LVL459:
 884:Middlewares/Third_Party/LwIP/src/core/tcp.c ****     return ERR_VAL;
 4963              		.loc 1 884 32 view .LVU1464
 4964 0008 4909     		lsrs	r1, r1, #5
 884:Middlewares/Third_Party/LwIP/src/core/tcp.c ****     return ERR_VAL;
 4965              		.loc 1 884 21 view .LVU1465
 4966 000a 0028     		cmp	r0, #0
 4967 000c 08BF     		it	eq
 4968 000e 0121     		moveq	r1, #1
 884:Middlewares/Third_Party/LwIP/src/core/tcp.c ****     return ERR_VAL;
 4969              		.loc 1 884 6 view .LVU1466
 4970 0010 0029     		cmp	r1, #0
 4971 0012 77D1     		bne	.L463
 4972 0014 0446     		mov	r4, r0
 4973 0016 2946     		mov	r1, r5
 4974 0018 1D46     		mov	r5, r3
 4975              	.LVL460:
 888:Middlewares/Third_Party/LwIP/src/core/tcp.c **** 
ARM GAS  /tmp/cc6by9MY.s 			page 144


 4976              		.loc 1 888 3 is_stmt 1 view .LVU1467
 888:Middlewares/Third_Party/LwIP/src/core/tcp.c **** 
 4977              		.loc 1 888 3 view .LVU1468
 4978 001a 037D     		ldrb	r3, [r0, #20]	@ zero_extendqisi2
 4979              	.LVL461:
 888:Middlewares/Third_Party/LwIP/src/core/tcp.c **** 
 4980              		.loc 1 888 3 is_stmt 0 view .LVU1469
 4981 001c 002B     		cmp	r3, #0
 4982 001e 4FD1     		bne	.L470
 890:Middlewares/Third_Party/LwIP/src/core/tcp.c ****   ip_addr_set(&pcb->remote_ip, ipaddr);
 4983              		.loc 1 890 67 is_stmt 1 view .LVU1470
 891:Middlewares/Third_Party/LwIP/src/core/tcp.c ****   pcb->remote_port = port;
 4984              		.loc 1 891 3 view .LVU1471
 4985 0020 0029     		cmp	r1, #0
 4986 0022 57D0     		beq	.L464
 891:Middlewares/Third_Party/LwIP/src/core/tcp.c ****   pcb->remote_port = port;
 4987              		.loc 1 891 3 is_stmt 0 discriminator 1 view .LVU1472
 4988 0024 0B68     		ldr	r3, [r1]
 4989              	.L454:
 891:Middlewares/Third_Party/LwIP/src/core/tcp.c ****   pcb->remote_port = port;
 4990              		.loc 1 891 3 discriminator 4 view .LVU1473
 4991 0026 6360     		str	r3, [r4, #4]
 892:Middlewares/Third_Party/LwIP/src/core/tcp.c **** 
 4992              		.loc 1 892 3 is_stmt 1 discriminator 4 view .LVU1474
 892:Middlewares/Third_Party/LwIP/src/core/tcp.c **** 
 4993              		.loc 1 892 20 is_stmt 0 discriminator 4 view .LVU1475
 4994 0028 2283     		strh	r2, [r4, #24]	@ movhi
 895:Middlewares/Third_Party/LwIP/src/core/tcp.c ****     /* no local IP address set, yet. */
 4995              		.loc 1 895 3 is_stmt 1 discriminator 4 view .LVU1476
 895:Middlewares/Third_Party/LwIP/src/core/tcp.c ****     /* no local IP address set, yet. */
 4996              		.loc 1 895 6 is_stmt 0 discriminator 4 view .LVU1477
 4997 002a 0CB1     		cbz	r4, .L455
 895:Middlewares/Third_Party/LwIP/src/core/tcp.c ****     /* no local IP address set, yet. */
 4998              		.loc 1 895 7 discriminator 1 view .LVU1478
 4999 002c 2368     		ldr	r3, [r4]
 5000 002e 83B9     		cbnz	r3, .L456
 5001              	.L455:
 5002              	.LBB28:
 897:Middlewares/Third_Party/LwIP/src/core/tcp.c ****     const ip_addr_t *local_ip;
 5003              		.loc 1 897 5 is_stmt 1 view .LVU1479
 898:Middlewares/Third_Party/LwIP/src/core/tcp.c ****     ip_route_get_local_ip(&pcb->local_ip, &pcb->remote_ip, netif, local_ip);
 5004              		.loc 1 898 5 view .LVU1480
 899:Middlewares/Third_Party/LwIP/src/core/tcp.c ****     if ((netif == NULL) || (local_ip == NULL)) {
 5005              		.loc 1 899 5 view .LVU1481
 899:Middlewares/Third_Party/LwIP/src/core/tcp.c ****     if ((netif == NULL) || (local_ip == NULL)) {
 5006              		.loc 1 899 5 view .LVU1482
 5007 0030 201D     		adds	r0, r4, #4
 5008              	.LVL462:
 899:Middlewares/Third_Party/LwIP/src/core/tcp.c ****     if ((netif == NULL) || (local_ip == NULL)) {
 5009              		.loc 1 899 5 is_stmt 0 view .LVU1483
 5010 0032 FFF7FEFF 		bl	ip4_route
 5011              	.LVL463:
 899:Middlewares/Third_Party/LwIP/src/core/tcp.c ****     if ((netif == NULL) || (local_ip == NULL)) {
 5012              		.loc 1 899 5 is_stmt 1 view .LVU1484
 5013 0036 0346     		mov	r3, r0
 5014 0038 0028     		cmp	r0, #0
 5015 003a 4DD0     		beq	.L465
ARM GAS  /tmp/cc6by9MY.s 			page 145


 899:Middlewares/Third_Party/LwIP/src/core/tcp.c ****     if ((netif == NULL) || (local_ip == NULL)) {
 5016              		.loc 1 899 5 is_stmt 0 discriminator 1 view .LVU1485
 5017 003c 021D     		adds	r2, r0, #4
 5018              	.L457:
 5019              	.LVL464:
 900:Middlewares/Third_Party/LwIP/src/core/tcp.c ****       /* Don't even try to send a SYN packet if we have no route
 5020              		.loc 1 900 5 is_stmt 1 discriminator 4 view .LVU1486
 900:Middlewares/Third_Party/LwIP/src/core/tcp.c ****       /* Don't even try to send a SYN packet if we have no route
 5021              		.loc 1 900 38 is_stmt 0 discriminator 4 view .LVU1487
 5022 003e B2FA82F0 		clz	r0, r2
 5023              	.LVL465:
 900:Middlewares/Third_Party/LwIP/src/core/tcp.c ****       /* Don't even try to send a SYN packet if we have no route
 5024              		.loc 1 900 38 discriminator 4 view .LVU1488
 5025 0042 4009     		lsrs	r0, r0, #5
 900:Middlewares/Third_Party/LwIP/src/core/tcp.c ****       /* Don't even try to send a SYN packet if we have no route
 5026              		.loc 1 900 25 discriminator 4 view .LVU1489
 5027 0044 002B     		cmp	r3, #0
 5028 0046 08BF     		it	eq
 5029 0048 0120     		moveq	r0, #1
 900:Middlewares/Third_Party/LwIP/src/core/tcp.c ****       /* Don't even try to send a SYN packet if we have no route
 5030              		.loc 1 900 8 discriminator 4 view .LVU1490
 5031 004a 0028     		cmp	r0, #0
 5032 004c 5DD1     		bne	.L466
 906:Middlewares/Third_Party/LwIP/src/core/tcp.c ****   }
 5033              		.loc 1 906 5 is_stmt 1 view .LVU1491
 5034 004e 1368     		ldr	r3, [r2]
 5035              	.LVL466:
 906:Middlewares/Third_Party/LwIP/src/core/tcp.c ****   }
 5036              		.loc 1 906 5 is_stmt 0 view .LVU1492
 5037 0050 2360     		str	r3, [r4]
 5038              	.LVL467:
 5039              	.L456:
 906:Middlewares/Third_Party/LwIP/src/core/tcp.c ****   }
 5040              		.loc 1 906 5 view .LVU1493
 5041              	.LBE28:
 909:Middlewares/Third_Party/LwIP/src/core/tcp.c ****   if (pcb->local_port == 0) {
 5042              		.loc 1 909 3 is_stmt 1 view .LVU1494
 909:Middlewares/Third_Party/LwIP/src/core/tcp.c ****   if (pcb->local_port == 0) {
 5043              		.loc 1 909 18 is_stmt 0 view .LVU1495
 5044 0052 E68A     		ldrh	r6, [r4, #22]
 5045              	.LVL468:
 910:Middlewares/Third_Party/LwIP/src/core/tcp.c ****     pcb->local_port = tcp_new_port();
 5046              		.loc 1 910 3 is_stmt 1 view .LVU1496
 910:Middlewares/Third_Party/LwIP/src/core/tcp.c ****     pcb->local_port = tcp_new_port();
 5047              		.loc 1 910 6 is_stmt 0 view .LVU1497
 5048 0054 26B9     		cbnz	r6, .L458
 911:Middlewares/Third_Party/LwIP/src/core/tcp.c ****     if (pcb->local_port == 0) {
 5049              		.loc 1 911 5 is_stmt 1 view .LVU1498
 911:Middlewares/Third_Party/LwIP/src/core/tcp.c ****     if (pcb->local_port == 0) {
 5050              		.loc 1 911 23 is_stmt 0 view .LVU1499
 5051 0056 FFF7FEFF 		bl	tcp_new_port
 5052              	.LVL469:
 911:Middlewares/Third_Party/LwIP/src/core/tcp.c ****     if (pcb->local_port == 0) {
 5053              		.loc 1 911 21 view .LVU1500
 5054 005a E082     		strh	r0, [r4, #22]	@ movhi
 912:Middlewares/Third_Party/LwIP/src/core/tcp.c ****       return ERR_BUF;
 5055              		.loc 1 912 5 is_stmt 1 view .LVU1501
ARM GAS  /tmp/cc6by9MY.s 			page 146


 912:Middlewares/Third_Party/LwIP/src/core/tcp.c ****       return ERR_BUF;
 5056              		.loc 1 912 8 is_stmt 0 view .LVU1502
 5057 005c 0028     		cmp	r0, #0
 5058 005e 57D0     		beq	.L467
 5059              	.L458:
 936:Middlewares/Third_Party/LwIP/src/core/tcp.c **** 
 5060              		.loc 1 936 3 is_stmt 1 view .LVU1503
 938:Middlewares/Third_Party/LwIP/src/core/tcp.c ****   pcb->rcv_nxt = 0;
 5061              		.loc 1 938 3 view .LVU1504
 938:Middlewares/Third_Party/LwIP/src/core/tcp.c ****   pcb->rcv_nxt = 0;
 5062              		.loc 1 938 9 is_stmt 0 view .LVU1505
 5063 0060 2046     		mov	r0, r4
 5064 0062 FFF7FEFF 		bl	tcp_next_iss
 5065              	.LVL470:
 939:Middlewares/Third_Party/LwIP/src/core/tcp.c ****   pcb->snd_nxt = iss;
 5066              		.loc 1 939 3 is_stmt 1 view .LVU1506
 939:Middlewares/Third_Party/LwIP/src/core/tcp.c ****   pcb->snd_nxt = iss;
 5067              		.loc 1 939 16 is_stmt 0 view .LVU1507
 5068 0066 0022     		movs	r2, #0
 5069 0068 6262     		str	r2, [r4, #36]
 940:Middlewares/Third_Party/LwIP/src/core/tcp.c ****   pcb->lastack = iss - 1;
 5070              		.loc 1 940 3 is_stmt 1 view .LVU1508
 940:Middlewares/Third_Party/LwIP/src/core/tcp.c ****   pcb->lastack = iss - 1;
 5071              		.loc 1 940 16 is_stmt 0 view .LVU1509
 5072 006a E064     		str	r0, [r4, #76]
 941:Middlewares/Third_Party/LwIP/src/core/tcp.c ****   pcb->snd_wl2 = iss - 1;
 5073              		.loc 1 941 3 is_stmt 1 view .LVU1510
 941:Middlewares/Third_Party/LwIP/src/core/tcp.c ****   pcb->snd_wl2 = iss - 1;
 5074              		.loc 1 941 22 is_stmt 0 view .LVU1511
 5075 006c 0138     		subs	r0, r0, #1
 5076              	.LVL471:
 941:Middlewares/Third_Party/LwIP/src/core/tcp.c ****   pcb->snd_wl2 = iss - 1;
 5077              		.loc 1 941 16 view .LVU1512
 5078 006e 6064     		str	r0, [r4, #68]
 942:Middlewares/Third_Party/LwIP/src/core/tcp.c ****   pcb->snd_lbb = iss - 1;
 5079              		.loc 1 942 3 is_stmt 1 view .LVU1513
 942:Middlewares/Third_Party/LwIP/src/core/tcp.c ****   pcb->snd_lbb = iss - 1;
 5080              		.loc 1 942 16 is_stmt 0 view .LVU1514
 5081 0070 6065     		str	r0, [r4, #84]
 943:Middlewares/Third_Party/LwIP/src/core/tcp.c ****   /* Start with a window that does not need scaling. When window scaling is
 5082              		.loc 1 943 3 is_stmt 1 view .LVU1515
 943:Middlewares/Third_Party/LwIP/src/core/tcp.c ****   /* Start with a window that does not need scaling. When window scaling is
 5083              		.loc 1 943 16 is_stmt 0 view .LVU1516
 5084 0072 A065     		str	r0, [r4, #88]
 946:Middlewares/Third_Party/LwIP/src/core/tcp.c ****   pcb->rcv_ann_right_edge = pcb->rcv_nxt;
 5085              		.loc 1 946 3 is_stmt 1 view .LVU1517
 946:Middlewares/Third_Party/LwIP/src/core/tcp.c ****   pcb->rcv_ann_right_edge = pcb->rcv_nxt;
 5086              		.loc 1 946 35 is_stmt 0 view .LVU1518
 5087 0074 4FF40663 		mov	r3, #2144
 5088 0078 6385     		strh	r3, [r4, #42]	@ movhi
 946:Middlewares/Third_Party/LwIP/src/core/tcp.c ****   pcb->rcv_ann_right_edge = pcb->rcv_nxt;
 5089              		.loc 1 946 16 view .LVU1519
 5090 007a 2385     		strh	r3, [r4, #40]	@ movhi
 947:Middlewares/Third_Party/LwIP/src/core/tcp.c ****   pcb->snd_wnd = TCP_WND;
 5091              		.loc 1 947 3 is_stmt 1 view .LVU1520
 947:Middlewares/Third_Party/LwIP/src/core/tcp.c ****   pcb->snd_wnd = TCP_WND;
 5092              		.loc 1 947 27 is_stmt 0 view .LVU1521
ARM GAS  /tmp/cc6by9MY.s 			page 147


 5093 007c E262     		str	r2, [r4, #44]
 948:Middlewares/Third_Party/LwIP/src/core/tcp.c ****   /* As initial send MSS, we use TCP_MSS but limit it to 536.
 5094              		.loc 1 948 3 is_stmt 1 view .LVU1522
 948:Middlewares/Third_Party/LwIP/src/core/tcp.c ****   /* As initial send MSS, we use TCP_MSS but limit it to 536.
 5095              		.loc 1 948 16 is_stmt 0 view .LVU1523
 5096 007e A4F85C30 		strh	r3, [r4, #92]	@ movhi
 951:Middlewares/Third_Party/LwIP/src/core/tcp.c **** #if TCP_CALCULATE_EFF_SEND_MSS
 5097              		.loc 1 951 3 is_stmt 1 view .LVU1524
 951:Middlewares/Third_Party/LwIP/src/core/tcp.c **** #if TCP_CALCULATE_EFF_SEND_MSS
 5098              		.loc 1 951 12 is_stmt 0 view .LVU1525
 5099 0082 4FF40670 		mov	r0, #536
 5100 0086 6086     		strh	r0, [r4, #50]	@ movhi
 953:Middlewares/Third_Party/LwIP/src/core/tcp.c **** #endif /* TCP_CALCULATE_EFF_SEND_MSS */
 5101              		.loc 1 953 3 is_stmt 1 view .LVU1526
 953:Middlewares/Third_Party/LwIP/src/core/tcp.c **** #endif /* TCP_CALCULATE_EFF_SEND_MSS */
 5102              		.loc 1 953 14 is_stmt 0 view .LVU1527
 5103 0088 211D     		adds	r1, r4, #4
 5104 008a FFF7FEFF 		bl	tcp_eff_send_mss_impl
 5105              	.LVL472:
 953:Middlewares/Third_Party/LwIP/src/core/tcp.c **** #endif /* TCP_CALCULATE_EFF_SEND_MSS */
 5106              		.loc 1 953 12 view .LVU1528
 5107 008e 6086     		strh	r0, [r4, #50]	@ movhi
 955:Middlewares/Third_Party/LwIP/src/core/tcp.c **** #if LWIP_CALLBACK_API
 5108              		.loc 1 955 3 is_stmt 1 view .LVU1529
 955:Middlewares/Third_Party/LwIP/src/core/tcp.c **** #if LWIP_CALLBACK_API
 5109              		.loc 1 955 13 is_stmt 0 view .LVU1530
 5110 0090 0123     		movs	r3, #1
 5111 0092 A4F84830 		strh	r3, [r4, #72]	@ movhi
 957:Middlewares/Third_Party/LwIP/src/core/tcp.c **** #else /* LWIP_CALLBACK_API */
 5112              		.loc 1 957 3 is_stmt 1 view .LVU1531
 957:Middlewares/Third_Party/LwIP/src/core/tcp.c **** #else /* LWIP_CALLBACK_API */
 5113              		.loc 1 957 18 is_stmt 0 view .LVU1532
 5114 0096 C4F88450 		str	r5, [r4, #132]
 963:Middlewares/Third_Party/LwIP/src/core/tcp.c ****   if (ret == ERR_OK) {
 5115              		.loc 1 963 3 is_stmt 1 view .LVU1533
 963:Middlewares/Third_Party/LwIP/src/core/tcp.c ****   if (ret == ERR_OK) {
 5116              		.loc 1 963 9 is_stmt 0 view .LVU1534
 5117 009a 0221     		movs	r1, #2
 5118 009c 2046     		mov	r0, r4
 5119 009e FFF7FEFF 		bl	tcp_enqueue_flags
 5120              	.LVL473:
 964:Middlewares/Third_Party/LwIP/src/core/tcp.c ****     /* SYN segment was enqueued, changed the pcbs state now */
 5121              		.loc 1 964 3 is_stmt 1 view .LVU1535
 964:Middlewares/Third_Party/LwIP/src/core/tcp.c ****     /* SYN segment was enqueued, changed the pcbs state now */
 5122              		.loc 1 964 6 is_stmt 0 view .LVU1536
 5123 00a2 0546     		mov	r5, r0
 5124              	.LVL474:
 964:Middlewares/Third_Party/LwIP/src/core/tcp.c ****     /* SYN segment was enqueued, changed the pcbs state now */
 5125              		.loc 1 964 6 view .LVU1537
 5126 00a4 60BB     		cbnz	r0, .L452
 966:Middlewares/Third_Party/LwIP/src/core/tcp.c ****     if (old_local_port != 0) {
 5127              		.loc 1 966 5 is_stmt 1 view .LVU1538
 966:Middlewares/Third_Party/LwIP/src/core/tcp.c ****     if (old_local_port != 0) {
 5128              		.loc 1 966 16 is_stmt 0 view .LVU1539
 5129 00a6 0223     		movs	r3, #2
 5130 00a8 2375     		strb	r3, [r4, #20]
 967:Middlewares/Third_Party/LwIP/src/core/tcp.c ****       TCP_RMV(&tcp_bound_pcbs, pcb);
ARM GAS  /tmp/cc6by9MY.s 			page 148


 5131              		.loc 1 967 5 is_stmt 1 view .LVU1540
 967:Middlewares/Third_Party/LwIP/src/core/tcp.c ****       TCP_RMV(&tcp_bound_pcbs, pcb);
 5132              		.loc 1 967 8 is_stmt 0 view .LVU1541
 5133 00aa EEB1     		cbz	r6, .L459
 968:Middlewares/Third_Party/LwIP/src/core/tcp.c ****     }
 5134              		.loc 1 968 7 is_stmt 1 view .LVU1542
 968:Middlewares/Third_Party/LwIP/src/core/tcp.c ****     }
 5135              		.loc 1 968 7 view .LVU1543
 5136 00ac 1A4B     		ldr	r3, .L473
 5137 00ae 1B68     		ldr	r3, [r3]
 5138 00b0 A342     		cmp	r3, r4
 5139 00b2 13D0     		beq	.L471
 5140              	.L460:
 5141              	.LVL475:
 5142              	.LBB29:
 968:Middlewares/Third_Party/LwIP/src/core/tcp.c ****     }
 5143              		.loc 1 968 7 is_stmt 0 discriminator 8 view .LVU1544
 5144 00b4 C3B1     		cbz	r3, .L459
 968:Middlewares/Third_Party/LwIP/src/core/tcp.c ****     }
 5145              		.loc 1 968 7 is_stmt 1 discriminator 9 view .LVU1545
 5146 00b6 DA68     		ldr	r2, [r3, #12]
 5147 00b8 A242     		cmp	r2, r4
 5148 00ba 13D0     		beq	.L472
 968:Middlewares/Third_Party/LwIP/src/core/tcp.c ****     }
 5149              		.loc 1 968 7 is_stmt 0 view .LVU1546
 5150 00bc 1346     		mov	r3, r2
 5151              	.LVL476:
 968:Middlewares/Third_Party/LwIP/src/core/tcp.c ****     }
 5152              		.loc 1 968 7 view .LVU1547
 5153 00be F9E7     		b	.L460
 5154              	.LVL477:
 5155              	.L470:
 968:Middlewares/Third_Party/LwIP/src/core/tcp.c ****     }
 5156              		.loc 1 968 7 view .LVU1548
 5157              	.LBE29:
 888:Middlewares/Third_Party/LwIP/src/core/tcp.c **** 
 5158              		.loc 1 888 3 is_stmt 1 discriminator 1 view .LVU1549
 888:Middlewares/Third_Party/LwIP/src/core/tcp.c **** 
 5159              		.loc 1 888 3 discriminator 1 view .LVU1550
 5160 00c0 164B     		ldr	r3, .L473+4
 5161 00c2 4FF45E72 		mov	r2, #888
 5162              	.LVL478:
 888:Middlewares/Third_Party/LwIP/src/core/tcp.c **** 
 5163              		.loc 1 888 3 is_stmt 0 discriminator 1 view .LVU1551
 5164 00c6 1649     		ldr	r1, .L473+8
 5165              	.LVL479:
 888:Middlewares/Third_Party/LwIP/src/core/tcp.c **** 
 5166              		.loc 1 888 3 discriminator 1 view .LVU1552
 5167 00c8 1648     		ldr	r0, .L473+12
 5168              	.LVL480:
 888:Middlewares/Third_Party/LwIP/src/core/tcp.c **** 
 5169              		.loc 1 888 3 discriminator 1 view .LVU1553
 5170 00ca FFF7FEFF 		bl	printf
 5171              	.LVL481:
 888:Middlewares/Third_Party/LwIP/src/core/tcp.c **** 
 5172              		.loc 1 888 3 is_stmt 1 discriminator 1 view .LVU1554
 5173 00ce 6FF00905 		mvn	r5, #9
ARM GAS  /tmp/cc6by9MY.s 			page 149


 5174              	.LVL482:
 888:Middlewares/Third_Party/LwIP/src/core/tcp.c **** 
 5175              		.loc 1 888 3 is_stmt 0 discriminator 1 view .LVU1555
 5176 00d2 15E0     		b	.L452
 5177              	.LVL483:
 5178              	.L464:
 891:Middlewares/Third_Party/LwIP/src/core/tcp.c ****   pcb->remote_port = port;
 5179              		.loc 1 891 3 view .LVU1556
 5180 00d4 0023     		movs	r3, #0
 5181 00d6 A6E7     		b	.L454
 5182              	.LVL484:
 5183              	.L465:
 5184              	.LBB30:
 899:Middlewares/Third_Party/LwIP/src/core/tcp.c ****     if ((netif == NULL) || (local_ip == NULL)) {
 5185              		.loc 1 899 5 view .LVU1557
 5186 00d8 0246     		mov	r2, r0
 5187 00da B0E7     		b	.L457
 5188              	.LVL485:
 5189              	.L471:
 899:Middlewares/Third_Party/LwIP/src/core/tcp.c ****     if ((netif == NULL) || (local_ip == NULL)) {
 5190              		.loc 1 899 5 view .LVU1558
 5191              	.LBE30:
 968:Middlewares/Third_Party/LwIP/src/core/tcp.c ****     }
 5192              		.loc 1 968 7 is_stmt 1 discriminator 1 view .LVU1559
 5193 00dc DA68     		ldr	r2, [r3, #12]
 5194 00de 0E4B     		ldr	r3, .L473
 5195 00e0 1A60     		str	r2, [r3]
 5196 00e2 01E0     		b	.L459
 5197              	.LVL486:
 5198              	.L472:
 5199              	.LBB31:
 968:Middlewares/Third_Party/LwIP/src/core/tcp.c ****     }
 5200              		.loc 1 968 7 discriminator 5 view .LVU1560
 5201 00e4 E268     		ldr	r2, [r4, #12]
 5202 00e6 DA60     		str	r2, [r3, #12]
 968:Middlewares/Third_Party/LwIP/src/core/tcp.c ****     }
 5203              		.loc 1 968 7 discriminator 5 view .LVU1561
 5204              	.LVL487:
 5205              	.L459:
 968:Middlewares/Third_Party/LwIP/src/core/tcp.c ****     }
 5206              		.loc 1 968 7 is_stmt 0 discriminator 5 view .LVU1562
 5207              	.LBE31:
 970:Middlewares/Third_Party/LwIP/src/core/tcp.c ****     MIB2_STATS_INC(mib2.tcpactiveopens);
 5208              		.loc 1 970 5 is_stmt 1 view .LVU1563
 970:Middlewares/Third_Party/LwIP/src/core/tcp.c ****     MIB2_STATS_INC(mib2.tcpactiveopens);
 5209              		.loc 1 970 5 view .LVU1564
 970:Middlewares/Third_Party/LwIP/src/core/tcp.c ****     MIB2_STATS_INC(mib2.tcpactiveopens);
 5210              		.loc 1 970 5 view .LVU1565
 5211 00e8 0F4B     		ldr	r3, .L473+16
 5212 00ea 1A68     		ldr	r2, [r3]
 5213 00ec E260     		str	r2, [r4, #12]
 970:Middlewares/Third_Party/LwIP/src/core/tcp.c ****     MIB2_STATS_INC(mib2.tcpactiveopens);
 5214              		.loc 1 970 5 view .LVU1566
 5215 00ee 1C60     		str	r4, [r3]
 970:Middlewares/Third_Party/LwIP/src/core/tcp.c ****     MIB2_STATS_INC(mib2.tcpactiveopens);
 5216              		.loc 1 970 5 view .LVU1567
 5217 00f0 FFF7FEFF 		bl	tcp_timer_needed
ARM GAS  /tmp/cc6by9MY.s 			page 150


 5218              	.LVL488:
 970:Middlewares/Third_Party/LwIP/src/core/tcp.c ****     MIB2_STATS_INC(mib2.tcpactiveopens);
 5219              		.loc 1 970 5 view .LVU1568
 5220 00f4 0D4B     		ldr	r3, .L473+20
 5221 00f6 0122     		movs	r2, #1
 5222 00f8 1A70     		strb	r2, [r3]
 971:Middlewares/Third_Party/LwIP/src/core/tcp.c **** 
 5223              		.loc 1 971 40 view .LVU1569
 973:Middlewares/Third_Party/LwIP/src/core/tcp.c ****   }
 5224              		.loc 1 973 5 view .LVU1570
 5225 00fa 2046     		mov	r0, r4
 5226 00fc FFF7FEFF 		bl	tcp_output
 5227              	.LVL489:
 5228              	.L452:
 976:Middlewares/Third_Party/LwIP/src/core/tcp.c **** 
 5229              		.loc 1 976 1 is_stmt 0 view .LVU1571
 5230 0100 2846     		mov	r0, r5
 5231 0102 70BD     		pop	{r4, r5, r6, pc}
 5232              	.LVL490:
 5233              	.L463:
 885:Middlewares/Third_Party/LwIP/src/core/tcp.c ****   }
 5234              		.loc 1 885 12 view .LVU1572
 5235 0104 6FF00505 		mvn	r5, #5
 5236              	.LVL491:
 885:Middlewares/Third_Party/LwIP/src/core/tcp.c ****   }
 5237              		.loc 1 885 12 view .LVU1573
 5238 0108 FAE7     		b	.L452
 5239              	.LVL492:
 5240              	.L466:
 5241              	.LBB32:
 903:Middlewares/Third_Party/LwIP/src/core/tcp.c ****     }
 5242              		.loc 1 903 14 view .LVU1574
 5243 010a 6FF00305 		mvn	r5, #3
 5244              	.LVL493:
 903:Middlewares/Third_Party/LwIP/src/core/tcp.c ****     }
 5245              		.loc 1 903 14 view .LVU1575
 5246 010e F7E7     		b	.L452
 5247              	.LVL494:
 5248              	.L467:
 903:Middlewares/Third_Party/LwIP/src/core/tcp.c ****     }
 5249              		.loc 1 903 14 view .LVU1576
 5250              	.LBE32:
 913:Middlewares/Third_Party/LwIP/src/core/tcp.c ****     }
 5251              		.loc 1 913 14 view .LVU1577
 5252 0110 6FF00105 		mvn	r5, #1
 5253              	.LVL495:
 913:Middlewares/Third_Party/LwIP/src/core/tcp.c ****     }
 5254              		.loc 1 913 14 view .LVU1578
 5255 0114 F4E7     		b	.L452
 5256              	.L474:
 5257 0116 00BF     		.align	2
 5258              	.L473:
 5259 0118 00000000 		.word	tcp_bound_pcbs
 5260 011c 00000000 		.word	.LC0
 5261 0120 00000000 		.word	.LC27
 5262 0124 38000000 		.word	.LC2
 5263 0128 00000000 		.word	tcp_active_pcbs
ARM GAS  /tmp/cc6by9MY.s 			page 151


 5264 012c 00000000 		.word	tcp_active_pcbs_changed
 5265              		.cfi_endproc
 5266              	.LFE177:
 5268              		.section	.text.tcp_netif_ip_addr_changed,"ax",%progbits
 5269              		.align	1
 5270              		.global	tcp_netif_ip_addr_changed
 5271              		.syntax unified
 5272              		.thumb
 5273              		.thumb_func
 5274              		.fpu fpv5-sp-d16
 5276              	tcp_netif_ip_addr_changed:
 5277              	.LVL496:
 5278              	.LFB204:
1999:Middlewares/Third_Party/LwIP/src/core/tcp.c **** 
2000:Middlewares/Third_Party/LwIP/src/core/tcp.c **** /** This function is called from netif.c when address is changed or netif is removed
2001:Middlewares/Third_Party/LwIP/src/core/tcp.c ****  *
2002:Middlewares/Third_Party/LwIP/src/core/tcp.c ****  * @param old_addr IP address of the netif before change
2003:Middlewares/Third_Party/LwIP/src/core/tcp.c ****  * @param new_addr IP address of the netif after change or NULL if netif has been removed
2004:Middlewares/Third_Party/LwIP/src/core/tcp.c ****  */
2005:Middlewares/Third_Party/LwIP/src/core/tcp.c **** void
2006:Middlewares/Third_Party/LwIP/src/core/tcp.c **** tcp_netif_ip_addr_changed(const ip_addr_t* old_addr, const ip_addr_t* new_addr)
2007:Middlewares/Third_Party/LwIP/src/core/tcp.c **** {
 5279              		.loc 1 2007 1 is_stmt 1 view -0
 5280              		.cfi_startproc
 5281              		@ args = 0, pretend = 0, frame = 0
 5282              		@ frame_needed = 0, uses_anonymous_args = 0
2008:Middlewares/Third_Party/LwIP/src/core/tcp.c ****   struct tcp_pcb_listen *lpcb, *next;
 5283              		.loc 1 2008 3 view .LVU1580
2009:Middlewares/Third_Party/LwIP/src/core/tcp.c **** 
2010:Middlewares/Third_Party/LwIP/src/core/tcp.c ****   if (!ip_addr_isany(old_addr)) {
 5284              		.loc 1 2010 3 view .LVU1581
 5285              		.loc 1 2010 6 is_stmt 0 view .LVU1582
 5286 0000 08B3     		cbz	r0, .L481
2007:Middlewares/Third_Party/LwIP/src/core/tcp.c ****   struct tcp_pcb_listen *lpcb, *next;
 5287              		.loc 1 2007 1 discriminator 1 view .LVU1583
 5288 0002 70B5     		push	{r4, r5, r6, lr}
 5289              	.LCFI55:
 5290              		.cfi_def_cfa_offset 16
 5291              		.cfi_offset 4, -16
 5292              		.cfi_offset 5, -12
 5293              		.cfi_offset 6, -8
 5294              		.cfi_offset 14, -4
 5295 0004 0446     		mov	r4, r0
 5296              		.loc 1 2010 8 discriminator 1 view .LVU1584
 5297 0006 0268     		ldr	r2, [r0]
 5298              		.loc 1 2010 7 discriminator 1 view .LVU1585
 5299 0008 02B9     		cbnz	r2, .L484
 5300              	.LVL497:
 5301              	.L475:
2011:Middlewares/Third_Party/LwIP/src/core/tcp.c ****     tcp_netif_ip_addr_changed_pcblist(old_addr, tcp_active_pcbs);
2012:Middlewares/Third_Party/LwIP/src/core/tcp.c ****     tcp_netif_ip_addr_changed_pcblist(old_addr, tcp_bound_pcbs);
2013:Middlewares/Third_Party/LwIP/src/core/tcp.c **** 
2014:Middlewares/Third_Party/LwIP/src/core/tcp.c ****     if (!ip_addr_isany(new_addr)) {
2015:Middlewares/Third_Party/LwIP/src/core/tcp.c ****       /* PCB bound to current local interface address? */
2016:Middlewares/Third_Party/LwIP/src/core/tcp.c ****       for (lpcb = tcp_listen_pcbs.listen_pcbs; lpcb != NULL; lpcb = next) {
2017:Middlewares/Third_Party/LwIP/src/core/tcp.c ****         next = lpcb->next;
2018:Middlewares/Third_Party/LwIP/src/core/tcp.c ****         /* PCB bound to current local interface address? */
ARM GAS  /tmp/cc6by9MY.s 			page 152


2019:Middlewares/Third_Party/LwIP/src/core/tcp.c ****         if (ip_addr_cmp(&lpcb->local_ip, old_addr)) {
2020:Middlewares/Third_Party/LwIP/src/core/tcp.c ****           /* The PCB is listening to the old ipaddr and
2021:Middlewares/Third_Party/LwIP/src/core/tcp.c ****             * is set to listen to the new one instead */
2022:Middlewares/Third_Party/LwIP/src/core/tcp.c ****           ip_addr_copy(lpcb->local_ip, *new_addr);
2023:Middlewares/Third_Party/LwIP/src/core/tcp.c ****         }
2024:Middlewares/Third_Party/LwIP/src/core/tcp.c ****       }
2025:Middlewares/Third_Party/LwIP/src/core/tcp.c ****     }
2026:Middlewares/Third_Party/LwIP/src/core/tcp.c ****   }
2027:Middlewares/Third_Party/LwIP/src/core/tcp.c **** }
 5302              		.loc 1 2027 1 view .LVU1586
 5303 000a 70BD     		pop	{r4, r5, r6, pc}
 5304              	.LVL498:
 5305              	.L484:
 5306              		.loc 1 2027 1 view .LVU1587
 5307 000c 0E46     		mov	r6, r1
2011:Middlewares/Third_Party/LwIP/src/core/tcp.c ****     tcp_netif_ip_addr_changed_pcblist(old_addr, tcp_active_pcbs);
 5308              		.loc 1 2011 5 is_stmt 1 view .LVU1588
 5309 000e 0E4B     		ldr	r3, .L485
 5310 0010 1968     		ldr	r1, [r3]
 5311              	.LVL499:
2011:Middlewares/Third_Party/LwIP/src/core/tcp.c ****     tcp_netif_ip_addr_changed_pcblist(old_addr, tcp_active_pcbs);
 5312              		.loc 1 2011 5 is_stmt 0 view .LVU1589
 5313 0012 FFF7FEFF 		bl	tcp_netif_ip_addr_changed_pcblist
 5314              	.LVL500:
2012:Middlewares/Third_Party/LwIP/src/core/tcp.c **** 
 5315              		.loc 1 2012 5 is_stmt 1 view .LVU1590
 5316 0016 0D4B     		ldr	r3, .L485+4
 5317 0018 1968     		ldr	r1, [r3]
 5318 001a 2046     		mov	r0, r4
 5319 001c FFF7FEFF 		bl	tcp_netif_ip_addr_changed_pcblist
 5320              	.LVL501:
2014:Middlewares/Third_Party/LwIP/src/core/tcp.c ****       /* PCB bound to current local interface address? */
 5321              		.loc 1 2014 5 view .LVU1591
2014:Middlewares/Third_Party/LwIP/src/core/tcp.c ****       /* PCB bound to current local interface address? */
 5322              		.loc 1 2014 8 is_stmt 0 view .LVU1592
 5323 0020 002E     		cmp	r6, #0
 5324 0022 F2D0     		beq	.L475
2014:Middlewares/Third_Party/LwIP/src/core/tcp.c ****       /* PCB bound to current local interface address? */
 5325              		.loc 1 2014 10 discriminator 1 view .LVU1593
 5326 0024 3368     		ldr	r3, [r6]
2014:Middlewares/Third_Party/LwIP/src/core/tcp.c ****       /* PCB bound to current local interface address? */
 5327              		.loc 1 2014 9 discriminator 1 view .LVU1594
 5328 0026 002B     		cmp	r3, #0
 5329 0028 EFD0     		beq	.L475
2016:Middlewares/Third_Party/LwIP/src/core/tcp.c ****         next = lpcb->next;
 5330              		.loc 1 2016 7 is_stmt 1 view .LVU1595
2016:Middlewares/Third_Party/LwIP/src/core/tcp.c ****         next = lpcb->next;
 5331              		.loc 1 2016 17 is_stmt 0 view .LVU1596
 5332 002a 094B     		ldr	r3, .L485+8
 5333 002c 1B68     		ldr	r3, [r3]
 5334              	.LVL502:
2016:Middlewares/Third_Party/LwIP/src/core/tcp.c ****         next = lpcb->next;
 5335              		.loc 1 2016 7 view .LVU1597
 5336 002e 00E0     		b	.L477
 5337              	.LVL503:
 5338              	.L478:
2007:Middlewares/Third_Party/LwIP/src/core/tcp.c ****   struct tcp_pcb_listen *lpcb, *next;
ARM GAS  /tmp/cc6by9MY.s 			page 153


 5339              		.loc 1 2007 1 discriminator 1 view .LVU1598
 5340 0030 1346     		mov	r3, r2
 5341              	.LVL504:
 5342              	.L477:
2016:Middlewares/Third_Party/LwIP/src/core/tcp.c ****         next = lpcb->next;
 5343              		.loc 1 2016 7 discriminator 1 view .LVU1599
 5344 0032 002B     		cmp	r3, #0
 5345 0034 E9D0     		beq	.L475
2017:Middlewares/Third_Party/LwIP/src/core/tcp.c ****         /* PCB bound to current local interface address? */
 5346              		.loc 1 2017 9 is_stmt 1 view .LVU1600
2017:Middlewares/Third_Party/LwIP/src/core/tcp.c ****         /* PCB bound to current local interface address? */
 5347              		.loc 1 2017 14 is_stmt 0 view .LVU1601
 5348 0036 DA68     		ldr	r2, [r3, #12]
 5349              	.LVL505:
2019:Middlewares/Third_Party/LwIP/src/core/tcp.c ****           /* The PCB is listening to the old ipaddr and
 5350              		.loc 1 2019 9 is_stmt 1 view .LVU1602
2019:Middlewares/Third_Party/LwIP/src/core/tcp.c ****           /* The PCB is listening to the old ipaddr and
 5351              		.loc 1 2019 13 is_stmt 0 view .LVU1603
 5352 0038 1D68     		ldr	r5, [r3]
 5353 003a 2068     		ldr	r0, [r4]
2019:Middlewares/Third_Party/LwIP/src/core/tcp.c ****           /* The PCB is listening to the old ipaddr and
 5354              		.loc 1 2019 12 view .LVU1604
 5355 003c 8542     		cmp	r5, r0
 5356 003e F7D1     		bne	.L478
2022:Middlewares/Third_Party/LwIP/src/core/tcp.c ****         }
 5357              		.loc 1 2022 11 is_stmt 1 view .LVU1605
 5358 0040 3168     		ldr	r1, [r6]
 5359 0042 1960     		str	r1, [r3]
 5360 0044 F4E7     		b	.L478
 5361              	.LVL506:
 5362              	.L481:
 5363              	.LCFI56:
 5364              		.cfi_def_cfa_offset 0
 5365              		.cfi_restore 4
 5366              		.cfi_restore 5
 5367              		.cfi_restore 6
 5368              		.cfi_restore 14
2022:Middlewares/Third_Party/LwIP/src/core/tcp.c ****         }
 5369              		.loc 1 2022 11 is_stmt 0 view .LVU1606
 5370 0046 7047     		bx	lr
 5371              	.L486:
 5372              		.align	2
 5373              	.L485:
 5374 0048 00000000 		.word	tcp_active_pcbs
 5375 004c 00000000 		.word	tcp_bound_pcbs
 5376 0050 00000000 		.word	tcp_listen_pcbs
 5377              		.cfi_endproc
 5378              	.LFE204:
 5380              		.section	.text.tcp_debug_state_str,"ax",%progbits
 5381              		.align	1
 5382              		.global	tcp_debug_state_str
 5383              		.syntax unified
 5384              		.thumb
 5385              		.thumb_func
 5386              		.fpu fpv5-sp-d16
 5388              	tcp_debug_state_str:
 5389              	.LVL507:
ARM GAS  /tmp/cc6by9MY.s 			page 154


 5390              	.LFB205:
2028:Middlewares/Third_Party/LwIP/src/core/tcp.c **** 
2029:Middlewares/Third_Party/LwIP/src/core/tcp.c **** const char*
2030:Middlewares/Third_Party/LwIP/src/core/tcp.c **** tcp_debug_state_str(enum tcp_state s)
2031:Middlewares/Third_Party/LwIP/src/core/tcp.c **** {
 5391              		.loc 1 2031 1 is_stmt 1 view -0
 5392              		.cfi_startproc
 5393              		@ args = 0, pretend = 0, frame = 0
 5394              		@ frame_needed = 0, uses_anonymous_args = 0
 5395              		@ link register save eliminated.
2032:Middlewares/Third_Party/LwIP/src/core/tcp.c ****   return tcp_state_str[s];
 5396              		.loc 1 2032 3 view .LVU1608
2033:Middlewares/Third_Party/LwIP/src/core/tcp.c **** }
 5397              		.loc 1 2033 1 is_stmt 0 view .LVU1609
 5398 0000 014B     		ldr	r3, .L488
 5399 0002 53F82000 		ldr	r0, [r3, r0, lsl #2]
 5400              	.LVL508:
 5401              		.loc 1 2033 1 view .LVU1610
 5402 0006 7047     		bx	lr
 5403              	.L489:
 5404              		.align	2
 5405              	.L488:
 5406 0008 00000000 		.word	.LANCHOR7
 5407              		.cfi_endproc
 5408              	.LFE205:
 5410              		.comm	tcp_active_pcbs_changed,1,1
 5411              		.global	tcp_pcb_lists
 5412              		.comm	tcp_tw_pcbs,4,4
 5413              		.comm	tcp_active_pcbs,4,4
 5414              		.comm	tcp_listen_pcbs,4,4
 5415              		.comm	tcp_bound_pcbs,4,4
 5416              		.comm	tcp_ticks,4,4
 5417              		.section	.bss.tcp_timer,"aw",%nobits
 5418              		.set	.LANCHOR5,. + 0
 5421              	tcp_timer:
 5422 0000 00       		.space	1
 5423              		.section	.bss.tcp_timer_ctr,"aw",%nobits
 5424              		.set	.LANCHOR2,. + 0
 5427              	tcp_timer_ctr:
 5428 0000 00       		.space	1
 5429              		.section	.data.iss.12403,"aw"
 5430              		.align	2
 5431              		.set	.LANCHOR6,. + 0
 5434              	iss.12403:
 5435 0000 6E190000 		.word	6510
 5436              		.section	.data.tcp_port,"aw"
 5437              		.align	1
 5438              		.set	.LANCHOR0,. + 0
 5441              	tcp_port:
 5442 0000 00C0     		.short	-16384
 5443              		.section	.rodata.str1.4,"aMS",%progbits,1
 5444              		.align	2
 5445              	.LC28:
 5446 0000 434C4F53 		.ascii	"CLOSED\000"
 5446      454400
 5447 0007 00       		.space	1
 5448              	.LC29:
ARM GAS  /tmp/cc6by9MY.s 			page 155


 5449 0008 4C495354 		.ascii	"LISTEN\000"
 5449      454E00
 5450 000f 00       		.space	1
 5451              	.LC30:
 5452 0010 53594E5F 		.ascii	"SYN_SENT\000"
 5452      53454E54 
 5452      00
 5453 0019 000000   		.space	3
 5454              	.LC31:
 5455 001c 53594E5F 		.ascii	"SYN_RCVD\000"
 5455      52435644 
 5455      00
 5456 0025 000000   		.space	3
 5457              	.LC32:
 5458 0028 45535441 		.ascii	"ESTABLISHED\000"
 5458      424C4953 
 5458      48454400 
 5459              	.LC33:
 5460 0034 46494E5F 		.ascii	"FIN_WAIT_1\000"
 5460      57414954 
 5460      5F3100
 5461 003f 00       		.space	1
 5462              	.LC34:
 5463 0040 46494E5F 		.ascii	"FIN_WAIT_2\000"
 5463      57414954 
 5463      5F3200
 5464 004b 00       		.space	1
 5465              	.LC35:
 5466 004c 434C4F53 		.ascii	"CLOSE_WAIT\000"
 5466      455F5741 
 5466      495400
 5467 0057 00       		.space	1
 5468              	.LC36:
 5469 0058 434C4F53 		.ascii	"CLOSING\000"
 5469      494E4700 
 5470              	.LC37:
 5471 0060 4C415354 		.ascii	"LAST_ACK\000"
 5471      5F41434B 
 5471      00
 5472 0069 000000   		.space	3
 5473              	.LC38:
 5474 006c 54494D45 		.ascii	"TIME_WAIT\000"
 5474      5F574149 
 5474      5400
 5475              		.section	.rodata.tcp_abandon.str1.4,"aMS",%progbits,1
 5476              		.align	2
 5477              	.LC25:
 5478 0000 646F6E27 		.ascii	"don't call tcp_abort/tcp_abandon for listen-pcbs\000"
 5478      74206361 
 5478      6C6C2074 
 5478      63705F61 
 5478      626F7274 
 5479              		.section	.rodata.tcp_backoff,"a"
 5480              		.align	2
 5481              		.set	.LANCHOR4,. + 0
 5484              	tcp_backoff:
 5485 0000 01       		.byte	1
ARM GAS  /tmp/cc6by9MY.s 			page 156


 5486 0001 02       		.byte	2
 5487 0002 03       		.byte	3
 5488 0003 04       		.byte	4
 5489 0004 05       		.byte	5
 5490 0005 06       		.byte	6
 5491 0006 07       		.byte	7
 5492 0007 07       		.byte	7
 5493 0008 07       		.byte	7
 5494 0009 07       		.byte	7
 5495 000a 07       		.byte	7
 5496 000b 07       		.byte	7
 5497 000c 07       		.byte	7
 5498              		.section	.rodata.tcp_bind.str1.4,"aMS",%progbits,1
 5499              		.align	2
 5500              	.LC4:
 5501 0000 7463705F 		.ascii	"tcp_bind: can only bind in state CLOSED\000"
 5501      62696E64 
 5501      3A206361 
 5501      6E206F6E 
 5501      6C792062 
 5502              		.section	.rodata.tcp_close_shutdown.str1.4,"aMS",%progbits,1
 5503              		.align	2
 5504              	.LC24:
 5505 0000 7063622D 		.ascii	"pcb->flags & TF_RXCLOSED\000"
 5505      3E666C61 
 5505      67732026 
 5505      2054465F 
 5505      5258434C 
 5506              		.section	.rodata.tcp_connect.str1.4,"aMS",%progbits,1
 5507              		.align	2
 5508              	.LC27:
 5509 0000 7463705F 		.ascii	"tcp_connect: can only connect from state CLOSED\000"
 5509      636F6E6E 
 5509      6563743A 
 5509      2063616E 
 5509      206F6E6C 
 5510              		.section	.rodata.tcp_err.str1.4,"aMS",%progbits,1
 5511              		.align	2
 5512              	.LC11:
 5513 0000 696E7661 		.ascii	"invalid socket state for err callback\000"
 5513      6C696420 
 5513      736F636B 
 5513      65742073 
 5513      74617465 
 5514              		.section	.rodata.tcp_kill_state.str1.4,"aMS",%progbits,1
 5515              		.align	2
 5516              	.LC26:
 5517 0000 696E7661 		.ascii	"invalid state\000"
 5517      6C696420 
 5517      73746174 
 5517      6500
 5518              		.section	.rodata.tcp_listen_closed.str1.4,"aMS",%progbits,1
 5519              		.align	2
 5520              	.LC0:
 5521 0000 4D696464 		.ascii	"Middlewares/Third_Party/LwIP/src/core/tcp.c\000"
 5521      6C657761 
 5521      7265732F 
ARM GAS  /tmp/cc6by9MY.s 			page 157


 5521      54686972 
 5521      645F5061 
 5522              	.LC1:
 5523 002c 70636220 		.ascii	"pcb != NULL\000"
 5523      213D204E 
 5523      554C4C00 
 5524              	.LC2:
 5525 0038 41737365 		.ascii	"Assertion \"%s\" failed at line %d in %s\012\000"
 5525      7274696F 
 5525      6E202225 
 5525      73222066 
 5525      61696C65 
 5526              	.LC3:
 5527 0060 7063622D 		.ascii	"pcb->state == LISTEN\000"
 5527      3E737461 
 5527      7465203D 
 5527      3D204C49 
 5527      5354454E 
 5528              		.section	.rodata.tcp_listen_with_backlog_and_err.str1.4,"aMS",%progbits,1
 5529              		.align	2
 5530              	.LC5:
 5531 0000 7463705F 		.ascii	"tcp_listen: pcb already connected\000"
 5531      6C697374 
 5531      656E3A20 
 5531      70636220 
 5531      616C7265 
 5532              		.section	.rodata.tcp_pcb_lists,"a"
 5533              		.align	2
 5534              		.set	.LANCHOR1,. + 0
 5537              	tcp_pcb_lists:
 5538 0000 00000000 		.word	tcp_listen_pcbs
 5539 0004 00000000 		.word	tcp_bound_pcbs
 5540 0008 00000000 		.word	tcp_active_pcbs
 5541 000c 00000000 		.word	tcp_tw_pcbs
 5542              		.section	.rodata.tcp_pcb_remove.str1.4,"aMS",%progbits,1
 5543              		.align	2
 5544              	.LC21:
 5545 0000 756E7365 		.ascii	"unsent segments leaking\000"
 5545      6E742073 
 5545      65676D65 
 5545      6E747320 
 5545      6C65616B 
 5546              	.LC22:
 5547 0018 756E6163 		.ascii	"unacked segments leaking\000"
 5547      6B656420 
 5547      7365676D 
 5547      656E7473 
 5547      206C6561 
 5548 0031 000000   		.space	3
 5549              	.LC23:
 5550 0034 6F6F7365 		.ascii	"ooseq segments leaking\000"
 5550      71207365 
 5550      676D656E 
 5550      7473206C 
 5550      65616B69 
 5551              		.section	.rodata.tcp_persist_backoff,"a"
 5552              		.align	2
ARM GAS  /tmp/cc6by9MY.s 			page 158


 5553              		.set	.LANCHOR3,. + 0
 5556              	tcp_persist_backoff:
 5557 0000 03       		.byte	3
 5558 0001 06       		.byte	6
 5559 0002 0C       		.byte	12
 5560 0003 18       		.byte	24
 5561 0004 30       		.byte	48
 5562 0005 60       		.byte	96
 5563 0006 78       		.byte	120
 5564              		.section	.rodata.tcp_poll.str1.4,"aMS",%progbits,1
 5565              		.align	2
 5566              	.LC12:
 5567 0000 696E7661 		.ascii	"invalid socket state for poll\000"
 5567      6C696420 
 5567      736F636B 
 5567      65742073 
 5567      74617465 
 5568              		.section	.rodata.tcp_recv.str1.4,"aMS",%progbits,1
 5569              		.align	2
 5570              	.LC9:
 5571 0000 696E7661 		.ascii	"invalid socket state for recv callback\000"
 5571      6C696420 
 5571      736F636B 
 5571      65742073 
 5571      74617465 
 5572              		.section	.rodata.tcp_recved.str1.4,"aMS",%progbits,1
 5573              		.align	2
 5574              	.LC7:
 5575 0000 646F6E27 		.ascii	"don't call tcp_recved for listen-pcbs\000"
 5575      74206361 
 5575      6C6C2074 
 5575      63705F72 
 5575      65637665 
 5576 0026 0000     		.space	2
 5577              	.LC8:
 5578 0028 7463705F 		.ascii	"tcp_recved: len wrapped rcv_wnd\012\000"
 5578      72656376 
 5578      65643A20 
 5578      6C656E20 
 5578      77726170 
 5579              		.section	.rodata.tcp_sent.str1.4,"aMS",%progbits,1
 5580              		.align	2
 5581              	.LC10:
 5582 0000 696E7661 		.ascii	"invalid socket state for sent callback\000"
 5582      6C696420 
 5582      736F636B 
 5582      65742073 
 5582      74617465 
 5583              		.section	.rodata.tcp_slowtmr.str1.4,"aMS",%progbits,1
 5584              		.align	2
 5585              	.LC13:
 5586 0000 7463705F 		.ascii	"tcp_slowtmr: active pcb->state != CLOSED\012\000"
 5586      736C6F77 
 5586      746D723A 
 5586      20616374 
 5586      69766520 
 5587 002a 0000     		.space	2
ARM GAS  /tmp/cc6by9MY.s 			page 159


 5588              	.LC14:
 5589 002c 7463705F 		.ascii	"tcp_slowtmr: active pcb->state != LISTEN\012\000"
 5589      736C6F77 
 5589      746D723A 
 5589      20616374 
 5589      69766520 
 5590 0056 0000     		.space	2
 5591              	.LC15:
 5592 0058 7463705F 		.ascii	"tcp_slowtmr: active pcb->state != TIME-WAIT\012\000"
 5592      736C6F77 
 5592      746D723A 
 5592      20616374 
 5592      69766520 
 5593 0085 000000   		.space	3
 5594              	.LC16:
 5595 0088 7463705F 		.ascii	"tcp_slowtmr: middle tcp != tcp_active_pcbs\000"
 5595      736C6F77 
 5595      746D723A 
 5595      206D6964 
 5595      646C6520 
 5596 00b3 00       		.space	1
 5597              	.LC17:
 5598 00b4 7463705F 		.ascii	"tcp_slowtmr: first pcb == tcp_active_pcbs\000"
 5598      736C6F77 
 5598      746D723A 
 5598      20666972 
 5598      73742070 
 5599 00de 0000     		.space	2
 5600              	.LC18:
 5601 00e0 7463705F 		.ascii	"tcp_slowtmr: TIME-WAIT pcb->state == TIME-WAIT\000"
 5601      736C6F77 
 5601      746D723A 
 5601      2054494D 
 5601      452D5741 
 5602 010f 00       		.space	1
 5603              	.LC19:
 5604 0110 7463705F 		.ascii	"tcp_slowtmr: middle tcp != tcp_tw_pcbs\000"
 5604      736C6F77 
 5604      746D723A 
 5604      206D6964 
 5604      646C6520 
 5605 0137 00       		.space	1
 5606              	.LC20:
 5607 0138 7463705F 		.ascii	"tcp_slowtmr: first pcb == tcp_tw_pcbs\000"
 5607      736C6F77 
 5607      746D723A 
 5607      20666972 
 5607      73742070 
 5608              		.section	.rodata.tcp_state_str,"a"
 5609              		.align	2
 5610              		.set	.LANCHOR7,. + 0
 5613              	tcp_state_str:
 5614 0000 00000000 		.word	.LC28
 5615 0004 08000000 		.word	.LC29
 5616 0008 10000000 		.word	.LC30
 5617 000c 1C000000 		.word	.LC31
 5618 0010 28000000 		.word	.LC32
ARM GAS  /tmp/cc6by9MY.s 			page 160


 5619 0014 34000000 		.word	.LC33
 5620 0018 40000000 		.word	.LC34
 5621 001c 4C000000 		.word	.LC35
 5622 0020 58000000 		.word	.LC36
 5623 0024 60000000 		.word	.LC37
 5624 0028 6C000000 		.word	.LC38
 5625              		.section	.rodata.tcp_update_rcv_ann_wnd.str1.4,"aMS",%progbits,1
 5626              		.align	2
 5627              	.LC6:
 5628 0000 6E65775F 		.ascii	"new_rcv_ann_wnd <= 0xffff\000"
 5628      7263765F 
 5628      616E6E5F 
 5628      776E6420 
 5628      3C3D2030 
 5629              		.text
 5630              	.Letext0:
 5631              		.file 2 "/usr/arm-none-eabi/include/machine/_default_types.h"
 5632              		.file 3 "/usr/arm-none-eabi/include/sys/_stdint.h"
 5633              		.file 4 "Drivers/CMSIS/Include/core_cm7.h"
 5634              		.file 5 "Drivers/CMSIS/Device/ST/STM32F7xx/Include/system_stm32f7xx.h"
 5635              		.file 6 "/usr/lib/gcc/arm-none-eabi/8.3.0/include/stddef.h"
 5636              		.file 7 "/usr/arm-none-eabi/include/sys/lock.h"
 5637              		.file 8 "/usr/arm-none-eabi/include/sys/_types.h"
 5638              		.file 9 "/usr/arm-none-eabi/include/sys/reent.h"
 5639              		.file 10 "/usr/arm-none-eabi/include/stdlib.h"
 5640              		.file 11 "/usr/arm-none-eabi/include/time.h"
 5641              		.file 12 "Middlewares/Third_Party/LwIP/src/include/lwip/arch.h"
 5642              		.file 13 "Middlewares/Third_Party/LwIP/src/include/lwip/priv/memp_priv.h"
 5643              		.file 14 "Middlewares/Third_Party/LwIP/src/include/lwip/memp.h"
 5644              		.file 15 "Middlewares/Third_Party/LwIP/src/include/lwip/err.h"
 5645              		.file 16 "Middlewares/Third_Party/LwIP/src/include/lwip/pbuf.h"
 5646              		.file 17 "Middlewares/Third_Party/LwIP/src/include/lwip/ip4_addr.h"
 5647              		.file 18 "Middlewares/Third_Party/LwIP/src/include/lwip/ip_addr.h"
 5648              		.file 19 "Middlewares/Third_Party/LwIP/src/include/lwip/netif.h"
 5649              		.file 20 "Middlewares/Third_Party/LwIP/src/include/lwip/prot/ip4.h"
 5650              		.file 21 "Middlewares/Third_Party/LwIP/src/include/lwip/ip.h"
 5651              		.file 22 "Middlewares/Third_Party/LwIP/src/include/lwip/tcp.h"
 5652              		.file 23 "Middlewares/Third_Party/LwIP/src/include/lwip/priv/tcp_priv.h"
 5653              		.file 24 "Middlewares/Third_Party/LwIP/src/include/lwip/prot/tcp.h"
 5654              		.file 25 "Middlewares/Third_Party/LwIP/src/include/lwip/ip4.h"
 5655              		.file 26 "/usr/arm-none-eabi/include/stdio.h"
 5656              		.file 27 "<built-in>"
ARM GAS  /tmp/cc6by9MY.s 			page 161


DEFINED SYMBOLS
                            *ABS*:0000000000000000 tcp.c
     /tmp/cc6by9MY.s:18     .text.tcp_remove_listener:0000000000000000 $t
     /tmp/cc6by9MY.s:25     .text.tcp_remove_listener:0000000000000000 tcp_remove_listener
     /tmp/cc6by9MY.s:65     .text.tcp_new_port:0000000000000000 $t
     /tmp/cc6by9MY.s:71     .text.tcp_new_port:0000000000000000 tcp_new_port
     /tmp/cc6by9MY.s:193    .text.tcp_new_port:000000000000005c $d
     /tmp/cc6by9MY.s:199    .text.tcp_listen_closed:0000000000000000 $t
     /tmp/cc6by9MY.s:205    .text.tcp_listen_closed:0000000000000000 tcp_listen_closed
     /tmp/cc6by9MY.s:286    .text.tcp_listen_closed:0000000000000044 $d
     /tmp/cc6by9MY.s:295    .text.tcp_close_shutdown_fin:0000000000000000 $t
     /tmp/cc6by9MY.s:301    .text.tcp_close_shutdown_fin:0000000000000000 tcp_close_shutdown_fin
     /tmp/cc6by9MY.s:433    .text.tcp_close_shutdown_fin:0000000000000078 $d
     /tmp/cc6by9MY.s:440    .text.tcp_init:0000000000000000 $t
     /tmp/cc6by9MY.s:447    .text.tcp_init:0000000000000000 tcp_init
     /tmp/cc6by9MY.s:460    .text.tcp_bind:0000000000000000 $t
     /tmp/cc6by9MY.s:467    .text.tcp_bind:0000000000000000 tcp_bind
     /tmp/cc6by9MY.s:662    .text.tcp_bind:00000000000000b0 $d
                            *COM*:0000000000000004 tcp_bound_pcbs
     /tmp/cc6by9MY.s:672    .text.tcp_listen_with_backlog_and_err:0000000000000000 $t
     /tmp/cc6by9MY.s:679    .text.tcp_listen_with_backlog_and_err:0000000000000000 tcp_listen_with_backlog_and_err
     /tmp/cc6by9MY.s:881    .text.tcp_listen_with_backlog_and_err:00000000000000a8 $d
     /tmp/cc6by9MY.s:4171   .text.tcp_accept_null:0000000000000000 tcp_accept_null
                            *COM*:0000000000000004 tcp_listen_pcbs
     /tmp/cc6by9MY.s:891    .text.tcp_listen_with_backlog:0000000000000000 $t
     /tmp/cc6by9MY.s:898    .text.tcp_listen_with_backlog:0000000000000000 tcp_listen_with_backlog
     /tmp/cc6by9MY.s:922    .text.tcp_update_rcv_ann_wnd:0000000000000000 $t
     /tmp/cc6by9MY.s:929    .text.tcp_update_rcv_ann_wnd:0000000000000000 tcp_update_rcv_ann_wnd
     /tmp/cc6by9MY.s:1030   .text.tcp_update_rcv_ann_wnd:0000000000000050 $d
     /tmp/cc6by9MY.s:1038   .text.tcp_recved:0000000000000000 $t
     /tmp/cc6by9MY.s:1045   .text.tcp_recved:0000000000000000 tcp_recved
     /tmp/cc6by9MY.s:1162   .text.tcp_recved:0000000000000074 $d
     /tmp/cc6by9MY.s:1170   .text.tcp_txnow:0000000000000000 $t
     /tmp/cc6by9MY.s:1177   .text.tcp_txnow:0000000000000000 tcp_txnow
     /tmp/cc6by9MY.s:1222   .text.tcp_txnow:0000000000000020 $d
                            *COM*:0000000000000004 tcp_active_pcbs
     /tmp/cc6by9MY.s:1227   .text.tcp_seg_free:0000000000000000 $t
     /tmp/cc6by9MY.s:1234   .text.tcp_seg_free:0000000000000000 tcp_seg_free
     /tmp/cc6by9MY.s:1280   .text.tcp_segs_free:0000000000000000 $t
     /tmp/cc6by9MY.s:1287   .text.tcp_segs_free:0000000000000000 tcp_segs_free
     /tmp/cc6by9MY.s:1334   .text.tcp_setprio:0000000000000000 $t
     /tmp/cc6by9MY.s:1341   .text.tcp_setprio:0000000000000000 tcp_setprio
     /tmp/cc6by9MY.s:1358   .text.tcp_seg_copy:0000000000000000 $t
     /tmp/cc6by9MY.s:1365   .text.tcp_seg_copy:0000000000000000 tcp_seg_copy
     /tmp/cc6by9MY.s:1418   .text.tcp_arg:0000000000000000 $t
     /tmp/cc6by9MY.s:1425   .text.tcp_arg:0000000000000000 tcp_arg
     /tmp/cc6by9MY.s:1446   .text.tcp_recv:0000000000000000 $t
     /tmp/cc6by9MY.s:1453   .text.tcp_recv:0000000000000000 tcp_recv
     /tmp/cc6by9MY.s:1513   .text.tcp_recv:0000000000000028 $d
     /tmp/cc6by9MY.s:1520   .text.tcp_sent:0000000000000000 $t
     /tmp/cc6by9MY.s:1527   .text.tcp_sent:0000000000000000 tcp_sent
     /tmp/cc6by9MY.s:1587   .text.tcp_sent:0000000000000024 $d
     /tmp/cc6by9MY.s:1594   .text.tcp_err:0000000000000000 $t
     /tmp/cc6by9MY.s:1601   .text.tcp_err:0000000000000000 tcp_err
     /tmp/cc6by9MY.s:1661   .text.tcp_err:0000000000000028 $d
     /tmp/cc6by9MY.s:1668   .text.tcp_accept:0000000000000000 $t
     /tmp/cc6by9MY.s:1675   .text.tcp_accept:0000000000000000 tcp_accept
ARM GAS  /tmp/cc6by9MY.s 			page 162


     /tmp/cc6by9MY.s:1708   .text.tcp_poll:0000000000000000 $t
     /tmp/cc6by9MY.s:1715   .text.tcp_poll:0000000000000000 tcp_poll
     /tmp/cc6by9MY.s:1768   .text.tcp_poll:0000000000000028 $d
     /tmp/cc6by9MY.s:1775   .text.tcp_pcb_purge:0000000000000000 $t
     /tmp/cc6by9MY.s:1782   .text.tcp_pcb_purge:0000000000000000 tcp_pcb_purge
     /tmp/cc6by9MY.s:1872   .text.tcp_slowtmr:0000000000000000 $t
     /tmp/cc6by9MY.s:1879   .text.tcp_slowtmr:0000000000000000 tcp_slowtmr
     /tmp/cc6by9MY.s:2544   .text.tcp_slowtmr:00000000000002b4 $d
                            *COM*:0000000000000004 tcp_ticks
                            *COM*:0000000000000001 tcp_active_pcbs_changed
     /tmp/cc6by9MY.s:2562   .text.tcp_slowtmr:00000000000002f0 $t
     /tmp/cc6by9MY.s:2795   .text.tcp_slowtmr:00000000000003e0 $d
                            *COM*:0000000000000004 tcp_tw_pcbs
     /tmp/cc6by9MY.s:2808   .text.tcp_pcb_remove:0000000000000000 $t
     /tmp/cc6by9MY.s:2815   .text.tcp_pcb_remove:0000000000000000 tcp_pcb_remove
     /tmp/cc6by9MY.s:2959   .text.tcp_pcb_remove:0000000000000090 $d
     /tmp/cc6by9MY.s:2968   .text.tcp_close_shutdown:0000000000000000 $t
     /tmp/cc6by9MY.s:2974   .text.tcp_close_shutdown:0000000000000000 tcp_close_shutdown
     /tmp/cc6by9MY.s:3287   .text.tcp_close_shutdown:000000000000012c $d
     /tmp/cc6by9MY.s:3300   .text.tcp_close:0000000000000000 $t
     /tmp/cc6by9MY.s:3307   .text.tcp_close:0000000000000000 tcp_close
     /tmp/cc6by9MY.s:3345   .text.tcp_recv_null:0000000000000000 $t
     /tmp/cc6by9MY.s:3352   .text.tcp_recv_null:0000000000000000 tcp_recv_null
     /tmp/cc6by9MY.s:3410   .text.tcp_process_refused_data:0000000000000000 $t
     /tmp/cc6by9MY.s:3417   .text.tcp_process_refused_data:0000000000000000 tcp_process_refused_data
     /tmp/cc6by9MY.s:3541   .text.tcp_fasttmr:0000000000000000 $t
     /tmp/cc6by9MY.s:3548   .text.tcp_fasttmr:0000000000000000 tcp_fasttmr
     /tmp/cc6by9MY.s:3683   .text.tcp_fasttmr:0000000000000074 $d
     /tmp/cc6by9MY.s:3690   .text.tcp_tmr:0000000000000000 $t
     /tmp/cc6by9MY.s:3697   .text.tcp_tmr:0000000000000000 tcp_tmr
     /tmp/cc6by9MY.s:3733   .text.tcp_tmr:0000000000000020 $d
     /tmp/cc6by9MY.s:3738   .text.tcp_shutdown:0000000000000000 $t
     /tmp/cc6by9MY.s:3745   .text.tcp_shutdown:0000000000000000 tcp_shutdown
     /tmp/cc6by9MY.s:3864   .text.tcp_abandon:0000000000000000 $t
     /tmp/cc6by9MY.s:3871   .text.tcp_abandon:0000000000000000 tcp_abandon
     /tmp/cc6by9MY.s:4123   .text.tcp_abandon:00000000000000dc $d
     /tmp/cc6by9MY.s:4135   .text.tcp_abort:0000000000000000 $t
     /tmp/cc6by9MY.s:4142   .text.tcp_abort:0000000000000000 tcp_abort
     /tmp/cc6by9MY.s:4165   .text.tcp_accept_null:0000000000000000 $t
     /tmp/cc6by9MY.s:4200   .text.tcp_kill_timewait:0000000000000000 $t
     /tmp/cc6by9MY.s:4206   .text.tcp_kill_timewait:0000000000000000 tcp_kill_timewait
     /tmp/cc6by9MY.s:4276   .text.tcp_kill_timewait:000000000000002c $d
     /tmp/cc6by9MY.s:4282   .text.tcp_kill_prio:0000000000000000 $t
     /tmp/cc6by9MY.s:4288   .text.tcp_kill_prio:0000000000000000 tcp_kill_prio
     /tmp/cc6by9MY.s:4386   .text.tcp_kill_prio:0000000000000040 $d
     /tmp/cc6by9MY.s:4392   .text.tcp_netif_ip_addr_changed_pcblist:0000000000000000 $t
     /tmp/cc6by9MY.s:4398   .text.tcp_netif_ip_addr_changed_pcblist:0000000000000000 tcp_netif_ip_addr_changed_pcblist
     /tmp/cc6by9MY.s:4462   .text.tcp_kill_state:0000000000000000 $t
     /tmp/cc6by9MY.s:4468   .text.tcp_kill_state:0000000000000000 tcp_kill_state
     /tmp/cc6by9MY.s:4570   .text.tcp_kill_state:0000000000000050 $d
     /tmp/cc6by9MY.s:4579   .text.tcp_alloc:0000000000000000 $t
     /tmp/cc6by9MY.s:4586   .text.tcp_alloc:0000000000000000 tcp_alloc
     /tmp/cc6by9MY.s:4757   .text.tcp_alloc:00000000000000b0 $d
     /tmp/cc6by9MY.s:4765   .text.tcp_new:0000000000000000 $t
     /tmp/cc6by9MY.s:4772   .text.tcp_new:0000000000000000 tcp_new
     /tmp/cc6by9MY.s:4794   .text.tcp_new_ip_type:0000000000000000 $t
     /tmp/cc6by9MY.s:4801   .text.tcp_new_ip_type:0000000000000000 tcp_new_ip_type
ARM GAS  /tmp/cc6by9MY.s 			page 163


     /tmp/cc6by9MY.s:4830   .text.tcp_next_iss:0000000000000000 $t
     /tmp/cc6by9MY.s:4837   .text.tcp_next_iss:0000000000000000 tcp_next_iss
     /tmp/cc6by9MY.s:4863   .text.tcp_next_iss:0000000000000010 $d
     /tmp/cc6by9MY.s:4869   .text.tcp_eff_send_mss_impl:0000000000000000 $t
     /tmp/cc6by9MY.s:4876   .text.tcp_eff_send_mss_impl:0000000000000000 tcp_eff_send_mss_impl
     /tmp/cc6by9MY.s:4933   .text.tcp_connect:0000000000000000 $t
     /tmp/cc6by9MY.s:4940   .text.tcp_connect:0000000000000000 tcp_connect
     /tmp/cc6by9MY.s:5259   .text.tcp_connect:0000000000000118 $d
     /tmp/cc6by9MY.s:5269   .text.tcp_netif_ip_addr_changed:0000000000000000 $t
     /tmp/cc6by9MY.s:5276   .text.tcp_netif_ip_addr_changed:0000000000000000 tcp_netif_ip_addr_changed
     /tmp/cc6by9MY.s:5374   .text.tcp_netif_ip_addr_changed:0000000000000048 $d
     /tmp/cc6by9MY.s:5381   .text.tcp_debug_state_str:0000000000000000 $t
     /tmp/cc6by9MY.s:5388   .text.tcp_debug_state_str:0000000000000000 tcp_debug_state_str
     /tmp/cc6by9MY.s:5406   .text.tcp_debug_state_str:0000000000000008 $d
     /tmp/cc6by9MY.s:5537   .rodata.tcp_pcb_lists:0000000000000000 tcp_pcb_lists
     /tmp/cc6by9MY.s:5421   .bss.tcp_timer:0000000000000000 tcp_timer
     /tmp/cc6by9MY.s:5422   .bss.tcp_timer:0000000000000000 $d
     /tmp/cc6by9MY.s:5427   .bss.tcp_timer_ctr:0000000000000000 tcp_timer_ctr
     /tmp/cc6by9MY.s:5428   .bss.tcp_timer_ctr:0000000000000000 $d
     /tmp/cc6by9MY.s:5430   .data.iss.12403:0000000000000000 $d
     /tmp/cc6by9MY.s:5434   .data.iss.12403:0000000000000000 iss.12403
     /tmp/cc6by9MY.s:5437   .data.tcp_port:0000000000000000 $d
     /tmp/cc6by9MY.s:5441   .data.tcp_port:0000000000000000 tcp_port
     /tmp/cc6by9MY.s:5444   .rodata.str1.4:0000000000000000 $d
     /tmp/cc6by9MY.s:5476   .rodata.tcp_abandon.str1.4:0000000000000000 $d
     /tmp/cc6by9MY.s:5480   .rodata.tcp_backoff:0000000000000000 $d
     /tmp/cc6by9MY.s:5484   .rodata.tcp_backoff:0000000000000000 tcp_backoff
     /tmp/cc6by9MY.s:5499   .rodata.tcp_bind.str1.4:0000000000000000 $d
     /tmp/cc6by9MY.s:5503   .rodata.tcp_close_shutdown.str1.4:0000000000000000 $d
     /tmp/cc6by9MY.s:5507   .rodata.tcp_connect.str1.4:0000000000000000 $d
     /tmp/cc6by9MY.s:5511   .rodata.tcp_err.str1.4:0000000000000000 $d
     /tmp/cc6by9MY.s:5515   .rodata.tcp_kill_state.str1.4:0000000000000000 $d
     /tmp/cc6by9MY.s:5519   .rodata.tcp_listen_closed.str1.4:0000000000000000 $d
     /tmp/cc6by9MY.s:5529   .rodata.tcp_listen_with_backlog_and_err.str1.4:0000000000000000 $d
     /tmp/cc6by9MY.s:5533   .rodata.tcp_pcb_lists:0000000000000000 $d
     /tmp/cc6by9MY.s:5543   .rodata.tcp_pcb_remove.str1.4:0000000000000000 $d
     /tmp/cc6by9MY.s:5552   .rodata.tcp_persist_backoff:0000000000000000 $d
     /tmp/cc6by9MY.s:5556   .rodata.tcp_persist_backoff:0000000000000000 tcp_persist_backoff
     /tmp/cc6by9MY.s:5565   .rodata.tcp_poll.str1.4:0000000000000000 $d
     /tmp/cc6by9MY.s:5569   .rodata.tcp_recv.str1.4:0000000000000000 $d
     /tmp/cc6by9MY.s:5573   .rodata.tcp_recved.str1.4:0000000000000000 $d
     /tmp/cc6by9MY.s:5580   .rodata.tcp_sent.str1.4:0000000000000000 $d
     /tmp/cc6by9MY.s:5584   .rodata.tcp_slowtmr.str1.4:0000000000000000 $d
     /tmp/cc6by9MY.s:5609   .rodata.tcp_state_str:0000000000000000 $d
     /tmp/cc6by9MY.s:5613   .rodata.tcp_state_str:0000000000000000 tcp_state_str
     /tmp/cc6by9MY.s:5626   .rodata.tcp_update_rcv_ann_wnd.str1.4:0000000000000000 $d

UNDEFINED SYMBOLS
printf
tcp_send_fin
tcp_output
tcp_timer_needed
ip_addr_any
memp_malloc
memp_free
pbuf_free
pbuf_ref
ARM GAS  /tmp/cc6by9MY.s 			page 164


tcp_zero_window_probe
tcp_rexmit_rto
tcp_keepalive
tcp_rst
tcp_trigger_input_pcb_close
tcp_input_pcb
memset
ip4_route
tcp_enqueue_flags
